ARM GAS  C:\Users\Admin\AppData\Local\Temp\ccIRWc5S.s 			page 1


   1              		.syntax unified
   2              		.cpu cortex-m0
   3              		.fpu softvfp
   4              		.eabi_attribute 20, 1
   5              		.eabi_attribute 21, 1
   6              		.eabi_attribute 23, 3
   7              		.eabi_attribute 24, 1
   8              		.eabi_attribute 25, 1
   9              		.eabi_attribute 26, 1
  10              		.eabi_attribute 30, 1
  11              		.eabi_attribute 34, 0
  12              		.eabi_attribute 18, 4
  13              		.thumb
  14              		.syntax unified
  15              		.file	"main.c"
  16              		.text
  17              	.Ltext0:
  18              		.cfi_sections	.debug_frame
  19              		.section	.text.Reset_ISR,"ax",%progbits
  20              		.align	2
  21              		.global	Reset_ISR
  22              		.code	16
  23              		.thumb_func
  24              		.type	Reset_ISR, %function
  25              	Reset_ISR:
  26              	.LFB35:
  27              		.file 1 "main.c"
   1:main.c        **** /* ========================================
   2:main.c        ****  *
   3:main.c        ****  * Copyright YOUR COMPANY, THE YEAR
   4:main.c        ****  * All Rights Reserved
   5:main.c        ****  * UNPUBLISHED, LICENSED SOFTWARE.
   6:main.c        ****  *
   7:main.c        ****  * CONFIDENTIAL AND PROPRIETARY INFORMATION
   8:main.c        ****  * WHICH IS THE PROPERTY OF your company.
   9:main.c        ****  *
  10:main.c        ****  * ========================================
  11:main.c        **** */
  12:main.c        **** #include "project.h"
  13:main.c        **** #include <stdlib.h>
  14:main.c        **** #include "usbserialprotocol.h"
  15:main.c        **** #include "SW1.h"
  16:main.c        **** #include "Reset_isr.h"
  17:main.c        **** #include "aes.h"
  18:main.c        **** #include "SuperSecretHash.h"
  19:main.c        **** 
  20:main.c        **** // SECURITY MODULE
  21:main.c        **** 
  22:main.c        **** #define MAX_BILLS 128
  23:main.c        **** #define BILL_LEN 16
  24:main.c        **** #define UUID_LEN 36
  25:main.c        **** #define PROV_MSG "P"
  26:main.c        **** #define WITH_OK "K"
  27:main.c        **** #define WITH_BAD "BAD"
  28:main.c        **** #define RECV_OK "K"
  29:main.c        **** #define EMPTY "EMPTY"
  30:main.c        **** #define EMPTY_BILL "*****EMPTY*****"
ARM GAS  C:\Users\Admin\AppData\Local\Temp\ccIRWc5S.s 			page 2


  31:main.c        **** 
  32:main.c        **** /* 
  33:main.c        ****  * How to read from EEPROM (persistent memory):
  34:main.c        ****  * 
  35:main.c        ****  * // read variable:
  36:main.c        ****  * static const uint8 EEPROM_BUF_VAR[len] = { val1, val2, ... };
  37:main.c        ****  * // write variable:
  38:main.c        ****  * volatile const uint8 *ptr = EEPROM_BUF_VAR;
  39:main.c        ****  * 
  40:main.c        ****  * uint8 val1 = *ptr;
  41:main.c        ****  * uint8 buf[4] = { 0x01, 0x02, 0x03, 0x04 };
  42:main.c        ****  * USER_INFO_Write(message, EEPROM_BUF_VAR, 4u); 
  43:main.c        ****  */
  44:main.c        **** 
  45:main.c        **** // global EEPROM read variables
  46:main.c        **** static const uint8 MONEY[MAX_BILLS][BILL_LEN] = {EMPTY_BILL};
  47:main.c        **** static const uint8 BILLS_LEFT[1] = {0x00};
  48:main.c        **** static const uint8 ATM_UUID[36]={};
  49:main.c        **** static const uint8 FLAG=0;
  50:main.c        **** static const uint8 LAST_BILL[1]={0x00};
  51:main.c        **** 
  52:main.c        **** 
  53:main.c        **** // reset interrupt on button press
  54:main.c        **** CY_ISR(Reset_ISR)
  55:main.c        **** {
  28              		.loc 1 55 0
  29              		.cfi_startproc
  30              		@ args = 0, pretend = 0, frame = 0
  31              		@ frame_needed = 0, uses_anonymous_args = 0
  32 0000 10B5     		push	{r4, lr}
  33              		.cfi_def_cfa_offset 8
  34              		.cfi_offset 4, -8
  35              		.cfi_offset 14, -4
  56:main.c        ****     pushMessage((uint8*)"In interrupt\n", strlen("In interrupt\n"));
  36              		.loc 1 56 0
  37 0002 0D21     		movs	r1, #13
  38 0004 0348     		ldr	r0, .L2
  39 0006 FFF7FEFF 		bl	pushMessage
  40              	.LVL0:
  57:main.c        ****     SW1_ClearInterrupt();
  41              		.loc 1 57 0
  42 000a FFF7FEFF 		bl	SW1_ClearInterrupt
  43              	.LVL1:
  58:main.c        ****     CySoftwareReset();
  44              		.loc 1 58 0
  45 000e FFF7FEFF 		bl	CySoftwareReset
  46              	.LVL2:
  59:main.c        **** }
  47              		.loc 1 59 0
  48              		@ sp needed
  49 0012 10BD     		pop	{r4, pc}
  50              	.L3:
  51              		.align	2
  52              	.L2:
  53 0014 00000000 		.word	.LC0
  54              		.cfi_endproc
  55              	.LFE35:
ARM GAS  C:\Users\Admin\AppData\Local\Temp\ccIRWc5S.s 			page 3


  56              		.size	Reset_ISR, .-Reset_ISR
  57              		.section	.text.SALT_HASaltH_SALT,"ax",%progbits
  58              		.align	2
  59              		.global	SALT_HASaltH_SALT
  60              		.code	16
  61              		.thumb_func
  62              		.type	SALT_HASaltH_SALT, %function
  63              	SALT_HASaltH_SALT:
  64              	.LFB34:
  65              		.file 2 "SuperSecretHash.h"
   1:SuperSecretHash.h **** #include "SuperFastHash.h"
   2:SuperSecretHash.h **** #include "project.h"
   3:SuperSecretHash.h **** #include <stdlib.h>
   4:SuperSecretHash.h **** #include "usbserialprotocol.h"
   5:SuperSecretHash.h **** #include "SW1.h"
   6:SuperSecretHash.h **** #include "Reset_isr.h"
   7:SuperSecretHash.h **** 
   8:SuperSecretHash.h **** void SALT_HASaltH_SALT(char* data, char* extra_data, int extra_data_len, int len){
  66              		.loc 2 8 0
  67              		.cfi_startproc
  68              		@ args = 0, pretend = 0, frame = 8
  69              		@ frame_needed = 0, uses_anonymous_args = 0
  70              	.LVL3:
  71 0000 F0B5     		push	{r4, r5, r6, r7, lr}
  72              		.cfi_def_cfa_offset 20
  73              		.cfi_offset 4, -20
  74              		.cfi_offset 5, -16
  75              		.cfi_offset 6, -12
  76              		.cfi_offset 7, -8
  77              		.cfi_offset 14, -4
  78 0002 83B0     		sub	sp, sp, #12
  79              		.cfi_def_cfa_offset 32
  80 0004 0400     		movs	r4, r0
  81 0006 0D00     		movs	r5, r1
  82 0008 1F00     		movs	r7, r3
   9:SuperSecretHash.h ****     uint32 output;
  10:SuperSecretHash.h ****     char empty[4] = "";
  83              		.loc 2 10 0
  84 000a 0023     		movs	r3, #0
  85              	.LVL4:
  86 000c 0093     		str	r3, [sp]
  11:SuperSecretHash.h ****     strncat(&data[4], extra_data,  extra_data_len);
  87              		.loc 2 11 0
  88 000e 061D     		adds	r6, r0, #4
  89 0010 3000     		movs	r0, r6
  90              	.LVL5:
  91 0012 FFF7FEFF 		bl	strncat
  92              	.LVL6:
  12:SuperSecretHash.h ****     output = hash(data, len);
  93              		.loc 2 12 0
  94 0016 3900     		movs	r1, r7
  95 0018 2000     		movs	r0, r4
  96 001a FFF7FEFF 		bl	hash
  97              	.LVL7:
  98 001e 0190     		str	r0, [sp, #4]
  13:SuperSecretHash.h ****     memcpy(data, &output, 4);
  99              		.loc 2 13 0
ARM GAS  C:\Users\Admin\AppData\Local\Temp\ccIRWc5S.s 			page 4


 100 0020 0422     		movs	r2, #4
 101 0022 01A9     		add	r1, sp, #4
 102 0024 2000     		movs	r0, r4
 103 0026 FFF7FEFF 		bl	memcpy
 104              	.LVL8:
  14:SuperSecretHash.h ****     memcpy(&data[4], empty, 4);
 105              		.loc 2 14 0
 106 002a 0422     		movs	r2, #4
 107 002c 6946     		mov	r1, sp
 108 002e 3000     		movs	r0, r6
 109 0030 FFF7FEFF 		bl	memcpy
 110              	.LVL9:
  15:SuperSecretHash.h ****     memcpy(extra_data, empty,4);
 111              		.loc 2 15 0
 112 0034 0422     		movs	r2, #4
 113 0036 6946     		mov	r1, sp
 114 0038 2800     		movs	r0, r5
 115 003a FFF7FEFF 		bl	memcpy
 116              	.LVL10:
  16:SuperSecretHash.h **** }
 117              		.loc 2 16 0
 118 003e 03B0     		add	sp, sp, #12
 119              		@ sp needed
 120              	.LVL11:
 121              	.LVL12:
 122              	.LVL13:
 123              	.LVL14:
 124 0040 F0BD     		pop	{r4, r5, r6, r7, pc}
 125              		.cfi_endproc
 126              	.LFE34:
 127              		.size	SALT_HASaltH_SALT, .-SALT_HASaltH_SALT
 128 0042 C046     		.section	.text.provision,"ax",%progbits
 129              		.align	2
 130              		.global	provision
 131              		.code	16
 132              		.thumb_func
 133              		.type	provision, %function
 134              	provision:
 135              	.LFB36:
  60:main.c        **** 
  61:main.c        **** 
  62:main.c        **** // provisions HSM (should only ever be called once)
  63:main.c        **** void provision()
  64:main.c        **** {
 136              		.loc 1 64 0
 137              		.cfi_startproc
 138              		@ args = 0, pretend = 0, frame = 336
 139              		@ frame_needed = 0, uses_anonymous_args = 0
 140 0000 F0B5     		push	{r4, r5, r6, r7, lr}
 141              		.cfi_def_cfa_offset 20
 142              		.cfi_offset 4, -20
 143              		.cfi_offset 5, -16
 144              		.cfi_offset 6, -12
 145              		.cfi_offset 7, -8
 146              		.cfi_offset 14, -4
 147 0002 D5B0     		sub	sp, sp, #340
 148              		.cfi_def_cfa_offset 360
ARM GAS  C:\Users\Admin\AppData\Local\Temp\ccIRWc5S.s 			page 5


  65:main.c        ****     //General variables
  66:main.c        ****     int i;
  67:main.c        ****     uint8 message[36]="";
 149              		.loc 1 67 0
 150 0004 0024     		movs	r4, #0
 151 0006 4B94     		str	r4, [sp, #300]
 152 0008 2022     		movs	r2, #32
 153 000a 0021     		movs	r1, #0
 154 000c 4CA8     		add	r0, sp, #304
 155 000e FFF7FEFF 		bl	memset
 156              	.LVL15:
  68:main.c        ****     uint8 numbills;
  69:main.c        ****     //AES variables
  70:main.c        ****     struct AES_ctx ctx;
  71:main.c        ****     unsigned char AESkey[32];
  72:main.c        ****     //Hashing variables
  73:main.c        ****     char buf[8]="";
 157              		.loc 1 73 0
 158 0012 0494     		str	r4, [sp, #16]
 159 0014 0594     		str	r4, [sp, #20]
  74:main.c        ****     char temp[4]="";
 160              		.loc 1 74 0
 161 0016 0394     		str	r4, [sp, #12]
 162              	.LVL16:
  75:main.c        ****     unsigned char keyValues[8];
  76:main.c        ****     
  77:main.c        ****     //Initialize the stack of money
  78:main.c        ****     for(i = 0; i < 128; i++) {
 163              		.loc 1 78 0
 164 0018 07E0     		b	.L6
 165              	.LVL17:
 166              	.L7:
  79:main.c        ****         PIGGY_BANK_Write((uint8*)EMPTY_BILL, MONEY[i], BILL_LEN);
 167              		.loc 1 79 0 discriminator 3
 168 001a 2301     		lsls	r3, r4, #4
 169 001c 4E49     		ldr	r1, .L18
 170 001e C918     		adds	r1, r1, r3
 171 0020 1022     		movs	r2, #16
 172 0022 4E48     		ldr	r0, .L18+4
 173 0024 FFF7FEFF 		bl	PIGGY_BANK_Write
 174              	.LVL18:
  78:main.c        ****         PIGGY_BANK_Write((uint8*)EMPTY_BILL, MONEY[i], BILL_LEN);
 175              		.loc 1 78 0 discriminator 3
 176 0028 0134     		adds	r4, r4, #1
 177              	.LVL19:
 178              	.L6:
  78:main.c        ****         PIGGY_BANK_Write((uint8*)EMPTY_BILL, MONEY[i], BILL_LEN);
 179              		.loc 1 78 0 is_stmt 0 discriminator 1
 180 002a 7F2C     		cmp	r4, #127
 181 002c F5DD     		ble	.L7
  80:main.c        ****     }
  81:main.c        ****     
  82:main.c        ****     // synchronize with atm
  83:main.c        ****     syncConnection(SYNC_PROV);
 182              		.loc 1 83 0 is_stmt 1
 183 002e 0120     		movs	r0, #1
 184 0030 FFF7FEFF 		bl	syncConnection
ARM GAS  C:\Users\Admin\AppData\Local\Temp\ccIRWc5S.s 			page 6


 185              	.LVL20:
  84:main.c        ****     strcpy((char*)message, PROV_MSG);
 186              		.loc 1 84 0
 187 0034 4BAC     		add	r4, sp, #300
 188              	.LVL21:
 189 0036 5023     		movs	r3, #80
 190 0038 2380     		strh	r3, [r4]
  85:main.c        ****     pushMessage(message, (uint8)strlen(PROV_MSG));
 191              		.loc 1 85 0
 192 003a 0121     		movs	r1, #1
 193 003c 2000     		movs	r0, r4
 194 003e FFF7FEFF 		bl	pushMessage
 195              	.LVL22:
  86:main.c        ****     
  87:main.c        ****     // Pull the atm UUID
  88:main.c        ****     pullMessage(message);
 196              		.loc 1 88 0
 197 0042 2000     		movs	r0, r4
 198 0044 FFF7FEFF 		bl	pullMessage
 199              	.LVL23:
  89:main.c        ****     PIGGY_BANK_Write(message,ATM_UUID, 36);
 200              		.loc 1 89 0
 201 0048 454D     		ldr	r5, .L18+8
 202 004a 2422     		movs	r2, #36
 203 004c 2900     		movs	r1, r5
 204 004e 2000     		movs	r0, r4
 205 0050 FFF7FEFF 		bl	PIGGY_BANK_Write
 206              	.LVL24:
  90:main.c        ****     pushMessage((uint8*)RECV_OK, strlen(RECV_OK));
 207              		.loc 1 90 0
 208 0054 434E     		ldr	r6, .L18+12
 209 0056 0121     		movs	r1, #1
 210 0058 3000     		movs	r0, r6
 211 005a FFF7FEFF 		bl	pushMessage
 212              	.LVL25:
  91:main.c        ****     
  92:main.c        ****     // Get numbills
  93:main.c        ****     pullMessage(message);
 213              		.loc 1 93 0
 214 005e 2000     		movs	r0, r4
 215 0060 FFF7FEFF 		bl	pullMessage
 216              	.LVL26:
  94:main.c        ****     pushMessage((uint8*)RECV_OK, strlen(RECV_OK));
 217              		.loc 1 94 0
 218 0064 0121     		movs	r1, #1
 219 0066 3000     		movs	r0, r6
 220 0068 FFF7FEFF 		bl	pushMessage
 221              	.LVL27:
  95:main.c        ****     numbills = message[0];
 222              		.loc 1 95 0
 223 006c 2378     		ldrb	r3, [r4]
 224 006e 2C20     		movs	r0, #44
 225 0070 FF30     		adds	r0, r0, #255
 226 0072 6844     		add	r0, r0, sp
 227 0074 0370     		strb	r3, [r0]
  96:main.c        ****     PIGGY_BANK_Write(&numbills, BILLS_LEFT, 1u);
 228              		.loc 1 96 0
ARM GAS  C:\Users\Admin\AppData\Local\Temp\ccIRWc5S.s 			page 7


 229 0076 2900     		movs	r1, r5
 230 0078 2431     		adds	r1, r1, #36
 231 007a 0122     		movs	r2, #1
 232 007c FFF7FEFF 		bl	PIGGY_BANK_Write
 233              	.LVL28:
  97:main.c        ****     // Grab the some what unique values of the PSOC card
  98:main.c        ****     keyValues[0]  =  (unsigned char)(* (reg8 *) CYREG_SFLASH_DIE_LOT0) ;
 234              		.loc 1 98 0
 235 0080 394B     		ldr	r3, .L18+16
 236 0082 1A78     		ldrb	r2, [r3]
 237 0084 01AB     		add	r3, sp, #4
 238 0086 1A70     		strb	r2, [r3]
  99:main.c        ****     keyValues[1] = (unsigned char)(* (reg8 *) CYREG_SFLASH_DIE_LOT1  ) ;
 239              		.loc 1 99 0
 240 0088 384A     		ldr	r2, .L18+20
 241 008a 1278     		ldrb	r2, [r2]
 242 008c 5A70     		strb	r2, [r3, #1]
 100:main.c        ****     keyValues[2] = (unsigned char)(* (reg8 *) CYREG_SFLASH_DIE_LOT2  ) ;
 243              		.loc 1 100 0
 244 008e 384A     		ldr	r2, .L18+24
 245 0090 1278     		ldrb	r2, [r2]
 246 0092 9A70     		strb	r2, [r3, #2]
 101:main.c        ****     keyValues[3] = (unsigned char)(* (reg8 *) CYREG_SFLASH_DIE_WAFER ) ;
 247              		.loc 1 101 0
 248 0094 374A     		ldr	r2, .L18+28
 249 0096 1278     		ldrb	r2, [r2]
 250 0098 DA70     		strb	r2, [r3, #3]
 102:main.c        **** 
 103:main.c        ****     keyValues[4]  =  (unsigned char)(* (reg8 *) CYREG_SFLASH_DIE_X   ) ;
 251              		.loc 1 103 0
 252 009a 374A     		ldr	r2, .L18+32
 253 009c 1278     		ldrb	r2, [r2]
 254 009e 1A71     		strb	r2, [r3, #4]
 104:main.c        ****     keyValues[5] = (unsigned char)(* (reg8 *) CYREG_SFLASH_DIE_Y     ) ;
 255              		.loc 1 104 0
 256 00a0 364A     		ldr	r2, .L18+36
 257 00a2 1278     		ldrb	r2, [r2]
 258 00a4 5A71     		strb	r2, [r3, #5]
 105:main.c        ****     keyValues[6] = (unsigned char)(* (reg8 *) CYREG_SFLASH_DIE_SORT  ) ;
 259              		.loc 1 105 0
 260 00a6 364A     		ldr	r2, .L18+40
 261 00a8 1278     		ldrb	r2, [r2]
 262 00aa 9A71     		strb	r2, [r3, #6]
 106:main.c        ****     keyValues[7] = (unsigned char)(* (reg8 *) CYREG_SFLASH_DIE_MINOR ) ;
 263              		.loc 1 106 0
 264 00ac 354A     		ldr	r2, .L18+44
 265 00ae 1278     		ldrb	r2, [r2]
 266 00b0 DA71     		strb	r2, [r3, #7]
 107:main.c        ****     //Generate our AES Key
 108:main.c        ****     memcpy(buf, ATM_UUID, 4);
 267              		.loc 1 108 0
 268 00b2 2B68     		ldr	r3, [r5]
 269 00b4 0493     		str	r3, [sp, #16]
 270              	.LVL29:
 271              	.LBB2:
 109:main.c        ****     for(int x=0; x < 8; x=x+1)
 272              		.loc 1 109 0
ARM GAS  C:\Users\Admin\AppData\Local\Temp\ccIRWc5S.s 			page 8


 273 00b6 0027     		movs	r7, #0
 274 00b8 27E0     		b	.L8
 275              	.LVL30:
 276              	.L9:
 277              	.LBB3:
 278              	.LBB4:
 279              	.LBB5:
 110:main.c        ****     {
 111:main.c        ****         for(int y=0; y < 7; y=y+1)
 112:main.c        ****         {
 113:main.c        ****             for(int z=0; z < 7; z=z+1)
 114:main.c        ****             {
 115:main.c        ****                 for(int w=0; w < 7; w=w+1)
 116:main.c        ****                 {
 117:main.c        ****                     //Copy over the specific key values
 118:main.c        ****                     memcpy(&temp[0], &keyValues[x],1);
 280              		.loc 1 118 0 discriminator 3
 281 00ba 03AB     		add	r3, sp, #12
 282 00bc 01AA     		add	r2, sp, #4
 283 00be D15D     		ldrb	r1, [r2, r7]
 284 00c0 1970     		strb	r1, [r3]
 119:main.c        ****                     memcpy(&temp[1], &keyValues[y],1);
 285              		.loc 1 119 0 discriminator 3
 286 00c2 915D     		ldrb	r1, [r2, r6]
 287 00c4 5970     		strb	r1, [r3, #1]
 120:main.c        ****                     memcpy(&temp[2], &keyValues[z],1);
 288              		.loc 1 120 0 discriminator 3
 289 00c6 515D     		ldrb	r1, [r2, r5]
 290 00c8 9970     		strb	r1, [r3, #2]
 121:main.c        ****                     memcpy(&temp[3], &keyValues[w],1);
 291              		.loc 1 121 0 discriminator 3
 292 00ca 125D     		ldrb	r2, [r2, r4]
 293 00cc DA70     		strb	r2, [r3, #3]
 122:main.c        ****                     //Call this awesome function to do magic
 123:main.c        ****                     SALT_HASaltH_SALT(buf, temp, 4, 8);
 294              		.loc 1 123 0 discriminator 3
 295 00ce 0823     		movs	r3, #8
 296 00d0 0422     		movs	r2, #4
 297 00d2 03A9     		add	r1, sp, #12
 298 00d4 04A8     		add	r0, sp, #16
 299 00d6 FFF7FEFF 		bl	SALT_HASaltH_SALT
 300              	.LVL31:
 115:main.c        ****                 {
 301              		.loc 1 115 0 discriminator 3
 302 00da 0134     		adds	r4, r4, #1
 303              	.LVL32:
 304 00dc 00E0     		b	.L10
 305              	.LVL33:
 306              	.L15:
 307              	.LBE5:
 308 00de 0024     		movs	r4, #0
 309              	.L10:
 310              	.LVL34:
 311              	.LBB6:
 115:main.c        ****                 {
 312              		.loc 1 115 0 is_stmt 0 discriminator 1
 313 00e0 062C     		cmp	r4, #6
ARM GAS  C:\Users\Admin\AppData\Local\Temp\ccIRWc5S.s 			page 9


 314 00e2 EADD     		ble	.L9
 315              	.LBE6:
 113:main.c        ****             {
 316              		.loc 1 113 0 is_stmt 1 discriminator 2
 317 00e4 0135     		adds	r5, r5, #1
 318              	.LVL35:
 319 00e6 00E0     		b	.L11
 320              	.LVL36:
 321              	.L16:
 322              	.LBE4:
 323 00e8 0025     		movs	r5, #0
 324              	.L11:
 325              	.LVL37:
 326              	.LBB7:
 113:main.c        ****             {
 327              		.loc 1 113 0 is_stmt 0 discriminator 1
 328 00ea 062D     		cmp	r5, #6
 329 00ec F7DD     		ble	.L15
 330              	.LBE7:
 111:main.c        ****         {
 331              		.loc 1 111 0 is_stmt 1 discriminator 2
 332 00ee 0136     		adds	r6, r6, #1
 333              	.LVL38:
 334 00f0 00E0     		b	.L12
 335              	.LVL39:
 336              	.L17:
 337              	.LBE3:
 338 00f2 0026     		movs	r6, #0
 339              	.L12:
 340              	.LVL40:
 341              	.LBB8:
 111:main.c        ****         {
 342              		.loc 1 111 0 is_stmt 0 discriminator 1
 343 00f4 062E     		cmp	r6, #6
 344 00f6 F7DD     		ble	.L16
 345              	.LBE8:
 124:main.c        ****                 }
 125:main.c        ****                 
 126:main.c        ****             }
 127:main.c        ****         }
 128:main.c        ****         memcpy(&AESkey[x*4], buf, 4);
 346              		.loc 1 128 0 is_stmt 1 discriminator 2
 347 00f8 B800     		lsls	r0, r7, #2
 348 00fa 06AB     		add	r3, sp, #24
 349 00fc 9C46     		mov	ip, r3
 350 00fe 6044     		add	r0, r0, ip
 351 0100 0422     		movs	r2, #4
 352 0102 04A9     		add	r1, sp, #16
 353 0104 FFF7FEFF 		bl	memcpy
 354              	.LVL41:
 109:main.c        ****     {
 355              		.loc 1 109 0 discriminator 2
 356 0108 0137     		adds	r7, r7, #1
 357              	.LVL42:
 358              	.L8:
 109:main.c        ****     {
 359              		.loc 1 109 0 is_stmt 0 discriminator 1
ARM GAS  C:\Users\Admin\AppData\Local\Temp\ccIRWc5S.s 			page 10


 360 010a 072F     		cmp	r7, #7
 361 010c F1DD     		ble	.L17
 362              	.LBE2:
 129:main.c        ****     }
 130:main.c        ****     //Send our AES Key to the bank
 131:main.c        ****     pushMessage(AESkey, 32);
 363              		.loc 1 131 0 is_stmt 1
 364 010e 2021     		movs	r1, #32
 365 0110 06A8     		add	r0, sp, #24
 366 0112 FFF7FEFF 		bl	pushMessage
 367              	.LVL43:
 132:main.c        ****     
 133:main.c        ****     AES_init_ctx(&ctx, AESkey);
 368              		.loc 1 133 0
 369 0116 06A9     		add	r1, sp, #24
 370 0118 0EA8     		add	r0, sp, #56
 371 011a FFF7FEFF 		bl	AES_init_ctx
 372              	.LVL44:
 134:main.c        ****     // Load bills
 135:main.c        ****     for (i = 0; i < numbills; i++) {
 373              		.loc 1 135 0
 374 011e 0024     		movs	r4, #0
 375 0120 12E0     		b	.L13
 376              	.LVL45:
 377              	.L14:
 136:main.c        ****         pullMessage(message);    
 378              		.loc 1 136 0 discriminator 3
 379 0122 4BA8     		add	r0, sp, #300
 380 0124 FFF7FEFF 		bl	pullMessage
 381              	.LVL46:
 137:main.c        ****         AES_ECB_encrypt(&ctx, message);
 382              		.loc 1 137 0 discriminator 3
 383 0128 4BA9     		add	r1, sp, #300
 384 012a 0EA8     		add	r0, sp, #56
 385 012c FFF7FEFF 		bl	AES_ECB_encrypt
 386              	.LVL47:
 138:main.c        ****         PIGGY_BANK_Write(message, MONEY[i], BILL_LEN);
 387              		.loc 1 138 0 discriminator 3
 388 0130 2301     		lsls	r3, r4, #4
 389 0132 0949     		ldr	r1, .L18
 390 0134 C918     		adds	r1, r1, r3
 391 0136 1022     		movs	r2, #16
 392 0138 4BA8     		add	r0, sp, #300
 393 013a FFF7FEFF 		bl	PIGGY_BANK_Write
 394              	.LVL48:
 139:main.c        ****         pushMessage((uint8*)RECV_OK, strlen(RECV_OK));
 395              		.loc 1 139 0 discriminator 3
 396 013e 0121     		movs	r1, #1
 397 0140 0848     		ldr	r0, .L18+12
 398 0142 FFF7FEFF 		bl	pushMessage
 399              	.LVL49:
 135:main.c        ****         pullMessage(message);    
 400              		.loc 1 135 0 discriminator 3
 401 0146 0134     		adds	r4, r4, #1
 402              	.LVL50:
 403              	.L13:
 135:main.c        ****         pullMessage(message);    
ARM GAS  C:\Users\Admin\AppData\Local\Temp\ccIRWc5S.s 			page 11


 404              		.loc 1 135 0 is_stmt 0 discriminator 1
 405 0148 2C23     		movs	r3, #44
 406 014a FF33     		adds	r3, r3, #255
 407 014c 6B44     		add	r3, r3, sp
 408 014e 1B78     		ldrb	r3, [r3]
 409 0150 9C42     		cmp	r4, r3
 410 0152 E6DB     		blt	.L14
 140:main.c        ****     }
 141:main.c        **** }
 411              		.loc 1 141 0 is_stmt 1
 412 0154 55B0     		add	sp, sp, #340
 413              		@ sp needed
 414              	.LVL51:
 415              	.LVL52:
 416 0156 F0BD     		pop	{r4, r5, r6, r7, pc}
 417              	.L19:
 418              		.align	2
 419              	.L18:
 420 0158 00000000 		.word	.LANCHOR0
 421 015c 10000000 		.word	.LC3
 422 0160 00080000 		.word	.LANCHOR1
 423 0164 20000000 		.word	.LC6
 424 0168 78F1FF0F 		.word	268431736
 425 016c 79F1FF0F 		.word	268431737
 426 0170 7AF1FF0F 		.word	268431738
 427 0174 7BF1FF0F 		.word	268431739
 428 0178 7CF1FF0F 		.word	268431740
 429 017c 7DF1FF0F 		.word	268431741
 430 0180 7EF1FF0F 		.word	268431742
 431 0184 7FF1FF0F 		.word	268431743
 432              		.cfi_endproc
 433              	.LFE36:
 434              		.size	provision, .-provision
 435              		.section	.text.decrypt,"ax",%progbits
 436              		.align	2
 437              		.global	decrypt
 438              		.code	16
 439              		.thumb_func
 440              		.type	decrypt, %function
 441              	decrypt:
 442              	.LFB37:
 142:main.c        **** 
 143:main.c        **** void decrypt(uint8 *data)
 144:main.c        **** {
 443              		.loc 1 144 0
 444              		.cfi_startproc
 445              		@ args = 0, pretend = 0, frame = 64
 446              		@ frame_needed = 0, uses_anonymous_args = 0
 447              	.LVL53:
 448 0000 F0B5     		push	{r4, r5, r6, r7, lr}
 449              		.cfi_def_cfa_offset 20
 450              		.cfi_offset 4, -20
 451              		.cfi_offset 5, -16
 452              		.cfi_offset 6, -12
 453              		.cfi_offset 7, -8
 454              		.cfi_offset 14, -4
 455 0002 91B0     		sub	sp, sp, #68
ARM GAS  C:\Users\Admin\AppData\Local\Temp\ccIRWc5S.s 			page 12


 456              		.cfi_def_cfa_offset 88
 457 0004 0190     		str	r0, [sp, #4]
 145:main.c        ****     //AES variables
 146:main.c        ****     static struct AES_ctx ctx;
 147:main.c        ****     static int flag=0;
 148:main.c        ****     unsigned char AESkey[32];
 149:main.c        ****     //Hashing variables
 150:main.c        ****     char buf[8]="";
 458              		.loc 1 150 0
 459 0006 0023     		movs	r3, #0
 460 0008 0693     		str	r3, [sp, #24]
 461 000a 0793     		str	r3, [sp, #28]
 151:main.c        ****     char temp[4]="";
 462              		.loc 1 151 0
 463 000c 0593     		str	r3, [sp, #20]
 152:main.c        ****     unsigned char keyValues[8];
 153:main.c        ****     
 154:main.c        ****     if(flag == 0)
 464              		.loc 1 154 0
 465 000e 364B     		ldr	r3, .L30
 466 0010 1B68     		ldr	r3, [r3]
 467 0012 002B     		cmp	r3, #0
 468 0014 60D1     		bne	.L21
 155:main.c        ****     {
 156:main.c        ****         //Grab our key values
 157:main.c        ****         keyValues[0]  =  (unsigned char)(* (reg8 *) CYREG_SFLASH_DIE_LOT0) ;
 469              		.loc 1 157 0
 470 0016 354B     		ldr	r3, .L30+4
 471 0018 1A78     		ldrb	r2, [r3]
 472 001a 03AB     		add	r3, sp, #12
 473 001c 1A70     		strb	r2, [r3]
 158:main.c        ****         keyValues[1] = (unsigned char)(* (reg8 *) CYREG_SFLASH_DIE_LOT1  ) ;
 474              		.loc 1 158 0
 475 001e 344A     		ldr	r2, .L30+8
 476 0020 1278     		ldrb	r2, [r2]
 477 0022 5A70     		strb	r2, [r3, #1]
 159:main.c        ****         keyValues[2] = (unsigned char)(* (reg8 *) CYREG_SFLASH_DIE_LOT2  ) ;
 478              		.loc 1 159 0
 479 0024 334A     		ldr	r2, .L30+12
 480 0026 1278     		ldrb	r2, [r2]
 481 0028 9A70     		strb	r2, [r3, #2]
 160:main.c        ****         keyValues[3] = (unsigned char)(* (reg8 *) CYREG_SFLASH_DIE_WAFER ) ;
 482              		.loc 1 160 0
 483 002a 334A     		ldr	r2, .L30+16
 484 002c 1278     		ldrb	r2, [r2]
 485 002e DA70     		strb	r2, [r3, #3]
 161:main.c        **** 
 162:main.c        ****         keyValues[4]  =  (unsigned char)(* (reg8 *) CYREG_SFLASH_DIE_X   ) ;
 486              		.loc 1 162 0
 487 0030 324A     		ldr	r2, .L30+20
 488 0032 1278     		ldrb	r2, [r2]
 489 0034 1A71     		strb	r2, [r3, #4]
 163:main.c        ****         keyValues[5] = (unsigned char)(* (reg8 *) CYREG_SFLASH_DIE_Y     ) ;
 490              		.loc 1 163 0
 491 0036 324A     		ldr	r2, .L30+24
 492 0038 1278     		ldrb	r2, [r2]
 493 003a 5A71     		strb	r2, [r3, #5]
ARM GAS  C:\Users\Admin\AppData\Local\Temp\ccIRWc5S.s 			page 13


 164:main.c        ****         keyValues[6] = (unsigned char)(* (reg8 *) CYREG_SFLASH_DIE_SORT  ) ;
 494              		.loc 1 164 0
 495 003c 314A     		ldr	r2, .L30+28
 496 003e 1278     		ldrb	r2, [r2]
 497 0040 9A71     		strb	r2, [r3, #6]
 165:main.c        ****         keyValues[7] = (unsigned char)(* (reg8 *) CYREG_SFLASH_DIE_MINOR ) ;
 498              		.loc 1 165 0
 499 0042 314A     		ldr	r2, .L30+32
 500 0044 1278     		ldrb	r2, [r2]
 501 0046 DA71     		strb	r2, [r3, #7]
 166:main.c        ****         //Generate our AES Key
 167:main.c        ****         memcpy(buf, ATM_UUID, 4);
 502              		.loc 1 167 0
 503 0048 304B     		ldr	r3, .L30+36
 504 004a 1B68     		ldr	r3, [r3]
 505 004c 0693     		str	r3, [sp, #24]
 506              	.LVL54:
 507              	.LBB9:
 168:main.c        ****         for(int x=0; x < 8; x=x+1)
 508              		.loc 1 168 0
 509 004e 0025     		movs	r5, #0
 510 0050 28E0     		b	.L22
 511              	.LVL55:
 512              	.L23:
 513              	.LBB10:
 514              	.LBB11:
 515              	.LBB12:
 169:main.c        ****         {
 170:main.c        ****             for(int y=0; y < 7; y=y+1)
 171:main.c        ****             {
 172:main.c        ****                 for(int z=0; z < 7; z=z+1)
 173:main.c        ****                 {
 174:main.c        ****                     for(int w=0; w < 7; w=w+1)
 175:main.c        ****                     {
 176:main.c        ****                         memcpy(&temp[0], &keyValues[x],1);
 516              		.loc 1 176 0 discriminator 3
 517 0052 05A9     		add	r1, sp, #20
 518 0054 03AB     		add	r3, sp, #12
 519 0056 5A5D     		ldrb	r2, [r3, r5]
 520 0058 0A70     		strb	r2, [r1]
 177:main.c        ****                         memcpy(&temp[1], &keyValues[y],1);
 521              		.loc 1 177 0 discriminator 3
 522 005a DA5D     		ldrb	r2, [r3, r7]
 523 005c 4A70     		strb	r2, [r1, #1]
 178:main.c        ****                         memcpy(&temp[2], &keyValues[z],1);
 524              		.loc 1 178 0 discriminator 3
 525 005e 9A5D     		ldrb	r2, [r3, r6]
 526 0060 8A70     		strb	r2, [r1, #2]
 179:main.c        ****                         memcpy(&temp[3], &keyValues[w],1);
 527              		.loc 1 179 0 discriminator 3
 528 0062 1B5D     		ldrb	r3, [r3, r4]
 529 0064 CB70     		strb	r3, [r1, #3]
 180:main.c        ****                         SALT_HASaltH_SALT(buf, temp, 4, 8);
 530              		.loc 1 180 0 discriminator 3
 531 0066 0823     		movs	r3, #8
 532 0068 0422     		movs	r2, #4
 533 006a 06A8     		add	r0, sp, #24
ARM GAS  C:\Users\Admin\AppData\Local\Temp\ccIRWc5S.s 			page 14


 534 006c FFF7FEFF 		bl	SALT_HASaltH_SALT
 535              	.LVL56:
 181:main.c        ****                         memset(temp, 0, 4);
 536              		.loc 1 181 0 discriminator 3
 537 0070 0023     		movs	r3, #0
 538 0072 0593     		str	r3, [sp, #20]
 174:main.c        ****                     {
 539              		.loc 1 174 0 discriminator 3
 540 0074 0134     		adds	r4, r4, #1
 541              	.LVL57:
 542 0076 00E0     		b	.L24
 543              	.LVL58:
 544              	.L27:
 545              	.LBE12:
 546 0078 0024     		movs	r4, #0
 547              	.L24:
 548              	.LVL59:
 549              	.LBB13:
 174:main.c        ****                     {
 550              		.loc 1 174 0 is_stmt 0 discriminator 1
 551 007a 062C     		cmp	r4, #6
 552 007c E9DD     		ble	.L23
 553              	.LBE13:
 172:main.c        ****                 {
 554              		.loc 1 172 0 is_stmt 1 discriminator 2
 555 007e 0136     		adds	r6, r6, #1
 556              	.LVL60:
 557 0080 00E0     		b	.L25
 558              	.LVL61:
 559              	.L28:
 560              	.LBE11:
 561 0082 0026     		movs	r6, #0
 562              	.L25:
 563              	.LVL62:
 564              	.LBB14:
 172:main.c        ****                 {
 565              		.loc 1 172 0 is_stmt 0 discriminator 1
 566 0084 062E     		cmp	r6, #6
 567 0086 F7DD     		ble	.L27
 568              	.LBE14:
 170:main.c        ****             {
 569              		.loc 1 170 0 is_stmt 1 discriminator 2
 570 0088 0137     		adds	r7, r7, #1
 571              	.LVL63:
 572 008a 00E0     		b	.L26
 573              	.LVL64:
 574              	.L29:
 575              	.LBE10:
 576 008c 0027     		movs	r7, #0
 577              	.L26:
 578              	.LVL65:
 579              	.LBB15:
 170:main.c        ****             {
 580              		.loc 1 170 0 is_stmt 0 discriminator 1
 581 008e 062F     		cmp	r7, #6
 582 0090 F7DD     		ble	.L28
 583              	.LBE15:
ARM GAS  C:\Users\Admin\AppData\Local\Temp\ccIRWc5S.s 			page 15


 182:main.c        ****                     }
 183:main.c        ****                     
 184:main.c        ****                 }
 185:main.c        ****             }
 186:main.c        ****             memcpy(&AESkey[x*4], buf, 4);
 584              		.loc 1 186 0 is_stmt 1 discriminator 2
 585 0092 A800     		lsls	r0, r5, #2
 586 0094 08AB     		add	r3, sp, #32
 587 0096 9C46     		mov	ip, r3
 588 0098 6044     		add	r0, r0, ip
 589 009a 0422     		movs	r2, #4
 590 009c 06A9     		add	r1, sp, #24
 591 009e FFF7FEFF 		bl	memcpy
 592              	.LVL66:
 168:main.c        ****         {
 593              		.loc 1 168 0 discriminator 2
 594 00a2 0135     		adds	r5, r5, #1
 595              	.LVL67:
 596              	.L22:
 168:main.c        ****         {
 597              		.loc 1 168 0 is_stmt 0 discriminator 1
 598 00a4 072D     		cmp	r5, #7
 599 00a6 F1DD     		ble	.L29
 600              	.LBE9:
 187:main.c        ****         }
 188:main.c        ****         memset(keyValues, 0, 8);
 601              		.loc 1 188 0 is_stmt 1
 602 00a8 0822     		movs	r2, #8
 603 00aa 0021     		movs	r1, #0
 604 00ac 03A8     		add	r0, sp, #12
 605 00ae FFF7FEFF 		bl	memset
 606              	.LVL68:
 189:main.c        ****         memset(temp, 0, 4);
 607              		.loc 1 189 0
 608 00b2 0023     		movs	r3, #0
 609 00b4 0593     		str	r3, [sp, #20]
 190:main.c        ****         memset(buf, 0 , 8);
 610              		.loc 1 190 0
 611 00b6 0822     		movs	r2, #8
 612 00b8 0021     		movs	r1, #0
 613 00ba 06A8     		add	r0, sp, #24
 614 00bc FFF7FEFF 		bl	memset
 615              	.LVL69:
 191:main.c        ****         AES_init_ctx(&ctx, AESkey);
 616              		.loc 1 191 0
 617 00c0 094C     		ldr	r4, .L30
 618 00c2 201D     		adds	r0, r4, #4
 619 00c4 08A9     		add	r1, sp, #32
 620 00c6 FFF7FEFF 		bl	AES_init_ctx
 621              	.LVL70:
 192:main.c        ****         memset(AESkey, 0, 32);
 622              		.loc 1 192 0
 623 00ca 2022     		movs	r2, #32
 624 00cc 0021     		movs	r1, #0
 625 00ce 08A8     		add	r0, sp, #32
 626 00d0 FFF7FEFF 		bl	memset
 627              	.LVL71:
ARM GAS  C:\Users\Admin\AppData\Local\Temp\ccIRWc5S.s 			page 16


 193:main.c        ****         flag = 1;
 628              		.loc 1 193 0
 629 00d4 0123     		movs	r3, #1
 630 00d6 2360     		str	r3, [r4]
 631              	.LVL72:
 632              	.L21:
 194:main.c        ****     }
 195:main.c        ****     if(FLAG == 0)
 196:main.c        ****     {
 197:main.c        ****         AES_ECB_decrypt(&ctx, data);
 633              		.loc 1 197 0
 634 00d8 0199     		ldr	r1, [sp, #4]
 635 00da 0348     		ldr	r0, .L30
 636 00dc 0430     		adds	r0, r0, #4
 637 00de FFF7FEFF 		bl	AES_ECB_decrypt
 638              	.LVL73:
 198:main.c        ****     }
 199:main.c        ****     else
 200:main.c        ****     {
 201:main.c        ****         memset(&ctx, 0, sizeof(struct AES_ctx));
 202:main.c        ****         PIGGY_BANK_Write((uint8*)0, (uint8*)&FLAG, 1);
 203:main.c        ****         flag = 0;
 204:main.c        ****     }
 205:main.c        **** }
 639              		.loc 1 205 0
 640 00e2 11B0     		add	sp, sp, #68
 641              		@ sp needed
 642 00e4 F0BD     		pop	{r4, r5, r6, r7, pc}
 643              	.L31:
 644 00e6 C046     		.align	2
 645              	.L30:
 646 00e8 00000000 		.word	.LANCHOR2
 647 00ec 78F1FF0F 		.word	268431736
 648 00f0 79F1FF0F 		.word	268431737
 649 00f4 7AF1FF0F 		.word	268431738
 650 00f8 7BF1FF0F 		.word	268431739
 651 00fc 7CF1FF0F 		.word	268431740
 652 0100 7DF1FF0F 		.word	268431741
 653 0104 7EF1FF0F 		.word	268431742
 654 0108 7FF1FF0F 		.word	268431743
 655 010c 00080000 		.word	.LANCHOR1
 656              		.cfi_endproc
 657              	.LFE37:
 658              		.size	decrypt, .-decrypt
 659              		.section	.text.dispenseBill,"ax",%progbits
 660              		.align	2
 661              		.global	dispenseBill
 662              		.code	16
 663              		.thumb_func
 664              		.type	dispenseBill, %function
 665              	dispenseBill:
 666              	.LFB38:
 206:main.c        **** 
 207:main.c        **** void dispenseBill()
 208:main.c        **** {
 667              		.loc 1 208 0
 668              		.cfi_startproc
ARM GAS  C:\Users\Admin\AppData\Local\Temp\ccIRWc5S.s 			page 17


 669              		@ args = 0, pretend = 0, frame = 24
 670              		@ frame_needed = 0, uses_anonymous_args = 0
 671 0000 F0B5     		push	{r4, r5, r6, r7, lr}
 672              		.cfi_def_cfa_offset 20
 673              		.cfi_offset 4, -20
 674              		.cfi_offset 5, -16
 675              		.cfi_offset 6, -12
 676              		.cfi_offset 7, -8
 677              		.cfi_offset 14, -4
 678 0002 4746     		mov	r7, r8
 679 0004 80B4     		push	{r7}
 680              		.cfi_def_cfa_offset 24
 681              		.cfi_offset 8, -24
 682 0006 86B0     		sub	sp, sp, #24
 683              		.cfi_def_cfa_offset 48
 684              	.LVL74:
 209:main.c        ****     static const uint8 STACKLOC[1] = {0x00};
 210:main.c        ****     uint8 message[16];
 211:main.c        ****     volatile const uint8* stackptr = STACKLOC;
 212:main.c        ****     volatile const uint8* billptr;
 213:main.c        ****     uint8 stackloc;
 214:main.c        ****     
 215:main.c        ****     stackloc = *stackptr;
 685              		.loc 1 215 0
 686 0008 1B4F     		ldr	r7, .L33
 687 000a 2823     		movs	r3, #40
 688 000c FC5C     		ldrb	r4, [r7, r3]
 689 000e E4B2     		uxtb	r4, r4
 690 0010 6B46     		mov	r3, sp
 691 0012 DE1D     		adds	r6, r3, #7
 692 0014 DC71     		strb	r4, [r3, #7]
 693              	.LVL75:
 216:main.c        ****     billptr = MONEY[stackloc];
 217:main.c        ****     
 218:main.c        ****     memset(message, 0u, 16);
 694              		.loc 1 218 0
 695 0016 02AD     		add	r5, sp, #8
 696 0018 1022     		movs	r2, #16
 697 001a 0021     		movs	r1, #0
 698 001c 2800     		movs	r0, r5
 699 001e FFF7FEFF 		bl	memset
 700              	.LVL76:
 219:main.c        ****     memcpy(message, (void*)billptr, BILL_LEN);
 701              		.loc 1 219 0
 702 0022 164B     		ldr	r3, .L33+4
 703 0024 9846     		mov	r8, r3
 704 0026 2301     		lsls	r3, r4, #4
 705 0028 2A00     		movs	r2, r5
 706 002a 4344     		add	r3, r3, r8
 707 002c 13CB     		ldmia	r3!, {r0, r1, r4}
 708 002e 13C2     		stmia	r2!, {r0, r1, r4}
 709              	.LVL77:
 710 0030 1B68     		ldr	r3, [r3]
 711 0032 1360     		str	r3, [r2]
 220:main.c        ****     decrypt(message);
 712              		.loc 1 220 0
 713 0034 2800     		movs	r0, r5
ARM GAS  C:\Users\Admin\AppData\Local\Temp\ccIRWc5S.s 			page 18


 714 0036 FFF7FEFF 		bl	decrypt
 715              	.LVL78:
 221:main.c        ****     pushMessage(message, BILL_LEN);
 716              		.loc 1 221 0
 717 003a 1021     		movs	r1, #16
 718 003c 2800     		movs	r0, r5
 719 003e FFF7FEFF 		bl	pushMessage
 720              	.LVL79:
 222:main.c        ****     PIGGY_BANK_Write((uint8*)EMPTY_BILL, MONEY[stackloc], 16);
 721              		.loc 1 222 0
 722 0042 3178     		ldrb	r1, [r6]
 723 0044 0901     		lsls	r1, r1, #4
 724 0046 4144     		add	r1, r1, r8
 725 0048 1022     		movs	r2, #16
 726 004a 0D48     		ldr	r0, .L33+8
 727 004c FFF7FEFF 		bl	PIGGY_BANK_Write
 728              	.LVL80:
 223:main.c        ****     stackloc = (stackloc + 1) % 128;
 729              		.loc 1 223 0
 730 0050 3378     		ldrb	r3, [r6]
 731 0052 0133     		adds	r3, r3, #1
 732 0054 DA17     		asrs	r2, r3, #31
 733 0056 520E     		lsrs	r2, r2, #25
 734 0058 9B18     		adds	r3, r3, r2
 735 005a 7F21     		movs	r1, #127
 736 005c 0B40     		ands	r3, r1
 737 005e 9B1A     		subs	r3, r3, r2
 738 0060 3370     		strb	r3, [r6]
 224:main.c        ****     PIGGY_BANK_Write(&stackloc, STACKLOC, 1);
 739              		.loc 1 224 0
 740 0062 3900     		movs	r1, r7
 741 0064 2831     		adds	r1, r1, #40
 742 0066 0122     		movs	r2, #1
 743 0068 3000     		movs	r0, r6
 744 006a FFF7FEFF 		bl	PIGGY_BANK_Write
 745              	.LVL81:
 225:main.c        **** }
 746              		.loc 1 225 0
 747 006e 06B0     		add	sp, sp, #24
 748              		@ sp needed
 749 0070 04BC     		pop	{r2}
 750 0072 9046     		mov	r8, r2
 751 0074 F0BD     		pop	{r4, r5, r6, r7, pc}
 752              	.L34:
 753 0076 C046     		.align	2
 754              	.L33:
 755 0078 00080000 		.word	.LANCHOR1
 756 007c 00000000 		.word	.LANCHOR0
 757 0080 10000000 		.word	.LC3
 758              		.cfi_endproc
 759              	.LFE38:
 760              		.size	dispenseBill, .-dispenseBill
 761              		.section	.text.main,"ax",%progbits
 762              		.align	2
 763              		.global	main
 764              		.code	16
 765              		.thumb_func
ARM GAS  C:\Users\Admin\AppData\Local\Temp\ccIRWc5S.s 			page 19


 766              		.type	main, %function
 767              	main:
 768              	.LFB39:
 226:main.c        **** 
 227:main.c        **** int main(void)
 228:main.c        **** {
 769              		.loc 1 228 0
 770              		.cfi_startproc
 771              		@ args = 0, pretend = 0, frame = 72
 772              		@ frame_needed = 0, uses_anonymous_args = 0
 773 0000 F0B5     		push	{r4, r5, r6, r7, lr}
 774              		.cfi_def_cfa_offset 20
 775              		.cfi_offset 4, -20
 776              		.cfi_offset 5, -16
 777              		.cfi_offset 6, -12
 778              		.cfi_offset 7, -8
 779              		.cfi_offset 14, -4
 780 0002 93B0     		sub	sp, sp, #76
 781              		.cfi_def_cfa_offset 96
 229:main.c        ****     CyGlobalIntEnable; /* Enable global interrupts. */
 782              		.loc 1 229 0
 783              		.syntax divided
 784              	@ 229 "main.c" 1
 785 0004 62B6     		CPSIE   i
 786              	@ 0 "" 2
 230:main.c        ****     
 231:main.c        ****     // start reset button
 232:main.c        ****     Reset_isr_StartEx(Reset_ISR);
 787              		.loc 1 232 0
 788              		.thumb
 789              		.syntax unified
 790 0006 C248     		ldr	r0, .L53
 791 0008 FFF7FEFF 		bl	Reset_isr_StartEx
 792              	.LVL82:
 233:main.c        ****     
 234:main.c        ****     /* Declare vairables here */
 235:main.c        ****     
 236:main.c        ****     uint8 i;
 237:main.c        ****     volatile const uint8* bills_leftptr= BILLS_LEFT;
 238:main.c        ****     volatile const uint8* last_billptr = LAST_BILL;
 239:main.c        ****     uint8 bills_left;
 240:main.c        ****     uint8 last_bill;
 241:main.c        ****     uint8 message[64] = "";
 793              		.loc 1 241 0
 794 000c 0023     		movs	r3, #0
 795 000e 0193     		str	r3, [sp, #4]
 796 0010 3C22     		movs	r2, #60
 797 0012 0021     		movs	r1, #0
 798 0014 02A8     		add	r0, sp, #8
 799 0016 FFF7FEFF 		bl	memset
 800              	.LVL83:
 242:main.c        ****     char * token;
 243:main.c        ****     char * temptoken;
 244:main.c        ****     int matching = 0;
 245:main.c        ****     uint8 flag[3]="";
 801              		.loc 1 245 0
 802 001a BE4C     		ldr	r4, .L53+4
ARM GAS  C:\Users\Admin\AppData\Local\Temp\ccIRWc5S.s 			page 20


 803 001c 2C23     		movs	r3, #44
 804 001e E35C     		ldrb	r3, [r4, r3]
 805 0020 6A46     		mov	r2, sp
 806 0022 1370     		strb	r3, [r2]
 807 0024 0222     		movs	r2, #2
 808 0026 0021     		movs	r1, #0
 809 0028 6B46     		mov	r3, sp
 810 002a 581C     		adds	r0, r3, #1
 811 002c FFF7FEFF 		bl	memset
 812              	.LVL84:
 246:main.c        ****     
 247:main.c        ****     bills_left = *bills_leftptr;
 813              		.loc 1 247 0
 814 0030 2423     		movs	r3, #36
 815 0032 E25C     		ldrb	r2, [r4, r3]
 816 0034 2233     		adds	r3, r3, #34
 817 0036 6B44     		add	r3, r3, sp
 818 0038 1A70     		strb	r2, [r3]
 248:main.c        ****     last_bill = *last_billptr;
 819              		.loc 1 248 0
 820 003a 3023     		movs	r3, #48
 821 003c E25C     		ldrb	r2, [r4, r3]
 822 003e 1533     		adds	r3, r3, #21
 823 0040 6B44     		add	r3, r3, sp
 824 0042 1A70     		strb	r2, [r3]
 249:main.c        ****     
 250:main.c        ****     static const uint8 PROVISIONED[1] = {0x00}; // write variable
 251:main.c        ****     volatile const uint8* ptr;    // read variable
 252:main.c        ****     
 253:main.c        ****     /* Place your initialization/startup code here (e.g. MyInst_Start()) */
 254:main.c        ****     
 255:main.c        ****     PIGGY_BANK_Start();
 825              		.loc 1 255 0
 826 0044 FFF7FEFF 		bl	PIGGY_BANK_Start
 827              	.LVL85:
 256:main.c        ****     DB_UART_Start();
 828              		.loc 1 256 0
 829 0048 FFF7FEFF 		bl	DB_UART_Start
 830              	.LVL86:
 257:main.c        ****     
 258:main.c        ****     ptr = PROVISIONED;
 259:main.c        ****     // provision security module on first boot
 260:main.c        ****     if(*ptr == 0x00)
 831              		.loc 1 260 0
 832 004c 3423     		movs	r3, #52
 833 004e E35C     		ldrb	r3, [r4, r3]
 834 0050 002B     		cmp	r3, #0
 835 0052 0AD1     		bne	.L36
 261:main.c        ****     {
 262:main.c        ****         provision();
 836              		.loc 1 262 0
 837 0054 FFF7FEFF 		bl	provision
 838              	.LVL87:
 263:main.c        ****         
 264:main.c        ****         // Mark as provisioned
 265:main.c        ****         i = 0x01;
 839              		.loc 1 265 0
ARM GAS  C:\Users\Admin\AppData\Local\Temp\ccIRWc5S.s 			page 21


 840 0058 4720     		movs	r0, #71
 841 005a 6844     		add	r0, r0, sp
 842 005c 0123     		movs	r3, #1
 843 005e 0370     		strb	r3, [r0]
 266:main.c        ****         PIGGY_BANK_Write(&i, PROVISIONED, 1u);
 844              		.loc 1 266 0
 845 0060 0122     		movs	r2, #1
 846 0062 AC49     		ldr	r1, .L53+4
 847 0064 3431     		adds	r1, r1, #52
 848 0066 FFF7FEFF 		bl	PIGGY_BANK_Write
 849              	.LVL88:
 850              	.L36:
 228:main.c        ****     CyGlobalIntEnable; /* Enable global interrupts. */
 851              		.loc 1 228 0
 852 006a 0025     		movs	r5, #0
 853              	.LVL89:
 854              	.L39:
 267:main.c        ****     }
 268:main.c        ****     
 269:main.c        ****     // Go into infinite loop
 270:main.c        ****     while (1) {
 271:main.c        ****         /* Place your application code here. */
 272:main.c        ****         memset(message, 0, 64);
 855              		.loc 1 272 0
 856 006c 01AC     		add	r4, sp, #4
 857 006e 4022     		movs	r2, #64
 858 0070 0021     		movs	r1, #0
 859 0072 2000     		movs	r0, r4
 860 0074 FFF7FEFF 		bl	memset
 861              	.LVL90:
 273:main.c        ****         // synchronize with bank
 274:main.c        ****         syncConnection(SYNC_NORM);
 862              		.loc 1 274 0
 863 0078 0020     		movs	r0, #0
 864 007a FFF7FEFF 		bl	syncConnection
 865              	.LVL91:
 275:main.c        ****         
 276:main.c        ****         //Get task
 277:main.c        ****         pullMessage(message);
 866              		.loc 1 277 0
 867 007e 2000     		movs	r0, r4
 868 0080 FFF7FEFF 		bl	pullMessage
 869              	.LVL92:
 278:main.c        ****         pushMessage((uint8*)RECV_OK, strlen(RECV_OK));
 870              		.loc 1 278 0
 871 0084 0121     		movs	r1, #1
 872 0086 A448     		ldr	r0, .L53+8
 873 0088 FFF7FEFF 		bl	pushMessage
 874              	.LVL93:
 279:main.c        ****         //Push ATM_UUID
 280:main.c        ****         if(message[0] == '1')
 875              		.loc 1 280 0
 876 008c 2378     		ldrb	r3, [r4]
 877 008e 312B     		cmp	r3, #49
 878 0090 03D1     		bne	.L38
 281:main.c        ****         {
 282:main.c        ****             pushMessage(ATM_UUID, 36);
ARM GAS  C:\Users\Admin\AppData\Local\Temp\ccIRWc5S.s 			page 22


 879              		.loc 1 282 0
 880 0092 2421     		movs	r1, #36
 881 0094 9F48     		ldr	r0, .L53+4
 882 0096 FFF7FEFF 		bl	pushMessage
 883              	.LVL94:
 884              	.L38:
 283:main.c        ****         }
 284:main.c        ****         //Dispense
 285:main.c        ****         if(message[0] == '2')
 885              		.loc 1 285 0
 886 009a 01AB     		add	r3, sp, #4
 887 009c 1B78     		ldrb	r3, [r3]
 888 009e 322B     		cmp	r3, #50
 889 00a0 E4D1     		bne	.L39
 286:main.c        ****         {
 287:main.c        ****             memset(message, 0, 64);
 890              		.loc 1 287 0
 891 00a2 4022     		movs	r2, #64
 892 00a4 0021     		movs	r1, #0
 893 00a6 01A8     		add	r0, sp, #4
 894 00a8 FFF7FEFF 		bl	memset
 895              	.LVL95:
 288:main.c        ****             pullMessage(message);
 896              		.loc 1 288 0
 897 00ac 01A8     		add	r0, sp, #4
 898 00ae FFF7FEFF 		bl	pullMessage
 899              	.LVL96:
 289:main.c        ****             pushMessage((uint8*)RECV_OK, strlen(RECV_OK));
 900              		.loc 1 289 0
 901 00b2 0121     		movs	r1, #1
 902 00b4 9848     		ldr	r0, .L53+8
 903 00b6 FFF7FEFF 		bl	pushMessage
 904              	.LVL97:
 290:main.c        ****             //Decrypt the message
 291:main.c        ****             decrypt(message);
 905              		.loc 1 291 0
 906 00ba 01A8     		add	r0, sp, #4
 907 00bc FFF7FEFF 		bl	decrypt
 908              	.LVL98:
 292:main.c        ****             decrypt(&message[16]);
 909              		.loc 1 292 0
 910 00c0 05A8     		add	r0, sp, #20
 911 00c2 FFF7FEFF 		bl	decrypt
 912              	.LVL99:
 293:main.c        ****             decrypt(&message[32]);
 913              		.loc 1 293 0
 914 00c6 09A8     		add	r0, sp, #36
 915 00c8 FFF7FEFF 		bl	decrypt
 916              	.LVL100:
 294:main.c        ****             decrypt(&message[48]);
 917              		.loc 1 294 0
 918 00cc 0DA8     		add	r0, sp, #52
 919 00ce FFF7FEFF 		bl	decrypt
 920              	.LVL101:
 295:main.c        ****             memset(flag, 0, 3);
 921              		.loc 1 295 0
 922 00d2 0322     		movs	r2, #3
ARM GAS  C:\Users\Admin\AppData\Local\Temp\ccIRWc5S.s 			page 23


 923 00d4 0021     		movs	r1, #0
 924 00d6 6846     		mov	r0, sp
 925 00d8 FFF7FEFF 		bl	memset
 926              	.LVL102:
 296:main.c        ****             
 297:main.c        ****             if (memcmp(&message[0],&message[16],16) == 0)
 927              		.loc 1 297 0
 928 00dc 1022     		movs	r2, #16
 929 00de 05A9     		add	r1, sp, #20
 930 00e0 01A8     		add	r0, sp, #4
 931 00e2 FFF7FEFF 		bl	memcmp
 932              	.LVL103:
 933 00e6 0028     		cmp	r0, #0
 934 00e8 05D1     		bne	.L40
 298:main.c        **** 	            memcpy(flag, WITH_BAD, 3);
 935              		.loc 1 298 0
 936 00ea 8C4B     		ldr	r3, .L53+12
 937 00ec 1A88     		ldrh	r2, [r3]
 938 00ee 6946     		mov	r1, sp
 939 00f0 0A80     		strh	r2, [r1]
 940 00f2 9B78     		ldrb	r3, [r3, #2]
 941 00f4 8B70     		strb	r3, [r1, #2]
 942              	.L40:
 299:main.c        **** 
 300:main.c        ****             if (memcmp(&message[0],&message[32],16) == 0)
 943              		.loc 1 300 0
 944 00f6 1022     		movs	r2, #16
 945 00f8 09A9     		add	r1, sp, #36
 946 00fa 01A8     		add	r0, sp, #4
 947 00fc FFF7FEFF 		bl	memcmp
 948              	.LVL104:
 949 0100 0028     		cmp	r0, #0
 950 0102 05D1     		bne	.L41
 301:main.c        **** 	            memcpy(flag, WITH_BAD, 3);
 951              		.loc 1 301 0
 952 0104 854B     		ldr	r3, .L53+12
 953 0106 1A88     		ldrh	r2, [r3]
 954 0108 6946     		mov	r1, sp
 955 010a 0A80     		strh	r2, [r1]
 956 010c 9B78     		ldrb	r3, [r3, #2]
 957 010e 8B70     		strb	r3, [r1, #2]
 958              	.L41:
 302:main.c        **** 
 303:main.c        ****             if (memcmp(&message[0],&message[48],16) == 0)
 959              		.loc 1 303 0
 960 0110 1022     		movs	r2, #16
 961 0112 0DA9     		add	r1, sp, #52
 962 0114 01A8     		add	r0, sp, #4
 963 0116 FFF7FEFF 		bl	memcmp
 964              	.LVL105:
 965 011a 0028     		cmp	r0, #0
 966 011c 05D1     		bne	.L42
 304:main.c        **** 	            memcpy(flag, WITH_BAD, 3);
 967              		.loc 1 304 0
 968 011e 7F4B     		ldr	r3, .L53+12
 969 0120 1A88     		ldrh	r2, [r3]
 970 0122 6946     		mov	r1, sp
ARM GAS  C:\Users\Admin\AppData\Local\Temp\ccIRWc5S.s 			page 24


 971 0124 0A80     		strh	r2, [r1]
 972 0126 9B78     		ldrb	r3, [r3, #2]
 973 0128 8B70     		strb	r3, [r1, #2]
 974              	.L42:
 305:main.c        **** 
 306:main.c        ****             if (memcmp(&message[16],&message[32],16) == 0)
 975              		.loc 1 306 0
 976 012a 1022     		movs	r2, #16
 977 012c 09A9     		add	r1, sp, #36
 978 012e 05A8     		add	r0, sp, #20
 979 0130 FFF7FEFF 		bl	memcmp
 980              	.LVL106:
 981 0134 0028     		cmp	r0, #0
 982 0136 05D1     		bne	.L43
 307:main.c        **** 	            memcpy(flag, WITH_BAD, 3);
 983              		.loc 1 307 0
 984 0138 784B     		ldr	r3, .L53+12
 985 013a 1A88     		ldrh	r2, [r3]
 986 013c 6946     		mov	r1, sp
 987 013e 0A80     		strh	r2, [r1]
 988 0140 9B78     		ldrb	r3, [r3, #2]
 989 0142 8B70     		strb	r3, [r1, #2]
 990              	.L43:
 308:main.c        **** 
 309:main.c        ****             if (memcmp(&message[16],&message[48],16) == 0)
 991              		.loc 1 309 0
 992 0144 1022     		movs	r2, #16
 993 0146 0DA9     		add	r1, sp, #52
 994 0148 05A8     		add	r0, sp, #20
 995 014a FFF7FEFF 		bl	memcmp
 996              	.LVL107:
 997 014e 0028     		cmp	r0, #0
 998 0150 05D1     		bne	.L44
 310:main.c        **** 	            memcpy(flag, WITH_BAD, 3);
 999              		.loc 1 310 0
 1000 0152 724B     		ldr	r3, .L53+12
 1001 0154 1A88     		ldrh	r2, [r3]
 1002 0156 6946     		mov	r1, sp
 1003 0158 0A80     		strh	r2, [r1]
 1004 015a 9B78     		ldrb	r3, [r3, #2]
 1005 015c 8B70     		strb	r3, [r1, #2]
 1006              	.L44:
 311:main.c        **** 
 312:main.c        ****             if (memcmp(&message[32],&message[48],16) == 0)
 1007              		.loc 1 312 0
 1008 015e 1022     		movs	r2, #16
 1009 0160 0DA9     		add	r1, sp, #52
 1010 0162 09A8     		add	r0, sp, #36
 1011 0164 FFF7FEFF 		bl	memcmp
 1012              	.LVL108:
 1013 0168 0028     		cmp	r0, #0
 1014 016a 05D1     		bne	.L45
 313:main.c        **** 	            memcpy(flag, WITH_BAD, 3);
 1015              		.loc 1 313 0
 1016 016c 6B4B     		ldr	r3, .L53+12
 1017 016e 1A88     		ldrh	r2, [r3]
 1018 0170 6946     		mov	r1, sp
ARM GAS  C:\Users\Admin\AppData\Local\Temp\ccIRWc5S.s 			page 25


 1019 0172 0A80     		strh	r2, [r1]
 1020 0174 9B78     		ldrb	r3, [r3, #2]
 1021 0176 8B70     		strb	r3, [r1, #2]
 1022              	.L45:
 314:main.c        ****             
 315:main.c        ****                 
 316:main.c        ****             matching += abs(memcmp(&message[0],&message[16],1));
 1023              		.loc 1 316 0
 1024 0178 01AB     		add	r3, sp, #4
 1025 017a 1878     		ldrb	r0, [r3]
 1026 017c 197C     		ldrb	r1, [r3, #16]
 1027 017e 411A     		subs	r1, r0, r1
 1028 0180 CA17     		asrs	r2, r1, #31
 1029 0182 8918     		adds	r1, r1, r2
 1030 0184 5140     		eors	r1, r2
 1031 0186 6D18     		adds	r5, r5, r1
 1032              	.LVL109:
 317:main.c        ****             matching += abs(memcmp(&message[0],&message[32],1));
 1033              		.loc 1 317 0
 1034 0188 2022     		movs	r2, #32
 1035 018a 9C5C     		ldrb	r4, [r3, r2]
 1036 018c 041B     		subs	r4, r0, r4
 1037 018e E217     		asrs	r2, r4, #31
 1038 0190 A418     		adds	r4, r4, r2
 1039 0192 5440     		eors	r4, r2
 1040 0194 2D19     		adds	r5, r5, r4
 1041              	.LVL110:
 318:main.c        ****             matching += abs(memcmp(&message[0],&message[48],1));
 1042              		.loc 1 318 0
 1043 0196 3022     		movs	r2, #48
 1044 0198 995C     		ldrb	r1, [r3, r2]
 1045 019a 411A     		subs	r1, r0, r1
 1046 019c CA17     		asrs	r2, r1, #31
 1047 019e 8918     		adds	r1, r1, r2
 1048 01a0 5140     		eors	r1, r2
 1049 01a2 6818     		adds	r0, r5, r1
 1050              	.LVL111:
 319:main.c        ****             matching += abs(memcmp(&message[1],&message[17],1));
 1051              		.loc 1 319 0
 1052 01a4 5978     		ldrb	r1, [r3, #1]
 1053 01a6 5A7C     		ldrb	r2, [r3, #17]
 1054 01a8 8A1A     		subs	r2, r1, r2
 1055 01aa D417     		asrs	r4, r2, #31
 1056 01ac 1219     		adds	r2, r2, r4
 1057 01ae 6240     		eors	r2, r4
 1058 01b0 8018     		adds	r0, r0, r2
 1059              	.LVL112:
 320:main.c        ****             matching += abs(memcmp(&message[1],&message[33],1));
 1060              		.loc 1 320 0
 1061 01b2 2122     		movs	r2, #33
 1062 01b4 9A5C     		ldrb	r2, [r3, r2]
 1063 01b6 8A1A     		subs	r2, r1, r2
 1064 01b8 D417     		asrs	r4, r2, #31
 1065 01ba 1219     		adds	r2, r2, r4
 1066 01bc 6240     		eors	r2, r4
 1067 01be 8018     		adds	r0, r0, r2
 1068              	.LVL113:
ARM GAS  C:\Users\Admin\AppData\Local\Temp\ccIRWc5S.s 			page 26


 321:main.c        ****             matching += abs(memcmp(&message[1],&message[49],1));
 1069              		.loc 1 321 0
 1070 01c0 3122     		movs	r2, #49
 1071 01c2 9A5C     		ldrb	r2, [r3, r2]
 1072 01c4 8A1A     		subs	r2, r1, r2
 1073 01c6 D117     		asrs	r1, r2, #31
 1074 01c8 5218     		adds	r2, r2, r1
 1075 01ca 4A40     		eors	r2, r1
 1076 01cc 8118     		adds	r1, r0, r2
 1077              	.LVL114:
 322:main.c        ****             matching += abs(memcmp(&message[2],&message[18],1));
 1078              		.loc 1 322 0
 1079 01ce 9A78     		ldrb	r2, [r3, #2]
 1080 01d0 987C     		ldrb	r0, [r3, #18]
 1081 01d2 101A     		subs	r0, r2, r0
 1082 01d4 C417     		asrs	r4, r0, #31
 1083 01d6 0019     		adds	r0, r0, r4
 1084 01d8 6040     		eors	r0, r4
 1085 01da 0918     		adds	r1, r1, r0
 1086              	.LVL115:
 323:main.c        ****             matching += abs(memcmp(&message[2],&message[34],1));
 1087              		.loc 1 323 0
 1088 01dc 2220     		movs	r0, #34
 1089 01de 1C5C     		ldrb	r4, [r3, r0]
 1090 01e0 141B     		subs	r4, r2, r4
 1091 01e2 E017     		asrs	r0, r4, #31
 1092 01e4 2418     		adds	r4, r4, r0
 1093 01e6 4440     		eors	r4, r0
 1094 01e8 0819     		adds	r0, r1, r4
 1095              	.LVL116:
 324:main.c        ****             matching += abs(memcmp(&message[2],&message[50],1));
 1096              		.loc 1 324 0
 1097 01ea 3221     		movs	r1, #50
 1098 01ec 595C     		ldrb	r1, [r3, r1]
 1099 01ee 511A     		subs	r1, r2, r1
 1100 01f0 CA17     		asrs	r2, r1, #31
 1101 01f2 8918     		adds	r1, r1, r2
 1102 01f4 5140     		eors	r1, r2
 1103 01f6 4218     		adds	r2, r0, r1
 1104              	.LVL117:
 325:main.c        ****             matching += abs(memcmp(&message[3],&message[19],1));
 1105              		.loc 1 325 0
 1106 01f8 D978     		ldrb	r1, [r3, #3]
 1107 01fa DD7C     		ldrb	r5, [r3, #19]
 1108 01fc 4D1B     		subs	r5, r1, r5
 1109 01fe E817     		asrs	r0, r5, #31
 1110 0200 2D18     		adds	r5, r5, r0
 1111 0202 4540     		eors	r5, r0
 1112 0204 5519     		adds	r5, r2, r5
 1113              	.LVL118:
 326:main.c        ****             matching += abs(memcmp(&message[3],&message[35],1));
 1114              		.loc 1 326 0
 1115 0206 2322     		movs	r2, #35
 1116 0208 985C     		ldrb	r0, [r3, r2]
 1117 020a 081A     		subs	r0, r1, r0
 1118 020c C217     		asrs	r2, r0, #31
 1119 020e 8018     		adds	r0, r0, r2
ARM GAS  C:\Users\Admin\AppData\Local\Temp\ccIRWc5S.s 			page 27


 1120 0210 5040     		eors	r0, r2
 1121 0212 2D18     		adds	r5, r5, r0
 1122              	.LVL119:
 327:main.c        ****             matching += abs(memcmp(&message[3],&message[51],1));
 1123              		.loc 1 327 0
 1124 0214 3322     		movs	r2, #51
 1125 0216 9B5C     		ldrb	r3, [r3, r2]
 1126 0218 C91A     		subs	r1, r1, r3
 1127 021a CB17     		asrs	r3, r1, #31
 1128 021c C918     		adds	r1, r1, r3
 1129 021e 5940     		eors	r1, r3
 1130 0220 6D18     		adds	r5, r5, r1
 1131              	.LVL120:
 328:main.c        ****             
 329:main.c        ****             if(matching != 0)
 1132              		.loc 1 329 0
 1133 0222 002D     		cmp	r5, #0
 1134 0224 05D0     		beq	.L46
 330:main.c        ****                 memcpy(flag, WITH_BAD, 3);
 1135              		.loc 1 330 0
 1136 0226 3D4B     		ldr	r3, .L53+12
 1137 0228 1A88     		ldrh	r2, [r3]
 1138 022a 6946     		mov	r1, sp
 1139 022c 0A80     		strh	r2, [r1]
 1140 022e 9B78     		ldrb	r3, [r3, #2]
 1141 0230 8B70     		strb	r3, [r1, #2]
 1142              	.L46:
 331:main.c        ****             
 332:main.c        ****             if(flag[0] == 'B' && flag[1] == 'A' && flag[2] == 'D')
 1143              		.loc 1 332 0
 1144 0232 6B46     		mov	r3, sp
 1145 0234 1B78     		ldrb	r3, [r3]
 1146 0236 422B     		cmp	r3, #66
 1147 0238 11D1     		bne	.L47
 1148              		.loc 1 332 0 is_stmt 0 discriminator 1
 1149 023a 6B46     		mov	r3, sp
 1150 023c 5B78     		ldrb	r3, [r3, #1]
 1151 023e 412B     		cmp	r3, #65
 1152 0240 0DD1     		bne	.L47
 1153              		.loc 1 332 0 discriminator 2
 1154 0242 6B46     		mov	r3, sp
 1155 0244 9B78     		ldrb	r3, [r3, #2]
 1156 0246 442B     		cmp	r3, #68
 1157 0248 09D1     		bne	.L47
 333:main.c        ****             {
 334:main.c        ****                 pushMessage((uint8*)WITH_BAD, strlen(WITH_BAD));
 1158              		.loc 1 334 0 is_stmt 1
 1159 024a 0321     		movs	r1, #3
 1160 024c 3348     		ldr	r0, .L53+12
 1161 024e FFF7FEFF 		bl	pushMessage
 1162              	.LVL121:
 335:main.c        ****                 memset(flag, 0, 3);
 1163              		.loc 1 335 0
 1164 0252 0322     		movs	r2, #3
 1165 0254 0021     		movs	r1, #0
 1166 0256 6846     		mov	r0, sp
 1167 0258 FFF7FEFF 		bl	memset
ARM GAS  C:\Users\Admin\AppData\Local\Temp\ccIRWc5S.s 			page 28


 1168              	.LVL122:
 1169 025c 06E7     		b	.L39
 1170              	.L47:
 336:main.c        ****             }
 337:main.c        ****             else
 338:main.c        ****             {
 339:main.c        ****                 //Check to see if message has a starting valid bill
 340:main.c        ****                 token = strtok((char *)message, ",");
 1171              		.loc 1 340 0
 1172 025e 3049     		ldr	r1, .L53+16
 1173 0260 01A8     		add	r0, sp, #4
 1174 0262 FFF7FEFF 		bl	strtok
 1175              	.LVL123:
 1176 0266 0400     		movs	r4, r0
 1177              	.LVL124:
 341:main.c        ****                 if(atoi(token) == last_bill)
 1178              		.loc 1 341 0
 1179 0268 FFF7FEFF 		bl	atoi
 1180              	.LVL125:
 1181 026c 4523     		movs	r3, #69
 1182 026e 6B44     		add	r3, r3, sp
 1183 0270 1B78     		ldrb	r3, [r3]
 1184 0272 9842     		cmp	r0, r3
 1185 0274 46D1     		bne	.L49
 342:main.c        ****                 {
 343:main.c        ****                     temptoken = strtok(NULL, ",");
 1186              		.loc 1 343 0
 1187 0276 2A49     		ldr	r1, .L53+16
 1188 0278 0020     		movs	r0, #0
 1189 027a FFF7FEFF 		bl	strtok
 1190              	.LVL126:
 1191 027e 0600     		movs	r6, r0
 1192              	.LVL127:
 344:main.c        ****                     last_bill = (uint8) atoi(temptoken);
 1193              		.loc 1 344 0
 1194 0280 FFF7FEFF 		bl	atoi
 1195              	.LVL128:
 1196 0284 4523     		movs	r3, #69
 1197 0286 6B44     		add	r3, r3, sp
 1198 0288 1870     		strb	r0, [r3]
 345:main.c        ****                     if((uint8) atoi(temptoken) -  (uint8) atoi(token) > (uint8) bills_left)
 1199              		.loc 1 345 0
 1200 028a 3000     		movs	r0, r6
 1201 028c FFF7FEFF 		bl	atoi
 1202              	.LVL129:
 1203 0290 0700     		movs	r7, r0
 1204 0292 2000     		movs	r0, r4
 1205 0294 FFF7FEFF 		bl	atoi
 1206              	.LVL130:
 1207 0298 FF23     		movs	r3, #255
 1208 029a 1F40     		ands	r7, r3
 1209 029c 1840     		ands	r0, r3
 1210 029e 3F1A     		subs	r7, r7, r0
 1211 02a0 B93B     		subs	r3, r3, #185
 1212 02a2 6B44     		add	r3, r3, sp
 1213 02a4 1B78     		ldrb	r3, [r3]
 1214 02a6 9F42     		cmp	r7, r3
ARM GAS  C:\Users\Admin\AppData\Local\Temp\ccIRWc5S.s 			page 29


 1215 02a8 04DD     		ble	.L50
 346:main.c        ****                     {
 347:main.c        ****                         pushMessage((uint8*)WITH_BAD, strlen(WITH_BAD));
 1216              		.loc 1 347 0
 1217 02aa 0321     		movs	r1, #3
 1218 02ac 1B48     		ldr	r0, .L53+12
 1219 02ae FFF7FEFF 		bl	pushMessage
 1220              	.LVL131:
 1221 02b2 27E0     		b	.L49
 1222              	.L50:
 1223              	.LBB16:
 348:main.c        ****                     }
 349:main.c        ****                     else
 350:main.c        ****                     {
 351:main.c        ****                         for (uint8 i = (uint8) atoi(token); i < (uint8) atoi(temptoken); i++)
 1224              		.loc 1 351 0
 1225 02b4 2000     		movs	r0, r4
 1226 02b6 FFF7FEFF 		bl	atoi
 1227              	.LVL132:
 1228 02ba C4B2     		uxtb	r4, r0
 1229              	.LVL133:
 1230 02bc 0DE0     		b	.L51
 1231              	.L52:
 352:main.c        ****                         {   
 353:main.c        ****                             dispenseBill();
 1232              		.loc 1 353 0 discriminator 3
 1233 02be FFF7FEFF 		bl	dispenseBill
 1234              	.LVL134:
 354:main.c        ****                             bills_left = bills_left - 1;
 1235              		.loc 1 354 0 discriminator 3
 1236 02c2 4620     		movs	r0, #70
 1237 02c4 6844     		add	r0, r0, sp
 1238 02c6 0378     		ldrb	r3, [r0]
 1239 02c8 013B     		subs	r3, r3, #1
 1240 02ca 0370     		strb	r3, [r0]
 355:main.c        ****                             PIGGY_BANK_Write(&bills_left, BILLS_LEFT, 0x01);
 1241              		.loc 1 355 0 discriminator 3
 1242 02cc 0122     		movs	r2, #1
 1243 02ce 1149     		ldr	r1, .L53+4
 1244 02d0 2431     		adds	r1, r1, #36
 1245 02d2 FFF7FEFF 		bl	PIGGY_BANK_Write
 1246              	.LVL135:
 351:main.c        ****                         {   
 1247              		.loc 1 351 0 discriminator 3
 1248 02d6 0134     		adds	r4, r4, #1
 1249              	.LVL136:
 1250 02d8 E4B2     		uxtb	r4, r4
 1251              	.LVL137:
 1252              	.L51:
 351:main.c        ****                         {   
 1253              		.loc 1 351 0 is_stmt 0 discriminator 1
 1254 02da 3000     		movs	r0, r6
 1255 02dc FFF7FEFF 		bl	atoi
 1256              	.LVL138:
 1257 02e0 FF23     		movs	r3, #255
 1258 02e2 1840     		ands	r0, r3
 1259 02e4 8442     		cmp	r4, r0
ARM GAS  C:\Users\Admin\AppData\Local\Temp\ccIRWc5S.s 			page 30


 1260 02e6 EADB     		blt	.L52
 1261              	.LBE16:
 356:main.c        ****                         }
 357:main.c        ****                         PIGGY_BANK_Write((uint8*)1, (uint8*)&FLAG, 1);
 1262              		.loc 1 357 0 is_stmt 1
 1263 02e8 0A4C     		ldr	r4, .L53+4
 1264              	.LVL139:
 1265 02ea 2100     		movs	r1, r4
 1266 02ec 3531     		adds	r1, r1, #53
 1267 02ee 0122     		movs	r2, #1
 1268 02f0 0120     		movs	r0, #1
 1269 02f2 FFF7FEFF 		bl	PIGGY_BANK_Write
 1270              	.LVL140:
 358:main.c        ****                         PIGGY_BANK_Write(&last_bill, LAST_BILL, 0x01);
 1271              		.loc 1 358 0
 1272 02f6 2100     		movs	r1, r4
 1273 02f8 3031     		adds	r1, r1, #48
 1274 02fa 0122     		movs	r2, #1
 1275 02fc 4520     		movs	r0, #69
 1276 02fe 6844     		add	r0, r0, sp
 1277 0300 FFF7FEFF 		bl	PIGGY_BANK_Write
 1278              	.LVL141:
 1279              	.L49:
 359:main.c        ****                     }
 360:main.c        ****                 }
 361:main.c        ****                 pushMessage((uint8*)RECV_OK, strlen(RECV_OK));
 1280              		.loc 1 361 0
 1281 0304 0121     		movs	r1, #1
 1282 0306 0448     		ldr	r0, .L53+8
 1283 0308 FFF7FEFF 		bl	pushMessage
 1284              	.LVL142:
 1285 030c AEE6     		b	.L39
 1286              	.L54:
 1287 030e C046     		.align	2
 1288              	.L53:
 1289 0310 00000000 		.word	Reset_ISR
 1290 0314 00080000 		.word	.LANCHOR1
 1291 0318 20000000 		.word	.LC6
 1292 031c 24000000 		.word	.LC20
 1293 0320 28000000 		.word	.LC22
 1294              		.cfi_endproc
 1295              	.LFE39:
 1296              		.size	main, .-main
 1297              		.section	.rodata
 1298              		.align	2
 1299              		.set	.LANCHOR0,. + 0
 1300              		.set	.LANCHOR1,. + 2048
 1301              		.type	MONEY, %object
 1302              		.size	MONEY, 2048
 1303              	MONEY:
 1304 0000 2A2A2A2A 		.ascii	"*****EMPTY*****\000"
 1304      2A454D50 
 1304      54592A2A 
 1304      2A2A2A00 
 1305 0010 00000000 		.space	2032
 1305      00000000 
 1305      00000000 
ARM GAS  C:\Users\Admin\AppData\Local\Temp\ccIRWc5S.s 			page 31


 1305      00000000 
 1305      00000000 
 1306              		.type	ATM_UUID, %object
 1307              		.size	ATM_UUID, 36
 1308              	ATM_UUID:
 1309 0800 00000000 		.space	36
 1309      00000000 
 1309      00000000 
 1309      00000000 
 1309      00000000 
 1310              		.type	BILLS_LEFT, %object
 1311              		.size	BILLS_LEFT, 1
 1312              	BILLS_LEFT:
 1313 0824 00       		.space	1
 1314 0825 000000   		.space	3
 1315              		.type	STACKLOC.5900, %object
 1316              		.size	STACKLOC.5900, 1
 1317              	STACKLOC.5900:
 1318 0828 00       		.space	1
 1319 0829 000000   		.space	3
 1320              	.LC17:
 1321 082c 00       		.ascii	"\000"
 1322 082d 0000     		.space	2
 1323 082f 00       		.space	1
 1324              		.type	LAST_BILL, %object
 1325              		.size	LAST_BILL, 1
 1326              	LAST_BILL:
 1327 0830 00       		.space	1
 1328 0831 000000   		.space	3
 1329              		.type	PROVISIONED.5918, %object
 1330              		.size	PROVISIONED.5918, 1
 1331              	PROVISIONED.5918:
 1332 0834 00       		.space	1
 1333              		.type	FLAG, %object
 1334              		.size	FLAG, 1
 1335              	FLAG:
 1336 0835 00       		.space	1
 1337              		.section	.rodata.str1.4,"aMS",%progbits,1
 1338              		.align	2
 1339              	.LC0:
 1340 0000 496E2069 		.ascii	"In interrupt\012\000"
 1340      6E746572 
 1340      72757074 
 1340      0A00
 1341 000e 0000     		.space	2
 1342              	.LC3:
 1343 0010 2A2A2A2A 		.ascii	"*****EMPTY*****\000"
 1343      2A454D50 
 1343      54592A2A 
 1343      2A2A2A00 
 1344              	.LC6:
 1345 0020 4B00     		.ascii	"K\000"
 1346 0022 0000     		.space	2
 1347              	.LC20:
 1348 0024 42414400 		.ascii	"BAD\000"
 1349              	.LC22:
 1350 0028 2C00     		.ascii	",\000"
ARM GAS  C:\Users\Admin\AppData\Local\Temp\ccIRWc5S.s 			page 32


 1351              		.bss
 1352              		.align	2
 1353              		.set	.LANCHOR2,. + 0
 1354              		.type	flag.5877, %object
 1355              		.size	flag.5877, 4
 1356              	flag.5877:
 1357 0000 00000000 		.space	4
 1358              		.type	ctx.5876, %object
 1359              		.size	ctx.5876, 240
 1360              	ctx.5876:
 1361 0004 00000000 		.space	240
 1361      00000000 
 1361      00000000 
 1361      00000000 
 1361      00000000 
 1362              		.text
 1363              	.Letext0:
 1364              		.file 3 "c:\\program files (x86)\\cypress\\psoc creator\\4.1\\psoc creator\\import\\gnu\\arm\\5.4.
 1365              		.file 4 "c:\\program files (x86)\\cypress\\psoc creator\\4.1\\psoc creator\\import\\gnu\\arm\\5.4.
 1366              		.file 5 "Generated_Source\\PSoC4/cytypes.h"
 1367              		.file 6 "usbserialprotocol.h"
 1368              		.file 7 "Generated_Source\\PSoC4/SW1.h"
 1369              		.file 8 "Generated_Source\\PSoC4/CyLib.h"
 1370              		.file 9 "c:\\program files (x86)\\cypress\\psoc creator\\4.1\\psoc creator\\import\\gnu\\arm\\5.4.
 1371              		.file 10 "SuperFastHash.h"
 1372              		.file 11 "Generated_Source\\PSoC4/PIGGY_BANK.h"
 1373              		.file 12 "aes.h"
 1374              		.file 13 "c:\\program files (x86)\\cypress\\psoc creator\\4.1\\psoc creator\\import\\gnu\\arm\\5.4
 1375              		.file 14 "Generated_Source\\PSoC4/Reset_isr.h"
 1376              		.file 15 "Generated_Source\\PSoC4/DB_UART.h"