ARM GAS  C:\Users\Admin\AppData\Local\Temp\ccGR7apl.s 			page 1


   1              		.syntax unified
   2              		.cpu cortex-m0
   3              		.fpu softvfp
   4              		.eabi_attribute 20, 1
   5              		.eabi_attribute 21, 1
   6              		.eabi_attribute 23, 3
   7              		.eabi_attribute 24, 1
   8              		.eabi_attribute 25, 1
   9              		.eabi_attribute 26, 1
  10              		.eabi_attribute 30, 1
  11              		.eabi_attribute 34, 0
  12              		.eabi_attribute 18, 4
  13              		.thumb
  14              		.syntax unified
  15              		.file	"usbserialprotocol.c"
  16              		.text
  17              	.Ltext0:
  18              		.cfi_sections	.debug_frame
  19              		.section	.text.getValidByte,"ax",%progbits
  20              		.align	2
  21              		.global	getValidByte
  22              		.code	16
  23              		.thumb_func
  24              		.type	getValidByte, %function
  25              	getValidByte:
  26              	.LFB34:
  27              		.file 1 "usbserialprotocol.c"
   1:usbserialprotocol.c **** /* ========================================
   2:usbserialprotocol.c ****  *
   3:usbserialprotocol.c ****  * Copyright YOUR COMPANY, THE YEAR
   4:usbserialprotocol.c ****  * All Rights Reserved
   5:usbserialprotocol.c ****  * UNPUBLISHED, LICENSED SOFTWARE.
   6:usbserialprotocol.c ****  *
   7:usbserialprotocol.c ****  * CONFIDENTIAL AND PROPRIETARY INFORMATION
   8:usbserialprotocol.c ****  * WHICH IS THE PROPERTY OF your company.
   9:usbserialprotocol.c ****  *
  10:usbserialprotocol.c ****  * ========================================
  11:usbserialprotocol.c **** */
  12:usbserialprotocol.c **** 
  13:usbserialprotocol.c **** #include "usbserialprotocol.h"
  14:usbserialprotocol.c **** 
  15:usbserialprotocol.c **** #define RECV_OK 0
  16:usbserialprotocol.c **** #define RECV_ER 1
  17:usbserialprotocol.c **** #define RDY_MSG_RECV "READY"
  18:usbserialprotocol.c **** #define RDY_MSG_NORM "HSM_N"
  19:usbserialprotocol.c **** #define RDY_MSG_PROV "HSM_P"
  20:usbserialprotocol.c **** #define RDY_BAD "BAD"
  21:usbserialprotocol.c **** #define GO_MSG "GO"
  22:usbserialprotocol.c **** 
  23:usbserialprotocol.c **** 
  24:usbserialprotocol.c **** uint8 getValidByte()
  25:usbserialprotocol.c **** {
  28              		.loc 1 25 0
  29              		.cfi_startproc
  30              		@ args = 0, pretend = 0, frame = 0
  31              		@ frame_needed = 0, uses_anonymous_args = 0
  32 0000 10B5     		push	{r4, lr}
ARM GAS  C:\Users\Admin\AppData\Local\Temp\ccGR7apl.s 			page 2


  33              		.cfi_def_cfa_offset 8
  34              		.cfi_offset 4, -8
  35              		.cfi_offset 14, -4
  36              	.L2:
  26:usbserialprotocol.c ****     uint8 retval = 0u;
  27:usbserialprotocol.c ****     while(DB_UART_SpiUartGetRxBufferSize() < 1); // wait for byte
  37              		.loc 1 27 0 discriminator 1
  38 0002 FFF7FEFF 		bl	DB_UART_SpiUartGetRxBufferSize
  39              	.LVL0:
  40 0006 0028     		cmp	r0, #0
  41 0008 FBD0     		beq	.L2
  28:usbserialprotocol.c ****     retval = DB_UART_UartGetByte();
  42              		.loc 1 28 0
  43 000a FFF7FEFF 		bl	DB_UART_UartGetByte
  44              	.LVL1:
  45 000e C0B2     		uxtb	r0, r0
  46              	.LVL2:
  29:usbserialprotocol.c ****     return retval;
  30:usbserialprotocol.c **** }
  47              		.loc 1 30 0
  48              		@ sp needed
  49 0010 10BD     		pop	{r4, pc}
  50              		.cfi_endproc
  51              	.LFE34:
  52              		.size	getValidByte, .-getValidByte
  53 0012 C046     		.section	.text.pushMessage,"ax",%progbits
  54              		.align	2
  55              		.global	pushMessage
  56              		.code	16
  57              		.thumb_func
  58              		.type	pushMessage, %function
  59              	pushMessage:
  60              	.LFB35:
  31:usbserialprotocol.c **** 
  32:usbserialprotocol.c **** 
  33:usbserialprotocol.c **** int pushMessage(const uint8 data[], uint8 size)
  34:usbserialprotocol.c **** {
  61              		.loc 1 34 0
  62              		.cfi_startproc
  63              		@ args = 0, pretend = 0, frame = 0
  64              		@ frame_needed = 0, uses_anonymous_args = 0
  65              	.LVL3:
  66 0000 70B5     		push	{r4, r5, r6, lr}
  67              		.cfi_def_cfa_offset 16
  68              		.cfi_offset 4, -16
  69              		.cfi_offset 5, -12
  70              		.cfi_offset 6, -8
  71              		.cfi_offset 14, -4
  72 0002 0600     		movs	r6, r0
  73 0004 0D00     		movs	r5, r1
  35:usbserialprotocol.c ****     int i;
  36:usbserialprotocol.c **** 
  37:usbserialprotocol.c ****     DB_UART_UartPutChar(size);
  74              		.loc 1 37 0
  75 0006 0800     		movs	r0, r1
  76              	.LVL4:
  77 0008 FFF7FEFF 		bl	DB_UART_SpiUartWriteTxData
ARM GAS  C:\Users\Admin\AppData\Local\Temp\ccGR7apl.s 			page 3


  78              	.LVL5:
  38:usbserialprotocol.c ****     
  39:usbserialprotocol.c ****     for (i = 0; i < size; i++) {
  79              		.loc 1 39 0
  80 000c 0024     		movs	r4, #0
  81 000e 03E0     		b	.L4
  82              	.LVL6:
  83              	.L5:
  40:usbserialprotocol.c ****         DB_UART_UartPutChar(data[i]);   
  84              		.loc 1 40 0 discriminator 3
  85 0010 305D     		ldrb	r0, [r6, r4]
  86 0012 FFF7FEFF 		bl	DB_UART_SpiUartWriteTxData
  87              	.LVL7:
  39:usbserialprotocol.c ****         DB_UART_UartPutChar(data[i]);   
  88              		.loc 1 39 0 discriminator 3
  89 0016 0134     		adds	r4, r4, #1
  90              	.LVL8:
  91              	.L4:
  39:usbserialprotocol.c ****         DB_UART_UartPutChar(data[i]);   
  92              		.loc 1 39 0 is_stmt 0 discriminator 1
  93 0018 AC42     		cmp	r4, r5
  94 001a F9DB     		blt	.L5
  41:usbserialprotocol.c ****     }
  42:usbserialprotocol.c ****     
  43:usbserialprotocol.c ****     return RECV_OK;
  44:usbserialprotocol.c **** }
  95              		.loc 1 44 0 is_stmt 1
  96 001c 0020     		movs	r0, #0
  97              		@ sp needed
  98              	.LVL9:
  99              	.LVL10:
 100 001e 70BD     		pop	{r4, r5, r6, pc}
 101              		.cfi_endproc
 102              	.LFE35:
 103              		.size	pushMessage, .-pushMessage
 104              		.section	.text.pullMessage,"ax",%progbits
 105              		.align	2
 106              		.global	pullMessage
 107              		.code	16
 108              		.thumb_func
 109              		.type	pullMessage, %function
 110              	pullMessage:
 111              	.LFB36:
  45:usbserialprotocol.c **** 
  46:usbserialprotocol.c **** 
  47:usbserialprotocol.c **** uint8 pullMessage(uint8 data[])
  48:usbserialprotocol.c **** {
 112              		.loc 1 48 0
 113              		.cfi_startproc
 114              		@ args = 0, pretend = 0, frame = 8
 115              		@ frame_needed = 0, uses_anonymous_args = 0
 116              	.LVL11:
 117 0000 F0B5     		push	{r4, r5, r6, r7, lr}
 118              		.cfi_def_cfa_offset 20
 119              		.cfi_offset 4, -20
 120              		.cfi_offset 5, -16
 121              		.cfi_offset 6, -12
ARM GAS  C:\Users\Admin\AppData\Local\Temp\ccGR7apl.s 			page 4


 122              		.cfi_offset 7, -8
 123              		.cfi_offset 14, -4
 124 0002 83B0     		sub	sp, sp, #12
 125              		.cfi_def_cfa_offset 32
 126 0004 0600     		movs	r6, r0
  49:usbserialprotocol.c ****     int i, len;
  50:usbserialprotocol.c ****     
  51:usbserialprotocol.c ****     len = getValidByte();
 127              		.loc 1 51 0
 128 0006 FFF7FEFF 		bl	getValidByte
 129              	.LVL12:
 130 000a 0190     		str	r0, [sp, #4]
 131 000c 0700     		movs	r7, r0
 132              	.LVL13:
  52:usbserialprotocol.c ****     
  53:usbserialprotocol.c ****     for (i = 0; i < len; i++) {
 133              		.loc 1 53 0
 134 000e 0024     		movs	r4, #0
 135 0010 04E0     		b	.L7
 136              	.LVL14:
 137              	.L8:
  54:usbserialprotocol.c ****         data[i] = getValidByte();   
 138              		.loc 1 54 0 discriminator 3
 139 0012 3519     		adds	r5, r6, r4
 140 0014 FFF7FEFF 		bl	getValidByte
 141              	.LVL15:
 142 0018 2870     		strb	r0, [r5]
  53:usbserialprotocol.c ****         data[i] = getValidByte();   
 143              		.loc 1 53 0 discriminator 3
 144 001a 0134     		adds	r4, r4, #1
 145              	.LVL16:
 146              	.L7:
  53:usbserialprotocol.c ****         data[i] = getValidByte();   
 147              		.loc 1 53 0 is_stmt 0 discriminator 1
 148 001c BC42     		cmp	r4, r7
 149 001e F8DB     		blt	.L8
  55:usbserialprotocol.c ****     }
  56:usbserialprotocol.c ****     
  57:usbserialprotocol.c ****     return len;
  58:usbserialprotocol.c **** }
 150              		.loc 1 58 0 is_stmt 1
 151 0020 0198     		ldr	r0, [sp, #4]
 152 0022 03B0     		add	sp, sp, #12
 153              		@ sp needed
 154              	.LVL17:
 155              	.LVL18:
 156              	.LVL19:
 157 0024 F0BD     		pop	{r4, r5, r6, r7, pc}
 158              		.cfi_endproc
 159              	.LFE36:
 160              		.size	pullMessage, .-pullMessage
 161 0026 C046     		.section	.text.syncConnection,"ax",%progbits
 162              		.align	2
 163              		.global	syncConnection
 164              		.code	16
 165              		.thumb_func
 166              		.type	syncConnection, %function
ARM GAS  C:\Users\Admin\AppData\Local\Temp\ccGR7apl.s 			page 5


 167              	syncConnection:
 168              	.LFB37:
  59:usbserialprotocol.c **** 
  60:usbserialprotocol.c **** /* 
  61:usbserialprotocol.c ****  * generic PSoC synchronization protocol:
  62:usbserialprotocol.c ****  *
  63:usbserialprotocol.c ****  * 1) ATM -> "READY" -> PSoC
  64:usbserialprotocol.c ****  * 2) if bad:  PSoC -> received bad message -> ATM; goto 1)
  65:usbserialprotocol.c ****  *    if good: PSoC -> PSoC name (prov/norm) -> ATM
  66:usbserialprotocol.c ****  * 3) ATM -> "GO" -> PSoC
  67:usbserialprotocol.c ****  * 4) if bad: goto 1)
  68:usbserialprotocol.c ****  */
  69:usbserialprotocol.c **** void syncConnection(int prov) 
  70:usbserialprotocol.c **** {
 169              		.loc 1 70 0
 170              		.cfi_startproc
 171              		@ args = 0, pretend = 0, frame = 8
 172              		@ frame_needed = 0, uses_anonymous_args = 0
 173              	.LVL20:
 174 0000 10B5     		push	{r4, lr}
 175              		.cfi_def_cfa_offset 8
 176              		.cfi_offset 4, -8
 177              		.cfi_offset 14, -4
 178 0002 82B0     		sub	sp, sp, #8
 179              		.cfi_def_cfa_offset 16
 180 0004 0400     		movs	r4, r0
  71:usbserialprotocol.c ****     uint8 message[6];
  72:usbserialprotocol.c ****     memset(message,0,6);    
 181              		.loc 1 72 0
 182 0006 0622     		movs	r2, #6
 183 0008 0021     		movs	r1, #0
 184 000a 6846     		mov	r0, sp
 185              	.LVL21:
 186 000c FFF7FEFF 		bl	memset
 187              	.LVL22:
 188              	.L13:
  73:usbserialprotocol.c ****     // marco-polo with bank until connection is in sync
  74:usbserialprotocol.c ****     do {
  75:usbserialprotocol.c ****         pullMessage(message);                               // 1)
 189              		.loc 1 75 0
 190 0010 6846     		mov	r0, sp
 191 0012 FFF7FEFF 		bl	pullMessage
 192              	.LVL23:
  76:usbserialprotocol.c ****         pushMessage(message, 6);
 193              		.loc 1 76 0
 194 0016 0621     		movs	r1, #6
 195 0018 6846     		mov	r0, sp
 196 001a FFF7FEFF 		bl	pushMessage
 197              	.LVL24:
  77:usbserialprotocol.c ****         if ( strcmp((char*)message, RDY_MSG_RECV) ) {
 198              		.loc 1 77 0
 199 001e 1349     		ldr	r1, .L14
 200 0020 6846     		mov	r0, sp
 201 0022 FFF7FEFF 		bl	strcmp
 202              	.LVL25:
 203 0026 0028     		cmp	r0, #0
 204 0028 06D0     		beq	.L10
ARM GAS  C:\Users\Admin\AppData\Local\Temp\ccGR7apl.s 			page 6


  78:usbserialprotocol.c ****             pushMessage(message, 6);   // 2) bad
 205              		.loc 1 78 0
 206 002a 0621     		movs	r1, #6
 207 002c 6846     		mov	r0, sp
 208 002e FFF7FEFF 		bl	pushMessage
 209              	.LVL26:
  79:usbserialprotocol.c ****             strcpy((char*)message, RDY_BAD);
 210              		.loc 1 79 0
 211 0032 0F4B     		ldr	r3, .L14+4
 212 0034 0093     		str	r3, [sp]
 213 0036 10E0     		b	.L11
 214              	.L10:
  80:usbserialprotocol.c ****         } else if (prov) {
 215              		.loc 1 80 0
 216 0038 002C     		cmp	r4, #0
 217 003a 07D0     		beq	.L12
  81:usbserialprotocol.c ****             pushMessage((uint8*)RDY_MSG_PROV, 
 218              		.loc 1 81 0
 219 003c 0521     		movs	r1, #5
 220 003e 0D48     		ldr	r0, .L14+8
 221 0040 FFF7FEFF 		bl	pushMessage
 222              	.LVL27:
  82:usbserialprotocol.c ****                         5);              // 2) good prov
  83:usbserialprotocol.c ****             
  84:usbserialprotocol.c ****             pullMessage(message);                           // 3)
 223              		.loc 1 84 0
 224 0044 6846     		mov	r0, sp
 225 0046 FFF7FEFF 		bl	pullMessage
 226              	.LVL28:
 227 004a 06E0     		b	.L11
 228              	.L12:
  85:usbserialprotocol.c ****         } else {
  86:usbserialprotocol.c ****             pushMessage((uint8*)"HSM_N", 
 229              		.loc 1 86 0
 230 004c 0521     		movs	r1, #5
 231 004e 0A48     		ldr	r0, .L14+12
 232 0050 FFF7FEFF 		bl	pushMessage
 233              	.LVL29:
  87:usbserialprotocol.c ****                         5);              // 2) good norm
  88:usbserialprotocol.c ****             
  89:usbserialprotocol.c ****             pullMessage(message);                           // 3
 234              		.loc 1 89 0
 235 0054 6846     		mov	r0, sp
 236 0056 FFF7FEFF 		bl	pullMessage
 237              	.LVL30:
 238              	.L11:
  90:usbserialprotocol.c ****         }
  91:usbserialprotocol.c ****         
  92:usbserialprotocol.c ****     } while (strcmp((char*)message, GO_MSG));               // 4)
 239              		.loc 1 92 0
 240 005a 0849     		ldr	r1, .L14+16
 241 005c 6846     		mov	r0, sp
 242 005e FFF7FEFF 		bl	strcmp
 243              	.LVL31:
 244 0062 0028     		cmp	r0, #0
 245 0064 D4D1     		bne	.L13
  93:usbserialprotocol.c **** }
ARM GAS  C:\Users\Admin\AppData\Local\Temp\ccGR7apl.s 			page 7


 246              		.loc 1 93 0
 247 0066 02B0     		add	sp, sp, #8
 248              		@ sp needed
 249              	.LVL32:
 250 0068 10BD     		pop	{r4, pc}
 251              	.L15:
 252 006a C046     		.align	2
 253              	.L14:
 254 006c 00000000 		.word	.LC0
 255 0070 42414400 		.word	4473154
 256 0074 08000000 		.word	.LC2
 257 0078 10000000 		.word	.LC4
 258 007c 18000000 		.word	.LC6
 259              		.cfi_endproc
 260              	.LFE37:
 261              		.size	syncConnection, .-syncConnection
 262              		.section	.rodata.str1.4,"aMS",%progbits,1
 263              		.align	2
 264              	.LC0:
 265 0000 52454144 		.ascii	"READY\000"
 265      5900
 266 0006 0000     		.space	2
 267              	.LC2:
 268 0008 48534D5F 		.ascii	"HSM_P\000"
 268      5000
 269 000e 0000     		.space	2
 270              	.LC4:
 271 0010 48534D5F 		.ascii	"HSM_N\000"
 271      4E00
 272 0016 0000     		.space	2
 273              	.LC6:
 274 0018 474F00   		.ascii	"GO\000"
 275              		.text
 276              	.Letext0:
 277              		.file 2 "Generated_Source\\PSoC4/cytypes.h"
 278              		.file 3 "Generated_Source\\PSoC4/DB_UART_SPI_UART.h"
 279              		.file 4 "c:\\program files (x86)\\cypress\\psoc creator\\4.1\\psoc creator\\import\\gnu\\arm\\5.4.