ARM GAS  C:\Users\NIGHDR~1\AppData\Local\Temp\ccZdFzWs.s 			page 1


   1              		.syntax unified
   2              		.cpu cortex-m0
   3              		.fpu softvfp
   4              		.eabi_attribute 20, 1
   5              		.eabi_attribute 21, 1
   6              		.eabi_attribute 23, 3
   7              		.eabi_attribute 24, 1
   8              		.eabi_attribute 25, 1
   9              		.eabi_attribute 26, 1
  10              		.eabi_attribute 30, 1
  11              		.eabi_attribute 34, 0
  12              		.eabi_attribute 18, 4
  13              		.thumb
  14              		.syntax unified
  15              		.file	"add_scalar.c"
  16              		.text
  17              	.Ltext0:
  18              		.cfi_sections	.debug_frame
  19              		.section	.text.ed25519_add_scalar,"ax",%progbits
  20              		.align	2
  21              		.global	ed25519_add_scalar
  22              		.code	16
  23              		.thumb_func
  24              		.type	ed25519_add_scalar, %function
  25              	ed25519_add_scalar:
  26              	.LFB0:
  27              		.file 1 "add_scalar.c"
   1:add_scalar.c  **** #include "ed25519.h"
   2:add_scalar.c  **** #include "ge.h"
   3:add_scalar.c  **** #include "sc.h"
   4:add_scalar.c  **** #include "sha512.h"
   5:add_scalar.c  **** 
   6:add_scalar.c  **** 
   7:add_scalar.c  **** /* see http://crypto.stackexchange.com/a/6215/4697 */
   8:add_scalar.c  **** void ed25519_add_scalar(unsigned char *public_key, unsigned char *private_key, const unsigned char 
  28              		.loc 1 8 0
  29              		.cfi_startproc
  30              		@ args = 0, pretend = 0, frame = 1136
  31              		@ frame_needed = 0, uses_anonymous_args = 0
  32              	.LVL0:
  33 0000 F0B5     		push	{r4, r5, r6, r7, lr}
  34              		.cfi_def_cfa_offset 20
  35              		.cfi_offset 4, -20
  36              		.cfi_offset 5, -16
  37              		.cfi_offset 6, -12
  38              		.cfi_offset 7, -8
  39              		.cfi_offset 14, -4
  40 0002 374C     		ldr	r4, .L10
  41 0004 A544     		add	sp, sp, r4
  42              		.cfi_def_cfa_offset 1160
  43 0006 0400     		movs	r4, r0
  44 0008 0D00     		movs	r5, r1
  45 000a 1600     		movs	r6, r2
   9:add_scalar.c  ****     const unsigned char SC_1[32] = {1}; /* scalar with value 1 */
  46              		.loc 1 9 0
  47 000c FFAF     		add	r7, sp, #1020
  48 000e 5437     		adds	r7, r7, #84
ARM GAS  C:\Users\NIGHDR~1\AppData\Local\Temp\ccZdFzWs.s 			page 2


  49 0010 2022     		movs	r2, #32
  50              	.LVL1:
  51 0012 0021     		movs	r1, #0
  52              	.LVL2:
  53 0014 3800     		movs	r0, r7
  54              	.LVL3:
  55 0016 FFF7FEFF 		bl	memset
  56              	.LVL4:
  57 001a 0123     		movs	r3, #1
  58 001c 3B70     		strb	r3, [r7]
  59              	.LVL5:
  10:add_scalar.c  ****     
  11:add_scalar.c  ****     unsigned char n[32]; 
  12:add_scalar.c  ****     ge_p3 nB;
  13:add_scalar.c  ****     ge_p1p1 A_p1p1;
  14:add_scalar.c  ****     ge_p3 A;
  15:add_scalar.c  ****     ge_p3 public_key_unpacked;
  16:add_scalar.c  ****     ge_cached T;
  17:add_scalar.c  **** 
  18:add_scalar.c  ****     sha512_context hash;
  19:add_scalar.c  ****     unsigned char hashbuf[64];
  20:add_scalar.c  **** 
  21:add_scalar.c  ****     int i;
  22:add_scalar.c  **** 
  23:add_scalar.c  ****     /* copy the scalar and clear highest bit */
  24:add_scalar.c  ****     for (i = 0; i < 31; ++i) {
  60              		.loc 1 24 0
  61 001e 0023     		movs	r3, #0
  62 0020 04E0     		b	.L2
  63              	.LVL6:
  64              	.L3:
  25:add_scalar.c  ****         n[i] = scalar[i];
  65              		.loc 1 25 0 discriminator 3
  66 0022 F15C     		ldrb	r1, [r6, r3]
  67 0024 FFAA     		add	r2, sp, #1020
  68 0026 3432     		adds	r2, r2, #52
  69 0028 D154     		strb	r1, [r2, r3]
  24:add_scalar.c  ****         n[i] = scalar[i];
  70              		.loc 1 24 0 discriminator 3
  71 002a 0133     		adds	r3, r3, #1
  72              	.LVL7:
  73              	.L2:
  24:add_scalar.c  ****         n[i] = scalar[i];
  74              		.loc 1 24 0 is_stmt 0 discriminator 1
  75 002c 1E2B     		cmp	r3, #30
  76 002e F8DD     		ble	.L3
  26:add_scalar.c  ****     }
  27:add_scalar.c  ****     n[31] = scalar[31] & 127;
  77              		.loc 1 27 0 is_stmt 1
  78 0030 F37F     		ldrb	r3, [r6, #31]
  79              	.LVL8:
  80 0032 7F22     		movs	r2, #127
  81 0034 1340     		ands	r3, r2
  82 0036 FFAA     		add	r2, sp, #1020
  83 0038 3432     		adds	r2, r2, #52
  84 003a D377     		strb	r3, [r2, #31]
  28:add_scalar.c  **** 
ARM GAS  C:\Users\NIGHDR~1\AppData\Local\Temp\ccZdFzWs.s 			page 3


  29:add_scalar.c  ****     /* private key: a = n + t */
  30:add_scalar.c  ****     if (private_key) {
  85              		.loc 1 30 0
  86 003c 002D     		cmp	r5, #0
  87 003e 21D0     		beq	.L4
  31:add_scalar.c  ****         sc_muladd(private_key, SC_1, n, private_key);
  88              		.loc 1 31 0
  89 0040 2B00     		movs	r3, r5
  90 0042 FFA9     		add	r1, sp, #1020
  91 0044 5431     		adds	r1, r1, #84
  92 0046 2800     		movs	r0, r5
  93 0048 FFF7FEFF 		bl	sc_muladd
  94              	.LVL9:
  32:add_scalar.c  **** 
  33:add_scalar.c  ****         // https://github.com/orlp/ed25519/issues/3
  34:add_scalar.c  ****         sha512_init(&hash);
  95              		.loc 1 34 0
  96 004c 10A8     		add	r0, sp, #64
  97 004e FFF7FEFF 		bl	sha512_init
  98              	.LVL10:
  35:add_scalar.c  ****         sha512_update(&hash, private_key + 32, 32);
  99              		.loc 1 35 0
 100 0052 2900     		movs	r1, r5
 101 0054 2031     		adds	r1, r1, #32
 102 0056 2022     		movs	r2, #32
 103 0058 10A8     		add	r0, sp, #64
 104 005a FFF7FEFF 		bl	sha512_update
 105              	.LVL11:
  36:add_scalar.c  ****         sha512_update(&hash, scalar, 32);
 106              		.loc 1 36 0
 107 005e 2022     		movs	r2, #32
 108 0060 3100     		movs	r1, r6
 109 0062 10A8     		add	r0, sp, #64
 110 0064 FFF7FEFF 		bl	sha512_update
 111              	.LVL12:
  37:add_scalar.c  ****         sha512_final(&hash, hashbuf);
 112              		.loc 1 37 0
 113 0068 6946     		mov	r1, sp
 114 006a 10A8     		add	r0, sp, #64
 115 006c FFF7FEFF 		bl	sha512_final
 116              	.LVL13:
  38:add_scalar.c  ****         for (i = 0; i < 32; ++i) {
 117              		.loc 1 38 0
 118 0070 0023     		movs	r3, #0
 119 0072 05E0     		b	.L5
 120              	.LVL14:
 121              	.L6:
  39:add_scalar.c  ****             private_key[32 + i] = hashbuf[i];
 122              		.loc 1 39 0 discriminator 3
 123 0074 1A00     		movs	r2, r3
 124 0076 2032     		adds	r2, r2, #32
 125 0078 6946     		mov	r1, sp
 126 007a C95C     		ldrb	r1, [r1, r3]
 127 007c A954     		strb	r1, [r5, r2]
  38:add_scalar.c  ****         for (i = 0; i < 32; ++i) {
 128              		.loc 1 38 0 discriminator 3
 129 007e 0133     		adds	r3, r3, #1
ARM GAS  C:\Users\NIGHDR~1\AppData\Local\Temp\ccZdFzWs.s 			page 4


 130              	.LVL15:
 131              	.L5:
  38:add_scalar.c  ****         for (i = 0; i < 32; ++i) {
 132              		.loc 1 38 0 is_stmt 0 discriminator 1
 133 0080 1F2B     		cmp	r3, #31
 134 0082 F7DD     		ble	.L6
 135              	.LVL16:
 136              	.L4:
  40:add_scalar.c  ****         }
  41:add_scalar.c  ****     }
  42:add_scalar.c  **** 
  43:add_scalar.c  ****     /* public key: A = nB + T */
  44:add_scalar.c  ****     if (public_key) {
 137              		.loc 1 44 0 is_stmt 1
 138 0084 002C     		cmp	r4, #0
 139 0086 28D0     		beq	.L1
  45:add_scalar.c  ****         /* if we know the private key we don't need a point addition, which is faster */
  46:add_scalar.c  ****         /* using a "timing attack" you could find out wether or not we know the private
  47:add_scalar.c  ****            key, but this information seems rather useless - if this is important pass
  48:add_scalar.c  ****            public_key and private_key seperately in 2 function calls */
  49:add_scalar.c  ****         if (private_key) {
 140              		.loc 1 49 0
 141 0088 002D     		cmp	r5, #0
 142 008a 04D0     		beq	.L8
  50:add_scalar.c  ****             ge_scalarmult_base(&A, private_key);
 143              		.loc 1 50 0
 144 008c 2900     		movs	r1, r5
 145 008e 94A8     		add	r0, sp, #592
 146 0090 FFF7FEFF 		bl	ge_scalarmult_base
 147              	.LVL17:
 148 0094 1DE0     		b	.L9
 149              	.L8:
  51:add_scalar.c  ****         } else {
  52:add_scalar.c  ****             /* unpack public key into T */
  53:add_scalar.c  ****             ge_frombytes_negate_vartime(&public_key_unpacked, public_key);
 150              		.loc 1 53 0
 151 0096 2100     		movs	r1, r4
 152 0098 6CA8     		add	r0, sp, #432
 153 009a FFF7FEFF 		bl	ge_frombytes_negate_vartime
 154              	.LVL18:
  54:add_scalar.c  ****             fe_neg(public_key_unpacked.X, public_key_unpacked.X); /* undo negate */
 155              		.loc 1 54 0
 156 009e 6CA9     		add	r1, sp, #432
 157 00a0 0800     		movs	r0, r1
 158 00a2 FFF7FEFF 		bl	fe_neg
 159              	.LVL19:
  55:add_scalar.c  ****             fe_neg(public_key_unpacked.T, public_key_unpacked.T); /* undo negate */
 160              		.loc 1 55 0
 161 00a6 8AA9     		add	r1, sp, #552
 162 00a8 0800     		movs	r0, r1
 163 00aa FFF7FEFF 		bl	fe_neg
 164              	.LVL20:
  56:add_scalar.c  ****             ge_p3_to_cached(&T, &public_key_unpacked);
 165              		.loc 1 56 0
 166 00ae 6CA9     		add	r1, sp, #432
 167 00b0 44A8     		add	r0, sp, #272
 168 00b2 FFF7FEFF 		bl	ge_p3_to_cached
ARM GAS  C:\Users\NIGHDR~1\AppData\Local\Temp\ccZdFzWs.s 			page 5


 169              	.LVL21:
  57:add_scalar.c  **** 
  58:add_scalar.c  ****             /* calculate n*B */
  59:add_scalar.c  ****             ge_scalarmult_base(&nB, n);
 170              		.loc 1 59 0
 171 00b6 FFA9     		add	r1, sp, #1020
 172 00b8 3431     		adds	r1, r1, #52
 173 00ba E4A8     		add	r0, sp, #912
 174 00bc FFF7FEFF 		bl	ge_scalarmult_base
 175              	.LVL22:
  60:add_scalar.c  **** 
  61:add_scalar.c  ****             /* A = n*B + T */
  62:add_scalar.c  ****             ge_add(&A_p1p1, &nB, &T);
 176              		.loc 1 62 0
 177 00c0 44AA     		add	r2, sp, #272
 178 00c2 E4A9     		add	r1, sp, #912
 179 00c4 BCA8     		add	r0, sp, #752
 180 00c6 FFF7FEFF 		bl	ge_add
 181              	.LVL23:
  63:add_scalar.c  ****             ge_p1p1_to_p3(&A, &A_p1p1);
 182              		.loc 1 63 0
 183 00ca BCA9     		add	r1, sp, #752
 184 00cc 94A8     		add	r0, sp, #592
 185 00ce FFF7FEFF 		bl	ge_p1p1_to_p3
 186              	.LVL24:
 187              	.L9:
  64:add_scalar.c  ****         }
  65:add_scalar.c  ****             
  66:add_scalar.c  ****         /* pack public key */
  67:add_scalar.c  ****         ge_p3_tobytes(public_key, &A);
 188              		.loc 1 67 0
 189 00d2 94A9     		add	r1, sp, #592
 190 00d4 2000     		movs	r0, r4
 191 00d6 FFF7FEFF 		bl	ge_p3_tobytes
 192              	.LVL25:
 193              	.L1:
  68:add_scalar.c  ****     }
  69:add_scalar.c  **** }
 194              		.loc 1 69 0
 195 00da 024B     		ldr	r3, .L10+4
 196 00dc 9D44     		add	sp, sp, r3
 197              		@ sp needed
 198              	.LVL26:
 199              	.LVL27:
 200              	.LVL28:
 201 00de F0BD     		pop	{r4, r5, r6, r7, pc}
 202              	.L11:
 203              		.align	2
 204              	.L10:
 205 00e0 8CFBFFFF 		.word	-1140
 206 00e4 74040000 		.word	1140
 207              		.cfi_endproc
 208              	.LFE0:
 209              		.size	ed25519_add_scalar, .-ed25519_add_scalar
 210              		.text
 211              	.Letext0:
 212              		.file 2 "c:\\program files (x86)\\cypress\\psoc creator\\4.1\\psoc creator\\import\\gnu\\arm\\5.4.
ARM GAS  C:\Users\NIGHDR~1\AppData\Local\Temp\ccZdFzWs.s 			page 6


 213              		.file 3 "c:\\program files (x86)\\cypress\\psoc creator\\4.1\\psoc creator\\import\\gnu\\arm\\5.4.
 214              		.file 4 "c:\\program files (x86)\\cypress\\psoc creator\\4.1\\psoc creator\\import\\gnu\\arm\\5.4.
 215              		.file 5 "ge.h"
 216              		.file 6 "sha512.h"
 217              		.file 7 "sc.h"
 218              		.file 8 "fe.h"