ARM GAS  C:\Users\NIGHDR~1\AppData\Local\Temp\ccgwSx2z.s 			page 1


   1              		.syntax unified
   2              		.cpu cortex-m0
   3              		.fpu softvfp
   4              		.eabi_attribute 20, 1
   5              		.eabi_attribute 21, 1
   6              		.eabi_attribute 23, 3
   7              		.eabi_attribute 24, 1
   8              		.eabi_attribute 25, 1
   9              		.eabi_attribute 26, 1
  10              		.eabi_attribute 30, 1
  11              		.eabi_attribute 34, 0
  12              		.eabi_attribute 18, 4
  13              		.thumb
  14              		.syntax unified
  15              		.file	"aes.c"
  16              		.text
  17              	.Ltext0:
  18              		.cfi_sections	.debug_frame
  19              		.section	.text.KeyExpansion,"ax",%progbits
  20              		.align	2
  21              		.code	16
  22              		.thumb_func
  23              		.type	KeyExpansion, %function
  24              	KeyExpansion:
  25              	.LFB0:
  26              		.file 1 "aes.c"
   1:aes.c         **** /*
   2:aes.c         **** 
   3:aes.c         **** This is an implementation of the AES algorithm, specifically ECB, CTR and CBC mode.
   4:aes.c         **** Block size can be chosen in aes.h - available choices are AES128, AES192, AES256.
   5:aes.c         **** 
   6:aes.c         **** The implementation is verified against the test vectors in:
   7:aes.c         ****   National Institute of Standards and Technology Special Publication 800-38A 2001 ED
   8:aes.c         **** 
   9:aes.c         **** ECB-AES128
  10:aes.c         **** ----------
  11:aes.c         **** 
  12:aes.c         ****   plain-text:
  13:aes.c         ****     6bc1bee22e409f96e93d7e117393172a
  14:aes.c         ****     ae2d8a571e03ac9c9eb76fac45af8e51
  15:aes.c         ****     30c81c46a35ce411e5fbc1191a0a52ef
  16:aes.c         ****     f69f2445df4f9b17ad2b417be66c3710
  17:aes.c         **** 
  18:aes.c         ****   key:
  19:aes.c         ****     2b7e151628aed2a6abf7158809cf4f3c
  20:aes.c         **** 
  21:aes.c         ****   resulting cipher
  22:aes.c         ****     3ad77bb40d7a3660a89ecaf32466ef97 
  23:aes.c         ****     f5d3d58503b9699de785895a96fdbaaf 
  24:aes.c         ****     43b1cd7f598ece23881b00e3ed030688 
  25:aes.c         ****     7b0c785e27e8ad3f8223207104725dd4 
  26:aes.c         **** 
  27:aes.c         **** 
  28:aes.c         **** NOTE:   String length must be evenly divisible by 16byte (str_len % 16 == 0)
  29:aes.c         ****         You should pad the end of the string with zeros if this is not the case.
  30:aes.c         ****         For AES192/256 the key size is proportionally larger.
  31:aes.c         **** 
ARM GAS  C:\Users\NIGHDR~1\AppData\Local\Temp\ccgwSx2z.s 			page 2


  32:aes.c         **** */
  33:aes.c         **** 
  34:aes.c         **** 
  35:aes.c         **** /*****************************************************************************/
  36:aes.c         **** /* Includes:                                                                 */
  37:aes.c         **** /*****************************************************************************/
  38:aes.c         **** #include <stdint.h>
  39:aes.c         **** #include <string.h> // CBC mode, for memset
  40:aes.c         **** #include "aes.h"
  41:aes.c         **** 
  42:aes.c         **** /*****************************************************************************/
  43:aes.c         **** /* Defines:                                                                  */
  44:aes.c         **** /*****************************************************************************/
  45:aes.c         **** // The number of columns comprising a state in AES. This is a constant in AES. Value=4
  46:aes.c         **** #define Nb 4
  47:aes.c         **** 
  48:aes.c         **** #if defined(AES256) && (AES256 == 1)
  49:aes.c         ****     #define Nk 8
  50:aes.c         ****     #define Nr 14
  51:aes.c         **** #elif defined(AES192) && (AES192 == 1)
  52:aes.c         ****     #define Nk 6
  53:aes.c         ****     #define Nr 12
  54:aes.c         **** #else
  55:aes.c         ****     #define Nk 4        // The number of 32 bit words in a key.
  56:aes.c         ****     #define Nr 10       // The number of rounds in AES Cipher.
  57:aes.c         **** #endif
  58:aes.c         **** 
  59:aes.c         **** // jcallan@github points out that declaring Multiply as a function 
  60:aes.c         **** // reduces code size considerably with the Keil ARM compiler.
  61:aes.c         **** // See this link for more information: https://github.com/kokke/tiny-AES-C/pull/3
  62:aes.c         **** #ifndef MULTIPLY_AS_A_FUNCTION
  63:aes.c         ****   #define MULTIPLY_AS_A_FUNCTION 0
  64:aes.c         **** #endif
  65:aes.c         **** 
  66:aes.c         **** 
  67:aes.c         **** 
  68:aes.c         **** 
  69:aes.c         **** /*****************************************************************************/
  70:aes.c         **** /* Private variables:                                                        */
  71:aes.c         **** /*****************************************************************************/
  72:aes.c         **** // state - array holding the intermediate results during decryption.
  73:aes.c         **** typedef uint8_t state_t[4][4];
  74:aes.c         **** 
  75:aes.c         **** 
  76:aes.c         **** 
  77:aes.c         **** // The lookup-tables are marked const so they can be placed in read-only storage instead of RAM
  78:aes.c         **** // The numbers below can be computed dynamically trading ROM for RAM - 
  79:aes.c         **** // This can be useful in (embedded) bootloader applications, where ROM is often limited.
  80:aes.c         **** static const uint8_t sbox[256] = {
  81:aes.c         ****   //0     1    2      3     4    5     6     7      8    9     A      B    C     D     E     F
  82:aes.c         ****   0x63, 0x7c, 0x77, 0x7b, 0xf2, 0x6b, 0x6f, 0xc5, 0x30, 0x01, 0x67, 0x2b, 0xfe, 0xd7, 0xab, 0x76,
  83:aes.c         ****   0xca, 0x82, 0xc9, 0x7d, 0xfa, 0x59, 0x47, 0xf0, 0xad, 0xd4, 0xa2, 0xaf, 0x9c, 0xa4, 0x72, 0xc0,
  84:aes.c         ****   0xb7, 0xfd, 0x93, 0x26, 0x36, 0x3f, 0xf7, 0xcc, 0x34, 0xa5, 0xe5, 0xf1, 0x71, 0xd8, 0x31, 0x15,
  85:aes.c         ****   0x04, 0xc7, 0x23, 0xc3, 0x18, 0x96, 0x05, 0x9a, 0x07, 0x12, 0x80, 0xe2, 0xeb, 0x27, 0xb2, 0x75,
  86:aes.c         ****   0x09, 0x83, 0x2c, 0x1a, 0x1b, 0x6e, 0x5a, 0xa0, 0x52, 0x3b, 0xd6, 0xb3, 0x29, 0xe3, 0x2f, 0x84,
  87:aes.c         ****   0x53, 0xd1, 0x00, 0xed, 0x20, 0xfc, 0xb1, 0x5b, 0x6a, 0xcb, 0xbe, 0x39, 0x4a, 0x4c, 0x58, 0xcf,
  88:aes.c         ****   0xd0, 0xef, 0xaa, 0xfb, 0x43, 0x4d, 0x33, 0x85, 0x45, 0xf9, 0x02, 0x7f, 0x50, 0x3c, 0x9f, 0xa8,
ARM GAS  C:\Users\NIGHDR~1\AppData\Local\Temp\ccgwSx2z.s 			page 3


  89:aes.c         ****   0x51, 0xa3, 0x40, 0x8f, 0x92, 0x9d, 0x38, 0xf5, 0xbc, 0xb6, 0xda, 0x21, 0x10, 0xff, 0xf3, 0xd2,
  90:aes.c         ****   0xcd, 0x0c, 0x13, 0xec, 0x5f, 0x97, 0x44, 0x17, 0xc4, 0xa7, 0x7e, 0x3d, 0x64, 0x5d, 0x19, 0x73,
  91:aes.c         ****   0x60, 0x81, 0x4f, 0xdc, 0x22, 0x2a, 0x90, 0x88, 0x46, 0xee, 0xb8, 0x14, 0xde, 0x5e, 0x0b, 0xdb,
  92:aes.c         ****   0xe0, 0x32, 0x3a, 0x0a, 0x49, 0x06, 0x24, 0x5c, 0xc2, 0xd3, 0xac, 0x62, 0x91, 0x95, 0xe4, 0x79,
  93:aes.c         ****   0xe7, 0xc8, 0x37, 0x6d, 0x8d, 0xd5, 0x4e, 0xa9, 0x6c, 0x56, 0xf4, 0xea, 0x65, 0x7a, 0xae, 0x08,
  94:aes.c         ****   0xba, 0x78, 0x25, 0x2e, 0x1c, 0xa6, 0xb4, 0xc6, 0xe8, 0xdd, 0x74, 0x1f, 0x4b, 0xbd, 0x8b, 0x8a,
  95:aes.c         ****   0x70, 0x3e, 0xb5, 0x66, 0x48, 0x03, 0xf6, 0x0e, 0x61, 0x35, 0x57, 0xb9, 0x86, 0xc1, 0x1d, 0x9e,
  96:aes.c         ****   0xe1, 0xf8, 0x98, 0x11, 0x69, 0xd9, 0x8e, 0x94, 0x9b, 0x1e, 0x87, 0xe9, 0xce, 0x55, 0x28, 0xdf,
  97:aes.c         ****   0x8c, 0xa1, 0x89, 0x0d, 0xbf, 0xe6, 0x42, 0x68, 0x41, 0x99, 0x2d, 0x0f, 0xb0, 0x54, 0xbb, 0x16 };
  98:aes.c         **** 
  99:aes.c         **** static const uint8_t rsbox[256] = {
 100:aes.c         ****   0x52, 0x09, 0x6a, 0xd5, 0x30, 0x36, 0xa5, 0x38, 0xbf, 0x40, 0xa3, 0x9e, 0x81, 0xf3, 0xd7, 0xfb,
 101:aes.c         ****   0x7c, 0xe3, 0x39, 0x82, 0x9b, 0x2f, 0xff, 0x87, 0x34, 0x8e, 0x43, 0x44, 0xc4, 0xde, 0xe9, 0xcb,
 102:aes.c         ****   0x54, 0x7b, 0x94, 0x32, 0xa6, 0xc2, 0x23, 0x3d, 0xee, 0x4c, 0x95, 0x0b, 0x42, 0xfa, 0xc3, 0x4e,
 103:aes.c         ****   0x08, 0x2e, 0xa1, 0x66, 0x28, 0xd9, 0x24, 0xb2, 0x76, 0x5b, 0xa2, 0x49, 0x6d, 0x8b, 0xd1, 0x25,
 104:aes.c         ****   0x72, 0xf8, 0xf6, 0x64, 0x86, 0x68, 0x98, 0x16, 0xd4, 0xa4, 0x5c, 0xcc, 0x5d, 0x65, 0xb6, 0x92,
 105:aes.c         ****   0x6c, 0x70, 0x48, 0x50, 0xfd, 0xed, 0xb9, 0xda, 0x5e, 0x15, 0x46, 0x57, 0xa7, 0x8d, 0x9d, 0x84,
 106:aes.c         ****   0x90, 0xd8, 0xab, 0x00, 0x8c, 0xbc, 0xd3, 0x0a, 0xf7, 0xe4, 0x58, 0x05, 0xb8, 0xb3, 0x45, 0x06,
 107:aes.c         ****   0xd0, 0x2c, 0x1e, 0x8f, 0xca, 0x3f, 0x0f, 0x02, 0xc1, 0xaf, 0xbd, 0x03, 0x01, 0x13, 0x8a, 0x6b,
 108:aes.c         ****   0x3a, 0x91, 0x11, 0x41, 0x4f, 0x67, 0xdc, 0xea, 0x97, 0xf2, 0xcf, 0xce, 0xf0, 0xb4, 0xe6, 0x73,
 109:aes.c         ****   0x96, 0xac, 0x74, 0x22, 0xe7, 0xad, 0x35, 0x85, 0xe2, 0xf9, 0x37, 0xe8, 0x1c, 0x75, 0xdf, 0x6e,
 110:aes.c         ****   0x47, 0xf1, 0x1a, 0x71, 0x1d, 0x29, 0xc5, 0x89, 0x6f, 0xb7, 0x62, 0x0e, 0xaa, 0x18, 0xbe, 0x1b,
 111:aes.c         ****   0xfc, 0x56, 0x3e, 0x4b, 0xc6, 0xd2, 0x79, 0x20, 0x9a, 0xdb, 0xc0, 0xfe, 0x78, 0xcd, 0x5a, 0xf4,
 112:aes.c         ****   0x1f, 0xdd, 0xa8, 0x33, 0x88, 0x07, 0xc7, 0x31, 0xb1, 0x12, 0x10, 0x59, 0x27, 0x80, 0xec, 0x5f,
 113:aes.c         ****   0x60, 0x51, 0x7f, 0xa9, 0x19, 0xb5, 0x4a, 0x0d, 0x2d, 0xe5, 0x7a, 0x9f, 0x93, 0xc9, 0x9c, 0xef,
 114:aes.c         ****   0xa0, 0xe0, 0x3b, 0x4d, 0xae, 0x2a, 0xf5, 0xb0, 0xc8, 0xeb, 0xbb, 0x3c, 0x83, 0x53, 0x99, 0x61,
 115:aes.c         ****   0x17, 0x2b, 0x04, 0x7e, 0xba, 0x77, 0xd6, 0x26, 0xe1, 0x69, 0x14, 0x63, 0x55, 0x21, 0x0c, 0x7d };
 116:aes.c         **** 
 117:aes.c         **** // The round constant word array, Rcon[i], contains the values given by 
 118:aes.c         **** // x to the power (i-1) being powers of x (x is denoted as {02}) in the field GF(2^8)
 119:aes.c         **** static const uint8_t Rcon[11] = {
 120:aes.c         ****   0x8d, 0x01, 0x02, 0x04, 0x08, 0x10, 0x20, 0x40, 0x80, 0x1b, 0x36 };
 121:aes.c         **** 
 122:aes.c         **** /*
 123:aes.c         ****  * Jordan Goulder points out in PR #12 (https://github.com/kokke/tiny-AES-C/pull/12),
 124:aes.c         ****  * that you can remove most of the elements in the Rcon array, because they are unused.
 125:aes.c         ****  *
 126:aes.c         ****  * From Wikipedia's article on the Rijndael key schedule @ https://en.wikipedia.org/wiki/Rijndael_k
 127:aes.c         ****  * 
 128:aes.c         ****  * "Only the first some of these constants are actually used – up to rcon[10] for AES-128 (as 11 
 129:aes.c         ****  *  up to rcon[8] for AES-192, up to rcon[7] for AES-256. rcon[0] is not used in AES algorithm."
 130:aes.c         ****  */
 131:aes.c         **** 
 132:aes.c         **** 
 133:aes.c         **** /*****************************************************************************/
 134:aes.c         **** /* Private functions:                                                        */
 135:aes.c         **** /*****************************************************************************/
 136:aes.c         **** /*
 137:aes.c         **** static uint8_t getSBoxValue(uint8_t num)
 138:aes.c         **** {
 139:aes.c         ****   return sbox[num];
 140:aes.c         **** }
 141:aes.c         **** */
 142:aes.c         **** #define getSBoxValue(num) (sbox[(num)])
 143:aes.c         **** /*
 144:aes.c         **** static uint8_t getSBoxInvert(uint8_t num)
 145:aes.c         **** {
ARM GAS  C:\Users\NIGHDR~1\AppData\Local\Temp\ccgwSx2z.s 			page 4


 146:aes.c         ****   return rsbox[num];
 147:aes.c         **** }
 148:aes.c         **** */
 149:aes.c         **** #define getSBoxInvert(num) (rsbox[(num)])
 150:aes.c         **** 
 151:aes.c         **** // This function produces Nb(Nr+1) round keys. The round keys are used in each round to decrypt the
 152:aes.c         **** static void KeyExpansion(uint8_t* RoundKey, const uint8_t* Key)
 153:aes.c         **** {
  27              		.loc 1 153 0
  28              		.cfi_startproc
  29              		@ args = 0, pretend = 0, frame = 8
  30              		@ frame_needed = 0, uses_anonymous_args = 0
  31              	.LVL0:
  32 0000 F0B5     		push	{r4, r5, r6, r7, lr}
  33              		.cfi_def_cfa_offset 20
  34              		.cfi_offset 4, -20
  35              		.cfi_offset 5, -16
  36              		.cfi_offset 6, -12
  37              		.cfi_offset 7, -8
  38              		.cfi_offset 14, -4
  39 0002 83B0     		sub	sp, sp, #12
  40              		.cfi_def_cfa_offset 32
  41              	.LVL1:
 154:aes.c         ****   unsigned i, j, k;
 155:aes.c         ****   uint8_t tempa[4]; // Used for the column/row operations
 156:aes.c         ****   
 157:aes.c         ****   // The first round key is the key itself.
 158:aes.c         ****   for (i = 0; i < Nk; ++i)
  42              		.loc 1 158 0
  43 0004 0022     		movs	r2, #0
  44 0006 0CE0     		b	.L2
  45              	.LVL2:
  46              	.L3:
 159:aes.c         ****   {
 160:aes.c         ****     RoundKey[(i * 4) + 0] = Key[(i * 4) + 0];
  47              		.loc 1 160 0 discriminator 3
  48 0008 9300     		lsls	r3, r2, #2
  49 000a CC5C     		ldrb	r4, [r1, r3]
  50 000c C454     		strb	r4, [r0, r3]
 161:aes.c         ****     RoundKey[(i * 4) + 1] = Key[(i * 4) + 1];
  51              		.loc 1 161 0 discriminator 3
  52 000e 5C1C     		adds	r4, r3, #1
  53 0010 0D5D     		ldrb	r5, [r1, r4]
  54 0012 0555     		strb	r5, [r0, r4]
 162:aes.c         ****     RoundKey[(i * 4) + 2] = Key[(i * 4) + 2];
  55              		.loc 1 162 0 discriminator 3
  56 0014 9C1C     		adds	r4, r3, #2
  57 0016 0D5D     		ldrb	r5, [r1, r4]
  58 0018 0555     		strb	r5, [r0, r4]
 163:aes.c         ****     RoundKey[(i * 4) + 3] = Key[(i * 4) + 3];
  59              		.loc 1 163 0 discriminator 3
  60 001a 0333     		adds	r3, r3, #3
  61 001c CC5C     		ldrb	r4, [r1, r3]
  62 001e C454     		strb	r4, [r0, r3]
 158:aes.c         ****   {
  63              		.loc 1 158 0 discriminator 3
  64 0020 0132     		adds	r2, r2, #1
ARM GAS  C:\Users\NIGHDR~1\AppData\Local\Temp\ccgwSx2z.s 			page 5


  65              	.LVL3:
  66              	.L2:
 158:aes.c         ****   {
  67              		.loc 1 158 0 is_stmt 0 discriminator 1
  68 0022 032A     		cmp	r2, #3
  69 0024 F0D9     		bls	.L3
  70 0026 0421     		movs	r1, #4
  71              	.LVL4:
  72 0028 36E0     		b	.L4
  73              	.LVL5:
  74              	.L6:
 164:aes.c         ****   }
 165:aes.c         **** 
 166:aes.c         ****   // All other round keys are found from the previous round keys.
 167:aes.c         ****   for (i = Nk; i < Nb * (Nr + 1); ++i)
 168:aes.c         ****   {
 169:aes.c         ****     {
 170:aes.c         ****       k = (i - 1) * 4;
  75              		.loc 1 170 0 is_stmt 1
  76 002a 1D4B     		ldr	r3, .L7
  77 002c CB18     		adds	r3, r1, r3
  78 002e 9B00     		lsls	r3, r3, #2
  79              	.LVL6:
 171:aes.c         ****       tempa[0]=RoundKey[k + 0];
  80              		.loc 1 171 0
  81 0030 C45C     		ldrb	r4, [r0, r3]
  82 0032 01AA     		add	r2, sp, #4
  83 0034 1470     		strb	r4, [r2]
 172:aes.c         ****       tempa[1]=RoundKey[k + 1];
  84              		.loc 1 172 0
  85 0036 C318     		adds	r3, r0, r3
  86              	.LVL7:
  87 0038 5E78     		ldrb	r6, [r3, #1]
  88 003a 5670     		strb	r6, [r2, #1]
 173:aes.c         ****       tempa[2]=RoundKey[k + 2];
  89              		.loc 1 173 0
  90 003c 9D78     		ldrb	r5, [r3, #2]
  91 003e 9570     		strb	r5, [r2, #2]
 174:aes.c         ****       tempa[3]=RoundKey[k + 3];
  92              		.loc 1 174 0
  93 0040 DB78     		ldrb	r3, [r3, #3]
  94 0042 D370     		strb	r3, [r2, #3]
 175:aes.c         **** 
 176:aes.c         ****     }
 177:aes.c         **** 
 178:aes.c         ****     if (i % Nk == 0)
  95              		.loc 1 178 0
  96 0044 8A07     		lsls	r2, r1, #30
  97 0046 0DD1     		bne	.L5
  98              	.LVL8:
 179:aes.c         ****     {
 180:aes.c         ****       // This function shifts the 4 bytes in a word to the left once.
 181:aes.c         ****       // [a0,a1,a2,a3] becomes [a1,a2,a3,a0]
 182:aes.c         **** 
 183:aes.c         ****       // Function RotWord()
 184:aes.c         ****       {
 185:aes.c         ****         k = tempa[0];
ARM GAS  C:\Users\NIGHDR~1\AppData\Local\Temp\ccgwSx2z.s 			page 6


 186:aes.c         ****         tempa[0] = tempa[1];
 187:aes.c         ****         tempa[1] = tempa[2];
 188:aes.c         ****         tempa[2] = tempa[3];
 189:aes.c         ****         tempa[3] = k;
 190:aes.c         ****       }
 191:aes.c         **** 
 192:aes.c         ****       // SubWord() is a function that takes a four-byte input word and 
 193:aes.c         ****       // applies the S-box to each of the four bytes to produce an output word.
 194:aes.c         **** 
 195:aes.c         ****       // Function Subword()
 196:aes.c         ****       {
 197:aes.c         ****         tempa[0] = getSBoxValue(tempa[0]);
  99              		.loc 1 197 0
 100 0048 164F     		ldr	r7, .L7+4
 101 004a BE5D     		ldrb	r6, [r7, r6]
 198:aes.c         ****         tempa[1] = getSBoxValue(tempa[1]);
 102              		.loc 1 198 0
 103 004c 7D5D     		ldrb	r5, [r7, r5]
 104 004e 01AA     		add	r2, sp, #4
 105 0050 5570     		strb	r5, [r2, #1]
 199:aes.c         ****         tempa[2] = getSBoxValue(tempa[2]);
 106              		.loc 1 199 0
 107 0052 FB5C     		ldrb	r3, [r7, r3]
 108 0054 9370     		strb	r3, [r2, #2]
 200:aes.c         ****         tempa[3] = getSBoxValue(tempa[3]);
 109              		.loc 1 200 0
 110 0056 3B5D     		ldrb	r3, [r7, r4]
 111 0058 D370     		strb	r3, [r2, #3]
 201:aes.c         ****       }
 202:aes.c         **** 
 203:aes.c         ****       tempa[0] = tempa[0] ^ Rcon[i/Nk];
 112              		.loc 1 203 0
 113 005a 8C08     		lsrs	r4, r1, #2
 114              	.LVL9:
 115 005c 124B     		ldr	r3, .L7+8
 116 005e 1B5D     		ldrb	r3, [r3, r4]
 117 0060 7340     		eors	r3, r6
 118 0062 1370     		strb	r3, [r2]
 119              	.LVL10:
 120              	.L5:
 204:aes.c         ****     }
 205:aes.c         **** #if defined(AES256) && (AES256 == 1)
 206:aes.c         ****     if (i % Nk == 4)
 207:aes.c         ****     {
 208:aes.c         ****       // Function Subword()
 209:aes.c         ****       {
 210:aes.c         ****         tempa[0] = getSBoxValue(tempa[0]);
 211:aes.c         ****         tempa[1] = getSBoxValue(tempa[1]);
 212:aes.c         ****         tempa[2] = getSBoxValue(tempa[2]);
 213:aes.c         ****         tempa[3] = getSBoxValue(tempa[3]);
 214:aes.c         ****       }
 215:aes.c         ****     }
 216:aes.c         **** #endif
 217:aes.c         ****     j = i * 4; k=(i - Nk) * 4;
 121              		.loc 1 217 0 discriminator 2
 122 0064 8A00     		lsls	r2, r1, #2
 123              	.LVL11:
ARM GAS  C:\Users\NIGHDR~1\AppData\Local\Temp\ccgwSx2z.s 			page 7


 124 0066 114B     		ldr	r3, .L7+12
 125 0068 CB18     		adds	r3, r1, r3
 126 006a 9B00     		lsls	r3, r3, #2
 127              	.LVL12:
 218:aes.c         ****     RoundKey[j + 0] = RoundKey[k + 0] ^ tempa[0];
 128              		.loc 1 218 0 discriminator 2
 129 006c C65C     		ldrb	r6, [r0, r3]
 130 006e 01AC     		add	r4, sp, #4
 131 0070 2578     		ldrb	r5, [r4]
 132 0072 7540     		eors	r5, r6
 133 0074 8554     		strb	r5, [r0, r2]
 219:aes.c         ****     RoundKey[j + 1] = RoundKey[k + 1] ^ tempa[1];
 134              		.loc 1 219 0 discriminator 2
 135 0076 561C     		adds	r6, r2, #1
 136 0078 C318     		adds	r3, r0, r3
 137              	.LVL13:
 138 007a 5F78     		ldrb	r7, [r3, #1]
 139 007c 6578     		ldrb	r5, [r4, #1]
 140 007e 7D40     		eors	r5, r7
 141 0080 8555     		strb	r5, [r0, r6]
 220:aes.c         ****     RoundKey[j + 2] = RoundKey[k + 2] ^ tempa[2];
 142              		.loc 1 220 0 discriminator 2
 143 0082 961C     		adds	r6, r2, #2
 144 0084 9F78     		ldrb	r7, [r3, #2]
 145 0086 A578     		ldrb	r5, [r4, #2]
 146 0088 7D40     		eors	r5, r7
 147 008a 8555     		strb	r5, [r0, r6]
 221:aes.c         ****     RoundKey[j + 3] = RoundKey[k + 3] ^ tempa[3];
 148              		.loc 1 221 0 discriminator 2
 149 008c 0332     		adds	r2, r2, #3
 150              	.LVL14:
 151 008e DD78     		ldrb	r5, [r3, #3]
 152 0090 E378     		ldrb	r3, [r4, #3]
 153 0092 6B40     		eors	r3, r5
 154 0094 8354     		strb	r3, [r0, r2]
 167:aes.c         ****   {
 155              		.loc 1 167 0 discriminator 2
 156 0096 0131     		adds	r1, r1, #1
 157              	.LVL15:
 158              	.L4:
 167:aes.c         ****   {
 159              		.loc 1 167 0 is_stmt 0 discriminator 1
 160 0098 2B29     		cmp	r1, #43
 161 009a C6D9     		bls	.L6
 222:aes.c         ****   }
 223:aes.c         **** }
 162              		.loc 1 223 0 is_stmt 1
 163 009c 03B0     		add	sp, sp, #12
 164              		@ sp needed
 165 009e F0BD     		pop	{r4, r5, r6, r7, pc}
 166              	.L8:
 167              		.align	2
 168              	.L7:
 169 00a0 FFFFFF3F 		.word	1073741823
 170 00a4 00000000 		.word	.LANCHOR0
 171 00a8 00010000 		.word	.LANCHOR1
 172 00ac FCFFFF3F 		.word	1073741820
ARM GAS  C:\Users\NIGHDR~1\AppData\Local\Temp\ccgwSx2z.s 			page 8


 173              		.cfi_endproc
 174              	.LFE0:
 175              		.size	KeyExpansion, .-KeyExpansion
 176              		.section	.text.AddRoundKey,"ax",%progbits
 177              		.align	2
 178              		.code	16
 179              		.thumb_func
 180              		.type	AddRoundKey, %function
 181              	AddRoundKey:
 182              	.LFB4:
 224:aes.c         **** 
 225:aes.c         **** void AES_init_ctx(struct AES_ctx* ctx, const uint8_t* key)
 226:aes.c         **** {
 227:aes.c         ****   KeyExpansion(ctx->RoundKey, key);
 228:aes.c         **** }
 229:aes.c         **** #if (defined(CBC) && (CBC == 1)) || (defined(CTR) && (CTR == 1))
 230:aes.c         **** void AES_init_ctx_iv(struct AES_ctx* ctx, const uint8_t* key, const uint8_t* iv)
 231:aes.c         **** {
 232:aes.c         ****   KeyExpansion(ctx->RoundKey, key);
 233:aes.c         ****   memcpy (ctx->Iv, iv, AES_BLOCKLEN);
 234:aes.c         **** }
 235:aes.c         **** void AES_ctx_set_iv(struct AES_ctx* ctx, const uint8_t* iv)
 236:aes.c         **** {
 237:aes.c         ****   memcpy (ctx->Iv, iv, AES_BLOCKLEN);
 238:aes.c         **** }
 239:aes.c         **** #endif
 240:aes.c         **** 
 241:aes.c         **** // This function adds the round key to state.
 242:aes.c         **** // The round key is added to the state by an XOR function.
 243:aes.c         **** static void AddRoundKey(uint8_t round,state_t* state,uint8_t* RoundKey)
 244:aes.c         **** {
 183              		.loc 1 244 0
 184              		.cfi_startproc
 185              		@ args = 0, pretend = 0, frame = 0
 186              		@ frame_needed = 0, uses_anonymous_args = 0
 187              	.LVL16:
 188 0000 F0B5     		push	{r4, r5, r6, r7, lr}
 189              		.cfi_def_cfa_offset 20
 190              		.cfi_offset 4, -20
 191              		.cfi_offset 5, -16
 192              		.cfi_offset 6, -12
 193              		.cfi_offset 7, -8
 194              		.cfi_offset 14, -4
 195              	.LVL17:
 245:aes.c         ****   uint8_t i,j;
 246:aes.c         ****   for (i = 0; i < 4; ++i)
 196              		.loc 1 246 0
 197 0002 0026     		movs	r6, #0
 198 0004 11E0     		b	.L10
 199              	.LVL18:
 200              	.L11:
 247:aes.c         ****   {
 248:aes.c         ****     for (j = 0; j < 4; ++j)
 249:aes.c         ****     {
 250:aes.c         ****       (*state)[i][j] ^= RoundKey[(round * Nb * 4) + (i * Nb) + j];
 201              		.loc 1 250 0 discriminator 3
 202 0006 8400     		lsls	r4, r0, #2
ARM GAS  C:\Users\NIGHDR~1\AppData\Local\Temp\ccgwSx2z.s 			page 9


 203 0008 A419     		adds	r4, r4, r6
 204 000a A400     		lsls	r4, r4, #2
 205 000c 1C19     		adds	r4, r3, r4
 206 000e 175D     		ldrb	r7, [r2, r4]
 207 0010 B400     		lsls	r4, r6, #2
 208 0012 0C19     		adds	r4, r1, r4
 209 0014 E55C     		ldrb	r5, [r4, r3]
 210 0016 7D40     		eors	r5, r7
 211 0018 E554     		strb	r5, [r4, r3]
 248:aes.c         ****     {
 212              		.loc 1 248 0 discriminator 3
 213 001a 0133     		adds	r3, r3, #1
 214              	.LVL19:
 215 001c DBB2     		uxtb	r3, r3
 216              	.LVL20:
 217 001e 00E0     		b	.L12
 218              	.LVL21:
 219              	.L13:
 220 0020 0023     		movs	r3, #0
 221              	.L12:
 222              	.LVL22:
 248:aes.c         ****     {
 223              		.loc 1 248 0 is_stmt 0 discriminator 1
 224 0022 032B     		cmp	r3, #3
 225 0024 EFD9     		bls	.L11
 246:aes.c         ****   {
 226              		.loc 1 246 0 is_stmt 1 discriminator 2
 227 0026 0136     		adds	r6, r6, #1
 228              	.LVL23:
 229 0028 F6B2     		uxtb	r6, r6
 230              	.LVL24:
 231              	.L10:
 246:aes.c         ****   {
 232              		.loc 1 246 0 is_stmt 0 discriminator 1
 233 002a 032E     		cmp	r6, #3
 234 002c F8D9     		bls	.L13
 251:aes.c         ****     }
 252:aes.c         ****   }
 253:aes.c         **** }
 235              		.loc 1 253 0 is_stmt 1
 236              		@ sp needed
 237              	.LVL25:
 238 002e F0BD     		pop	{r4, r5, r6, r7, pc}
 239              		.cfi_endproc
 240              	.LFE4:
 241              		.size	AddRoundKey, .-AddRoundKey
 242              		.section	.text.SubBytes,"ax",%progbits
 243              		.align	2
 244              		.code	16
 245              		.thumb_func
 246              		.type	SubBytes, %function
 247              	SubBytes:
 248              	.LFB5:
 254:aes.c         **** 
 255:aes.c         **** // The SubBytes Function Substitutes the values in the
 256:aes.c         **** // state matrix with values in an S-box.
 257:aes.c         **** static void SubBytes(state_t* state)
ARM GAS  C:\Users\NIGHDR~1\AppData\Local\Temp\ccgwSx2z.s 			page 10


 258:aes.c         **** {
 249              		.loc 1 258 0
 250              		.cfi_startproc
 251              		@ args = 0, pretend = 0, frame = 0
 252              		@ frame_needed = 0, uses_anonymous_args = 0
 253              	.LVL26:
 254 0000 30B5     		push	{r4, r5, lr}
 255              		.cfi_def_cfa_offset 12
 256              		.cfi_offset 4, -12
 257              		.cfi_offset 5, -8
 258              		.cfi_offset 14, -4
 259              	.LVL27:
 259:aes.c         ****   uint8_t i, j;
 260:aes.c         ****   for (i = 0; i < 4; ++i)
 260              		.loc 1 260 0
 261 0002 0021     		movs	r1, #0
 262 0004 0DE0     		b	.L15
 263              	.LVL28:
 264              	.L16:
 261:aes.c         ****   {
 262:aes.c         ****     for (j = 0; j < 4; ++j)
 263:aes.c         ****     {
 264:aes.c         ****       (*state)[j][i] = getSBoxValue((*state)[j][i]);
 265              		.loc 1 264 0 discriminator 3
 266 0006 9A00     		lsls	r2, r3, #2
 267 0008 8218     		adds	r2, r0, r2
 268 000a 545C     		ldrb	r4, [r2, r1]
 269 000c 064D     		ldr	r5, .L19
 270 000e 2C5D     		ldrb	r4, [r5, r4]
 271 0010 5454     		strb	r4, [r2, r1]
 262:aes.c         ****     {
 272              		.loc 1 262 0 discriminator 3
 273 0012 0133     		adds	r3, r3, #1
 274              	.LVL29:
 275 0014 DBB2     		uxtb	r3, r3
 276              	.LVL30:
 277 0016 00E0     		b	.L17
 278              	.LVL31:
 279              	.L18:
 280 0018 0023     		movs	r3, #0
 281              	.L17:
 282              	.LVL32:
 262:aes.c         ****     {
 283              		.loc 1 262 0 is_stmt 0 discriminator 1
 284 001a 032B     		cmp	r3, #3
 285 001c F3D9     		bls	.L16
 260:aes.c         ****   {
 286              		.loc 1 260 0 is_stmt 1 discriminator 2
 287 001e 0131     		adds	r1, r1, #1
 288              	.LVL33:
 289 0020 C9B2     		uxtb	r1, r1
 290              	.LVL34:
 291              	.L15:
 260:aes.c         ****   {
 292              		.loc 1 260 0 is_stmt 0 discriminator 1
 293 0022 0329     		cmp	r1, #3
 294 0024 F8D9     		bls	.L18
ARM GAS  C:\Users\NIGHDR~1\AppData\Local\Temp\ccgwSx2z.s 			page 11


 265:aes.c         ****     }
 266:aes.c         ****   }
 267:aes.c         **** }
 295              		.loc 1 267 0 is_stmt 1
 296              		@ sp needed
 297 0026 30BD     		pop	{r4, r5, pc}
 298              	.L20:
 299              		.align	2
 300              	.L19:
 301 0028 00000000 		.word	.LANCHOR0
 302              		.cfi_endproc
 303              	.LFE5:
 304              		.size	SubBytes, .-SubBytes
 305              		.section	.text.ShiftRows,"ax",%progbits
 306              		.align	2
 307              		.code	16
 308              		.thumb_func
 309              		.type	ShiftRows, %function
 310              	ShiftRows:
 311              	.LFB6:
 268:aes.c         **** 
 269:aes.c         **** // The ShiftRows() function shifts the rows in the state to the left.
 270:aes.c         **** // Each row is shifted with different offset.
 271:aes.c         **** // Offset = Row number. So the first row is not shifted.
 272:aes.c         **** static void ShiftRows(state_t* state)
 273:aes.c         **** {
 312              		.loc 1 273 0
 313              		.cfi_startproc
 314              		@ args = 0, pretend = 0, frame = 0
 315              		@ frame_needed = 0, uses_anonymous_args = 0
 316              		@ link register save eliminated.
 317              	.LVL35:
 274:aes.c         ****   uint8_t temp;
 275:aes.c         **** 
 276:aes.c         ****   // Rotate first row 1 columns to left  
 277:aes.c         ****   temp           = (*state)[0][1];
 318              		.loc 1 277 0
 319 0000 4378     		ldrb	r3, [r0, #1]
 320              	.LVL36:
 278:aes.c         ****   (*state)[0][1] = (*state)[1][1];
 321              		.loc 1 278 0
 322 0002 4279     		ldrb	r2, [r0, #5]
 323 0004 4270     		strb	r2, [r0, #1]
 279:aes.c         ****   (*state)[1][1] = (*state)[2][1];
 324              		.loc 1 279 0
 325 0006 427A     		ldrb	r2, [r0, #9]
 326 0008 4271     		strb	r2, [r0, #5]
 280:aes.c         ****   (*state)[2][1] = (*state)[3][1];
 327              		.loc 1 280 0
 328 000a 427B     		ldrb	r2, [r0, #13]
 329 000c 4272     		strb	r2, [r0, #9]
 281:aes.c         ****   (*state)[3][1] = temp;
 330              		.loc 1 281 0
 331 000e 4373     		strb	r3, [r0, #13]
 282:aes.c         **** 
 283:aes.c         ****   // Rotate second row 2 columns to left  
 284:aes.c         ****   temp           = (*state)[0][2];
ARM GAS  C:\Users\NIGHDR~1\AppData\Local\Temp\ccgwSx2z.s 			page 12


 332              		.loc 1 284 0
 333 0010 8378     		ldrb	r3, [r0, #2]
 334              	.LVL37:
 285:aes.c         ****   (*state)[0][2] = (*state)[2][2];
 335              		.loc 1 285 0
 336 0012 827A     		ldrb	r2, [r0, #10]
 337 0014 8270     		strb	r2, [r0, #2]
 286:aes.c         ****   (*state)[2][2] = temp;
 338              		.loc 1 286 0
 339 0016 8372     		strb	r3, [r0, #10]
 287:aes.c         **** 
 288:aes.c         ****   temp           = (*state)[1][2];
 340              		.loc 1 288 0
 341 0018 8379     		ldrb	r3, [r0, #6]
 342              	.LVL38:
 289:aes.c         ****   (*state)[1][2] = (*state)[3][2];
 343              		.loc 1 289 0
 344 001a 827B     		ldrb	r2, [r0, #14]
 345 001c 8271     		strb	r2, [r0, #6]
 290:aes.c         ****   (*state)[3][2] = temp;
 346              		.loc 1 290 0
 347 001e 8373     		strb	r3, [r0, #14]
 291:aes.c         **** 
 292:aes.c         ****   // Rotate third row 3 columns to left
 293:aes.c         ****   temp           = (*state)[0][3];
 348              		.loc 1 293 0
 349 0020 C378     		ldrb	r3, [r0, #3]
 350              	.LVL39:
 294:aes.c         ****   (*state)[0][3] = (*state)[3][3];
 351              		.loc 1 294 0
 352 0022 C27B     		ldrb	r2, [r0, #15]
 353 0024 C270     		strb	r2, [r0, #3]
 295:aes.c         ****   (*state)[3][3] = (*state)[2][3];
 354              		.loc 1 295 0
 355 0026 C27A     		ldrb	r2, [r0, #11]
 356 0028 C273     		strb	r2, [r0, #15]
 296:aes.c         ****   (*state)[2][3] = (*state)[1][3];
 357              		.loc 1 296 0
 358 002a C279     		ldrb	r2, [r0, #7]
 359 002c C272     		strb	r2, [r0, #11]
 297:aes.c         ****   (*state)[1][3] = temp;
 360              		.loc 1 297 0
 361 002e C371     		strb	r3, [r0, #7]
 298:aes.c         **** }
 362              		.loc 1 298 0
 363              		@ sp needed
 364 0030 7047     		bx	lr
 365              		.cfi_endproc
 366              	.LFE6:
 367              		.size	ShiftRows, .-ShiftRows
 368 0032 C046     		.section	.text.xtime,"ax",%progbits
 369              		.align	2
 370              		.code	16
 371              		.thumb_func
 372              		.type	xtime, %function
 373              	xtime:
 374              	.LFB7:
ARM GAS  C:\Users\NIGHDR~1\AppData\Local\Temp\ccgwSx2z.s 			page 13


 299:aes.c         **** 
 300:aes.c         **** static uint8_t xtime(uint8_t x)
 301:aes.c         **** {
 375              		.loc 1 301 0
 376              		.cfi_startproc
 377              		@ args = 0, pretend = 0, frame = 0
 378              		@ frame_needed = 0, uses_anonymous_args = 0
 379              		@ link register save eliminated.
 380              	.LVL40:
 302:aes.c         ****   return ((x<<1) ^ (((x>>7) & 1) * 0x1b));
 381              		.loc 1 302 0
 382 0000 4300     		lsls	r3, r0, #1
 383 0002 C009     		lsrs	r0, r0, #7
 384              	.LVL41:
 385 0004 4200     		lsls	r2, r0, #1
 386 0006 8018     		adds	r0, r0, r2
 387 0008 C200     		lsls	r2, r0, #3
 388 000a 8018     		adds	r0, r0, r2
 389 000c 5840     		eors	r0, r3
 390 000e C0B2     		uxtb	r0, r0
 303:aes.c         **** }
 391              		.loc 1 303 0
 392              		@ sp needed
 393 0010 7047     		bx	lr
 394              		.cfi_endproc
 395              	.LFE7:
 396              		.size	xtime, .-xtime
 397 0012 C046     		.section	.text.MixColumns,"ax",%progbits
 398              		.align	2
 399              		.code	16
 400              		.thumb_func
 401              		.type	MixColumns, %function
 402              	MixColumns:
 403              	.LFB8:
 304:aes.c         **** 
 305:aes.c         **** // MixColumns function mixes the columns of the state matrix
 306:aes.c         **** static void MixColumns(state_t* state)
 307:aes.c         **** {
 404              		.loc 1 307 0
 405              		.cfi_startproc
 406              		@ args = 0, pretend = 0, frame = 0
 407              		@ frame_needed = 0, uses_anonymous_args = 0
 408              	.LVL42:
 409 0000 F8B5     		push	{r3, r4, r5, r6, r7, lr}
 410              		.cfi_def_cfa_offset 24
 411              		.cfi_offset 3, -24
 412              		.cfi_offset 4, -20
 413              		.cfi_offset 5, -16
 414              		.cfi_offset 6, -12
 415              		.cfi_offset 7, -8
 416              		.cfi_offset 14, -4
 417 0002 4F46     		mov	r7, r9
 418 0004 4646     		mov	r6, r8
 419 0006 C0B4     		push	{r6, r7}
 420              		.cfi_def_cfa_offset 32
 421              		.cfi_offset 8, -32
 422              		.cfi_offset 9, -28
ARM GAS  C:\Users\NIGHDR~1\AppData\Local\Temp\ccgwSx2z.s 			page 14


 423 0008 8046     		mov	r8, r0
 424              	.LVL43:
 308:aes.c         ****   uint8_t i;
 309:aes.c         ****   uint8_t Tmp, Tm, t;
 310:aes.c         ****   for (i = 0; i < 4; ++i)
 425              		.loc 1 310 0
 426 000a 0026     		movs	r6, #0
 427 000c 33E0     		b	.L24
 428              	.LVL44:
 429              	.L25:
 311:aes.c         ****   {  
 312:aes.c         ****     t   = (*state)[i][0];
 430              		.loc 1 312 0 discriminator 3
 431 000e B300     		lsls	r3, r6, #2
 432 0010 9946     		mov	r9, r3
 433 0012 4346     		mov	r3, r8
 434 0014 4A46     		mov	r2, r9
 435 0016 D75C     		ldrb	r7, [r2, r3]
 436              	.LVL45:
 313:aes.c         ****     Tmp = (*state)[i][0] ^ (*state)[i][1] ^ (*state)[i][2] ^ (*state)[i][3] ;
 437              		.loc 1 313 0 discriminator 3
 438 0018 4446     		mov	r4, r8
 439 001a 4C44     		add	r4, r4, r9
 440 001c 6078     		ldrb	r0, [r4, #1]
 441 001e 7840     		eors	r0, r7
 442 0020 A578     		ldrb	r5, [r4, #2]
 443 0022 E378     		ldrb	r3, [r4, #3]
 444 0024 4540     		eors	r5, r0
 445 0026 5D40     		eors	r5, r3
 446              	.LVL46:
 314:aes.c         ****     Tm  = (*state)[i][0] ^ (*state)[i][1] ; Tm = xtime(Tm);  (*state)[i][0] ^= Tm ^ Tmp ;
 447              		.loc 1 314 0 discriminator 3
 448 0028 FFF7FEFF 		bl	xtime
 449              	.LVL47:
 450 002c 6840     		eors	r0, r5
 451              	.LVL48:
 452 002e 7840     		eors	r0, r7
 453 0030 4346     		mov	r3, r8
 454 0032 4A46     		mov	r2, r9
 455 0034 D054     		strb	r0, [r2, r3]
 315:aes.c         ****     Tm  = (*state)[i][1] ^ (*state)[i][2] ; Tm = xtime(Tm);  (*state)[i][1] ^= Tm ^ Tmp ;
 456              		.loc 1 315 0 discriminator 3
 457 0036 6378     		ldrb	r3, [r4, #1]
 458 0038 9946     		mov	r9, r3
 459 003a A078     		ldrb	r0, [r4, #2]
 460 003c 5840     		eors	r0, r3
 461              	.LVL49:
 462 003e FFF7FEFF 		bl	xtime
 463              	.LVL50:
 464 0042 6840     		eors	r0, r5
 465              	.LVL51:
 466 0044 4B46     		mov	r3, r9
 467 0046 5840     		eors	r0, r3
 468 0048 6070     		strb	r0, [r4, #1]
 316:aes.c         ****     Tm  = (*state)[i][2] ^ (*state)[i][3] ; Tm = xtime(Tm);  (*state)[i][2] ^= Tm ^ Tmp ;
 469              		.loc 1 316 0 discriminator 3
 470 004a A378     		ldrb	r3, [r4, #2]
ARM GAS  C:\Users\NIGHDR~1\AppData\Local\Temp\ccgwSx2z.s 			page 15


 471 004c 9946     		mov	r9, r3
 472 004e E078     		ldrb	r0, [r4, #3]
 473 0050 5840     		eors	r0, r3
 474              	.LVL52:
 475 0052 FFF7FEFF 		bl	xtime
 476              	.LVL53:
 477 0056 6840     		eors	r0, r5
 478              	.LVL54:
 479 0058 4B46     		mov	r3, r9
 480 005a 5840     		eors	r0, r3
 481 005c A070     		strb	r0, [r4, #2]
 317:aes.c         ****     Tm  = (*state)[i][3] ^ t ;              Tm = xtime(Tm);  (*state)[i][3] ^= Tm ^ Tmp ;
 482              		.loc 1 317 0 discriminator 3
 483 005e E378     		ldrb	r3, [r4, #3]
 484 0060 9946     		mov	r9, r3
 485 0062 1800     		movs	r0, r3
 486 0064 7840     		eors	r0, r7
 487              	.LVL55:
 488 0066 FFF7FEFF 		bl	xtime
 489              	.LVL56:
 490 006a 4540     		eors	r5, r0
 491              	.LVL57:
 492 006c 4B46     		mov	r3, r9
 493 006e 5D40     		eors	r5, r3
 494 0070 E570     		strb	r5, [r4, #3]
 310:aes.c         ****   {  
 495              		.loc 1 310 0 discriminator 3
 496 0072 0136     		adds	r6, r6, #1
 497              	.LVL58:
 498 0074 F6B2     		uxtb	r6, r6
 499              	.LVL59:
 500              	.L24:
 310:aes.c         ****   {  
 501              		.loc 1 310 0 is_stmt 0 discriminator 1
 502 0076 032E     		cmp	r6, #3
 503 0078 C9D9     		bls	.L25
 318:aes.c         ****   }
 319:aes.c         **** }
 504              		.loc 1 319 0 is_stmt 1
 505              		@ sp needed
 506              	.LVL60:
 507              	.LVL61:
 508 007a 0CBC     		pop	{r2, r3}
 509 007c 9046     		mov	r8, r2
 510 007e 9946     		mov	r9, r3
 511 0080 F8BD     		pop	{r3, r4, r5, r6, r7, pc}
 512              		.cfi_endproc
 513              	.LFE8:
 514              		.size	MixColumns, .-MixColumns
 515 0082 C046     		.section	.text.InvMixColumns,"ax",%progbits
 516              		.align	2
 517              		.code	16
 518              		.thumb_func
 519              		.type	InvMixColumns, %function
 520              	InvMixColumns:
 521              	.LFB9:
 320:aes.c         **** 
ARM GAS  C:\Users\NIGHDR~1\AppData\Local\Temp\ccgwSx2z.s 			page 16


 321:aes.c         **** // Multiply is used to multiply numbers in the field GF(2^8)
 322:aes.c         **** #if MULTIPLY_AS_A_FUNCTION
 323:aes.c         **** static uint8_t Multiply(uint8_t x, uint8_t y)
 324:aes.c         **** {
 325:aes.c         ****   return (((y & 1) * x) ^
 326:aes.c         ****        ((y>>1 & 1) * xtime(x)) ^
 327:aes.c         ****        ((y>>2 & 1) * xtime(xtime(x))) ^
 328:aes.c         ****        ((y>>3 & 1) * xtime(xtime(xtime(x)))) ^
 329:aes.c         ****        ((y>>4 & 1) * xtime(xtime(xtime(xtime(x))))));
 330:aes.c         ****   }
 331:aes.c         **** #else
 332:aes.c         **** #define Multiply(x, y)                                \
 333:aes.c         ****       (  ((y & 1) * x) ^                              \
 334:aes.c         ****       ((y>>1 & 1) * xtime(x)) ^                       \
 335:aes.c         ****       ((y>>2 & 1) * xtime(xtime(x))) ^                \
 336:aes.c         ****       ((y>>3 & 1) * xtime(xtime(xtime(x)))) ^         \
 337:aes.c         ****       ((y>>4 & 1) * xtime(xtime(xtime(xtime(x))))))   \
 338:aes.c         **** 
 339:aes.c         **** #endif
 340:aes.c         **** 
 341:aes.c         **** // MixColumns function mixes the columns of the state matrix.
 342:aes.c         **** // The method used to multiply may be difficult to understand for the inexperienced.
 343:aes.c         **** // Please use the references to gain more information.
 344:aes.c         **** static void InvMixColumns(state_t* state)
 345:aes.c         **** {
 522              		.loc 1 345 0
 523              		.cfi_startproc
 524              		@ args = 0, pretend = 0, frame = 48
 525              		@ frame_needed = 0, uses_anonymous_args = 0
 526              	.LVL62:
 527 0000 F0B5     		push	{r4, r5, r6, r7, lr}
 528              		.cfi_def_cfa_offset 20
 529              		.cfi_offset 4, -20
 530              		.cfi_offset 5, -16
 531              		.cfi_offset 6, -12
 532              		.cfi_offset 7, -8
 533              		.cfi_offset 14, -4
 534 0002 5F46     		mov	r7, fp
 535 0004 5646     		mov	r6, r10
 536 0006 4D46     		mov	r5, r9
 537 0008 4446     		mov	r4, r8
 538 000a F0B4     		push	{r4, r5, r6, r7}
 539              		.cfi_def_cfa_offset 36
 540              		.cfi_offset 8, -36
 541              		.cfi_offset 9, -32
 542              		.cfi_offset 10, -28
 543              		.cfi_offset 11, -24
 544 000c 8DB0     		sub	sp, sp, #52
 545              		.cfi_def_cfa_offset 88
 546 000e 0490     		str	r0, [sp, #16]
 547              	.LVL63:
 346:aes.c         ****   int i;
 347:aes.c         ****   uint8_t a, b, c, d;
 348:aes.c         ****   for (i = 0; i < 4; ++i)
 548              		.loc 1 348 0
 549 0010 0023     		movs	r3, #0
 550 0012 9846     		mov	r8, r3
ARM GAS  C:\Users\NIGHDR~1\AppData\Local\Temp\ccgwSx2z.s 			page 17


 551 0014 ABE0     		b	.L27
 552              	.LVL64:
 553              	.L28:
 349:aes.c         ****   { 
 350:aes.c         ****     a = (*state)[i][0];
 554              		.loc 1 350 0 discriminator 3
 555 0016 4346     		mov	r3, r8
 556              	.LVL65:
 557 0018 9B00     		lsls	r3, r3, #2
 558 001a 9B46     		mov	fp, r3
 559 001c 049B     		ldr	r3, [sp, #16]
 560 001e 5A46     		mov	r2, fp
 561 0020 D55C     		ldrb	r5, [r2, r3]
 562              	.LVL66:
 351:aes.c         ****     b = (*state)[i][1];
 563              		.loc 1 351 0 discriminator 3
 564 0022 1F00     		movs	r7, r3
 565 0024 5F44     		add	r7, r7, fp
 566 0026 7B78     		ldrb	r3, [r7, #1]
 567 0028 1C00     		movs	r4, r3
 568              	.LVL67:
 352:aes.c         ****     c = (*state)[i][2];
 569              		.loc 1 352 0 discriminator 3
 570 002a BB78     		ldrb	r3, [r7, #2]
 571 002c 1E00     		movs	r6, r3
 572              	.LVL68:
 353:aes.c         ****     d = (*state)[i][3];
 573              		.loc 1 353 0 discriminator 3
 574 002e FB78     		ldrb	r3, [r7, #3]
 575 0030 0393     		str	r3, [sp, #12]
 576              	.LVL69:
 354:aes.c         **** 
 355:aes.c         ****     (*state)[i][0] = Multiply(a, 0x0e) ^ Multiply(b, 0x0b) ^ Multiply(c, 0x0d) ^ Multiply(d, 0x09);
 577              		.loc 1 355 0 discriminator 3
 578 0032 0195     		str	r5, [sp, #4]
 579 0034 2800     		movs	r0, r5
 580 0036 FFF7FEFF 		bl	xtime
 581              	.LVL70:
 582 003a 0690     		str	r0, [sp, #24]
 583 003c FFF7FEFF 		bl	xtime
 584              	.LVL71:
 585 0040 0790     		str	r0, [sp, #28]
 586 0042 FFF7FEFF 		bl	xtime
 587              	.LVL72:
 588 0046 8246     		mov	r10, r0
 589 0048 0594     		str	r4, [sp, #20]
 590 004a 2000     		movs	r0, r4
 591 004c FFF7FEFF 		bl	xtime
 592              	.LVL73:
 593 0050 0500     		movs	r5, r0
 594              	.LVL74:
 595 0052 FFF7FEFF 		bl	xtime
 596              	.LVL75:
 597 0056 0890     		str	r0, [sp, #32]
 598 0058 FFF7FEFF 		bl	xtime
 599              	.LVL76:
 600 005c 8146     		mov	r9, r0
ARM GAS  C:\Users\NIGHDR~1\AppData\Local\Temp\ccgwSx2z.s 			page 18


 601 005e 0296     		str	r6, [sp, #8]
 602 0060 3000     		movs	r0, r6
 603 0062 FFF7FEFF 		bl	xtime
 604              	.LVL77:
 605 0066 0990     		str	r0, [sp, #36]
 606 0068 FFF7FEFF 		bl	xtime
 607              	.LVL78:
 608 006c 0400     		movs	r4, r0
 609              	.LVL79:
 610 006e FFF7FEFF 		bl	xtime
 611              	.LVL80:
 612 0072 0600     		movs	r6, r0
 613              	.LVL81:
 614 0074 0398     		ldr	r0, [sp, #12]
 615 0076 FFF7FEFF 		bl	xtime
 616              	.LVL82:
 617 007a 0A90     		str	r0, [sp, #40]
 618 007c FFF7FEFF 		bl	xtime
 619              	.LVL83:
 620 0080 0B90     		str	r0, [sp, #44]
 621 0082 FFF7FEFF 		bl	xtime
 622              	.LVL84:
 623 0086 8446     		mov	ip, r0
 624 0088 069B     		ldr	r3, [sp, #24]
 625 008a 0799     		ldr	r1, [sp, #28]
 626 008c 4B40     		eors	r3, r1
 627 008e DBB2     		uxtb	r3, r3
 628 0090 5246     		mov	r2, r10
 629 0092 5340     		eors	r3, r2
 630 0094 D9B2     		uxtb	r1, r3
 631 0096 059A     		ldr	r2, [sp, #20]
 632 0098 6A40     		eors	r2, r5
 633 009a D2B2     		uxtb	r2, r2
 634 009c 4B46     		mov	r3, r9
 635 009e 5A40     		eors	r2, r3
 636 00a0 D3B2     		uxtb	r3, r2
 637 00a2 4B40     		eors	r3, r1
 638 00a4 029A     		ldr	r2, [sp, #8]
 639 00a6 6240     		eors	r2, r4
 640 00a8 D2B2     		uxtb	r2, r2
 641 00aa 7240     		eors	r2, r6
 642 00ac D2B2     		uxtb	r2, r2
 643 00ae 5340     		eors	r3, r2
 644 00b0 0399     		ldr	r1, [sp, #12]
 645 00b2 4140     		eors	r1, r0
 646 00b4 CAB2     		uxtb	r2, r1
 647 00b6 5340     		eors	r3, r2
 648 00b8 0499     		ldr	r1, [sp, #16]
 649 00ba 5A46     		mov	r2, fp
 650 00bc 5354     		strb	r3, [r2, r1]
 356:aes.c         ****     (*state)[i][1] = Multiply(a, 0x09) ^ Multiply(b, 0x0e) ^ Multiply(c, 0x0b) ^ Multiply(d, 0x0d);
 651              		.loc 1 356 0 discriminator 3
 652 00be 0198     		ldr	r0, [sp, #4]
 653 00c0 0300     		movs	r3, r0
 654 00c2 5246     		mov	r2, r10
 655 00c4 5340     		eors	r3, r2
 656 00c6 DAB2     		uxtb	r2, r3
ARM GAS  C:\Users\NIGHDR~1\AppData\Local\Temp\ccgwSx2z.s 			page 19


 657 00c8 0899     		ldr	r1, [sp, #32]
 658 00ca 4D40     		eors	r5, r1
 659 00cc EBB2     		uxtb	r3, r5
 660 00ce 4D46     		mov	r5, r9
 661 00d0 6B40     		eors	r3, r5
 662 00d2 DDB2     		uxtb	r5, r3
 663 00d4 5540     		eors	r5, r2
 664 00d6 099B     		ldr	r3, [sp, #36]
 665 00d8 029A     		ldr	r2, [sp, #8]
 666 00da 5340     		eors	r3, r2
 667 00dc DBB2     		uxtb	r3, r3
 668 00de 7340     		eors	r3, r6
 669 00e0 DBB2     		uxtb	r3, r3
 670 00e2 5D40     		eors	r5, r3
 671 00e4 0B9B     		ldr	r3, [sp, #44]
 672 00e6 0399     		ldr	r1, [sp, #12]
 673 00e8 4B40     		eors	r3, r1
 674 00ea DBB2     		uxtb	r3, r3
 675 00ec 6246     		mov	r2, ip
 676 00ee 5340     		eors	r3, r2
 677 00f0 DBB2     		uxtb	r3, r3
 678 00f2 5D40     		eors	r5, r3
 679 00f4 7D70     		strb	r5, [r7, #1]
 357:aes.c         ****     (*state)[i][2] = Multiply(a, 0x0d) ^ Multiply(b, 0x09) ^ Multiply(c, 0x0e) ^ Multiply(d, 0x0b);
 680              		.loc 1 357 0 discriminator 3
 681 00f6 079A     		ldr	r2, [sp, #28]
 682 00f8 4240     		eors	r2, r0
 683 00fa D2B2     		uxtb	r2, r2
 684 00fc 5546     		mov	r5, r10
 685 00fe 6A40     		eors	r2, r5
 686 0100 D3B2     		uxtb	r3, r2
 687 0102 059D     		ldr	r5, [sp, #20]
 688 0104 2A00     		movs	r2, r5
 689 0106 4846     		mov	r0, r9
 690 0108 4240     		eors	r2, r0
 691 010a D2B2     		uxtb	r2, r2
 692 010c 5A40     		eors	r2, r3
 693 010e 099B     		ldr	r3, [sp, #36]
 694 0110 6340     		eors	r3, r4
 695 0112 DBB2     		uxtb	r3, r3
 696 0114 7340     		eors	r3, r6
 697 0116 DBB2     		uxtb	r3, r3
 698 0118 1400     		movs	r4, r2
 699 011a 5C40     		eors	r4, r3
 700 011c 0B00     		movs	r3, r1
 701 011e 0A99     		ldr	r1, [sp, #40]
 702 0120 4B40     		eors	r3, r1
 703 0122 DBB2     		uxtb	r3, r3
 704 0124 6246     		mov	r2, ip
 705 0126 5340     		eors	r3, r2
 706 0128 DBB2     		uxtb	r3, r3
 707 012a 5C40     		eors	r4, r3
 708 012c BC70     		strb	r4, [r7, #2]
 358:aes.c         ****     (*state)[i][3] = Multiply(a, 0x0b) ^ Multiply(b, 0x0d) ^ Multiply(c, 0x09) ^ Multiply(d, 0x0e);
 709              		.loc 1 358 0 discriminator 3
 710 012e 069B     		ldr	r3, [sp, #24]
 711 0130 0199     		ldr	r1, [sp, #4]
ARM GAS  C:\Users\NIGHDR~1\AppData\Local\Temp\ccgwSx2z.s 			page 20


 712 0132 4B40     		eors	r3, r1
 713 0134 DBB2     		uxtb	r3, r3
 714 0136 5046     		mov	r0, r10
 715 0138 4340     		eors	r3, r0
 716 013a D9B2     		uxtb	r1, r3
 717 013c 2A00     		movs	r2, r5
 718 013e 089C     		ldr	r4, [sp, #32]
 719 0140 6240     		eors	r2, r4
 720 0142 D2B2     		uxtb	r2, r2
 721 0144 4846     		mov	r0, r9
 722 0146 4240     		eors	r2, r0
 723 0148 D3B2     		uxtb	r3, r2
 724 014a 4B40     		eors	r3, r1
 725 014c 029A     		ldr	r2, [sp, #8]
 726 014e 5640     		eors	r6, r2
 727 0150 F6B2     		uxtb	r6, r6
 728 0152 5E40     		eors	r6, r3
 729 0154 0B9B     		ldr	r3, [sp, #44]
 730 0156 0A99     		ldr	r1, [sp, #40]
 731 0158 4B40     		eors	r3, r1
 732 015a DBB2     		uxtb	r3, r3
 733 015c 6046     		mov	r0, ip
 734 015e 5840     		eors	r0, r3
 735 0160 C3B2     		uxtb	r3, r0
 736 0162 3000     		movs	r0, r6
 737 0164 5840     		eors	r0, r3
 738 0166 F870     		strb	r0, [r7, #3]
 348:aes.c         ****   { 
 739              		.loc 1 348 0 discriminator 3
 740 0168 0123     		movs	r3, #1
 741 016a 9C46     		mov	ip, r3
 742 016c E044     		add	r8, r8, ip
 743              	.LVL85:
 744              	.L27:
 348:aes.c         ****   { 
 745              		.loc 1 348 0 is_stmt 0 discriminator 1
 746 016e 4346     		mov	r3, r8
 747 0170 032B     		cmp	r3, #3
 748 0172 00DC     		bgt	.LCB774
 749 0174 4FE7     		b	.L28	@long jump
 750              	.LCB774:
 359:aes.c         ****   }
 360:aes.c         **** }
 751              		.loc 1 360 0 is_stmt 1
 752 0176 0DB0     		add	sp, sp, #52
 753              		@ sp needed
 754              	.LVL86:
 755 0178 3CBC     		pop	{r2, r3, r4, r5}
 756 017a 9046     		mov	r8, r2
 757 017c 9946     		mov	r9, r3
 758 017e A246     		mov	r10, r4
 759 0180 AB46     		mov	fp, r5
 760 0182 F0BD     		pop	{r4, r5, r6, r7, pc}
 761              		.cfi_endproc
 762              	.LFE9:
 763              		.size	InvMixColumns, .-InvMixColumns
 764              		.section	.text.InvSubBytes,"ax",%progbits
ARM GAS  C:\Users\NIGHDR~1\AppData\Local\Temp\ccgwSx2z.s 			page 21


 765              		.align	2
 766              		.code	16
 767              		.thumb_func
 768              		.type	InvSubBytes, %function
 769              	InvSubBytes:
 770              	.LFB10:
 361:aes.c         **** 
 362:aes.c         **** 
 363:aes.c         **** // The SubBytes Function Substitutes the values in the
 364:aes.c         **** // state matrix with values in an S-box.
 365:aes.c         **** static void InvSubBytes(state_t* state)
 366:aes.c         **** {
 771              		.loc 1 366 0
 772              		.cfi_startproc
 773              		@ args = 0, pretend = 0, frame = 0
 774              		@ frame_needed = 0, uses_anonymous_args = 0
 775              	.LVL87:
 776 0000 30B5     		push	{r4, r5, lr}
 777              		.cfi_def_cfa_offset 12
 778              		.cfi_offset 4, -12
 779              		.cfi_offset 5, -8
 780              		.cfi_offset 14, -4
 781              	.LVL88:
 367:aes.c         ****   uint8_t i, j;
 368:aes.c         ****   for (i = 0; i < 4; ++i)
 782              		.loc 1 368 0
 783 0002 0024     		movs	r4, #0
 784 0004 0EE0     		b	.L30
 785              	.LVL89:
 786              	.L31:
 369:aes.c         ****   {
 370:aes.c         ****     for (j = 0; j < 4; ++j)
 371:aes.c         ****     {
 372:aes.c         ****       (*state)[j][i] = getSBoxInvert((*state)[j][i]);
 787              		.loc 1 372 0 discriminator 3
 788 0006 9A00     		lsls	r2, r3, #2
 789 0008 8218     		adds	r2, r0, r2
 790 000a 115D     		ldrb	r1, [r2, r4]
 791 000c 074D     		ldr	r5, .L34
 792 000e 6918     		adds	r1, r5, r1
 793 0010 097B     		ldrb	r1, [r1, #12]
 794 0012 1155     		strb	r1, [r2, r4]
 370:aes.c         ****     {
 795              		.loc 1 370 0 discriminator 3
 796 0014 0133     		adds	r3, r3, #1
 797              	.LVL90:
 798 0016 DBB2     		uxtb	r3, r3
 799              	.LVL91:
 800 0018 00E0     		b	.L32
 801              	.LVL92:
 802              	.L33:
 803 001a 0023     		movs	r3, #0
 804              	.L32:
 805              	.LVL93:
 370:aes.c         ****     {
 806              		.loc 1 370 0 is_stmt 0 discriminator 1
 807 001c 032B     		cmp	r3, #3
ARM GAS  C:\Users\NIGHDR~1\AppData\Local\Temp\ccgwSx2z.s 			page 22


 808 001e F2D9     		bls	.L31
 368:aes.c         ****   {
 809              		.loc 1 368 0 is_stmt 1 discriminator 2
 810 0020 0134     		adds	r4, r4, #1
 811              	.LVL94:
 812 0022 E4B2     		uxtb	r4, r4
 813              	.LVL95:
 814              	.L30:
 368:aes.c         ****   {
 815              		.loc 1 368 0 is_stmt 0 discriminator 1
 816 0024 032C     		cmp	r4, #3
 817 0026 F8D9     		bls	.L33
 373:aes.c         ****     }
 374:aes.c         ****   }
 375:aes.c         **** }
 818              		.loc 1 375 0 is_stmt 1
 819              		@ sp needed
 820              	.LVL96:
 821 0028 30BD     		pop	{r4, r5, pc}
 822              	.L35:
 823 002a C046     		.align	2
 824              	.L34:
 825 002c 00010000 		.word	.LANCHOR1
 826              		.cfi_endproc
 827              	.LFE10:
 828              		.size	InvSubBytes, .-InvSubBytes
 829              		.section	.text.InvShiftRows,"ax",%progbits
 830              		.align	2
 831              		.code	16
 832              		.thumb_func
 833              		.type	InvShiftRows, %function
 834              	InvShiftRows:
 835              	.LFB11:
 376:aes.c         **** 
 377:aes.c         **** static void InvShiftRows(state_t* state)
 378:aes.c         **** {
 836              		.loc 1 378 0
 837              		.cfi_startproc
 838              		@ args = 0, pretend = 0, frame = 0
 839              		@ frame_needed = 0, uses_anonymous_args = 0
 840              		@ link register save eliminated.
 841              	.LVL97:
 379:aes.c         ****   uint8_t temp;
 380:aes.c         **** 
 381:aes.c         ****   // Rotate first row 1 columns to right  
 382:aes.c         ****   temp = (*state)[3][1];
 842              		.loc 1 382 0
 843 0000 437B     		ldrb	r3, [r0, #13]
 844              	.LVL98:
 383:aes.c         ****   (*state)[3][1] = (*state)[2][1];
 845              		.loc 1 383 0
 846 0002 427A     		ldrb	r2, [r0, #9]
 847 0004 4273     		strb	r2, [r0, #13]
 384:aes.c         ****   (*state)[2][1] = (*state)[1][1];
 848              		.loc 1 384 0
 849 0006 4279     		ldrb	r2, [r0, #5]
 850 0008 4272     		strb	r2, [r0, #9]
ARM GAS  C:\Users\NIGHDR~1\AppData\Local\Temp\ccgwSx2z.s 			page 23


 385:aes.c         ****   (*state)[1][1] = (*state)[0][1];
 851              		.loc 1 385 0
 852 000a 4278     		ldrb	r2, [r0, #1]
 853 000c 4271     		strb	r2, [r0, #5]
 386:aes.c         ****   (*state)[0][1] = temp;
 854              		.loc 1 386 0
 855 000e 4370     		strb	r3, [r0, #1]
 387:aes.c         **** 
 388:aes.c         ****   // Rotate second row 2 columns to right 
 389:aes.c         ****   temp = (*state)[0][2];
 856              		.loc 1 389 0
 857 0010 8378     		ldrb	r3, [r0, #2]
 858              	.LVL99:
 390:aes.c         ****   (*state)[0][2] = (*state)[2][2];
 859              		.loc 1 390 0
 860 0012 827A     		ldrb	r2, [r0, #10]
 861 0014 8270     		strb	r2, [r0, #2]
 391:aes.c         ****   (*state)[2][2] = temp;
 862              		.loc 1 391 0
 863 0016 8372     		strb	r3, [r0, #10]
 392:aes.c         **** 
 393:aes.c         ****   temp = (*state)[1][2];
 864              		.loc 1 393 0
 865 0018 8379     		ldrb	r3, [r0, #6]
 866              	.LVL100:
 394:aes.c         ****   (*state)[1][2] = (*state)[3][2];
 867              		.loc 1 394 0
 868 001a 827B     		ldrb	r2, [r0, #14]
 869 001c 8271     		strb	r2, [r0, #6]
 395:aes.c         ****   (*state)[3][2] = temp;
 870              		.loc 1 395 0
 871 001e 8373     		strb	r3, [r0, #14]
 396:aes.c         **** 
 397:aes.c         ****   // Rotate third row 3 columns to right
 398:aes.c         ****   temp = (*state)[0][3];
 872              		.loc 1 398 0
 873 0020 C378     		ldrb	r3, [r0, #3]
 874              	.LVL101:
 399:aes.c         ****   (*state)[0][3] = (*state)[1][3];
 875              		.loc 1 399 0
 876 0022 C279     		ldrb	r2, [r0, #7]
 877 0024 C270     		strb	r2, [r0, #3]
 400:aes.c         ****   (*state)[1][3] = (*state)[2][3];
 878              		.loc 1 400 0
 879 0026 C27A     		ldrb	r2, [r0, #11]
 880 0028 C271     		strb	r2, [r0, #7]
 401:aes.c         ****   (*state)[2][3] = (*state)[3][3];
 881              		.loc 1 401 0
 882 002a C27B     		ldrb	r2, [r0, #15]
 883 002c C272     		strb	r2, [r0, #11]
 402:aes.c         ****   (*state)[3][3] = temp;
 884              		.loc 1 402 0
 885 002e C373     		strb	r3, [r0, #15]
 403:aes.c         **** }
 886              		.loc 1 403 0
 887              		@ sp needed
 888 0030 7047     		bx	lr
ARM GAS  C:\Users\NIGHDR~1\AppData\Local\Temp\ccgwSx2z.s 			page 24


 889              		.cfi_endproc
 890              	.LFE11:
 891              		.size	InvShiftRows, .-InvShiftRows
 892 0032 C046     		.section	.text.Cipher,"ax",%progbits
 893              		.align	2
 894              		.code	16
 895              		.thumb_func
 896              		.type	Cipher, %function
 897              	Cipher:
 898              	.LFB12:
 404:aes.c         **** 
 405:aes.c         **** 
 406:aes.c         **** // Cipher is the main function that encrypts the PlainText.
 407:aes.c         **** static void Cipher(state_t* state, uint8_t* RoundKey)
 408:aes.c         **** {
 899              		.loc 1 408 0
 900              		.cfi_startproc
 901              		@ args = 0, pretend = 0, frame = 0
 902              		@ frame_needed = 0, uses_anonymous_args = 0
 903              	.LVL102:
 904 0000 70B5     		push	{r4, r5, r6, lr}
 905              		.cfi_def_cfa_offset 16
 906              		.cfi_offset 4, -16
 907              		.cfi_offset 5, -12
 908              		.cfi_offset 6, -8
 909              		.cfi_offset 14, -4
 910 0002 0500     		movs	r5, r0
 911 0004 0E00     		movs	r6, r1
 912              	.LVL103:
 409:aes.c         ****   uint8_t round = 0;
 410:aes.c         **** 
 411:aes.c         ****   // Add the First round key to the state before starting the rounds.
 412:aes.c         ****   AddRoundKey(0, state, RoundKey); 
 913              		.loc 1 412 0
 914 0006 0A00     		movs	r2, r1
 915 0008 0100     		movs	r1, r0
 916              	.LVL104:
 917 000a 0020     		movs	r0, #0
 918              	.LVL105:
 919 000c FFF7FEFF 		bl	AddRoundKey
 920              	.LVL106:
 413:aes.c         ****   
 414:aes.c         ****   // There will be Nr rounds.
 415:aes.c         ****   // The first Nr-1 rounds are identical.
 416:aes.c         ****   // These Nr-1 rounds are executed in the loop below.
 417:aes.c         ****   for (round = 1; round < Nr; ++round)
 921              		.loc 1 417 0
 922 0010 0124     		movs	r4, #1
 923 0012 0FE0     		b	.L38
 924              	.LVL107:
 925              	.L39:
 418:aes.c         ****   {
 419:aes.c         ****     SubBytes(state);
 926              		.loc 1 419 0 discriminator 3
 927 0014 2800     		movs	r0, r5
 928 0016 FFF7FEFF 		bl	SubBytes
 929              	.LVL108:
ARM GAS  C:\Users\NIGHDR~1\AppData\Local\Temp\ccgwSx2z.s 			page 25


 420:aes.c         ****     ShiftRows(state);
 930              		.loc 1 420 0 discriminator 3
 931 001a 2800     		movs	r0, r5
 932 001c FFF7FEFF 		bl	ShiftRows
 933              	.LVL109:
 421:aes.c         ****     MixColumns(state);
 934              		.loc 1 421 0 discriminator 3
 935 0020 2800     		movs	r0, r5
 936 0022 FFF7FEFF 		bl	MixColumns
 937              	.LVL110:
 422:aes.c         ****     AddRoundKey(round, state, RoundKey);
 938              		.loc 1 422 0 discriminator 3
 939 0026 3200     		movs	r2, r6
 940 0028 2900     		movs	r1, r5
 941 002a 2000     		movs	r0, r4
 942 002c FFF7FEFF 		bl	AddRoundKey
 943              	.LVL111:
 417:aes.c         ****   {
 944              		.loc 1 417 0 discriminator 3
 945 0030 0134     		adds	r4, r4, #1
 946              	.LVL112:
 947 0032 E4B2     		uxtb	r4, r4
 948              	.LVL113:
 949              	.L38:
 417:aes.c         ****   {
 950              		.loc 1 417 0 is_stmt 0 discriminator 1
 951 0034 092C     		cmp	r4, #9
 952 0036 EDD9     		bls	.L39
 423:aes.c         ****   }
 424:aes.c         ****   
 425:aes.c         ****   // The last round is given below.
 426:aes.c         ****   // The MixColumns function is not here in the last round.
 427:aes.c         ****   SubBytes(state);
 953              		.loc 1 427 0 is_stmt 1
 954 0038 2800     		movs	r0, r5
 955 003a FFF7FEFF 		bl	SubBytes
 956              	.LVL114:
 428:aes.c         ****   ShiftRows(state);
 957              		.loc 1 428 0
 958 003e 2800     		movs	r0, r5
 959 0040 FFF7FEFF 		bl	ShiftRows
 960              	.LVL115:
 429:aes.c         ****   AddRoundKey(Nr, state, RoundKey);
 961              		.loc 1 429 0
 962 0044 3200     		movs	r2, r6
 963 0046 2900     		movs	r1, r5
 964 0048 0A20     		movs	r0, #10
 965 004a FFF7FEFF 		bl	AddRoundKey
 966              	.LVL116:
 430:aes.c         **** }
 967              		.loc 1 430 0
 968              		@ sp needed
 969              	.LVL117:
 970              	.LVL118:
 971              	.LVL119:
 972 004e 70BD     		pop	{r4, r5, r6, pc}
 973              		.cfi_endproc
ARM GAS  C:\Users\NIGHDR~1\AppData\Local\Temp\ccgwSx2z.s 			page 26


 974              	.LFE12:
 975              		.size	Cipher, .-Cipher
 976              		.section	.text.InvCipher,"ax",%progbits
 977              		.align	2
 978              		.code	16
 979              		.thumb_func
 980              		.type	InvCipher, %function
 981              	InvCipher:
 982              	.LFB13:
 431:aes.c         **** 
 432:aes.c         **** static void InvCipher(state_t* state,uint8_t* RoundKey)
 433:aes.c         **** {
 983              		.loc 1 433 0
 984              		.cfi_startproc
 985              		@ args = 0, pretend = 0, frame = 0
 986              		@ frame_needed = 0, uses_anonymous_args = 0
 987              	.LVL120:
 988 0000 70B5     		push	{r4, r5, r6, lr}
 989              		.cfi_def_cfa_offset 16
 990              		.cfi_offset 4, -16
 991              		.cfi_offset 5, -12
 992              		.cfi_offset 6, -8
 993              		.cfi_offset 14, -4
 994 0002 0500     		movs	r5, r0
 995 0004 0E00     		movs	r6, r1
 996              	.LVL121:
 434:aes.c         ****   uint8_t round = 0;
 435:aes.c         **** 
 436:aes.c         ****   // Add the First round key to the state before starting the rounds.
 437:aes.c         ****   AddRoundKey(Nr, state, RoundKey); 
 997              		.loc 1 437 0
 998 0006 0A00     		movs	r2, r1
 999 0008 0100     		movs	r1, r0
 1000              	.LVL122:
 1001 000a 0A20     		movs	r0, #10
 1002              	.LVL123:
 1003 000c FFF7FEFF 		bl	AddRoundKey
 1004              	.LVL124:
 438:aes.c         **** 
 439:aes.c         ****   // There will be Nr rounds.
 440:aes.c         ****   // The first Nr-1 rounds are identical.
 441:aes.c         ****   // These Nr-1 rounds are executed in the loop below.
 442:aes.c         ****   for (round = (Nr - 1); round > 0; --round)
 1005              		.loc 1 442 0
 1006 0010 0924     		movs	r4, #9
 1007 0012 0FE0     		b	.L41
 1008              	.LVL125:
 1009              	.L42:
 443:aes.c         ****   {
 444:aes.c         ****     InvShiftRows(state);
 1010              		.loc 1 444 0 discriminator 3
 1011 0014 2800     		movs	r0, r5
 1012 0016 FFF7FEFF 		bl	InvShiftRows
 1013              	.LVL126:
 445:aes.c         ****     InvSubBytes(state);
 1014              		.loc 1 445 0 discriminator 3
 1015 001a 2800     		movs	r0, r5
ARM GAS  C:\Users\NIGHDR~1\AppData\Local\Temp\ccgwSx2z.s 			page 27


 1016 001c FFF7FEFF 		bl	InvSubBytes
 1017              	.LVL127:
 446:aes.c         ****     AddRoundKey(round, state, RoundKey);
 1018              		.loc 1 446 0 discriminator 3
 1019 0020 3200     		movs	r2, r6
 1020 0022 2900     		movs	r1, r5
 1021 0024 2000     		movs	r0, r4
 1022 0026 FFF7FEFF 		bl	AddRoundKey
 1023              	.LVL128:
 447:aes.c         ****     InvMixColumns(state);
 1024              		.loc 1 447 0 discriminator 3
 1025 002a 2800     		movs	r0, r5
 1026 002c FFF7FEFF 		bl	InvMixColumns
 1027              	.LVL129:
 442:aes.c         ****   {
 1028              		.loc 1 442 0 discriminator 3
 1029 0030 013C     		subs	r4, r4, #1
 1030              	.LVL130:
 1031 0032 E4B2     		uxtb	r4, r4
 1032              	.LVL131:
 1033              	.L41:
 442:aes.c         ****   {
 1034              		.loc 1 442 0 is_stmt 0 discriminator 1
 1035 0034 002C     		cmp	r4, #0
 1036 0036 EDD1     		bne	.L42
 448:aes.c         ****   }
 449:aes.c         ****   
 450:aes.c         ****   // The last round is given below.
 451:aes.c         ****   // The MixColumns function is not here in the last round.
 452:aes.c         ****   InvShiftRows(state);
 1037              		.loc 1 452 0 is_stmt 1
 1038 0038 2800     		movs	r0, r5
 1039 003a FFF7FEFF 		bl	InvShiftRows
 1040              	.LVL132:
 453:aes.c         ****   InvSubBytes(state);
 1041              		.loc 1 453 0
 1042 003e 2800     		movs	r0, r5
 1043 0040 FFF7FEFF 		bl	InvSubBytes
 1044              	.LVL133:
 454:aes.c         ****   AddRoundKey(0, state, RoundKey);
 1045              		.loc 1 454 0
 1046 0044 3200     		movs	r2, r6
 1047 0046 2900     		movs	r1, r5
 1048 0048 0020     		movs	r0, #0
 1049 004a FFF7FEFF 		bl	AddRoundKey
 1050              	.LVL134:
 455:aes.c         **** }
 1051              		.loc 1 455 0
 1052              		@ sp needed
 1053              	.LVL135:
 1054              	.LVL136:
 1055              	.LVL137:
 1056 004e 70BD     		pop	{r4, r5, r6, pc}
 1057              		.cfi_endproc
 1058              	.LFE13:
 1059              		.size	InvCipher, .-InvCipher
 1060              		.section	.text.XorWithIv,"ax",%progbits
ARM GAS  C:\Users\NIGHDR~1\AppData\Local\Temp\ccgwSx2z.s 			page 28


 1061              		.align	2
 1062              		.code	16
 1063              		.thumb_func
 1064              		.type	XorWithIv, %function
 1065              	XorWithIv:
 1066              	.LFB16:
 456:aes.c         **** 
 457:aes.c         **** 
 458:aes.c         **** /*****************************************************************************/
 459:aes.c         **** /* Public functions:                                                         */
 460:aes.c         **** /*****************************************************************************/
 461:aes.c         **** #if defined(ECB) && (ECB == 1)
 462:aes.c         **** 
 463:aes.c         **** 
 464:aes.c         **** void AES_ECB_encrypt(struct AES_ctx *ctx,const uint8_t* buf)
 465:aes.c         **** {
 466:aes.c         ****   // The next function call encrypts the PlainText with the Key using AES algorithm.
 467:aes.c         ****   Cipher((state_t*)buf, ctx->RoundKey);
 468:aes.c         **** }
 469:aes.c         **** 
 470:aes.c         **** void AES_ECB_decrypt(struct AES_ctx* ctx,const uint8_t* buf)
 471:aes.c         **** {
 472:aes.c         ****   // The next function call decrypts the PlainText with the Key using AES algorithm.
 473:aes.c         ****   InvCipher((state_t*)buf, ctx->RoundKey);
 474:aes.c         **** }
 475:aes.c         **** 
 476:aes.c         **** 
 477:aes.c         **** #endif // #if defined(ECB) && (ECB == 1)
 478:aes.c         **** 
 479:aes.c         **** 
 480:aes.c         **** 
 481:aes.c         **** 
 482:aes.c         **** 
 483:aes.c         **** #if defined(CBC) && (CBC == 1)
 484:aes.c         **** 
 485:aes.c         **** 
 486:aes.c         **** static void XorWithIv(uint8_t* buf, uint8_t* Iv)
 487:aes.c         **** {
 1067              		.loc 1 487 0
 1068              		.cfi_startproc
 1069              		@ args = 0, pretend = 0, frame = 0
 1070              		@ frame_needed = 0, uses_anonymous_args = 0
 1071              	.LVL138:
 1072 0000 30B5     		push	{r4, r5, lr}
 1073              		.cfi_def_cfa_offset 12
 1074              		.cfi_offset 4, -12
 1075              		.cfi_offset 5, -8
 1076              		.cfi_offset 14, -4
 1077              	.LVL139:
 488:aes.c         ****   uint8_t i;
 489:aes.c         ****   for (i = 0; i < AES_BLOCKLEN; ++i) // The block in AES is always 128bit no matter the key size
 1078              		.loc 1 489 0
 1079 0002 0023     		movs	r3, #0
 1080 0004 06E0     		b	.L44
 1081              	.LVL140:
 1082              	.L45:
 490:aes.c         ****   {
ARM GAS  C:\Users\NIGHDR~1\AppData\Local\Temp\ccgwSx2z.s 			page 29


 491:aes.c         ****     buf[i] ^= Iv[i];
 1083              		.loc 1 491 0 discriminator 3
 1084 0006 C418     		adds	r4, r0, r3
 1085 0008 CD5C     		ldrb	r5, [r1, r3]
 1086 000a 2278     		ldrb	r2, [r4]
 1087 000c 6A40     		eors	r2, r5
 1088 000e 2270     		strb	r2, [r4]
 489:aes.c         ****   {
 1089              		.loc 1 489 0 discriminator 3
 1090 0010 0133     		adds	r3, r3, #1
 1091              	.LVL141:
 1092 0012 DBB2     		uxtb	r3, r3
 1093              	.LVL142:
 1094              	.L44:
 489:aes.c         ****   {
 1095              		.loc 1 489 0 is_stmt 0 discriminator 1
 1096 0014 0F2B     		cmp	r3, #15
 1097 0016 F6D9     		bls	.L45
 492:aes.c         ****   }
 493:aes.c         **** }
 1098              		.loc 1 493 0 is_stmt 1
 1099              		@ sp needed
 1100 0018 30BD     		pop	{r4, r5, pc}
 1101              		.cfi_endproc
 1102              	.LFE16:
 1103              		.size	XorWithIv, .-XorWithIv
 1104 001a C046     		.section	.text.AES_init_ctx,"ax",%progbits
 1105              		.align	2
 1106              		.global	AES_init_ctx
 1107              		.code	16
 1108              		.thumb_func
 1109              		.type	AES_init_ctx, %function
 1110              	AES_init_ctx:
 1111              	.LFB1:
 226:aes.c         ****   KeyExpansion(ctx->RoundKey, key);
 1112              		.loc 1 226 0
 1113              		.cfi_startproc
 1114              		@ args = 0, pretend = 0, frame = 0
 1115              		@ frame_needed = 0, uses_anonymous_args = 0
 1116              	.LVL143:
 1117 0000 10B5     		push	{r4, lr}
 1118              		.cfi_def_cfa_offset 8
 1119              		.cfi_offset 4, -8
 1120              		.cfi_offset 14, -4
 227:aes.c         **** }
 1121              		.loc 1 227 0
 1122 0002 FFF7FEFF 		bl	KeyExpansion
 1123              	.LVL144:
 228:aes.c         **** #if (defined(CBC) && (CBC == 1)) || (defined(CTR) && (CTR == 1))
 1124              		.loc 1 228 0
 1125              		@ sp needed
 1126 0006 10BD     		pop	{r4, pc}
 1127              		.cfi_endproc
 1128              	.LFE1:
 1129              		.size	AES_init_ctx, .-AES_init_ctx
 1130              		.section	.text.AES_init_ctx_iv,"ax",%progbits
 1131              		.align	2
ARM GAS  C:\Users\NIGHDR~1\AppData\Local\Temp\ccgwSx2z.s 			page 30


 1132              		.global	AES_init_ctx_iv
 1133              		.code	16
 1134              		.thumb_func
 1135              		.type	AES_init_ctx_iv, %function
 1136              	AES_init_ctx_iv:
 1137              	.LFB2:
 231:aes.c         ****   KeyExpansion(ctx->RoundKey, key);
 1138              		.loc 1 231 0
 1139              		.cfi_startproc
 1140              		@ args = 0, pretend = 0, frame = 0
 1141              		@ frame_needed = 0, uses_anonymous_args = 0
 1142              	.LVL145:
 1143 0000 70B5     		push	{r4, r5, r6, lr}
 1144              		.cfi_def_cfa_offset 16
 1145              		.cfi_offset 4, -16
 1146              		.cfi_offset 5, -12
 1147              		.cfi_offset 6, -8
 1148              		.cfi_offset 14, -4
 1149 0002 0400     		movs	r4, r0
 1150 0004 1500     		movs	r5, r2
 232:aes.c         ****   memcpy (ctx->Iv, iv, AES_BLOCKLEN);
 1151              		.loc 1 232 0
 1152 0006 FFF7FEFF 		bl	KeyExpansion
 1153              	.LVL146:
 233:aes.c         **** }
 1154              		.loc 1 233 0
 1155 000a 2000     		movs	r0, r4
 1156 000c B030     		adds	r0, r0, #176
 1157 000e 1022     		movs	r2, #16
 1158 0010 2900     		movs	r1, r5
 1159 0012 FFF7FEFF 		bl	memcpy
 1160              	.LVL147:
 234:aes.c         **** void AES_ctx_set_iv(struct AES_ctx* ctx, const uint8_t* iv)
 1161              		.loc 1 234 0
 1162              		@ sp needed
 1163              	.LVL148:
 1164              	.LVL149:
 1165 0016 70BD     		pop	{r4, r5, r6, pc}
 1166              		.cfi_endproc
 1167              	.LFE2:
 1168              		.size	AES_init_ctx_iv, .-AES_init_ctx_iv
 1169              		.section	.text.AES_ctx_set_iv,"ax",%progbits
 1170              		.align	2
 1171              		.global	AES_ctx_set_iv
 1172              		.code	16
 1173              		.thumb_func
 1174              		.type	AES_ctx_set_iv, %function
 1175              	AES_ctx_set_iv:
 1176              	.LFB3:
 236:aes.c         ****   memcpy (ctx->Iv, iv, AES_BLOCKLEN);
 1177              		.loc 1 236 0
 1178              		.cfi_startproc
 1179              		@ args = 0, pretend = 0, frame = 0
 1180              		@ frame_needed = 0, uses_anonymous_args = 0
 1181              	.LVL150:
 1182 0000 10B5     		push	{r4, lr}
 1183              		.cfi_def_cfa_offset 8
ARM GAS  C:\Users\NIGHDR~1\AppData\Local\Temp\ccgwSx2z.s 			page 31


 1184              		.cfi_offset 4, -8
 1185              		.cfi_offset 14, -4
 237:aes.c         **** }
 1186              		.loc 1 237 0
 1187 0002 B030     		adds	r0, r0, #176
 1188              	.LVL151:
 1189 0004 1022     		movs	r2, #16
 1190 0006 FFF7FEFF 		bl	memcpy
 1191              	.LVL152:
 238:aes.c         **** #endif
 1192              		.loc 1 238 0
 1193              		@ sp needed
 1194 000a 10BD     		pop	{r4, pc}
 1195              		.cfi_endproc
 1196              	.LFE3:
 1197              		.size	AES_ctx_set_iv, .-AES_ctx_set_iv
 1198              		.section	.text.AES_ECB_encrypt,"ax",%progbits
 1199              		.align	2
 1200              		.global	AES_ECB_encrypt
 1201              		.code	16
 1202              		.thumb_func
 1203              		.type	AES_ECB_encrypt, %function
 1204              	AES_ECB_encrypt:
 1205              	.LFB14:
 465:aes.c         ****   // The next function call encrypts the PlainText with the Key using AES algorithm.
 1206              		.loc 1 465 0
 1207              		.cfi_startproc
 1208              		@ args = 0, pretend = 0, frame = 0
 1209              		@ frame_needed = 0, uses_anonymous_args = 0
 1210              	.LVL153:
 1211 0000 10B5     		push	{r4, lr}
 1212              		.cfi_def_cfa_offset 8
 1213              		.cfi_offset 4, -8
 1214              		.cfi_offset 14, -4
 1215 0002 0B00     		movs	r3, r1
 467:aes.c         **** }
 1216              		.loc 1 467 0
 1217 0004 0100     		movs	r1, r0
 1218              	.LVL154:
 1219 0006 1800     		movs	r0, r3
 1220              	.LVL155:
 1221 0008 FFF7FEFF 		bl	Cipher
 1222              	.LVL156:
 468:aes.c         **** 
 1223              		.loc 1 468 0
 1224              		@ sp needed
 1225 000c 10BD     		pop	{r4, pc}
 1226              		.cfi_endproc
 1227              	.LFE14:
 1228              		.size	AES_ECB_encrypt, .-AES_ECB_encrypt
 1229 000e C046     		.section	.text.AES_ECB_decrypt,"ax",%progbits
 1230              		.align	2
 1231              		.global	AES_ECB_decrypt
 1232              		.code	16
 1233              		.thumb_func
 1234              		.type	AES_ECB_decrypt, %function
 1235              	AES_ECB_decrypt:
ARM GAS  C:\Users\NIGHDR~1\AppData\Local\Temp\ccgwSx2z.s 			page 32


 1236              	.LFB15:
 471:aes.c         ****   // The next function call decrypts the PlainText with the Key using AES algorithm.
 1237              		.loc 1 471 0
 1238              		.cfi_startproc
 1239              		@ args = 0, pretend = 0, frame = 0
 1240              		@ frame_needed = 0, uses_anonymous_args = 0
 1241              	.LVL157:
 1242 0000 10B5     		push	{r4, lr}
 1243              		.cfi_def_cfa_offset 8
 1244              		.cfi_offset 4, -8
 1245              		.cfi_offset 14, -4
 1246 0002 0B00     		movs	r3, r1
 473:aes.c         **** }
 1247              		.loc 1 473 0
 1248 0004 0100     		movs	r1, r0
 1249              	.LVL158:
 1250 0006 1800     		movs	r0, r3
 1251              	.LVL159:
 1252 0008 FFF7FEFF 		bl	InvCipher
 1253              	.LVL160:
 474:aes.c         **** 
 1254              		.loc 1 474 0
 1255              		@ sp needed
 1256 000c 10BD     		pop	{r4, pc}
 1257              		.cfi_endproc
 1258              	.LFE15:
 1259              		.size	AES_ECB_decrypt, .-AES_ECB_decrypt
 1260 000e C046     		.section	.text.AES_CBC_encrypt_buffer,"ax",%progbits
 1261              		.align	2
 1262              		.global	AES_CBC_encrypt_buffer
 1263              		.code	16
 1264              		.thumb_func
 1265              		.type	AES_CBC_encrypt_buffer, %function
 1266              	AES_CBC_encrypt_buffer:
 1267              	.LFB17:
 494:aes.c         **** 
 495:aes.c         **** void AES_CBC_encrypt_buffer(struct AES_ctx *ctx,uint8_t* buf, uint32_t length)
 496:aes.c         **** {
 1268              		.loc 1 496 0
 1269              		.cfi_startproc
 1270              		@ args = 0, pretend = 0, frame = 8
 1271              		@ frame_needed = 0, uses_anonymous_args = 0
 1272              	.LVL161:
 1273 0000 F0B5     		push	{r4, r5, r6, r7, lr}
 1274              		.cfi_def_cfa_offset 20
 1275              		.cfi_offset 4, -20
 1276              		.cfi_offset 5, -16
 1277              		.cfi_offset 6, -12
 1278              		.cfi_offset 7, -8
 1279              		.cfi_offset 14, -4
 1280 0002 83B0     		sub	sp, sp, #12
 1281              		.cfi_def_cfa_offset 32
 1282 0004 0600     		movs	r6, r0
 1283 0006 0C00     		movs	r4, r1
 1284 0008 1700     		movs	r7, r2
 497:aes.c         ****   uintptr_t i;
 498:aes.c         ****   uint8_t *Iv = ctx->Iv;
ARM GAS  C:\Users\NIGHDR~1\AppData\Local\Temp\ccgwSx2z.s 			page 33


 1285              		.loc 1 498 0
 1286 000a B023     		movs	r3, #176
 1287 000c 9C46     		mov	ip, r3
 1288 000e 8444     		add	ip, ip, r0
 1289 0010 6346     		mov	r3, ip
 1290 0012 0193     		str	r3, [sp, #4]
 1291              	.LVL162:
 1292 0014 6146     		mov	r1, ip
 1293              	.LVL163:
 499:aes.c         ****   for (i = 0; i < length; i += AES_BLOCKLEN)
 1294              		.loc 1 499 0
 1295 0016 0025     		movs	r5, #0
 1296 0018 09E0     		b	.L52
 1297              	.LVL164:
 1298              	.L53:
 500:aes.c         ****   {
 501:aes.c         ****     XorWithIv(buf, Iv);
 1299              		.loc 1 501 0 discriminator 3
 1300 001a 2000     		movs	r0, r4
 1301 001c FFF7FEFF 		bl	XorWithIv
 1302              	.LVL165:
 502:aes.c         ****     Cipher((state_t*)buf, ctx->RoundKey);
 1303              		.loc 1 502 0 discriminator 3
 1304 0020 3100     		movs	r1, r6
 1305 0022 2000     		movs	r0, r4
 1306 0024 FFF7FEFF 		bl	Cipher
 1307              	.LVL166:
 499:aes.c         ****   for (i = 0; i < length; i += AES_BLOCKLEN)
 1308              		.loc 1 499 0 discriminator 3
 1309 0028 1035     		adds	r5, r5, #16
 1310              	.LVL167:
 503:aes.c         ****     Iv = buf;
 1311              		.loc 1 503 0 discriminator 3
 1312 002a 2100     		movs	r1, r4
 504:aes.c         ****     buf += AES_BLOCKLEN;
 1313              		.loc 1 504 0 discriminator 3
 1314 002c 1034     		adds	r4, r4, #16
 1315              	.LVL168:
 1316              	.L52:
 499:aes.c         ****   {
 1317              		.loc 1 499 0 discriminator 1
 1318 002e BD42     		cmp	r5, r7
 1319 0030 F3D3     		bcc	.L53
 505:aes.c         ****     //printf("Step %d - %d", i/16, i);
 506:aes.c         ****   }
 507:aes.c         ****   /* store Iv in ctx for next call */
 508:aes.c         ****   memcpy(ctx->Iv, Iv, AES_BLOCKLEN);
 1320              		.loc 1 508 0
 1321 0032 1022     		movs	r2, #16
 1322 0034 0198     		ldr	r0, [sp, #4]
 1323 0036 FFF7FEFF 		bl	memcpy
 1324              	.LVL169:
 509:aes.c         **** }
 1325              		.loc 1 509 0
 1326 003a 03B0     		add	sp, sp, #12
 1327              		@ sp needed
 1328              	.LVL170:
ARM GAS  C:\Users\NIGHDR~1\AppData\Local\Temp\ccgwSx2z.s 			page 34


 1329              	.LVL171:
 1330              	.LVL172:
 1331              	.LVL173:
 1332 003c F0BD     		pop	{r4, r5, r6, r7, pc}
 1333              		.cfi_endproc
 1334              	.LFE17:
 1335              		.size	AES_CBC_encrypt_buffer, .-AES_CBC_encrypt_buffer
 1336 003e C046     		.section	.text.AES_CBC_decrypt_buffer,"ax",%progbits
 1337              		.align	2
 1338              		.global	AES_CBC_decrypt_buffer
 1339              		.code	16
 1340              		.thumb_func
 1341              		.type	AES_CBC_decrypt_buffer, %function
 1342              	AES_CBC_decrypt_buffer:
 1343              	.LFB18:
 510:aes.c         **** 
 511:aes.c         **** void AES_CBC_decrypt_buffer(struct AES_ctx* ctx, uint8_t* buf,  uint32_t length)
 512:aes.c         **** {
 1344              		.loc 1 512 0
 1345              		.cfi_startproc
 1346              		@ args = 0, pretend = 0, frame = 16
 1347              		@ frame_needed = 0, uses_anonymous_args = 0
 1348              	.LVL174:
 1349 0000 F0B5     		push	{r4, r5, r6, r7, lr}
 1350              		.cfi_def_cfa_offset 20
 1351              		.cfi_offset 4, -20
 1352              		.cfi_offset 5, -16
 1353              		.cfi_offset 6, -12
 1354              		.cfi_offset 7, -8
 1355              		.cfi_offset 14, -4
 1356 0002 4746     		mov	r7, r8
 1357 0004 80B4     		push	{r7}
 1358              		.cfi_def_cfa_offset 24
 1359              		.cfi_offset 8, -24
 1360 0006 84B0     		sub	sp, sp, #16
 1361              		.cfi_def_cfa_offset 40
 1362 0008 0700     		movs	r7, r0
 1363 000a 0C00     		movs	r4, r1
 1364 000c 9046     		mov	r8, r2
 1365              	.LVL175:
 513:aes.c         ****   uintptr_t i;
 514:aes.c         ****   uint8_t storeNextIv[AES_BLOCKLEN];
 515:aes.c         ****   for (i = 0; i < length; i += AES_BLOCKLEN)
 1366              		.loc 1 515 0
 1367 000e 0025     		movs	r5, #0
 1368 0010 15E0     		b	.L55
 1369              	.LVL176:
 1370              	.L56:
 516:aes.c         ****   {
 517:aes.c         ****     memcpy(storeNextIv, buf, AES_BLOCKLEN);
 1371              		.loc 1 517 0 discriminator 3
 1372 0012 1022     		movs	r2, #16
 1373 0014 2100     		movs	r1, r4
 1374 0016 6846     		mov	r0, sp
 1375 0018 FFF7FEFF 		bl	memcpy
 1376              	.LVL177:
 518:aes.c         ****     InvCipher((state_t*)buf, ctx->RoundKey);
ARM GAS  C:\Users\NIGHDR~1\AppData\Local\Temp\ccgwSx2z.s 			page 35


 1377              		.loc 1 518 0 discriminator 3
 1378 001c 3900     		movs	r1, r7
 1379 001e 2000     		movs	r0, r4
 1380 0020 FFF7FEFF 		bl	InvCipher
 1381              	.LVL178:
 519:aes.c         ****     XorWithIv(buf, ctx->Iv);
 1382              		.loc 1 519 0 discriminator 3
 1383 0024 3E00     		movs	r6, r7
 1384 0026 B036     		adds	r6, r6, #176
 1385 0028 3100     		movs	r1, r6
 1386 002a 2000     		movs	r0, r4
 1387 002c FFF7FEFF 		bl	XorWithIv
 1388              	.LVL179:
 520:aes.c         ****     memcpy(ctx->Iv, storeNextIv, AES_BLOCKLEN);
 1389              		.loc 1 520 0 discriminator 3
 1390 0030 1022     		movs	r2, #16
 1391 0032 6946     		mov	r1, sp
 1392 0034 3000     		movs	r0, r6
 1393 0036 FFF7FEFF 		bl	memcpy
 1394              	.LVL180:
 521:aes.c         ****     buf += AES_BLOCKLEN;
 1395              		.loc 1 521 0 discriminator 3
 1396 003a 1034     		adds	r4, r4, #16
 1397              	.LVL181:
 515:aes.c         ****   {
 1398              		.loc 1 515 0 discriminator 3
 1399 003c 1035     		adds	r5, r5, #16
 1400              	.LVL182:
 1401              	.L55:
 515:aes.c         ****   {
 1402              		.loc 1 515 0 is_stmt 0 discriminator 1
 1403 003e 4545     		cmp	r5, r8
 1404 0040 E7D3     		bcc	.L56
 522:aes.c         ****   }
 523:aes.c         **** 
 524:aes.c         **** }
 1405              		.loc 1 524 0 is_stmt 1
 1406 0042 04B0     		add	sp, sp, #16
 1407              		@ sp needed
 1408              	.LVL183:
 1409              	.LVL184:
 1410              	.LVL185:
 1411              	.LVL186:
 1412 0044 04BC     		pop	{r2}
 1413 0046 9046     		mov	r8, r2
 1414 0048 F0BD     		pop	{r4, r5, r6, r7, pc}
 1415              		.cfi_endproc
 1416              	.LFE18:
 1417              		.size	AES_CBC_decrypt_buffer, .-AES_CBC_decrypt_buffer
 1418 004a C046     		.section	.text.AES_CTR_xcrypt_buffer,"ax",%progbits
 1419              		.align	2
 1420              		.global	AES_CTR_xcrypt_buffer
 1421              		.code	16
 1422              		.thumb_func
 1423              		.type	AES_CTR_xcrypt_buffer, %function
 1424              	AES_CTR_xcrypt_buffer:
 1425              	.LFB19:
ARM GAS  C:\Users\NIGHDR~1\AppData\Local\Temp\ccgwSx2z.s 			page 36


 525:aes.c         **** 
 526:aes.c         **** #endif // #if defined(CBC) && (CBC == 1)
 527:aes.c         **** 
 528:aes.c         **** 
 529:aes.c         **** 
 530:aes.c         **** #if defined(CTR) && (CTR == 1)
 531:aes.c         **** 
 532:aes.c         **** /* Symmetrical operation: same function for encrypting as for decrypting. Note any IV/nonce should 
 533:aes.c         **** void AES_CTR_xcrypt_buffer(struct AES_ctx* ctx, uint8_t* buf, uint32_t length)
 534:aes.c         **** {
 1426              		.loc 1 534 0
 1427              		.cfi_startproc
 1428              		@ args = 0, pretend = 0, frame = 16
 1429              		@ frame_needed = 0, uses_anonymous_args = 0
 1430              	.LVL187:
 1431 0000 F0B5     		push	{r4, r5, r6, r7, lr}
 1432              		.cfi_def_cfa_offset 20
 1433              		.cfi_offset 4, -20
 1434              		.cfi_offset 5, -16
 1435              		.cfi_offset 6, -12
 1436              		.cfi_offset 7, -8
 1437              		.cfi_offset 14, -4
 1438 0002 85B0     		sub	sp, sp, #20
 1439              		.cfi_def_cfa_offset 40
 1440 0004 0700     		movs	r7, r0
 1441 0006 0E00     		movs	r6, r1
 1442 0008 1500     		movs	r5, r2
 1443              	.LVL188:
 535:aes.c         ****   uint8_t buffer[AES_BLOCKLEN];
 536:aes.c         ****   
 537:aes.c         ****   unsigned i;
 538:aes.c         ****   int bi;
 539:aes.c         ****   for (i = 0, bi = AES_BLOCKLEN; i < length; ++i, ++bi)
 1444              		.loc 1 539 0
 1445 000a 1023     		movs	r3, #16
 1446 000c 0024     		movs	r4, #0
 1447 000e 29E0     		b	.L58
 1448              	.LVL189:
 1449              	.L63:
 540:aes.c         ****   {
 541:aes.c         ****     if (bi == AES_BLOCKLEN) /* we need to regen xor compliment in buffer */
 1450              		.loc 1 541 0
 1451 0010 102B     		cmp	r3, #16
 1452 0012 1FD1     		bne	.L59
 542:aes.c         ****     {
 543:aes.c         ****       
 544:aes.c         ****       memcpy(buffer, ctx->Iv, AES_BLOCKLEN);
 1453              		.loc 1 544 0
 1454 0014 3900     		movs	r1, r7
 1455 0016 B031     		adds	r1, r1, #176
 1456 0018 1022     		movs	r2, #16
 1457 001a 6846     		mov	r0, sp
 1458 001c FFF7FEFF 		bl	memcpy
 1459              	.LVL190:
 545:aes.c         ****       Cipher((state_t*)buffer,ctx->RoundKey);
 1460              		.loc 1 545 0
 1461 0020 3900     		movs	r1, r7
ARM GAS  C:\Users\NIGHDR~1\AppData\Local\Temp\ccgwSx2z.s 			page 37


 1462 0022 6846     		mov	r0, sp
 1463 0024 FFF7FEFF 		bl	Cipher
 1464              	.LVL191:
 546:aes.c         **** 
 547:aes.c         ****       /* Increment Iv and handle overflow */
 548:aes.c         ****       for (bi = (AES_BLOCKLEN - 1); bi >= 0; --bi)
 1465              		.loc 1 548 0
 1466 0028 0F23     		movs	r3, #15
 1467 002a 10E0     		b	.L60
 1468              	.LVL192:
 1469              	.L62:
 549:aes.c         ****       {
 550:aes.c         **** 	/* inc will owerflow */
 551:aes.c         ****         if (ctx->Iv[bi] == 255)
 1470              		.loc 1 551 0
 1471 002c FA18     		adds	r2, r7, r3
 1472 002e B032     		adds	r2, r2, #176
 1473 0030 1278     		ldrb	r2, [r2]
 1474 0032 FF2A     		cmp	r2, #255
 1475 0034 05D1     		bne	.L61
 552:aes.c         **** 	{
 553:aes.c         ****           ctx->Iv[bi] = 0;
 1476              		.loc 1 553 0
 1477 0036 FA18     		adds	r2, r7, r3
 1478 0038 B032     		adds	r2, r2, #176
 1479 003a 0021     		movs	r1, #0
 1480 003c 1170     		strb	r1, [r2]
 548:aes.c         ****       {
 1481              		.loc 1 548 0
 1482 003e 013B     		subs	r3, r3, #1
 1483              	.LVL193:
 1484 0040 05E0     		b	.L60
 1485              	.L61:
 554:aes.c         ****           continue;
 555:aes.c         ****         } 
 556:aes.c         ****         ctx->Iv[bi] += 1;
 1486              		.loc 1 556 0
 1487 0042 FB18     		adds	r3, r7, r3
 1488              	.LVL194:
 1489 0044 B033     		adds	r3, r3, #176
 1490 0046 0132     		adds	r2, r2, #1
 1491 0048 1A70     		strb	r2, [r3]
 557:aes.c         ****         break;   
 558:aes.c         ****       }
 559:aes.c         ****       bi = 0;
 1492              		.loc 1 559 0
 1493 004a 0023     		movs	r3, #0
 557:aes.c         ****         break;   
 1494              		.loc 1 557 0
 1495 004c 02E0     		b	.L59
 1496              	.L60:
 1497              	.LVL195:
 548:aes.c         ****       {
 1498              		.loc 1 548 0 discriminator 1
 1499 004e 002B     		cmp	r3, #0
 1500 0050 ECDA     		bge	.L62
 1501              		.loc 1 559 0
ARM GAS  C:\Users\NIGHDR~1\AppData\Local\Temp\ccgwSx2z.s 			page 38


 1502 0052 0023     		movs	r3, #0
 1503              	.LVL196:
 1504              	.L59:
 560:aes.c         ****     }
 561:aes.c         **** 
 562:aes.c         ****     buf[i] = (buf[i] ^ buffer[bi]);
 1505              		.loc 1 562 0 discriminator 2
 1506 0054 3119     		adds	r1, r6, r4
 1507 0056 0878     		ldrb	r0, [r1]
 1508 0058 6A46     		mov	r2, sp
 1509 005a D25C     		ldrb	r2, [r2, r3]
 1510 005c 4240     		eors	r2, r0
 1511 005e 0A70     		strb	r2, [r1]
 539:aes.c         ****   {
 1512              		.loc 1 539 0 discriminator 2
 1513 0060 0134     		adds	r4, r4, #1
 1514              	.LVL197:
 1515 0062 0133     		adds	r3, r3, #1
 1516              	.LVL198:
 1517              	.L58:
 539:aes.c         ****   {
 1518              		.loc 1 539 0 is_stmt 0 discriminator 1
 1519 0064 AC42     		cmp	r4, r5
 1520 0066 D3D3     		bcc	.L63
 563:aes.c         ****   }
 564:aes.c         **** }
 1521              		.loc 1 564 0 is_stmt 1
 1522 0068 05B0     		add	sp, sp, #20
 1523              		@ sp needed
 1524              	.LVL199:
 1525              	.LVL200:
 1526              	.LVL201:
 1527              	.LVL202:
 1528 006a F0BD     		pop	{r4, r5, r6, r7, pc}
 1529              		.cfi_endproc
 1530              	.LFE19:
 1531              		.size	AES_CTR_xcrypt_buffer, .-AES_CTR_xcrypt_buffer
 1532              		.section	.rodata
 1533              		.align	2
 1534              		.set	.LANCHOR0,. + 0
 1535              		.set	.LANCHOR1,. + 256
 1536              		.type	sbox, %object
 1537              		.size	sbox, 256
 1538              	sbox:
 1539 0000 63       		.byte	99
 1540 0001 7C       		.byte	124
 1541 0002 77       		.byte	119
 1542 0003 7B       		.byte	123
 1543 0004 F2       		.byte	-14
 1544 0005 6B       		.byte	107
 1545 0006 6F       		.byte	111
 1546 0007 C5       		.byte	-59
 1547 0008 30       		.byte	48
 1548 0009 01       		.byte	1
 1549 000a 67       		.byte	103
 1550 000b 2B       		.byte	43
 1551 000c FE       		.byte	-2
ARM GAS  C:\Users\NIGHDR~1\AppData\Local\Temp\ccgwSx2z.s 			page 39


 1552 000d D7       		.byte	-41
 1553 000e AB       		.byte	-85
 1554 000f 76       		.byte	118
 1555 0010 CA       		.byte	-54
 1556 0011 82       		.byte	-126
 1557 0012 C9       		.byte	-55
 1558 0013 7D       		.byte	125
 1559 0014 FA       		.byte	-6
 1560 0015 59       		.byte	89
 1561 0016 47       		.byte	71
 1562 0017 F0       		.byte	-16
 1563 0018 AD       		.byte	-83
 1564 0019 D4       		.byte	-44
 1565 001a A2       		.byte	-94
 1566 001b AF       		.byte	-81
 1567 001c 9C       		.byte	-100
 1568 001d A4       		.byte	-92
 1569 001e 72       		.byte	114
 1570 001f C0       		.byte	-64
 1571 0020 B7       		.byte	-73
 1572 0021 FD       		.byte	-3
 1573 0022 93       		.byte	-109
 1574 0023 26       		.byte	38
 1575 0024 36       		.byte	54
 1576 0025 3F       		.byte	63
 1577 0026 F7       		.byte	-9
 1578 0027 CC       		.byte	-52
 1579 0028 34       		.byte	52
 1580 0029 A5       		.byte	-91
 1581 002a E5       		.byte	-27
 1582 002b F1       		.byte	-15
 1583 002c 71       		.byte	113
 1584 002d D8       		.byte	-40
 1585 002e 31       		.byte	49
 1586 002f 15       		.byte	21
 1587 0030 04       		.byte	4
 1588 0031 C7       		.byte	-57
 1589 0032 23       		.byte	35
 1590 0033 C3       		.byte	-61
 1591 0034 18       		.byte	24
 1592 0035 96       		.byte	-106
 1593 0036 05       		.byte	5
 1594 0037 9A       		.byte	-102
 1595 0038 07       		.byte	7
 1596 0039 12       		.byte	18
 1597 003a 80       		.byte	-128
 1598 003b E2       		.byte	-30
 1599 003c EB       		.byte	-21
 1600 003d 27       		.byte	39
 1601 003e B2       		.byte	-78
 1602 003f 75       		.byte	117
 1603 0040 09       		.byte	9
 1604 0041 83       		.byte	-125
 1605 0042 2C       		.byte	44
 1606 0043 1A       		.byte	26
 1607 0044 1B       		.byte	27
 1608 0045 6E       		.byte	110
ARM GAS  C:\Users\NIGHDR~1\AppData\Local\Temp\ccgwSx2z.s 			page 40


 1609 0046 5A       		.byte	90
 1610 0047 A0       		.byte	-96
 1611 0048 52       		.byte	82
 1612 0049 3B       		.byte	59
 1613 004a D6       		.byte	-42
 1614 004b B3       		.byte	-77
 1615 004c 29       		.byte	41
 1616 004d E3       		.byte	-29
 1617 004e 2F       		.byte	47
 1618 004f 84       		.byte	-124
 1619 0050 53       		.byte	83
 1620 0051 D1       		.byte	-47
 1621 0052 00       		.byte	0
 1622 0053 ED       		.byte	-19
 1623 0054 20       		.byte	32
 1624 0055 FC       		.byte	-4
 1625 0056 B1       		.byte	-79
 1626 0057 5B       		.byte	91
 1627 0058 6A       		.byte	106
 1628 0059 CB       		.byte	-53
 1629 005a BE       		.byte	-66
 1630 005b 39       		.byte	57
 1631 005c 4A       		.byte	74
 1632 005d 4C       		.byte	76
 1633 005e 58       		.byte	88
 1634 005f CF       		.byte	-49
 1635 0060 D0       		.byte	-48
 1636 0061 EF       		.byte	-17
 1637 0062 AA       		.byte	-86
 1638 0063 FB       		.byte	-5
 1639 0064 43       		.byte	67
 1640 0065 4D       		.byte	77
 1641 0066 33       		.byte	51
 1642 0067 85       		.byte	-123
 1643 0068 45       		.byte	69
 1644 0069 F9       		.byte	-7
 1645 006a 02       		.byte	2
 1646 006b 7F       		.byte	127
 1647 006c 50       		.byte	80
 1648 006d 3C       		.byte	60
 1649 006e 9F       		.byte	-97
 1650 006f A8       		.byte	-88
 1651 0070 51       		.byte	81
 1652 0071 A3       		.byte	-93
 1653 0072 40       		.byte	64
 1654 0073 8F       		.byte	-113
 1655 0074 92       		.byte	-110
 1656 0075 9D       		.byte	-99
 1657 0076 38       		.byte	56
 1658 0077 F5       		.byte	-11
 1659 0078 BC       		.byte	-68
 1660 0079 B6       		.byte	-74
 1661 007a DA       		.byte	-38
 1662 007b 21       		.byte	33
 1663 007c 10       		.byte	16
 1664 007d FF       		.byte	-1
 1665 007e F3       		.byte	-13
ARM GAS  C:\Users\NIGHDR~1\AppData\Local\Temp\ccgwSx2z.s 			page 41


 1666 007f D2       		.byte	-46
 1667 0080 CD       		.byte	-51
 1668 0081 0C       		.byte	12
 1669 0082 13       		.byte	19
 1670 0083 EC       		.byte	-20
 1671 0084 5F       		.byte	95
 1672 0085 97       		.byte	-105
 1673 0086 44       		.byte	68
 1674 0087 17       		.byte	23
 1675 0088 C4       		.byte	-60
 1676 0089 A7       		.byte	-89
 1677 008a 7E       		.byte	126
 1678 008b 3D       		.byte	61
 1679 008c 64       		.byte	100
 1680 008d 5D       		.byte	93
 1681 008e 19       		.byte	25
 1682 008f 73       		.byte	115
 1683 0090 60       		.byte	96
 1684 0091 81       		.byte	-127
 1685 0092 4F       		.byte	79
 1686 0093 DC       		.byte	-36
 1687 0094 22       		.byte	34
 1688 0095 2A       		.byte	42
 1689 0096 90       		.byte	-112
 1690 0097 88       		.byte	-120
 1691 0098 46       		.byte	70
 1692 0099 EE       		.byte	-18
 1693 009a B8       		.byte	-72
 1694 009b 14       		.byte	20
 1695 009c DE       		.byte	-34
 1696 009d 5E       		.byte	94
 1697 009e 0B       		.byte	11
 1698 009f DB       		.byte	-37
 1699 00a0 E0       		.byte	-32
 1700 00a1 32       		.byte	50
 1701 00a2 3A       		.byte	58
 1702 00a3 0A       		.byte	10
 1703 00a4 49       		.byte	73
 1704 00a5 06       		.byte	6
 1705 00a6 24       		.byte	36
 1706 00a7 5C       		.byte	92
 1707 00a8 C2       		.byte	-62
 1708 00a9 D3       		.byte	-45
 1709 00aa AC       		.byte	-84
 1710 00ab 62       		.byte	98
 1711 00ac 91       		.byte	-111
 1712 00ad 95       		.byte	-107
 1713 00ae E4       		.byte	-28
 1714 00af 79       		.byte	121
 1715 00b0 E7       		.byte	-25
 1716 00b1 C8       		.byte	-56
 1717 00b2 37       		.byte	55
 1718 00b3 6D       		.byte	109
 1719 00b4 8D       		.byte	-115
 1720 00b5 D5       		.byte	-43
 1721 00b6 4E       		.byte	78
 1722 00b7 A9       		.byte	-87
ARM GAS  C:\Users\NIGHDR~1\AppData\Local\Temp\ccgwSx2z.s 			page 42


 1723 00b8 6C       		.byte	108
 1724 00b9 56       		.byte	86
 1725 00ba F4       		.byte	-12
 1726 00bb EA       		.byte	-22
 1727 00bc 65       		.byte	101
 1728 00bd 7A       		.byte	122
 1729 00be AE       		.byte	-82
 1730 00bf 08       		.byte	8
 1731 00c0 BA       		.byte	-70
 1732 00c1 78       		.byte	120
 1733 00c2 25       		.byte	37
 1734 00c3 2E       		.byte	46
 1735 00c4 1C       		.byte	28
 1736 00c5 A6       		.byte	-90
 1737 00c6 B4       		.byte	-76
 1738 00c7 C6       		.byte	-58
 1739 00c8 E8       		.byte	-24
 1740 00c9 DD       		.byte	-35
 1741 00ca 74       		.byte	116
 1742 00cb 1F       		.byte	31
 1743 00cc 4B       		.byte	75
 1744 00cd BD       		.byte	-67
 1745 00ce 8B       		.byte	-117
 1746 00cf 8A       		.byte	-118
 1747 00d0 70       		.byte	112
 1748 00d1 3E       		.byte	62
 1749 00d2 B5       		.byte	-75
 1750 00d3 66       		.byte	102
 1751 00d4 48       		.byte	72
 1752 00d5 03       		.byte	3
 1753 00d6 F6       		.byte	-10
 1754 00d7 0E       		.byte	14
 1755 00d8 61       		.byte	97
 1756 00d9 35       		.byte	53
 1757 00da 57       		.byte	87
 1758 00db B9       		.byte	-71
 1759 00dc 86       		.byte	-122
 1760 00dd C1       		.byte	-63
 1761 00de 1D       		.byte	29
 1762 00df 9E       		.byte	-98
 1763 00e0 E1       		.byte	-31
 1764 00e1 F8       		.byte	-8
 1765 00e2 98       		.byte	-104
 1766 00e3 11       		.byte	17
 1767 00e4 69       		.byte	105
 1768 00e5 D9       		.byte	-39
 1769 00e6 8E       		.byte	-114
 1770 00e7 94       		.byte	-108
 1771 00e8 9B       		.byte	-101
 1772 00e9 1E       		.byte	30
 1773 00ea 87       		.byte	-121
 1774 00eb E9       		.byte	-23
 1775 00ec CE       		.byte	-50
 1776 00ed 55       		.byte	85
 1777 00ee 28       		.byte	40
 1778 00ef DF       		.byte	-33
 1779 00f0 8C       		.byte	-116
ARM GAS  C:\Users\NIGHDR~1\AppData\Local\Temp\ccgwSx2z.s 			page 43


 1780 00f1 A1       		.byte	-95
 1781 00f2 89       		.byte	-119
 1782 00f3 0D       		.byte	13
 1783 00f4 BF       		.byte	-65
 1784 00f5 E6       		.byte	-26
 1785 00f6 42       		.byte	66
 1786 00f7 68       		.byte	104
 1787 00f8 41       		.byte	65
 1788 00f9 99       		.byte	-103
 1789 00fa 2D       		.byte	45
 1790 00fb 0F       		.byte	15
 1791 00fc B0       		.byte	-80
 1792 00fd 54       		.byte	84
 1793 00fe BB       		.byte	-69
 1794 00ff 16       		.byte	22
 1795              		.type	Rcon, %object
 1796              		.size	Rcon, 11
 1797              	Rcon:
 1798 0100 8D       		.byte	-115
 1799 0101 01       		.byte	1
 1800 0102 02       		.byte	2
 1801 0103 04       		.byte	4
 1802 0104 08       		.byte	8
 1803 0105 10       		.byte	16
 1804 0106 20       		.byte	32
 1805 0107 40       		.byte	64
 1806 0108 80       		.byte	-128
 1807 0109 1B       		.byte	27
 1808 010a 36       		.byte	54
 1809 010b 00       		.space	1
 1810              		.type	rsbox, %object
 1811              		.size	rsbox, 256
 1812              	rsbox:
 1813 010c 52       		.byte	82
 1814 010d 09       		.byte	9
 1815 010e 6A       		.byte	106
 1816 010f D5       		.byte	-43
 1817 0110 30       		.byte	48
 1818 0111 36       		.byte	54
 1819 0112 A5       		.byte	-91
 1820 0113 38       		.byte	56
 1821 0114 BF       		.byte	-65
 1822 0115 40       		.byte	64
 1823 0116 A3       		.byte	-93
 1824 0117 9E       		.byte	-98
 1825 0118 81       		.byte	-127
 1826 0119 F3       		.byte	-13
 1827 011a D7       		.byte	-41
 1828 011b FB       		.byte	-5
 1829 011c 7C       		.byte	124
 1830 011d E3       		.byte	-29
 1831 011e 39       		.byte	57
 1832 011f 82       		.byte	-126
 1833 0120 9B       		.byte	-101
 1834 0121 2F       		.byte	47
 1835 0122 FF       		.byte	-1
 1836 0123 87       		.byte	-121
ARM GAS  C:\Users\NIGHDR~1\AppData\Local\Temp\ccgwSx2z.s 			page 44


 1837 0124 34       		.byte	52
 1838 0125 8E       		.byte	-114
 1839 0126 43       		.byte	67
 1840 0127 44       		.byte	68
 1841 0128 C4       		.byte	-60
 1842 0129 DE       		.byte	-34
 1843 012a E9       		.byte	-23
 1844 012b CB       		.byte	-53
 1845 012c 54       		.byte	84
 1846 012d 7B       		.byte	123
 1847 012e 94       		.byte	-108
 1848 012f 32       		.byte	50
 1849 0130 A6       		.byte	-90
 1850 0131 C2       		.byte	-62
 1851 0132 23       		.byte	35
 1852 0133 3D       		.byte	61
 1853 0134 EE       		.byte	-18
 1854 0135 4C       		.byte	76
 1855 0136 95       		.byte	-107
 1856 0137 0B       		.byte	11
 1857 0138 42       		.byte	66
 1858 0139 FA       		.byte	-6
 1859 013a C3       		.byte	-61
 1860 013b 4E       		.byte	78
 1861 013c 08       		.byte	8
 1862 013d 2E       		.byte	46
 1863 013e A1       		.byte	-95
 1864 013f 66       		.byte	102
 1865 0140 28       		.byte	40
 1866 0141 D9       		.byte	-39
 1867 0142 24       		.byte	36
 1868 0143 B2       		.byte	-78
 1869 0144 76       		.byte	118
 1870 0145 5B       		.byte	91
 1871 0146 A2       		.byte	-94
 1872 0147 49       		.byte	73
 1873 0148 6D       		.byte	109
 1874 0149 8B       		.byte	-117
 1875 014a D1       		.byte	-47
 1876 014b 25       		.byte	37
 1877 014c 72       		.byte	114
 1878 014d F8       		.byte	-8
 1879 014e F6       		.byte	-10
 1880 014f 64       		.byte	100
 1881 0150 86       		.byte	-122
 1882 0151 68       		.byte	104
 1883 0152 98       		.byte	-104
 1884 0153 16       		.byte	22
 1885 0154 D4       		.byte	-44
 1886 0155 A4       		.byte	-92
 1887 0156 5C       		.byte	92
 1888 0157 CC       		.byte	-52
 1889 0158 5D       		.byte	93
 1890 0159 65       		.byte	101
 1891 015a B6       		.byte	-74
 1892 015b 92       		.byte	-110
 1893 015c 6C       		.byte	108
ARM GAS  C:\Users\NIGHDR~1\AppData\Local\Temp\ccgwSx2z.s 			page 45


 1894 015d 70       		.byte	112
 1895 015e 48       		.byte	72
 1896 015f 50       		.byte	80
 1897 0160 FD       		.byte	-3
 1898 0161 ED       		.byte	-19
 1899 0162 B9       		.byte	-71
 1900 0163 DA       		.byte	-38
 1901 0164 5E       		.byte	94
 1902 0165 15       		.byte	21
 1903 0166 46       		.byte	70
 1904 0167 57       		.byte	87
 1905 0168 A7       		.byte	-89
 1906 0169 8D       		.byte	-115
 1907 016a 9D       		.byte	-99
 1908 016b 84       		.byte	-124
 1909 016c 90       		.byte	-112
 1910 016d D8       		.byte	-40
 1911 016e AB       		.byte	-85
 1912 016f 00       		.byte	0
 1913 0170 8C       		.byte	-116
 1914 0171 BC       		.byte	-68
 1915 0172 D3       		.byte	-45
 1916 0173 0A       		.byte	10
 1917 0174 F7       		.byte	-9
 1918 0175 E4       		.byte	-28
 1919 0176 58       		.byte	88
 1920 0177 05       		.byte	5
 1921 0178 B8       		.byte	-72
 1922 0179 B3       		.byte	-77
 1923 017a 45       		.byte	69
 1924 017b 06       		.byte	6
 1925 017c D0       		.byte	-48
 1926 017d 2C       		.byte	44
 1927 017e 1E       		.byte	30
 1928 017f 8F       		.byte	-113
 1929 0180 CA       		.byte	-54
 1930 0181 3F       		.byte	63
 1931 0182 0F       		.byte	15
 1932 0183 02       		.byte	2
 1933 0184 C1       		.byte	-63
 1934 0185 AF       		.byte	-81
 1935 0186 BD       		.byte	-67
 1936 0187 03       		.byte	3
 1937 0188 01       		.byte	1
 1938 0189 13       		.byte	19
 1939 018a 8A       		.byte	-118
 1940 018b 6B       		.byte	107
 1941 018c 3A       		.byte	58
 1942 018d 91       		.byte	-111
 1943 018e 11       		.byte	17
 1944 018f 41       		.byte	65
 1945 0190 4F       		.byte	79
 1946 0191 67       		.byte	103
 1947 0192 DC       		.byte	-36
 1948 0193 EA       		.byte	-22
 1949 0194 97       		.byte	-105
 1950 0195 F2       		.byte	-14
ARM GAS  C:\Users\NIGHDR~1\AppData\Local\Temp\ccgwSx2z.s 			page 46


 1951 0196 CF       		.byte	-49
 1952 0197 CE       		.byte	-50
 1953 0198 F0       		.byte	-16
 1954 0199 B4       		.byte	-76
 1955 019a E6       		.byte	-26
 1956 019b 73       		.byte	115
 1957 019c 96       		.byte	-106
 1958 019d AC       		.byte	-84
 1959 019e 74       		.byte	116
 1960 019f 22       		.byte	34
 1961 01a0 E7       		.byte	-25
 1962 01a1 AD       		.byte	-83
 1963 01a2 35       		.byte	53
 1964 01a3 85       		.byte	-123
 1965 01a4 E2       		.byte	-30
 1966 01a5 F9       		.byte	-7
 1967 01a6 37       		.byte	55
 1968 01a7 E8       		.byte	-24
 1969 01a8 1C       		.byte	28
 1970 01a9 75       		.byte	117
 1971 01aa DF       		.byte	-33
 1972 01ab 6E       		.byte	110
 1973 01ac 47       		.byte	71
 1974 01ad F1       		.byte	-15
 1975 01ae 1A       		.byte	26
 1976 01af 71       		.byte	113
 1977 01b0 1D       		.byte	29
 1978 01b1 29       		.byte	41
 1979 01b2 C5       		.byte	-59
 1980 01b3 89       		.byte	-119
 1981 01b4 6F       		.byte	111
 1982 01b5 B7       		.byte	-73
 1983 01b6 62       		.byte	98
 1984 01b7 0E       		.byte	14
 1985 01b8 AA       		.byte	-86
 1986 01b9 18       		.byte	24
 1987 01ba BE       		.byte	-66
 1988 01bb 1B       		.byte	27
 1989 01bc FC       		.byte	-4
 1990 01bd 56       		.byte	86
 1991 01be 3E       		.byte	62
 1992 01bf 4B       		.byte	75
 1993 01c0 C6       		.byte	-58
 1994 01c1 D2       		.byte	-46
 1995 01c2 79       		.byte	121
 1996 01c3 20       		.byte	32
 1997 01c4 9A       		.byte	-102
 1998 01c5 DB       		.byte	-37
 1999 01c6 C0       		.byte	-64
 2000 01c7 FE       		.byte	-2
 2001 01c8 78       		.byte	120
 2002 01c9 CD       		.byte	-51
 2003 01ca 5A       		.byte	90
 2004 01cb F4       		.byte	-12
 2005 01cc 1F       		.byte	31
 2006 01cd DD       		.byte	-35
 2007 01ce A8       		.byte	-88
ARM GAS  C:\Users\NIGHDR~1\AppData\Local\Temp\ccgwSx2z.s 			page 47


 2008 01cf 33       		.byte	51
 2009 01d0 88       		.byte	-120
 2010 01d1 07       		.byte	7
 2011 01d2 C7       		.byte	-57
 2012 01d3 31       		.byte	49
 2013 01d4 B1       		.byte	-79
 2014 01d5 12       		.byte	18
 2015 01d6 10       		.byte	16
 2016 01d7 59       		.byte	89
 2017 01d8 27       		.byte	39
 2018 01d9 80       		.byte	-128
 2019 01da EC       		.byte	-20
 2020 01db 5F       		.byte	95
 2021 01dc 60       		.byte	96
 2022 01dd 51       		.byte	81
 2023 01de 7F       		.byte	127
 2024 01df A9       		.byte	-87
 2025 01e0 19       		.byte	25
 2026 01e1 B5       		.byte	-75
 2027 01e2 4A       		.byte	74
 2028 01e3 0D       		.byte	13
 2029 01e4 2D       		.byte	45
 2030 01e5 E5       		.byte	-27
 2031 01e6 7A       		.byte	122
 2032 01e7 9F       		.byte	-97
 2033 01e8 93       		.byte	-109
 2034 01e9 C9       		.byte	-55
 2035 01ea 9C       		.byte	-100
 2036 01eb EF       		.byte	-17
 2037 01ec A0       		.byte	-96
 2038 01ed E0       		.byte	-32
 2039 01ee 3B       		.byte	59
 2040 01ef 4D       		.byte	77
 2041 01f0 AE       		.byte	-82
 2042 01f1 2A       		.byte	42
 2043 01f2 F5       		.byte	-11
 2044 01f3 B0       		.byte	-80
 2045 01f4 C8       		.byte	-56
 2046 01f5 EB       		.byte	-21
 2047 01f6 BB       		.byte	-69
 2048 01f7 3C       		.byte	60
 2049 01f8 83       		.byte	-125
 2050 01f9 53       		.byte	83
 2051 01fa 99       		.byte	-103
 2052 01fb 61       		.byte	97
 2053 01fc 17       		.byte	23
 2054 01fd 2B       		.byte	43
 2055 01fe 04       		.byte	4
 2056 01ff 7E       		.byte	126
 2057 0200 BA       		.byte	-70
 2058 0201 77       		.byte	119
 2059 0202 D6       		.byte	-42
 2060 0203 26       		.byte	38
 2061 0204 E1       		.byte	-31
 2062 0205 69       		.byte	105
 2063 0206 14       		.byte	20
 2064 0207 63       		.byte	99
ARM GAS  C:\Users\NIGHDR~1\AppData\Local\Temp\ccgwSx2z.s 			page 48


 2065 0208 55       		.byte	85
 2066 0209 21       		.byte	33
 2067 020a 0C       		.byte	12
 2068 020b 7D       		.byte	125
 2069              		.text
 2070              	.Letext0:
 2071              		.file 2 "c:\\program files (x86)\\cypress\\psoc creator\\4.1\\psoc creator\\import\\gnu\\arm\\5.4.
 2072              		.file 3 "c:\\program files (x86)\\cypress\\psoc creator\\4.1\\psoc creator\\import\\gnu\\arm\\5.4.
 2073              		.file 4 "aes.h"