ARM GAS  C:\Users\NIGHDR~1\AppData\Local\Temp\ccfE2IUB.s 			page 1


   1              		.syntax unified
   2              		.cpu cortex-m0
   3              		.fpu softvfp
   4              		.eabi_attribute 20, 1
   5              		.eabi_attribute 21, 1
   6              		.eabi_attribute 23, 3
   7              		.eabi_attribute 24, 1
   8              		.eabi_attribute 25, 1
   9              		.eabi_attribute 26, 1
  10              		.eabi_attribute 30, 1
  11              		.eabi_attribute 34, 0
  12              		.eabi_attribute 18, 4
  13              		.thumb
  14              		.syntax unified
  15              		.file	"fe.c"
  16              		.text
  17              	.Ltext0:
  18              		.cfi_sections	.debug_frame
  19              		.section	.text.load_3,"ax",%progbits
  20              		.align	2
  21              		.code	16
  22              		.thumb_func
  23              		.type	load_3, %function
  24              	load_3:
  25              	.LFB0:
  26              		.file 1 "fe.c"
   1:fe.c          **** #include "fixedint.h"
   2:fe.c          **** #include "fe.h"
   3:fe.c          **** 
   4:fe.c          **** 
   5:fe.c          **** /*
   6:fe.c          ****     helper functions
   7:fe.c          **** */
   8:fe.c          **** static uint64_t load_3(const unsigned char *in) {
  27              		.loc 1 8 0
  28              		.cfi_startproc
  29              		@ args = 0, pretend = 0, frame = 0
  30              		@ frame_needed = 0, uses_anonymous_args = 0
  31              	.LVL0:
  32 0000 10B5     		push	{r4, lr}
  33              		.cfi_def_cfa_offset 8
  34              		.cfi_offset 4, -8
  35              		.cfi_offset 14, -4
   9:fe.c          ****     uint64_t result;
  10:fe.c          **** 
  11:fe.c          ****     result = (uint64_t) in[0];
  36              		.loc 1 11 0
  37 0002 0378     		ldrb	r3, [r0]
  38              	.LVL1:
  12:fe.c          ****     result |= ((uint64_t) in[1]) << 8;
  39              		.loc 1 12 0
  40 0004 4278     		ldrb	r2, [r0, #1]
  41 0006 140E     		lsrs	r4, r2, #24
  42 0008 1202     		lsls	r2, r2, #8
  43 000a 1A43     		orrs	r2, r3
  44              	.LVL2:
  13:fe.c          ****     result |= ((uint64_t) in[2]) << 16;
ARM GAS  C:\Users\NIGHDR~1\AppData\Local\Temp\ccfE2IUB.s 			page 2


  45              		.loc 1 13 0
  46 000c 8378     		ldrb	r3, [r0, #2]
  47 000e 190C     		lsrs	r1, r3, #16
  48 0010 1B04     		lsls	r3, r3, #16
  49 0012 1A43     		orrs	r2, r3
  50              	.LVL3:
  51 0014 1000     		movs	r0, r2
  52              	.LVL4:
  53 0016 2143     		orrs	r1, r4
  54              	.LVL5:
  14:fe.c          **** 
  15:fe.c          ****     return result;
  16:fe.c          **** }
  55              		.loc 1 16 0
  56              		@ sp needed
  57 0018 10BD     		pop	{r4, pc}
  58              		.cfi_endproc
  59              	.LFE0:
  60              		.size	load_3, .-load_3
  61 001a C046     		.section	.text.load_4,"ax",%progbits
  62              		.align	2
  63              		.code	16
  64              		.thumb_func
  65              		.type	load_4, %function
  66              	load_4:
  67              	.LFB1:
  17:fe.c          **** 
  18:fe.c          **** static uint64_t load_4(const unsigned char *in) {
  68              		.loc 1 18 0
  69              		.cfi_startproc
  70              		@ args = 0, pretend = 0, frame = 0
  71              		@ frame_needed = 0, uses_anonymous_args = 0
  72              		@ link register save eliminated.
  73              	.LVL6:
  19:fe.c          ****     uint64_t result;
  20:fe.c          **** 
  21:fe.c          ****     result = (uint64_t) in[0];
  74              		.loc 1 21 0
  75 0000 0378     		ldrb	r3, [r0]
  76              	.LVL7:
  22:fe.c          ****     result |= ((uint64_t) in[1]) << 8;
  77              		.loc 1 22 0
  78 0002 4278     		ldrb	r2, [r0, #1]
  79 0004 1202     		lsls	r2, r2, #8
  80 0006 1A43     		orrs	r2, r3
  81              	.LVL8:
  23:fe.c          ****     result |= ((uint64_t) in[2]) << 16;
  82              		.loc 1 23 0
  83 0008 8378     		ldrb	r3, [r0, #2]
  84 000a 1B04     		lsls	r3, r3, #16
  85 000c 1A43     		orrs	r2, r3
  24:fe.c          ****     result |= ((uint64_t) in[3]) << 24;
  86              		.loc 1 24 0
  87 000e C378     		ldrb	r3, [r0, #3]
  88 0010 1B06     		lsls	r3, r3, #24
  89 0012 1A43     		orrs	r2, r3
  90 0014 1000     		movs	r0, r2
ARM GAS  C:\Users\NIGHDR~1\AppData\Local\Temp\ccfE2IUB.s 			page 3


  91              	.LVL9:
  25:fe.c          ****     
  26:fe.c          ****     return result;
  27:fe.c          **** }
  92              		.loc 1 27 0
  93 0016 0021     		movs	r1, #0
  94              		@ sp needed
  95 0018 7047     		bx	lr
  96              		.cfi_endproc
  97              	.LFE1:
  98              		.size	load_4, .-load_4
  99 001a C046     		.section	.text.fe_0,"ax",%progbits
 100              		.align	2
 101              		.global	fe_0
 102              		.code	16
 103              		.thumb_func
 104              		.type	fe_0, %function
 105              	fe_0:
 106              	.LFB2:
  28:fe.c          **** 
  29:fe.c          **** 
  30:fe.c          **** 
  31:fe.c          **** /*
  32:fe.c          ****     h = 0
  33:fe.c          **** */
  34:fe.c          **** 
  35:fe.c          **** void fe_0(fe h) {
 107              		.loc 1 35 0
 108              		.cfi_startproc
 109              		@ args = 0, pretend = 0, frame = 0
 110              		@ frame_needed = 0, uses_anonymous_args = 0
 111              		@ link register save eliminated.
 112              	.LVL10:
  36:fe.c          ****     h[0] = 0;
 113              		.loc 1 36 0
 114 0000 0023     		movs	r3, #0
 115 0002 0360     		str	r3, [r0]
  37:fe.c          ****     h[1] = 0;
 116              		.loc 1 37 0
 117 0004 4360     		str	r3, [r0, #4]
  38:fe.c          ****     h[2] = 0;
 118              		.loc 1 38 0
 119 0006 8360     		str	r3, [r0, #8]
  39:fe.c          ****     h[3] = 0;
 120              		.loc 1 39 0
 121 0008 C360     		str	r3, [r0, #12]
  40:fe.c          ****     h[4] = 0;
 122              		.loc 1 40 0
 123 000a 0361     		str	r3, [r0, #16]
  41:fe.c          ****     h[5] = 0;
 124              		.loc 1 41 0
 125 000c 4361     		str	r3, [r0, #20]
  42:fe.c          ****     h[6] = 0;
 126              		.loc 1 42 0
 127 000e 8361     		str	r3, [r0, #24]
  43:fe.c          ****     h[7] = 0;
 128              		.loc 1 43 0
ARM GAS  C:\Users\NIGHDR~1\AppData\Local\Temp\ccfE2IUB.s 			page 4


 129 0010 C361     		str	r3, [r0, #28]
  44:fe.c          ****     h[8] = 0;
 130              		.loc 1 44 0
 131 0012 0362     		str	r3, [r0, #32]
  45:fe.c          ****     h[9] = 0;
 132              		.loc 1 45 0
 133 0014 4362     		str	r3, [r0, #36]
  46:fe.c          **** }
 134              		.loc 1 46 0
 135              		@ sp needed
 136 0016 7047     		bx	lr
 137              		.cfi_endproc
 138              	.LFE2:
 139              		.size	fe_0, .-fe_0
 140              		.section	.text.fe_1,"ax",%progbits
 141              		.align	2
 142              		.global	fe_1
 143              		.code	16
 144              		.thumb_func
 145              		.type	fe_1, %function
 146              	fe_1:
 147              	.LFB3:
  47:fe.c          **** 
  48:fe.c          **** 
  49:fe.c          **** 
  50:fe.c          **** /*
  51:fe.c          ****     h = 1
  52:fe.c          **** */
  53:fe.c          **** 
  54:fe.c          **** void fe_1(fe h) {
 148              		.loc 1 54 0
 149              		.cfi_startproc
 150              		@ args = 0, pretend = 0, frame = 0
 151              		@ frame_needed = 0, uses_anonymous_args = 0
 152              		@ link register save eliminated.
 153              	.LVL11:
  55:fe.c          ****     h[0] = 1;
 154              		.loc 1 55 0
 155 0000 0123     		movs	r3, #1
 156 0002 0360     		str	r3, [r0]
  56:fe.c          ****     h[1] = 0;
 157              		.loc 1 56 0
 158 0004 0023     		movs	r3, #0
 159 0006 4360     		str	r3, [r0, #4]
  57:fe.c          ****     h[2] = 0;
 160              		.loc 1 57 0
 161 0008 8360     		str	r3, [r0, #8]
  58:fe.c          ****     h[3] = 0;
 162              		.loc 1 58 0
 163 000a C360     		str	r3, [r0, #12]
  59:fe.c          ****     h[4] = 0;
 164              		.loc 1 59 0
 165 000c 0361     		str	r3, [r0, #16]
  60:fe.c          ****     h[5] = 0;
 166              		.loc 1 60 0
 167 000e 4361     		str	r3, [r0, #20]
  61:fe.c          ****     h[6] = 0;
ARM GAS  C:\Users\NIGHDR~1\AppData\Local\Temp\ccfE2IUB.s 			page 5


 168              		.loc 1 61 0
 169 0010 8361     		str	r3, [r0, #24]
  62:fe.c          ****     h[7] = 0;
 170              		.loc 1 62 0
 171 0012 C361     		str	r3, [r0, #28]
  63:fe.c          ****     h[8] = 0;
 172              		.loc 1 63 0
 173 0014 0362     		str	r3, [r0, #32]
  64:fe.c          ****     h[9] = 0;
 174              		.loc 1 64 0
 175 0016 4362     		str	r3, [r0, #36]
  65:fe.c          **** }
 176              		.loc 1 65 0
 177              		@ sp needed
 178 0018 7047     		bx	lr
 179              		.cfi_endproc
 180              	.LFE3:
 181              		.size	fe_1, .-fe_1
 182 001a C046     		.section	.text.fe_add,"ax",%progbits
 183              		.align	2
 184              		.global	fe_add
 185              		.code	16
 186              		.thumb_func
 187              		.type	fe_add, %function
 188              	fe_add:
 189              	.LFB4:
  66:fe.c          **** 
  67:fe.c          **** 
  68:fe.c          **** 
  69:fe.c          **** /*
  70:fe.c          ****     h = f + g
  71:fe.c          ****     Can overlap h with f or g.
  72:fe.c          **** 
  73:fe.c          ****     Preconditions:
  74:fe.c          ****        |f| bounded by 1.1*2^25,1.1*2^24,1.1*2^25,1.1*2^24,etc.
  75:fe.c          ****        |g| bounded by 1.1*2^25,1.1*2^24,1.1*2^25,1.1*2^24,etc.
  76:fe.c          **** 
  77:fe.c          ****     Postconditions:
  78:fe.c          ****        |h| bounded by 1.1*2^26,1.1*2^25,1.1*2^26,1.1*2^25,etc.
  79:fe.c          **** */
  80:fe.c          **** 
  81:fe.c          **** void fe_add(fe h, const fe f, const fe g) {
 190              		.loc 1 81 0
 191              		.cfi_startproc
 192              		@ args = 0, pretend = 0, frame = 40
 193              		@ frame_needed = 0, uses_anonymous_args = 0
 194              	.LVL12:
 195 0000 F0B5     		push	{r4, r5, r6, r7, lr}
 196              		.cfi_def_cfa_offset 20
 197              		.cfi_offset 4, -20
 198              		.cfi_offset 5, -16
 199              		.cfi_offset 6, -12
 200              		.cfi_offset 7, -8
 201              		.cfi_offset 14, -4
 202 0002 5F46     		mov	r7, fp
 203 0004 5646     		mov	r6, r10
 204 0006 4D46     		mov	r5, r9
ARM GAS  C:\Users\NIGHDR~1\AppData\Local\Temp\ccfE2IUB.s 			page 6


 205 0008 4446     		mov	r4, r8
 206 000a F0B4     		push	{r4, r5, r6, r7}
 207              		.cfi_def_cfa_offset 36
 208              		.cfi_offset 8, -36
 209              		.cfi_offset 9, -32
 210              		.cfi_offset 10, -28
 211              		.cfi_offset 11, -24
 212 000c 8BB0     		sub	sp, sp, #44
 213              		.cfi_def_cfa_offset 80
  82:fe.c          ****     int32_t f0 = f[0];
 214              		.loc 1 82 0
 215 000e 0B68     		ldr	r3, [r1]
 216 0010 9B46     		mov	fp, r3
 217              	.LVL13:
  83:fe.c          ****     int32_t f1 = f[1];
 218              		.loc 1 83 0
 219 0012 4B68     		ldr	r3, [r1, #4]
 220              	.LVL14:
 221 0014 9A46     		mov	r10, r3
 222              	.LVL15:
  84:fe.c          ****     int32_t f2 = f[2];
 223              		.loc 1 84 0
 224 0016 8B68     		ldr	r3, [r1, #8]
 225              	.LVL16:
 226 0018 0993     		str	r3, [sp, #36]
 227              	.LVL17:
  85:fe.c          ****     int32_t f3 = f[3];
 228              		.loc 1 85 0
 229 001a CC68     		ldr	r4, [r1, #12]
 230 001c 0194     		str	r4, [sp, #4]
 231              	.LVL18:
  86:fe.c          ****     int32_t f4 = f[4];
 232              		.loc 1 86 0
 233 001e 0D69     		ldr	r5, [r1, #16]
 234 0020 0295     		str	r5, [sp, #8]
 235              	.LVL19:
  87:fe.c          ****     int32_t f5 = f[5];
 236              		.loc 1 87 0
 237 0022 4E69     		ldr	r6, [r1, #20]
 238 0024 0396     		str	r6, [sp, #12]
 239              	.LVL20:
  88:fe.c          ****     int32_t f6 = f[6];
 240              		.loc 1 88 0
 241 0026 8F69     		ldr	r7, [r1, #24]
 242 0028 0497     		str	r7, [sp, #16]
 243              	.LVL21:
  89:fe.c          ****     int32_t f7 = f[7];
 244              		.loc 1 89 0
 245 002a CC69     		ldr	r4, [r1, #28]
 246              	.LVL22:
 247 002c 0594     		str	r4, [sp, #20]
 248              	.LVL23:
  90:fe.c          ****     int32_t f8 = f[8];
 249              		.loc 1 90 0
 250 002e 0D6A     		ldr	r5, [r1, #32]
 251              	.LVL24:
 252 0030 0695     		str	r5, [sp, #24]
ARM GAS  C:\Users\NIGHDR~1\AppData\Local\Temp\ccfE2IUB.s 			page 7


 253              	.LVL25:
  91:fe.c          ****     int32_t f9 = f[9];
 254              		.loc 1 91 0
 255 0032 496A     		ldr	r1, [r1, #36]
 256              	.LVL26:
 257 0034 0791     		str	r1, [sp, #28]
 258              	.LVL27:
  92:fe.c          ****     int32_t g0 = g[0];
 259              		.loc 1 92 0
 260 0036 1668     		ldr	r6, [r2]
 261              	.LVL28:
 262 0038 B146     		mov	r9, r6
 263              	.LVL29:
  93:fe.c          ****     int32_t g1 = g[1];
 264              		.loc 1 93 0
 265 003a 5668     		ldr	r6, [r2, #4]
 266              	.LVL30:
 267 003c B046     		mov	r8, r6
 268              	.LVL31:
  94:fe.c          ****     int32_t g2 = g[2];
 269              		.loc 1 94 0
 270 003e 9668     		ldr	r6, [r2, #8]
 271              	.LVL32:
 272 0040 B446     		mov	ip, r6
 273              	.LVL33:
  95:fe.c          ****     int32_t g3 = g[3];
 274              		.loc 1 95 0
 275 0042 D768     		ldr	r7, [r2, #12]
 276              	.LVL34:
  96:fe.c          ****     int32_t g4 = g[4];
 277              		.loc 1 96 0
 278 0044 1669     		ldr	r6, [r2, #16]
 279              	.LVL35:
  97:fe.c          ****     int32_t g5 = g[5];
 280              		.loc 1 97 0
 281 0046 5569     		ldr	r5, [r2, #20]
 282              	.LVL36:
  98:fe.c          ****     int32_t g6 = g[6];
 283              		.loc 1 98 0
 284 0048 9469     		ldr	r4, [r2, #24]
 285              	.LVL37:
  99:fe.c          ****     int32_t g7 = g[7];
 286              		.loc 1 99 0
 287 004a D169     		ldr	r1, [r2, #28]
 288              	.LVL38:
 100:fe.c          ****     int32_t g8 = g[8];
 289              		.loc 1 100 0
 290 004c 136A     		ldr	r3, [r2, #32]
 291              	.LVL39:
 292 004e 0893     		str	r3, [sp, #32]
 293              	.LVL40:
 101:fe.c          ****     int32_t g9 = g[9];
 294              		.loc 1 101 0
 295 0050 526A     		ldr	r2, [r2, #36]
 296              	.LVL41:
 102:fe.c          ****     int32_t h0 = f0 + g0;
 297              		.loc 1 102 0
ARM GAS  C:\Users\NIGHDR~1\AppData\Local\Temp\ccfE2IUB.s 			page 8


 298 0052 D944     		add	r9, r9, fp
 299              	.LVL42:
 103:fe.c          ****     int32_t h1 = f1 + g1;
 300              		.loc 1 103 0
 301 0054 D044     		add	r8, r8, r10
 302              	.LVL43:
 104:fe.c          ****     int32_t h2 = f2 + g2;
 303              		.loc 1 104 0
 304 0056 099B     		ldr	r3, [sp, #36]
 305              	.LVL44:
 306 0058 9A46     		mov	r10, r3
 307              	.LVL45:
 308 005a D444     		add	ip, ip, r10
 309              	.LVL46:
 105:fe.c          ****     int32_t h3 = f3 + g3;
 310              		.loc 1 105 0
 311 005c 019B     		ldr	r3, [sp, #4]
 312 005e 9A46     		mov	r10, r3
 313 0060 5744     		add	r7, r7, r10
 314              	.LVL47:
 106:fe.c          ****     int32_t h4 = f4 + g4;
 315              		.loc 1 106 0
 316 0062 029B     		ldr	r3, [sp, #8]
 317 0064 9A46     		mov	r10, r3
 318 0066 5644     		add	r6, r6, r10
 319              	.LVL48:
 107:fe.c          ****     int32_t h5 = f5 + g5;
 320              		.loc 1 107 0
 321 0068 039B     		ldr	r3, [sp, #12]
 322 006a 9A46     		mov	r10, r3
 323 006c 5544     		add	r5, r5, r10
 324              	.LVL49:
 108:fe.c          ****     int32_t h6 = f6 + g6;
 325              		.loc 1 108 0
 326 006e 049B     		ldr	r3, [sp, #16]
 327 0070 9A46     		mov	r10, r3
 328 0072 5444     		add	r4, r4, r10
 329              	.LVL50:
 109:fe.c          ****     int32_t h7 = f7 + g7;
 330              		.loc 1 109 0
 331 0074 059B     		ldr	r3, [sp, #20]
 332 0076 9A46     		mov	r10, r3
 333 0078 5144     		add	r1, r1, r10
 334              	.LVL51:
 335 007a 8B46     		mov	fp, r1
 336              	.LVL52:
 110:fe.c          ****     int32_t h8 = f8 + g8;
 337              		.loc 1 110 0
 338 007c 069B     		ldr	r3, [sp, #24]
 339 007e 9A46     		mov	r10, r3
 340 0080 089B     		ldr	r3, [sp, #32]
 341 0082 5344     		add	r3, r3, r10
 342              	.LVL53:
 111:fe.c          ****     int32_t h9 = f9 + g9;
 343              		.loc 1 111 0
 344 0084 0799     		ldr	r1, [sp, #28]
 345              	.LVL54:
ARM GAS  C:\Users\NIGHDR~1\AppData\Local\Temp\ccfE2IUB.s 			page 9


 346 0086 8A46     		mov	r10, r1
 347 0088 5244     		add	r2, r2, r10
 348              	.LVL55:
 112:fe.c          ****     
 113:fe.c          ****     h[0] = h0;
 349              		.loc 1 113 0
 350 008a 4946     		mov	r1, r9
 351 008c 0160     		str	r1, [r0]
 352              	.LVL56:
 114:fe.c          ****     h[1] = h1;
 353              		.loc 1 114 0
 354 008e 4146     		mov	r1, r8
 355 0090 4160     		str	r1, [r0, #4]
 115:fe.c          ****     h[2] = h2;
 356              		.loc 1 115 0
 357 0092 6146     		mov	r1, ip
 358 0094 8160     		str	r1, [r0, #8]
 116:fe.c          ****     h[3] = h3;
 359              		.loc 1 116 0
 360 0096 C760     		str	r7, [r0, #12]
 117:fe.c          ****     h[4] = h4;
 361              		.loc 1 117 0
 362 0098 0661     		str	r6, [r0, #16]
 118:fe.c          ****     h[5] = h5;
 363              		.loc 1 118 0
 364 009a 4561     		str	r5, [r0, #20]
 119:fe.c          ****     h[6] = h6;
 365              		.loc 1 119 0
 366 009c 8461     		str	r4, [r0, #24]
 120:fe.c          ****     h[7] = h7;
 367              		.loc 1 120 0
 368 009e 5946     		mov	r1, fp
 369 00a0 C161     		str	r1, [r0, #28]
 121:fe.c          ****     h[8] = h8;
 370              		.loc 1 121 0
 371 00a2 0362     		str	r3, [r0, #32]
 122:fe.c          ****     h[9] = h9;
 372              		.loc 1 122 0
 373 00a4 4262     		str	r2, [r0, #36]
 123:fe.c          **** }
 374              		.loc 1 123 0
 375 00a6 0BB0     		add	sp, sp, #44
 376              		@ sp needed
 377              	.LVL57:
 378              	.LVL58:
 379              	.LVL59:
 380              	.LVL60:
 381              	.LVL61:
 382              	.LVL62:
 383              	.LVL63:
 384 00a8 3CBC     		pop	{r2, r3, r4, r5}
 385 00aa 9046     		mov	r8, r2
 386 00ac 9946     		mov	r9, r3
 387 00ae A246     		mov	r10, r4
 388 00b0 AB46     		mov	fp, r5
 389 00b2 F0BD     		pop	{r4, r5, r6, r7, pc}
 390              		.cfi_endproc
ARM GAS  C:\Users\NIGHDR~1\AppData\Local\Temp\ccfE2IUB.s 			page 10


 391              	.LFE4:
 392              		.size	fe_add, .-fe_add
 393              		.section	.text.fe_cmov,"ax",%progbits
 394              		.align	2
 395              		.global	fe_cmov
 396              		.code	16
 397              		.thumb_func
 398              		.type	fe_cmov, %function
 399              	fe_cmov:
 400              	.LFB5:
 124:fe.c          **** 
 125:fe.c          **** 
 126:fe.c          **** 
 127:fe.c          **** /*
 128:fe.c          ****     Replace (f,g) with (g,g) if b == 1;
 129:fe.c          ****     replace (f,g) with (f,g) if b == 0.
 130:fe.c          **** 
 131:fe.c          ****     Preconditions: b in {0,1}.
 132:fe.c          **** */
 133:fe.c          **** 
 134:fe.c          **** void fe_cmov(fe f, const fe g, unsigned int b) {
 401              		.loc 1 134 0
 402              		.cfi_startproc
 403              		@ args = 0, pretend = 0, frame = 16
 404              		@ frame_needed = 0, uses_anonymous_args = 0
 405              	.LVL64:
 406 0000 F0B5     		push	{r4, r5, r6, r7, lr}
 407              		.cfi_def_cfa_offset 20
 408              		.cfi_offset 4, -20
 409              		.cfi_offset 5, -16
 410              		.cfi_offset 6, -12
 411              		.cfi_offset 7, -8
 412              		.cfi_offset 14, -4
 413 0002 5F46     		mov	r7, fp
 414 0004 5646     		mov	r6, r10
 415 0006 4D46     		mov	r5, r9
 416 0008 4446     		mov	r4, r8
 417 000a F0B4     		push	{r4, r5, r6, r7}
 418              		.cfi_def_cfa_offset 36
 419              		.cfi_offset 8, -36
 420              		.cfi_offset 9, -32
 421              		.cfi_offset 10, -28
 422              		.cfi_offset 11, -24
 423 000c 85B0     		sub	sp, sp, #20
 424              		.cfi_def_cfa_offset 56
 425 000e 9146     		mov	r9, r2
 426              	.LVL65:
 135:fe.c          ****     int32_t f0 = f[0];
 136:fe.c          ****     int32_t f1 = f[1];
 137:fe.c          ****     int32_t f2 = f[2];
 138:fe.c          ****     int32_t f3 = f[3];
 139:fe.c          ****     int32_t f4 = f[4];
 140:fe.c          ****     int32_t f5 = f[5];
 141:fe.c          ****     int32_t f6 = f[6];
 142:fe.c          ****     int32_t f7 = f[7];
 143:fe.c          ****     int32_t f8 = f[8];
 144:fe.c          ****     int32_t f9 = f[9];
ARM GAS  C:\Users\NIGHDR~1\AppData\Local\Temp\ccfE2IUB.s 			page 11


 145:fe.c          ****     int32_t g0 = g[0];
 427              		.loc 1 145 0
 428 0010 0A68     		ldr	r2, [r1]
 429              	.LVL66:
 146:fe.c          ****     int32_t g1 = g[1];
 430              		.loc 1 146 0
 431 0012 4B68     		ldr	r3, [r1, #4]
 432 0014 9C46     		mov	ip, r3
 433              	.LVL67:
 147:fe.c          ****     int32_t g2 = g[2];
 434              		.loc 1 147 0
 435 0016 8B68     		ldr	r3, [r1, #8]
 436              	.LVL68:
 437 0018 9846     		mov	r8, r3
 438              	.LVL69:
 148:fe.c          ****     int32_t g3 = g[3];
 439              		.loc 1 148 0
 440 001a CF68     		ldr	r7, [r1, #12]
 441              	.LVL70:
 149:fe.c          ****     int32_t g4 = g[4];
 442              		.loc 1 149 0
 443 001c 0E69     		ldr	r6, [r1, #16]
 444              	.LVL71:
 150:fe.c          ****     int32_t g5 = g[5];
 445              		.loc 1 150 0
 446 001e 4D69     		ldr	r5, [r1, #20]
 447              	.LVL72:
 151:fe.c          ****     int32_t g6 = g[6];
 448              		.loc 1 151 0
 449 0020 8C69     		ldr	r4, [r1, #24]
 450              	.LVL73:
 152:fe.c          ****     int32_t g7 = g[7];
 451              		.loc 1 152 0
 452 0022 CB69     		ldr	r3, [r1, #28]
 453              	.LVL74:
 454 0024 9A46     		mov	r10, r3
 455              	.LVL75:
 153:fe.c          ****     int32_t g8 = g[8];
 456              		.loc 1 153 0
 457 0026 0B6A     		ldr	r3, [r1, #32]
 458              	.LVL76:
 459 0028 0193     		str	r3, [sp, #4]
 460              	.LVL77:
 154:fe.c          ****     int32_t g9 = g[9];
 461              		.loc 1 154 0
 462 002a 4B6A     		ldr	r3, [r1, #36]
 463              	.LVL78:
 464 002c 9B46     		mov	fp, r3
 465              	.LVL79:
 155:fe.c          ****     int32_t x0 = f0 ^ g0;
 466              		.loc 1 155 0
 467 002e 0368     		ldr	r3, [r0]
 468              	.LVL80:
 469 0030 5A40     		eors	r2, r3
 470              	.LVL81:
 156:fe.c          ****     int32_t x1 = f1 ^ g1;
 471              		.loc 1 156 0
ARM GAS  C:\Users\NIGHDR~1\AppData\Local\Temp\ccfE2IUB.s 			page 12


 472 0032 6146     		mov	r1, ip
 473              	.LVL82:
 474 0034 4368     		ldr	r3, [r0, #4]
 475 0036 5940     		eors	r1, r3
 476 0038 0291     		str	r1, [sp, #8]
 477              	.LVL83:
 157:fe.c          ****     int32_t x2 = f2 ^ g2;
 478              		.loc 1 157 0
 479 003a 4346     		mov	r3, r8
 480 003c 8168     		ldr	r1, [r0, #8]
 481              	.LVL84:
 482 003e 4B40     		eors	r3, r1
 483 0040 9846     		mov	r8, r3
 484              	.LVL85:
 158:fe.c          ****     int32_t x3 = f3 ^ g3;
 485              		.loc 1 158 0
 486 0042 C368     		ldr	r3, [r0, #12]
 487              	.LVL86:
 488 0044 5F40     		eors	r7, r3
 489              	.LVL87:
 159:fe.c          ****     int32_t x4 = f4 ^ g4;
 490              		.loc 1 159 0
 491 0046 0369     		ldr	r3, [r0, #16]
 492 0048 5E40     		eors	r6, r3
 493              	.LVL88:
 160:fe.c          ****     int32_t x5 = f5 ^ g5;
 494              		.loc 1 160 0
 495 004a 4369     		ldr	r3, [r0, #20]
 496 004c 5D40     		eors	r5, r3
 497              	.LVL89:
 161:fe.c          ****     int32_t x6 = f6 ^ g6;
 498              		.loc 1 161 0
 499 004e 8369     		ldr	r3, [r0, #24]
 500 0050 5C40     		eors	r4, r3
 501              	.LVL90:
 162:fe.c          ****     int32_t x7 = f7 ^ g7;
 502              		.loc 1 162 0
 503 0052 C369     		ldr	r3, [r0, #28]
 504 0054 5146     		mov	r1, r10
 505 0056 5940     		eors	r1, r3
 506 0058 8A46     		mov	r10, r1
 507              	.LVL91:
 163:fe.c          ****     int32_t x8 = f8 ^ g8;
 508              		.loc 1 163 0
 509 005a 0199     		ldr	r1, [sp, #4]
 510              	.LVL92:
 511 005c 036A     		ldr	r3, [r0, #32]
 512 005e 5940     		eors	r1, r3
 513 0060 0191     		str	r1, [sp, #4]
 514              	.LVL93:
 164:fe.c          ****     int32_t x9 = f9 ^ g9;
 515              		.loc 1 164 0
 516 0062 416A     		ldr	r1, [r0, #36]
 517              	.LVL94:
 518 0064 5B46     		mov	r3, fp
 519 0066 5940     		eors	r1, r3
 520 0068 0391     		str	r1, [sp, #12]
ARM GAS  C:\Users\NIGHDR~1\AppData\Local\Temp\ccfE2IUB.s 			page 13


 521              	.LVL95:
 165:fe.c          **** 
 166:fe.c          ****     b = (unsigned int) (- (int) b); /* silence warning */
 522              		.loc 1 166 0
 523 006a 4B46     		mov	r3, r9
 524 006c 5942     		rsbs	r1, r3, #0
 525              	.LVL96:
 167:fe.c          ****     x0 &= b;
 526              		.loc 1 167 0
 527 006e 0A40     		ands	r2, r1
 528              	.LVL97:
 529 0070 9446     		mov	ip, r2
 530              	.LVL98:
 168:fe.c          ****     x1 &= b;
 531              		.loc 1 168 0
 532 0072 029A     		ldr	r2, [sp, #8]
 533              	.LVL99:
 534 0074 0A40     		ands	r2, r1
 535 0076 0292     		str	r2, [sp, #8]
 536              	.LVL100:
 169:fe.c          ****     x2 &= b;
 537              		.loc 1 169 0
 538 0078 4246     		mov	r2, r8
 539              	.LVL101:
 540 007a 0A40     		ands	r2, r1
 541 007c 9046     		mov	r8, r2
 542              	.LVL102:
 170:fe.c          ****     x3 &= b;
 543              		.loc 1 170 0
 544 007e 0F40     		ands	r7, r1
 545              	.LVL103:
 171:fe.c          ****     x4 &= b;
 546              		.loc 1 171 0
 547 0080 0E40     		ands	r6, r1
 548              	.LVL104:
 172:fe.c          ****     x5 &= b;
 549              		.loc 1 172 0
 550 0082 0D40     		ands	r5, r1
 551              	.LVL105:
 173:fe.c          ****     x6 &= b;
 552              		.loc 1 173 0
 553 0084 0C40     		ands	r4, r1
 554              	.LVL106:
 174:fe.c          ****     x7 &= b;
 555              		.loc 1 174 0
 556 0086 5346     		mov	r3, r10
 557 0088 0B40     		ands	r3, r1
 558 008a 9946     		mov	r9, r3
 559              	.LVL107:
 175:fe.c          ****     x8 &= b;
 560              		.loc 1 175 0
 561 008c 019A     		ldr	r2, [sp, #4]
 562              	.LVL108:
 563 008e 0A40     		ands	r2, r1
 564              	.LVL109:
 176:fe.c          ****     x9 &= b;
 565              		.loc 1 176 0
ARM GAS  C:\Users\NIGHDR~1\AppData\Local\Temp\ccfE2IUB.s 			page 14


 566 0090 039B     		ldr	r3, [sp, #12]
 567              	.LVL110:
 568 0092 1940     		ands	r1, r3
 569              	.LVL111:
 570 0094 8A46     		mov	r10, r1
 571              	.LVL112:
 177:fe.c          ****     
 178:fe.c          ****     f[0] = f0 ^ x0;
 572              		.loc 1 178 0
 573 0096 6346     		mov	r3, ip
 574 0098 0168     		ldr	r1, [r0]
 575              	.LVL113:
 576 009a 4B40     		eors	r3, r1
 577 009c 0360     		str	r3, [r0]
 578              	.LVL114:
 179:fe.c          ****     f[1] = f1 ^ x1;
 579              		.loc 1 179 0
 580 009e 029B     		ldr	r3, [sp, #8]
 581 00a0 4168     		ldr	r1, [r0, #4]
 582              	.LVL115:
 583 00a2 4B40     		eors	r3, r1
 584 00a4 4360     		str	r3, [r0, #4]
 585              	.LVL116:
 180:fe.c          ****     f[2] = f2 ^ x2;
 586              		.loc 1 180 0
 587 00a6 4346     		mov	r3, r8
 588 00a8 8168     		ldr	r1, [r0, #8]
 589              	.LVL117:
 590 00aa 4B40     		eors	r3, r1
 591 00ac 8360     		str	r3, [r0, #8]
 592              	.LVL118:
 181:fe.c          ****     f[3] = f3 ^ x3;
 593              		.loc 1 181 0
 594 00ae C368     		ldr	r3, [r0, #12]
 595 00b0 5F40     		eors	r7, r3
 596              	.LVL119:
 597 00b2 C760     		str	r7, [r0, #12]
 598              	.LVL120:
 182:fe.c          ****     f[4] = f4 ^ x4;
 599              		.loc 1 182 0
 600 00b4 0369     		ldr	r3, [r0, #16]
 601              	.LVL121:
 602 00b6 5E40     		eors	r6, r3
 603              	.LVL122:
 604 00b8 0661     		str	r6, [r0, #16]
 605              	.LVL123:
 183:fe.c          ****     f[5] = f5 ^ x5;
 606              		.loc 1 183 0
 607 00ba 4369     		ldr	r3, [r0, #20]
 608              	.LVL124:
 609 00bc 5D40     		eors	r5, r3
 610              	.LVL125:
 611 00be 4561     		str	r5, [r0, #20]
 612              	.LVL126:
 184:fe.c          ****     f[6] = f6 ^ x6;
 613              		.loc 1 184 0
 614 00c0 8369     		ldr	r3, [r0, #24]
ARM GAS  C:\Users\NIGHDR~1\AppData\Local\Temp\ccfE2IUB.s 			page 15


 615              	.LVL127:
 616 00c2 5C40     		eors	r4, r3
 617              	.LVL128:
 618 00c4 8461     		str	r4, [r0, #24]
 619              	.LVL129:
 185:fe.c          ****     f[7] = f7 ^ x7;
 620              		.loc 1 185 0
 621 00c6 C369     		ldr	r3, [r0, #28]
 622              	.LVL130:
 623 00c8 4946     		mov	r1, r9
 624              	.LVL131:
 625 00ca 5940     		eors	r1, r3
 626 00cc C161     		str	r1, [r0, #28]
 627              	.LVL132:
 186:fe.c          ****     f[8] = f8 ^ x8;
 628              		.loc 1 186 0
 629 00ce 036A     		ldr	r3, [r0, #32]
 630              	.LVL133:
 631 00d0 5A40     		eors	r2, r3
 632              	.LVL134:
 633 00d2 0262     		str	r2, [r0, #32]
 634              	.LVL135:
 187:fe.c          ****     f[9] = f9 ^ x9;
 635              		.loc 1 187 0
 636 00d4 436A     		ldr	r3, [r0, #36]
 637              	.LVL136:
 638 00d6 5146     		mov	r1, r10
 639 00d8 5940     		eors	r1, r3
 640 00da 4162     		str	r1, [r0, #36]
 641              	.LVL137:
 188:fe.c          **** }
 642              		.loc 1 188 0
 643 00dc 05B0     		add	sp, sp, #20
 644              		@ sp needed
 645              	.LVL138:
 646              	.LVL139:
 647              	.LVL140:
 648              	.LVL141:
 649 00de 3CBC     		pop	{r2, r3, r4, r5}
 650 00e0 9046     		mov	r8, r2
 651 00e2 9946     		mov	r9, r3
 652 00e4 A246     		mov	r10, r4
 653 00e6 AB46     		mov	fp, r5
 654 00e8 F0BD     		pop	{r4, r5, r6, r7, pc}
 655              		.cfi_endproc
 656              	.LFE5:
 657              		.size	fe_cmov, .-fe_cmov
 658 00ea C046     		.section	.text.fe_cswap,"ax",%progbits
 659              		.align	2
 660              		.global	fe_cswap
 661              		.code	16
 662              		.thumb_func
 663              		.type	fe_cswap, %function
 664              	fe_cswap:
 665              	.LFB6:
 189:fe.c          **** 
 190:fe.c          **** /*
ARM GAS  C:\Users\NIGHDR~1\AppData\Local\Temp\ccfE2IUB.s 			page 16


 191:fe.c          ****     Replace (f,g) with (g,f) if b == 1;
 192:fe.c          ****     replace (f,g) with (f,g) if b == 0.
 193:fe.c          **** 
 194:fe.c          ****     Preconditions: b in {0,1}.
 195:fe.c          **** */
 196:fe.c          **** 
 197:fe.c          **** void fe_cswap(fe f,fe g,unsigned int b) {
 666              		.loc 1 197 0
 667              		.cfi_startproc
 668              		@ args = 0, pretend = 0, frame = 64
 669              		@ frame_needed = 0, uses_anonymous_args = 0
 670              	.LVL142:
 671 0000 F0B5     		push	{r4, r5, r6, r7, lr}
 672              		.cfi_def_cfa_offset 20
 673              		.cfi_offset 4, -20
 674              		.cfi_offset 5, -16
 675              		.cfi_offset 6, -12
 676              		.cfi_offset 7, -8
 677              		.cfi_offset 14, -4
 678 0002 5F46     		mov	r7, fp
 679 0004 5646     		mov	r6, r10
 680 0006 4D46     		mov	r5, r9
 681 0008 4446     		mov	r4, r8
 682 000a F0B4     		push	{r4, r5, r6, r7}
 683              		.cfi_def_cfa_offset 36
 684              		.cfi_offset 8, -36
 685              		.cfi_offset 9, -32
 686              		.cfi_offset 10, -28
 687              		.cfi_offset 11, -24
 688 000c 91B0     		sub	sp, sp, #68
 689              		.cfi_def_cfa_offset 104
 690              	.LVL143:
 198:fe.c          ****     int32_t f0 = f[0];
 199:fe.c          ****     int32_t f1 = f[1];
 200:fe.c          ****     int32_t f2 = f[2];
 201:fe.c          ****     int32_t f3 = f[3];
 202:fe.c          ****     int32_t f4 = f[4];
 203:fe.c          ****     int32_t f5 = f[5];
 204:fe.c          ****     int32_t f6 = f[6];
 205:fe.c          ****     int32_t f7 = f[7];
 206:fe.c          ****     int32_t f8 = f[8];
 207:fe.c          ****     int32_t f9 = f[9];
 208:fe.c          ****     int32_t g0 = g[0];
 691              		.loc 1 208 0
 692 000e 0B68     		ldr	r3, [r1]
 693              	.LVL144:
 209:fe.c          ****     int32_t g1 = g[1];
 694              		.loc 1 209 0
 695 0010 4C68     		ldr	r4, [r1, #4]
 696 0012 0094     		str	r4, [sp]
 697              	.LVL145:
 210:fe.c          ****     int32_t g2 = g[2];
 698              		.loc 1 210 0
 699 0014 8D68     		ldr	r5, [r1, #8]
 700 0016 0195     		str	r5, [sp, #4]
 701              	.LVL146:
 211:fe.c          ****     int32_t g3 = g[3];
ARM GAS  C:\Users\NIGHDR~1\AppData\Local\Temp\ccfE2IUB.s 			page 17


 702              		.loc 1 211 0
 703 0018 CE68     		ldr	r6, [r1, #12]
 704 001a 0296     		str	r6, [sp, #8]
 705              	.LVL147:
 212:fe.c          ****     int32_t g4 = g[4];
 706              		.loc 1 212 0
 707 001c 0F69     		ldr	r7, [r1, #16]
 708              	.LVL148:
 213:fe.c          ****     int32_t g5 = g[5];
 709              		.loc 1 213 0
 710 001e 4C69     		ldr	r4, [r1, #20]
 711              	.LVL149:
 214:fe.c          ****     int32_t g6 = g[6];
 712              		.loc 1 214 0
 713 0020 8E69     		ldr	r6, [r1, #24]
 714              	.LVL150:
 715 0022 0396     		str	r6, [sp, #12]
 716              	.LVL151:
 215:fe.c          ****     int32_t g7 = g[7];
 717              		.loc 1 215 0
 718 0024 CD69     		ldr	r5, [r1, #28]
 719              	.LVL152:
 720 0026 0495     		str	r5, [sp, #16]
 721              	.LVL153:
 216:fe.c          ****     int32_t g8 = g[8];
 722              		.loc 1 216 0
 723 0028 0D6A     		ldr	r5, [r1, #32]
 724              	.LVL154:
 725 002a 0595     		str	r5, [sp, #20]
 726              	.LVL155:
 217:fe.c          ****     int32_t g9 = g[9];
 727              		.loc 1 217 0
 728 002c 4D6A     		ldr	r5, [r1, #36]
 729              	.LVL156:
 730 002e 0695     		str	r5, [sp, #24]
 731              	.LVL157:
 218:fe.c          ****     int32_t x0 = f0 ^ g0;
 732              		.loc 1 218 0
 733 0030 0568     		ldr	r5, [r0]
 734              	.LVL158:
 735 0032 0893     		str	r3, [sp, #32]
 736 0034 5D40     		eors	r5, r3
 737 0036 AC46     		mov	ip, r5
 738              	.LVL159:
 219:fe.c          ****     int32_t x1 = f1 ^ g1;
 739              		.loc 1 219 0
 740 0038 4568     		ldr	r5, [r0, #4]
 741              	.LVL160:
 742 003a 009B     		ldr	r3, [sp]
 743              	.LVL161:
 744 003c 5D40     		eors	r5, r3
 745 003e A846     		mov	r8, r5
 746              	.LVL162:
 220:fe.c          ****     int32_t x2 = f2 ^ g2;
 747              		.loc 1 220 0
 748 0040 8668     		ldr	r6, [r0, #8]
 749              	.LVL163:
ARM GAS  C:\Users\NIGHDR~1\AppData\Local\Temp\ccfE2IUB.s 			page 18


 750 0042 019B     		ldr	r3, [sp, #4]
 751 0044 5E40     		eors	r6, r3
 752 0046 B146     		mov	r9, r6
 753              	.LVL164:
 221:fe.c          ****     int32_t x3 = f3 ^ g3;
 754              		.loc 1 221 0
 755 0048 C568     		ldr	r5, [r0, #12]
 756              	.LVL165:
 757 004a 029B     		ldr	r3, [sp, #8]
 758 004c 5D40     		eors	r5, r3
 759 004e AA46     		mov	r10, r5
 760              	.LVL166:
 222:fe.c          ****     int32_t x4 = f4 ^ g4;
 761              		.loc 1 222 0
 762 0050 0569     		ldr	r5, [r0, #16]
 763              	.LVL167:
 764 0052 0997     		str	r7, [sp, #36]
 765 0054 7D40     		eors	r5, r7
 766 0056 AB46     		mov	fp, r5
 767              	.LVL168:
 223:fe.c          ****     int32_t x5 = f5 ^ g5;
 768              		.loc 1 223 0
 769 0058 4569     		ldr	r5, [r0, #20]
 770              	.LVL169:
 771 005a 0A94     		str	r4, [sp, #40]
 772 005c 6540     		eors	r5, r4
 773              	.LVL170:
 224:fe.c          ****     int32_t x6 = f6 ^ g6;
 774              		.loc 1 224 0
 775 005e 8369     		ldr	r3, [r0, #24]
 776 0060 039E     		ldr	r6, [sp, #12]
 777              	.LVL171:
 778 0062 7340     		eors	r3, r6
 779 0064 0B93     		str	r3, [sp, #44]
 780              	.LVL172:
 225:fe.c          ****     int32_t x7 = f7 ^ g7;
 781              		.loc 1 225 0
 782 0066 C369     		ldr	r3, [r0, #28]
 783              	.LVL173:
 784 0068 049C     		ldr	r4, [sp, #16]
 785              	.LVL174:
 786 006a 6340     		eors	r3, r4
 787 006c 0C93     		str	r3, [sp, #48]
 788              	.LVL175:
 226:fe.c          ****     int32_t x8 = f8 ^ g8;
 789              		.loc 1 226 0
 790 006e 036A     		ldr	r3, [r0, #32]
 791              	.LVL176:
 792 0070 059C     		ldr	r4, [sp, #20]
 793 0072 6340     		eors	r3, r4
 794 0074 0D93     		str	r3, [sp, #52]
 795              	.LVL177:
 227:fe.c          ****     int32_t x9 = f9 ^ g9;
 796              		.loc 1 227 0
 797 0076 466A     		ldr	r6, [r0, #36]
 798 0078 069B     		ldr	r3, [sp, #24]
 799              	.LVL178:
ARM GAS  C:\Users\NIGHDR~1\AppData\Local\Temp\ccfE2IUB.s 			page 19


 800 007a 5E40     		eors	r6, r3
 801 007c 3300     		movs	r3, r6
 802              	.LVL179:
 228:fe.c          ****     b = (unsigned int) (- (int) b); /* silence warning */
 803              		.loc 1 228 0
 804 007e 5242     		rsbs	r2, r2, #0
 805              	.LVL180:
 229:fe.c          ****     x0 &= b;
 806              		.loc 1 229 0
 807 0080 6446     		mov	r4, ip
 808 0082 1440     		ands	r4, r2
 809 0084 0E94     		str	r4, [sp, #56]
 810              	.LVL181:
 230:fe.c          ****     x1 &= b;
 811              		.loc 1 230 0
 812 0086 4446     		mov	r4, r8
 813              	.LVL182:
 814 0088 1440     		ands	r4, r2
 815              	.LVL183:
 231:fe.c          ****     x2 &= b;
 816              		.loc 1 231 0
 817 008a 4E46     		mov	r6, r9
 818 008c 1640     		ands	r6, r2
 819 008e 0F96     		str	r6, [sp, #60]
 820              	.LVL184:
 232:fe.c          ****     x3 &= b;
 821              		.loc 1 232 0
 822 0090 5746     		mov	r7, r10
 823              	.LVL185:
 824 0092 1740     		ands	r7, r2
 825              	.LVL186:
 233:fe.c          ****     x4 &= b;
 826              		.loc 1 233 0
 827 0094 5E46     		mov	r6, fp
 828              	.LVL187:
 829 0096 1640     		ands	r6, r2
 830 0098 0796     		str	r6, [sp, #28]
 831              	.LVL188:
 234:fe.c          ****     x5 &= b;
 832              		.loc 1 234 0
 833 009a 1540     		ands	r5, r2
 834              	.LVL189:
 835 009c AB46     		mov	fp, r5
 836              	.LVL190:
 235:fe.c          ****     x6 &= b;
 837              		.loc 1 235 0
 838 009e 0B9D     		ldr	r5, [sp, #44]
 839              	.LVL191:
 840 00a0 1540     		ands	r5, r2
 841 00a2 AA46     		mov	r10, r5
 842              	.LVL192:
 236:fe.c          ****     x7 &= b;
 843              		.loc 1 236 0
 844 00a4 0C9D     		ldr	r5, [sp, #48]
 845              	.LVL193:
 846 00a6 1540     		ands	r5, r2
 847 00a8 A946     		mov	r9, r5
ARM GAS  C:\Users\NIGHDR~1\AppData\Local\Temp\ccfE2IUB.s 			page 20


 848              	.LVL194:
 237:fe.c          ****     x8 &= b;
 849              		.loc 1 237 0
 850 00aa 0D9D     		ldr	r5, [sp, #52]
 851              	.LVL195:
 852 00ac 1540     		ands	r5, r2
 853 00ae A846     		mov	r8, r5
 854              	.LVL196:
 238:fe.c          ****     x9 &= b;
 855              		.loc 1 238 0
 856 00b0 1A40     		ands	r2, r3
 857              	.LVL197:
 858 00b2 9446     		mov	ip, r2
 859              	.LVL198:
 239:fe.c          ****     f[0] = f0 ^ x0;
 860              		.loc 1 239 0
 861 00b4 0668     		ldr	r6, [r0]
 862              	.LVL199:
 863 00b6 0E9D     		ldr	r5, [sp, #56]
 864              	.LVL200:
 865 00b8 6E40     		eors	r6, r5
 866 00ba 0660     		str	r6, [r0]
 867              	.LVL201:
 240:fe.c          ****     f[1] = f1 ^ x1;
 868              		.loc 1 240 0
 869 00bc 4668     		ldr	r6, [r0, #4]
 870 00be 6640     		eors	r6, r4
 871 00c0 4660     		str	r6, [r0, #4]
 872              	.LVL202:
 241:fe.c          ****     f[2] = f2 ^ x2;
 873              		.loc 1 241 0
 874 00c2 8368     		ldr	r3, [r0, #8]
 875 00c4 0F9E     		ldr	r6, [sp, #60]
 876 00c6 7340     		eors	r3, r6
 877 00c8 8360     		str	r3, [r0, #8]
 878              	.LVL203:
 242:fe.c          ****     f[3] = f3 ^ x3;
 879              		.loc 1 242 0
 880 00ca C368     		ldr	r3, [r0, #12]
 881 00cc 7B40     		eors	r3, r7
 882 00ce C360     		str	r3, [r0, #12]
 883              	.LVL204:
 243:fe.c          ****     f[4] = f4 ^ x4;
 884              		.loc 1 243 0
 885 00d0 0269     		ldr	r2, [r0, #16]
 886              	.LVL205:
 887 00d2 079B     		ldr	r3, [sp, #28]
 888 00d4 5A40     		eors	r2, r3
 889 00d6 0261     		str	r2, [r0, #16]
 890              	.LVL206:
 244:fe.c          ****     f[5] = f5 ^ x5;
 891              		.loc 1 244 0
 892 00d8 4269     		ldr	r2, [r0, #20]
 893 00da 5B46     		mov	r3, fp
 894 00dc 5A40     		eors	r2, r3
 895 00de 4261     		str	r2, [r0, #20]
 896              	.LVL207:
ARM GAS  C:\Users\NIGHDR~1\AppData\Local\Temp\ccfE2IUB.s 			page 21


 245:fe.c          ****     f[6] = f6 ^ x6;
 897              		.loc 1 245 0
 898 00e0 8269     		ldr	r2, [r0, #24]
 899 00e2 5346     		mov	r3, r10
 900 00e4 5A40     		eors	r2, r3
 901 00e6 8261     		str	r2, [r0, #24]
 902              	.LVL208:
 246:fe.c          ****     f[7] = f7 ^ x7;
 903              		.loc 1 246 0
 904 00e8 C269     		ldr	r2, [r0, #28]
 905 00ea 4B46     		mov	r3, r9
 906 00ec 5A40     		eors	r2, r3
 907 00ee C261     		str	r2, [r0, #28]
 908              	.LVL209:
 247:fe.c          ****     f[8] = f8 ^ x8;
 909              		.loc 1 247 0
 910 00f0 026A     		ldr	r2, [r0, #32]
 911 00f2 4346     		mov	r3, r8
 912 00f4 5A40     		eors	r2, r3
 913 00f6 0262     		str	r2, [r0, #32]
 914              	.LVL210:
 248:fe.c          ****     f[9] = f9 ^ x9;
 915              		.loc 1 248 0
 916 00f8 426A     		ldr	r2, [r0, #36]
 917 00fa 6346     		mov	r3, ip
 918 00fc 5A40     		eors	r2, r3
 919 00fe 4262     		str	r2, [r0, #36]
 920              	.LVL211:
 249:fe.c          ****     g[0] = g0 ^ x0;
 921              		.loc 1 249 0
 922 0100 089B     		ldr	r3, [sp, #32]
 923 0102 6B40     		eors	r3, r5
 924 0104 0B60     		str	r3, [r1]
 250:fe.c          ****     g[1] = g1 ^ x1;
 925              		.loc 1 250 0
 926 0106 009B     		ldr	r3, [sp]
 927 0108 6340     		eors	r3, r4
 928 010a 4B60     		str	r3, [r1, #4]
 251:fe.c          ****     g[2] = g2 ^ x2;
 929              		.loc 1 251 0
 930 010c 019B     		ldr	r3, [sp, #4]
 931 010e 7340     		eors	r3, r6
 932 0110 8B60     		str	r3, [r1, #8]
 252:fe.c          ****     g[3] = g3 ^ x3;
 933              		.loc 1 252 0
 934 0112 029B     		ldr	r3, [sp, #8]
 935 0114 7B40     		eors	r3, r7
 936 0116 CB60     		str	r3, [r1, #12]
 253:fe.c          ****     g[4] = g4 ^ x4;
 937              		.loc 1 253 0
 938 0118 099B     		ldr	r3, [sp, #36]
 939 011a 079E     		ldr	r6, [sp, #28]
 940 011c 7340     		eors	r3, r6
 941 011e 0B61     		str	r3, [r1, #16]
 254:fe.c          ****     g[5] = g5 ^ x5;
 942              		.loc 1 254 0
 943 0120 0A9B     		ldr	r3, [sp, #40]
ARM GAS  C:\Users\NIGHDR~1\AppData\Local\Temp\ccfE2IUB.s 			page 22


 944 0122 5A46     		mov	r2, fp
 945 0124 5340     		eors	r3, r2
 946 0126 4B61     		str	r3, [r1, #20]
 255:fe.c          ****     g[6] = g6 ^ x6;
 947              		.loc 1 255 0
 948 0128 5346     		mov	r3, r10
 949 012a 039E     		ldr	r6, [sp, #12]
 950 012c 7340     		eors	r3, r6
 951 012e 8B61     		str	r3, [r1, #24]
 256:fe.c          ****     g[7] = g7 ^ x7;
 952              		.loc 1 256 0
 953 0130 4B46     		mov	r3, r9
 954 0132 0498     		ldr	r0, [sp, #16]
 955              	.LVL212:
 956 0134 4340     		eors	r3, r0
 957 0136 CB61     		str	r3, [r1, #28]
 257:fe.c          ****     g[8] = g8 ^ x8;
 958              		.loc 1 257 0
 959 0138 4346     		mov	r3, r8
 960 013a 059A     		ldr	r2, [sp, #20]
 961 013c 5340     		eors	r3, r2
 962 013e 0B62     		str	r3, [r1, #32]
 258:fe.c          ****     g[9] = g9 ^ x9;
 963              		.loc 1 258 0
 964 0140 6246     		mov	r2, ip
 965 0142 069B     		ldr	r3, [sp, #24]
 966 0144 5A40     		eors	r2, r3
 967 0146 4A62     		str	r2, [r1, #36]
 259:fe.c          **** }
 968              		.loc 1 259 0
 969 0148 11B0     		add	sp, sp, #68
 970              	.LVL213:
 971              		@ sp needed
 972              	.LVL214:
 973              	.LVL215:
 974              	.LVL216:
 975              	.LVL217:
 976              	.LVL218:
 977              	.LVL219:
 978 014a 3CBC     		pop	{r2, r3, r4, r5}
 979 014c 9046     		mov	r8, r2
 980 014e 9946     		mov	r9, r3
 981 0150 A246     		mov	r10, r4
 982 0152 AB46     		mov	fp, r5
 983 0154 F0BD     		pop	{r4, r5, r6, r7, pc}
 984              		.cfi_endproc
 985              	.LFE6:
 986              		.size	fe_cswap, .-fe_cswap
 987 0156 C046     		.section	.text.fe_copy,"ax",%progbits
 988              		.align	2
 989              		.global	fe_copy
 990              		.code	16
 991              		.thumb_func
 992              		.type	fe_copy, %function
 993              	fe_copy:
 994              	.LFB7:
 260:fe.c          **** 
ARM GAS  C:\Users\NIGHDR~1\AppData\Local\Temp\ccfE2IUB.s 			page 23


 261:fe.c          **** 
 262:fe.c          **** 
 263:fe.c          **** /*
 264:fe.c          ****     h = f
 265:fe.c          **** */
 266:fe.c          **** 
 267:fe.c          **** void fe_copy(fe h, const fe f) {
 995              		.loc 1 267 0
 996              		.cfi_startproc
 997              		@ args = 0, pretend = 0, frame = 0
 998              		@ frame_needed = 0, uses_anonymous_args = 0
 999              	.LVL220:
 1000 0000 F0B5     		push	{r4, r5, r6, r7, lr}
 1001              		.cfi_def_cfa_offset 20
 1002              		.cfi_offset 4, -20
 1003              		.cfi_offset 5, -16
 1004              		.cfi_offset 6, -12
 1005              		.cfi_offset 7, -8
 1006              		.cfi_offset 14, -4
 1007 0002 4F46     		mov	r7, r9
 1008 0004 4646     		mov	r6, r8
 1009 0006 C0B4     		push	{r6, r7}
 1010              		.cfi_def_cfa_offset 28
 1011              		.cfi_offset 8, -28
 1012              		.cfi_offset 9, -24
 268:fe.c          ****     int32_t f0 = f[0];
 1013              		.loc 1 268 0
 1014 0008 0B68     		ldr	r3, [r1]
 1015 000a 9946     		mov	r9, r3
 1016              	.LVL221:
 269:fe.c          ****     int32_t f1 = f[1];
 1017              		.loc 1 269 0
 1018 000c 4B68     		ldr	r3, [r1, #4]
 1019              	.LVL222:
 1020 000e 9846     		mov	r8, r3
 1021              	.LVL223:
 270:fe.c          ****     int32_t f2 = f[2];
 1022              		.loc 1 270 0
 1023 0010 8B68     		ldr	r3, [r1, #8]
 1024              	.LVL224:
 1025 0012 9C46     		mov	ip, r3
 1026              	.LVL225:
 271:fe.c          ****     int32_t f3 = f[3];
 1027              		.loc 1 271 0
 1028 0014 CF68     		ldr	r7, [r1, #12]
 1029              	.LVL226:
 272:fe.c          ****     int32_t f4 = f[4];
 1030              		.loc 1 272 0
 1031 0016 0E69     		ldr	r6, [r1, #16]
 1032              	.LVL227:
 273:fe.c          ****     int32_t f5 = f[5];
 1033              		.loc 1 273 0
 1034 0018 4D69     		ldr	r5, [r1, #20]
 1035              	.LVL228:
 274:fe.c          ****     int32_t f6 = f[6];
 1036              		.loc 1 274 0
 1037 001a 8C69     		ldr	r4, [r1, #24]
ARM GAS  C:\Users\NIGHDR~1\AppData\Local\Temp\ccfE2IUB.s 			page 24


 1038              	.LVL229:
 275:fe.c          ****     int32_t f7 = f[7];
 1039              		.loc 1 275 0
 1040 001c CA69     		ldr	r2, [r1, #28]
 1041              	.LVL230:
 276:fe.c          ****     int32_t f8 = f[8];
 1042              		.loc 1 276 0
 1043 001e 0B6A     		ldr	r3, [r1, #32]
 1044              	.LVL231:
 277:fe.c          ****     int32_t f9 = f[9];
 1045              		.loc 1 277 0
 1046 0020 496A     		ldr	r1, [r1, #36]
 1047              	.LVL232:
 1048 0022 4162     		str	r1, [r0, #36]
 1049              	.LVL233:
 278:fe.c          ****     
 279:fe.c          ****     h[0] = f0;
 1050              		.loc 1 279 0
 1051 0024 4946     		mov	r1, r9
 1052              	.LVL234:
 1053 0026 0160     		str	r1, [r0]
 280:fe.c          ****     h[1] = f1;
 1054              		.loc 1 280 0
 1055 0028 4146     		mov	r1, r8
 1056 002a 4160     		str	r1, [r0, #4]
 281:fe.c          ****     h[2] = f2;
 1057              		.loc 1 281 0
 1058 002c 6146     		mov	r1, ip
 1059 002e 8160     		str	r1, [r0, #8]
 282:fe.c          ****     h[3] = f3;
 1060              		.loc 1 282 0
 1061 0030 C760     		str	r7, [r0, #12]
 283:fe.c          ****     h[4] = f4;
 1062              		.loc 1 283 0
 1063 0032 0661     		str	r6, [r0, #16]
 284:fe.c          ****     h[5] = f5;
 1064              		.loc 1 284 0
 1065 0034 4561     		str	r5, [r0, #20]
 285:fe.c          ****     h[6] = f6;
 1066              		.loc 1 285 0
 1067 0036 8461     		str	r4, [r0, #24]
 286:fe.c          ****     h[7] = f7;
 1068              		.loc 1 286 0
 1069 0038 C261     		str	r2, [r0, #28]
 287:fe.c          ****     h[8] = f8;
 1070              		.loc 1 287 0
 1071 003a 0362     		str	r3, [r0, #32]
 288:fe.c          ****     h[9] = f9;
 289:fe.c          **** }
 1072              		.loc 1 289 0
 1073              		@ sp needed
 1074              	.LVL235:
 1075              	.LVL236:
 1076              	.LVL237:
 1077              	.LVL238:
 1078              	.LVL239:
 1079              	.LVL240:
ARM GAS  C:\Users\NIGHDR~1\AppData\Local\Temp\ccfE2IUB.s 			page 25


 1080 003c 0CBC     		pop	{r2, r3}
 1081 003e 9046     		mov	r8, r2
 1082 0040 9946     		mov	r9, r3
 1083 0042 F0BD     		pop	{r4, r5, r6, r7, pc}
 1084              		.cfi_endproc
 1085              	.LFE7:
 1086              		.size	fe_copy, .-fe_copy
 1087              		.section	.text.fe_frombytes,"ax",%progbits
 1088              		.align	2
 1089              		.global	fe_frombytes
 1090              		.code	16
 1091              		.thumb_func
 1092              		.type	fe_frombytes, %function
 1093              	fe_frombytes:
 1094              	.LFB8:
 290:fe.c          **** 
 291:fe.c          **** 
 292:fe.c          **** 
 293:fe.c          **** /*
 294:fe.c          ****     Ignores top bit of h.
 295:fe.c          **** */
 296:fe.c          **** 
 297:fe.c          **** void fe_frombytes(fe h, const unsigned char *s) {
 1095              		.loc 1 297 0
 1096              		.cfi_startproc
 1097              		@ args = 0, pretend = 0, frame = 96
 1098              		@ frame_needed = 0, uses_anonymous_args = 0
 1099              	.LVL241:
 1100 0000 F0B5     		push	{r4, r5, r6, r7, lr}
 1101              		.cfi_def_cfa_offset 20
 1102              		.cfi_offset 4, -20
 1103              		.cfi_offset 5, -16
 1104              		.cfi_offset 6, -12
 1105              		.cfi_offset 7, -8
 1106              		.cfi_offset 14, -4
 1107 0002 4746     		mov	r7, r8
 1108 0004 80B4     		push	{r7}
 1109              		.cfi_def_cfa_offset 24
 1110              		.cfi_offset 8, -24
 1111 0006 98B0     		sub	sp, sp, #96
 1112              		.cfi_def_cfa_offset 120
 1113 0008 8046     		mov	r8, r0
 1114 000a 0C00     		movs	r4, r1
 298:fe.c          ****     int64_t h0 = load_4(s);
 1115              		.loc 1 298 0
 1116 000c 0800     		movs	r0, r1
 1117              	.LVL242:
 1118 000e FFF7FEFF 		bl	load_4
 1119              	.LVL243:
 1120 0012 0E90     		str	r0, [sp, #56]
 1121 0014 0F91     		str	r1, [sp, #60]
 1122              	.LVL244:
 299:fe.c          ****     int64_t h1 = load_3(s + 4) << 6;
 1123              		.loc 1 299 0
 1124 0016 201D     		adds	r0, r4, #4
 1125              	.LVL245:
 1126 0018 FFF7FEFF 		bl	load_3
ARM GAS  C:\Users\NIGHDR~1\AppData\Local\Temp\ccfE2IUB.s 			page 26


 1127              	.LVL246:
 1128 001c 830E     		lsrs	r3, r0, #26
 1129 001e 8901     		lsls	r1, r1, #6
 1130 0020 8201     		lsls	r2, r0, #6
 1131 0022 0092     		str	r2, [sp]
 1132 0024 0B43     		orrs	r3, r1
 1133 0026 0193     		str	r3, [sp, #4]
 1134              	.LVL247:
 300:fe.c          ****     int64_t h2 = load_3(s + 7) << 5;
 1135              		.loc 1 300 0
 1136 0028 E01D     		adds	r0, r4, #7
 1137 002a FFF7FEFF 		bl	load_3
 1138              	.LVL248:
 1139 002e C30E     		lsrs	r3, r0, #27
 1140 0030 4901     		lsls	r1, r1, #5
 1141 0032 4201     		lsls	r2, r0, #5
 1142 0034 0292     		str	r2, [sp, #8]
 1143 0036 0B43     		orrs	r3, r1
 1144 0038 0393     		str	r3, [sp, #12]
 1145              	.LVL249:
 301:fe.c          ****     int64_t h3 = load_3(s + 10) << 3;
 1146              		.loc 1 301 0
 1147 003a 2300     		movs	r3, r4
 1148 003c 0A33     		adds	r3, r3, #10
 1149 003e 1800     		movs	r0, r3
 1150 0040 FFF7FEFF 		bl	load_3
 1151              	.LVL250:
 1152 0044 430F     		lsrs	r3, r0, #29
 1153 0046 C900     		lsls	r1, r1, #3
 1154 0048 C200     		lsls	r2, r0, #3
 1155 004a 0492     		str	r2, [sp, #16]
 1156 004c 0B43     		orrs	r3, r1
 1157 004e 0593     		str	r3, [sp, #20]
 1158              	.LVL251:
 302:fe.c          ****     int64_t h4 = load_3(s + 13) << 2;
 1159              		.loc 1 302 0
 1160 0050 2300     		movs	r3, r4
 1161 0052 0D33     		adds	r3, r3, #13
 1162 0054 1800     		movs	r0, r3
 1163 0056 FFF7FEFF 		bl	load_3
 1164              	.LVL252:
 1165 005a 830F     		lsrs	r3, r0, #30
 1166 005c 8900     		lsls	r1, r1, #2
 1167 005e 8200     		lsls	r2, r0, #2
 1168 0060 0692     		str	r2, [sp, #24]
 1169 0062 0B43     		orrs	r3, r1
 1170 0064 0793     		str	r3, [sp, #28]
 1171              	.LVL253:
 303:fe.c          ****     int64_t h5 = load_4(s + 16);
 1172              		.loc 1 303 0
 1173 0066 2300     		movs	r3, r4
 1174 0068 1033     		adds	r3, r3, #16
 1175 006a 1800     		movs	r0, r3
 1176 006c FFF7FEFF 		bl	load_4
 1177              	.LVL254:
 1178 0070 1090     		str	r0, [sp, #64]
 1179 0072 1191     		str	r1, [sp, #68]
ARM GAS  C:\Users\NIGHDR~1\AppData\Local\Temp\ccfE2IUB.s 			page 27


 1180              	.LVL255:
 304:fe.c          ****     int64_t h6 = load_3(s + 20) << 7;
 1181              		.loc 1 304 0
 1182 0074 2300     		movs	r3, r4
 1183 0076 1433     		adds	r3, r3, #20
 1184 0078 1800     		movs	r0, r3
 1185              	.LVL256:
 1186 007a FFF7FEFF 		bl	load_3
 1187              	.LVL257:
 1188 007e 430E     		lsrs	r3, r0, #25
 1189 0080 C901     		lsls	r1, r1, #7
 1190 0082 C501     		lsls	r5, r0, #7
 1191 0084 0895     		str	r5, [sp, #32]
 1192 0086 0B43     		orrs	r3, r1
 1193 0088 0993     		str	r3, [sp, #36]
 1194              	.LVL258:
 305:fe.c          ****     int64_t h7 = load_3(s + 23) << 5;
 1195              		.loc 1 305 0
 1196 008a 2300     		movs	r3, r4
 1197 008c 1733     		adds	r3, r3, #23
 1198 008e 1800     		movs	r0, r3
 1199 0090 FFF7FEFF 		bl	load_3
 1200              	.LVL259:
 1201 0094 C30E     		lsrs	r3, r0, #27
 1202 0096 4901     		lsls	r1, r1, #5
 1203 0098 4501     		lsls	r5, r0, #5
 1204 009a 0A95     		str	r5, [sp, #40]
 1205 009c 0B43     		orrs	r3, r1
 1206 009e 0B93     		str	r3, [sp, #44]
 1207              	.LVL260:
 306:fe.c          ****     int64_t h8 = load_3(s + 26) << 4;
 1208              		.loc 1 306 0
 1209 00a0 2300     		movs	r3, r4
 1210 00a2 1A33     		adds	r3, r3, #26
 1211 00a4 1800     		movs	r0, r3
 1212 00a6 FFF7FEFF 		bl	load_3
 1213              	.LVL261:
 1214 00aa 030F     		lsrs	r3, r0, #28
 1215 00ac 0901     		lsls	r1, r1, #4
 1216 00ae 0501     		lsls	r5, r0, #4
 1217 00b0 0C95     		str	r5, [sp, #48]
 1218 00b2 0B43     		orrs	r3, r1
 1219 00b4 0D93     		str	r3, [sp, #52]
 1220              	.LVL262:
 307:fe.c          ****     int64_t h9 = (load_3(s + 29) & 8388607) << 2;
 1221              		.loc 1 307 0
 1222 00b6 2300     		movs	r3, r4
 1223 00b8 1D33     		adds	r3, r3, #29
 1224 00ba 1800     		movs	r0, r3
 1225 00bc FFF7FEFF 		bl	load_3
 1226              	.LVL263:
 1227 00c0 8000     		lsls	r0, r0, #2
 1228 00c2 9D4B     		ldr	r3, .L10
 1229 00c4 0100     		movs	r1, r0
 1230 00c6 1940     		ands	r1, r3
 1231 00c8 0E00     		movs	r6, r1
 1232 00ca 0027     		movs	r7, #0
ARM GAS  C:\Users\NIGHDR~1\AppData\Local\Temp\ccfE2IUB.s 			page 28


 1233              	.LVL264:
 308:fe.c          ****     int64_t carry0;
 309:fe.c          ****     int64_t carry1;
 310:fe.c          ****     int64_t carry2;
 311:fe.c          ****     int64_t carry3;
 312:fe.c          ****     int64_t carry4;
 313:fe.c          ****     int64_t carry5;
 314:fe.c          ****     int64_t carry6;
 315:fe.c          ****     int64_t carry7;
 316:fe.c          ****     int64_t carry8;
 317:fe.c          ****     int64_t carry9;
 318:fe.c          **** 
 319:fe.c          ****     carry9 = (h9 + (int64_t) (1 << 24)) >> 25;
 1234              		.loc 1 319 0
 1235 00cc 0B00     		movs	r3, r1
 1236 00ce 3C00     		movs	r4, r7
 1237              	.LVL265:
 1238 00d0 8021     		movs	r1, #128
 1239 00d2 4904     		lsls	r1, r1, #17
 1240 00d4 0022     		movs	r2, #0
 1241 00d6 5B18     		adds	r3, r3, r1
 1242 00d8 5441     		adcs	r4, r4, r2
 1243 00da 1800     		movs	r0, r3
 1244 00dc E301     		lsls	r3, r4, #7
 1245 00de 9C46     		mov	ip, r3
 1246 00e0 420E     		lsrs	r2, r0, #25
 1247 00e2 6546     		mov	r5, ip
 1248 00e4 2A43     		orrs	r2, r5
 1249 00e6 6316     		asrs	r3, r4, #25
 1250              	.LVL266:
 320:fe.c          ****     h0 += carry9 * 19;
 1251              		.loc 1 320 0
 1252 00e8 510F     		lsrs	r1, r2, #29
 1253 00ea 8C46     		mov	ip, r1
 1254 00ec D900     		lsls	r1, r3, #3
 1255 00ee 6546     		mov	r5, ip
 1256 00f0 2943     		orrs	r1, r5
 1257 00f2 D000     		lsls	r0, r2, #3
 1258 00f4 8018     		adds	r0, r0, r2
 1259 00f6 5941     		adcs	r1, r1, r3
 1260 00f8 0018     		adds	r0, r0, r0
 1261 00fa 4941     		adcs	r1, r1, r1
 1262 00fc 8018     		adds	r0, r0, r2
 1263 00fe 5941     		adcs	r1, r1, r3
 1264 0100 0E9C     		ldr	r4, [sp, #56]
 1265 0102 0F9D     		ldr	r5, [sp, #60]
 1266 0104 2418     		adds	r4, r4, r0
 1267 0106 4D41     		adcs	r5, r5, r1
 1268 0108 0E94     		str	r4, [sp, #56]
 1269 010a 0F95     		str	r5, [sp, #60]
 1270              	.LVL267:
 321:fe.c          ****     h9 -= carry9 << 25;
 1271              		.loc 1 321 0
 1272 010c D109     		lsrs	r1, r2, #7
 1273 010e 8C46     		mov	ip, r1
 1274 0110 5906     		lsls	r1, r3, #25
 1275 0112 6546     		mov	r5, ip
ARM GAS  C:\Users\NIGHDR~1\AppData\Local\Temp\ccfE2IUB.s 			page 29


 1276 0114 2943     		orrs	r1, r5
 1277 0116 5006     		lsls	r0, r2, #25
 1278 0118 361A     		subs	r6, r6, r0
 1279 011a 8F41     		sbcs	r7, r7, r1
 1280              	.LVL268:
 1281 011c 1296     		str	r6, [sp, #72]
 1282 011e 1397     		str	r7, [sp, #76]
 1283              	.LVL269:
 322:fe.c          ****     carry1 = (h1 + (int64_t) (1 << 24)) >> 25;
 1284              		.loc 1 322 0
 1285 0120 009B     		ldr	r3, [sp]
 1286 0122 019C     		ldr	r4, [sp, #4]
 1287 0124 8021     		movs	r1, #128
 1288 0126 4904     		lsls	r1, r1, #17
 1289 0128 0022     		movs	r2, #0
 1290              	.LVL270:
 1291 012a 5B18     		adds	r3, r3, r1
 1292 012c 5441     		adcs	r4, r4, r2
 1293 012e 1800     		movs	r0, r3
 1294 0130 E601     		lsls	r6, r4, #7
 1295              	.LVL271:
 1296 0132 420E     		lsrs	r2, r0, #25
 1297 0134 3243     		orrs	r2, r6
 1298 0136 6316     		asrs	r3, r4, #25
 1299              	.LVL272:
 323:fe.c          ****     h2 += carry1;
 1300              		.loc 1 323 0
 1301 0138 029D     		ldr	r5, [sp, #8]
 1302 013a 039E     		ldr	r6, [sp, #12]
 1303 013c AD18     		adds	r5, r5, r2
 1304 013e 5E41     		adcs	r6, r6, r3
 1305 0140 0295     		str	r5, [sp, #8]
 1306 0142 0396     		str	r6, [sp, #12]
 1307              	.LVL273:
 324:fe.c          ****     h1 -= carry1 << 25;
 1308              		.loc 1 324 0
 1309 0144 D609     		lsrs	r6, r2, #7
 1310 0146 5906     		lsls	r1, r3, #25
 1311 0148 3143     		orrs	r1, r6
 1312 014a 5006     		lsls	r0, r2, #25
 1313 014c 009E     		ldr	r6, [sp]
 1314 014e 019F     		ldr	r7, [sp, #4]
 1315 0150 361A     		subs	r6, r6, r0
 1316 0152 8F41     		sbcs	r7, r7, r1
 1317 0154 1496     		str	r6, [sp, #80]
 1318 0156 1597     		str	r7, [sp, #84]
 1319              	.LVL274:
 325:fe.c          ****     carry3 = (h3 + (int64_t) (1 << 24)) >> 25;
 1320              		.loc 1 325 0
 1321 0158 049E     		ldr	r6, [sp, #16]
 1322 015a 059F     		ldr	r7, [sp, #20]
 1323              	.LVL275:
 1324 015c 3300     		movs	r3, r6
 1325 015e 3C00     		movs	r4, r7
 1326              	.LVL276:
 1327 0160 8021     		movs	r1, #128
 1328 0162 4904     		lsls	r1, r1, #17
ARM GAS  C:\Users\NIGHDR~1\AppData\Local\Temp\ccfE2IUB.s 			page 30


 1329 0164 0022     		movs	r2, #0
 1330              	.LVL277:
 1331 0166 5B18     		adds	r3, r3, r1
 1332 0168 5441     		adcs	r4, r4, r2
 1333 016a 1800     		movs	r0, r3
 1334 016c E201     		lsls	r2, r4, #7
 1335 016e 9446     		mov	ip, r2
 1336 0170 420E     		lsrs	r2, r0, #25
 1337 0172 6546     		mov	r5, ip
 1338              	.LVL278:
 1339 0174 2A43     		orrs	r2, r5
 1340 0176 6316     		asrs	r3, r4, #25
 1341              	.LVL279:
 326:fe.c          ****     h4 += carry3;
 1342              		.loc 1 326 0
 1343 0178 069C     		ldr	r4, [sp, #24]
 1344 017a 079D     		ldr	r5, [sp, #28]
 1345 017c A418     		adds	r4, r4, r2
 1346 017e 5D41     		adcs	r5, r5, r3
 1347 0180 0094     		str	r4, [sp]
 1348 0182 0195     		str	r5, [sp, #4]
 1349              	.LVL280:
 327:fe.c          ****     h3 -= carry3 << 25;
 1350              		.loc 1 327 0
 1351 0184 D109     		lsrs	r1, r2, #7
 1352 0186 8C46     		mov	ip, r1
 1353 0188 5906     		lsls	r1, r3, #25
 1354 018a 6546     		mov	r5, ip
 1355 018c 2943     		orrs	r1, r5
 1356 018e 5006     		lsls	r0, r2, #25
 1357 0190 3300     		movs	r3, r6
 1358 0192 3C00     		movs	r4, r7
 1359              	.LVL281:
 1360 0194 1B1A     		subs	r3, r3, r0
 1361 0196 8C41     		sbcs	r4, r4, r1
 1362 0198 1693     		str	r3, [sp, #88]
 1363 019a 1794     		str	r4, [sp, #92]
 1364              	.LVL282:
 328:fe.c          ****     carry5 = (h5 + (int64_t) (1 << 24)) >> 25;
 1365              		.loc 1 328 0
 1366 019c 109C     		ldr	r4, [sp, #64]
 1367 019e 119D     		ldr	r5, [sp, #68]
 1368 01a0 2200     		movs	r2, r4
 1369              	.LVL283:
 1370 01a2 2B00     		movs	r3, r5
 1371              	.LVL284:
 1372 01a4 8020     		movs	r0, #128
 1373 01a6 4004     		lsls	r0, r0, #17
 1374 01a8 0021     		movs	r1, #0
 1375 01aa 1218     		adds	r2, r2, r0
 1376 01ac 4B41     		adcs	r3, r3, r1
 1377 01ae 1000     		movs	r0, r2
 1378 01b0 1900     		movs	r1, r3
 1379 01b2 DA01     		lsls	r2, r3, #7
 1380 01b4 9446     		mov	ip, r2
 1381 01b6 420E     		lsrs	r2, r0, #25
 1382 01b8 6746     		mov	r7, ip
ARM GAS  C:\Users\NIGHDR~1\AppData\Local\Temp\ccfE2IUB.s 			page 31


 1383 01ba 3A43     		orrs	r2, r7
 1384 01bc 4B16     		asrs	r3, r1, #25
 1385              	.LVL285:
 329:fe.c          ****     h6 += carry5;
 1386              		.loc 1 329 0
 1387 01be 0898     		ldr	r0, [sp, #32]
 1388 01c0 0999     		ldr	r1, [sp, #36]
 1389 01c2 8018     		adds	r0, r0, r2
 1390 01c4 5941     		adcs	r1, r1, r3
 1391 01c6 0490     		str	r0, [sp, #16]
 1392 01c8 0591     		str	r1, [sp, #20]
 1393              	.LVL286:
 330:fe.c          ****     h5 -= carry5 << 25;
 1394              		.loc 1 330 0
 1395 01ca D709     		lsrs	r7, r2, #7
 1396 01cc 5906     		lsls	r1, r3, #25
 1397 01ce 3943     		orrs	r1, r7
 1398 01d0 5006     		lsls	r0, r2, #25
 1399              	.LVL287:
 1400 01d2 2200     		movs	r2, r4
 1401              	.LVL288:
 1402 01d4 2B00     		movs	r3, r5
 1403 01d6 121A     		subs	r2, r2, r0
 1404 01d8 8B41     		sbcs	r3, r3, r1
 1405 01da 0892     		str	r2, [sp, #32]
 1406 01dc 0993     		str	r3, [sp, #36]
 1407              	.LVL289:
 331:fe.c          ****     carry7 = (h7 + (int64_t) (1 << 24)) >> 25;
 1408              		.loc 1 331 0
 1409 01de 0A9E     		ldr	r6, [sp, #40]
 1410 01e0 0B9F     		ldr	r7, [sp, #44]
 1411 01e2 3100     		movs	r1, r6
 1412 01e4 3A00     		movs	r2, r7
 1413              	.LVL290:
 1414 01e6 8024     		movs	r4, #128
 1415 01e8 6404     		lsls	r4, r4, #17
 1416 01ea 0025     		movs	r5, #0
 1417 01ec 6418     		adds	r4, r4, r1
 1418 01ee 5541     		adcs	r5, r5, r2
 1419 01f0 E901     		lsls	r1, r5, #7
 1420 01f2 620E     		lsrs	r2, r4, #25
 1421 01f4 0A43     		orrs	r2, r1
 1422 01f6 6B16     		asrs	r3, r5, #25
 1423              	.LVL291:
 332:fe.c          ****     h8 += carry7;
 1424              		.loc 1 332 0
 1425 01f8 0C9C     		ldr	r4, [sp, #48]
 1426 01fa 0D9D     		ldr	r5, [sp, #52]
 1427 01fc A418     		adds	r4, r4, r2
 1428 01fe 5D41     		adcs	r5, r5, r3
 1429 0200 0694     		str	r4, [sp, #24]
 1430 0202 0795     		str	r5, [sp, #28]
 1431              	.LVL292:
 333:fe.c          ****     h7 -= carry7 << 25;
 1432              		.loc 1 333 0
 1433 0204 D409     		lsrs	r4, r2, #7
 1434              	.LVL293:
ARM GAS  C:\Users\NIGHDR~1\AppData\Local\Temp\ccfE2IUB.s 			page 32


 1435 0206 5906     		lsls	r1, r3, #25
 1436 0208 2143     		orrs	r1, r4
 1437 020a 5006     		lsls	r0, r2, #25
 1438 020c 3300     		movs	r3, r6
 1439 020e 3C00     		movs	r4, r7
 1440 0210 1B1A     		subs	r3, r3, r0
 1441 0212 8C41     		sbcs	r4, r4, r1
 1442 0214 0A93     		str	r3, [sp, #40]
 1443 0216 0B94     		str	r4, [sp, #44]
 1444              	.LVL294:
 334:fe.c          ****     carry0 = (h0 + (int64_t) (1 << 25)) >> 26;
 1445              		.loc 1 334 0
 1446 0218 8024     		movs	r4, #128
 1447 021a A404     		lsls	r4, r4, #18
 1448 021c 0025     		movs	r5, #0
 1449 021e 0E98     		ldr	r0, [sp, #56]
 1450 0220 0F99     		ldr	r1, [sp, #60]
 1451 0222 0019     		adds	r0, r0, r4
 1452 0224 6941     		adcs	r1, r1, r5
 1453 0226 8F01     		lsls	r7, r1, #6
 1454 0228 820E     		lsrs	r2, r0, #26
 1455              	.LVL295:
 1456 022a 3A43     		orrs	r2, r7
 1457 022c 8B16     		asrs	r3, r1, #26
 1458              	.LVL296:
 335:fe.c          ****     h1 += carry0;
 1459              		.loc 1 335 0
 1460 022e 149E     		ldr	r6, [sp, #80]
 1461 0230 159F     		ldr	r7, [sp, #84]
 1462 0232 B618     		adds	r6, r6, r2
 1463 0234 5F41     		adcs	r7, r7, r3
 1464 0236 0C96     		str	r6, [sp, #48]
 1465 0238 0D97     		str	r7, [sp, #52]
 1466              	.LVL297:
 336:fe.c          ****     h0 -= carry0 << 26;
 1467              		.loc 1 336 0
 1468 023a 9609     		lsrs	r6, r2, #6
 1469              	.LVL298:
 1470 023c 9906     		lsls	r1, r3, #26
 1471 023e 3143     		orrs	r1, r6
 1472 0240 9006     		lsls	r0, r2, #26
 1473 0242 0E9A     		ldr	r2, [sp, #56]
 1474 0244 0F9B     		ldr	r3, [sp, #60]
 1475              	.LVL299:
 1476 0246 121A     		subs	r2, r2, r0
 1477 0248 8B41     		sbcs	r3, r3, r1
 1478 024a 0E92     		str	r2, [sp, #56]
 1479 024c 0F93     		str	r3, [sp, #60]
 1480              	.LVL300:
 337:fe.c          ****     carry2 = (h2 + (int64_t) (1 << 25)) >> 26;
 1481              		.loc 1 337 0
 1482 024e 0298     		ldr	r0, [sp, #8]
 1483 0250 0399     		ldr	r1, [sp, #12]
 1484 0252 0019     		adds	r0, r0, r4
 1485 0254 6941     		adcs	r1, r1, r5
 1486 0256 8E01     		lsls	r6, r1, #6
 1487 0258 820E     		lsrs	r2, r0, #26
ARM GAS  C:\Users\NIGHDR~1\AppData\Local\Temp\ccfE2IUB.s 			page 33


 1488              	.LVL301:
 1489 025a 3243     		orrs	r2, r6
 1490 025c 8B16     		asrs	r3, r1, #26
 1491              	.LVL302:
 338:fe.c          ****     h3 += carry2;
 1492              		.loc 1 338 0
 1493 025e 169E     		ldr	r6, [sp, #88]
 1494 0260 179F     		ldr	r7, [sp, #92]
 1495 0262 B618     		adds	r6, r6, r2
 1496 0264 5F41     		adcs	r7, r7, r3
 1497 0266 1096     		str	r6, [sp, #64]
 1498 0268 1197     		str	r7, [sp, #68]
 1499              	.LVL303:
 339:fe.c          ****     h2 -= carry2 << 26;
 1500              		.loc 1 339 0
 1501 026a 9609     		lsrs	r6, r2, #6
 1502              	.LVL304:
 1503 026c 9906     		lsls	r1, r3, #26
 1504 026e 3143     		orrs	r1, r6
 1505 0270 9006     		lsls	r0, r2, #26
 1506 0272 029E     		ldr	r6, [sp, #8]
 1507 0274 039F     		ldr	r7, [sp, #12]
 1508 0276 361A     		subs	r6, r6, r0
 1509 0278 8F41     		sbcs	r7, r7, r1
 1510 027a 0296     		str	r6, [sp, #8]
 1511 027c 0397     		str	r7, [sp, #12]
 1512              	.LVL305:
 340:fe.c          ****     carry4 = (h4 + (int64_t) (1 << 25)) >> 26;
 1513              		.loc 1 340 0
 1514 027e 0098     		ldr	r0, [sp]
 1515 0280 0199     		ldr	r1, [sp, #4]
 1516 0282 0019     		adds	r0, r0, r4
 1517 0284 6941     		adcs	r1, r1, r5
 1518 0286 8E01     		lsls	r6, r1, #6
 1519              	.LVL306:
 1520 0288 820E     		lsrs	r2, r0, #26
 1521              	.LVL307:
 1522 028a 3243     		orrs	r2, r6
 1523 028c 8B16     		asrs	r3, r1, #26
 1524              	.LVL308:
 341:fe.c          ****     h5 += carry4;
 1525              		.loc 1 341 0
 1526 028e 0898     		ldr	r0, [sp, #32]
 1527 0290 0999     		ldr	r1, [sp, #36]
 1528 0292 8018     		adds	r0, r0, r2
 1529 0294 5941     		adcs	r1, r1, r3
 1530 0296 0890     		str	r0, [sp, #32]
 1531 0298 0991     		str	r1, [sp, #36]
 1532              	.LVL309:
 342:fe.c          ****     h4 -= carry4 << 26;
 1533              		.loc 1 342 0
 1534 029a 9609     		lsrs	r6, r2, #6
 1535 029c 9906     		lsls	r1, r3, #26
 1536 029e 3143     		orrs	r1, r6
 1537 02a0 9006     		lsls	r0, r2, #26
 1538              	.LVL310:
 1539 02a2 009A     		ldr	r2, [sp]
ARM GAS  C:\Users\NIGHDR~1\AppData\Local\Temp\ccfE2IUB.s 			page 34


 1540 02a4 019B     		ldr	r3, [sp, #4]
 1541              	.LVL311:
 1542 02a6 121A     		subs	r2, r2, r0
 1543 02a8 8B41     		sbcs	r3, r3, r1
 1544 02aa 0092     		str	r2, [sp]
 1545 02ac 0193     		str	r3, [sp, #4]
 1546              	.LVL312:
 343:fe.c          ****     carry6 = (h6 + (int64_t) (1 << 25)) >> 26;
 1547              		.loc 1 343 0
 1548 02ae 0499     		ldr	r1, [sp, #16]
 1549 02b0 059A     		ldr	r2, [sp, #20]
 1550 02b2 0919     		adds	r1, r1, r4
 1551 02b4 6A41     		adcs	r2, r2, r5
 1552 02b6 0800     		movs	r0, r1
 1553 02b8 1100     		movs	r1, r2
 1554 02ba 9601     		lsls	r6, r2, #6
 1555 02bc 820E     		lsrs	r2, r0, #26
 1556              	.LVL313:
 1557 02be 3243     		orrs	r2, r6
 1558 02c0 8B16     		asrs	r3, r1, #26
 1559              	.LVL314:
 344:fe.c          ****     h7 += carry6;
 1560              		.loc 1 344 0
 1561 02c2 0A98     		ldr	r0, [sp, #40]
 1562 02c4 0B99     		ldr	r1, [sp, #44]
 1563 02c6 8018     		adds	r0, r0, r2
 1564 02c8 5941     		adcs	r1, r1, r3
 1565 02ca 0A90     		str	r0, [sp, #40]
 1566 02cc 0B91     		str	r1, [sp, #44]
 1567              	.LVL315:
 345:fe.c          ****     h6 -= carry6 << 26;
 1568              		.loc 1 345 0
 1569 02ce 9609     		lsrs	r6, r2, #6
 1570 02d0 9906     		lsls	r1, r3, #26
 1571 02d2 3143     		orrs	r1, r6
 1572 02d4 9006     		lsls	r0, r2, #26
 1573              	.LVL316:
 1574 02d6 049E     		ldr	r6, [sp, #16]
 1575 02d8 059F     		ldr	r7, [sp, #20]
 1576 02da 361A     		subs	r6, r6, r0
 1577 02dc 8F41     		sbcs	r7, r7, r1
 1578              	.LVL317:
 346:fe.c          ****     carry8 = (h8 + (int64_t) (1 << 25)) >> 26;
 1579              		.loc 1 346 0
 1580 02de 0699     		ldr	r1, [sp, #24]
 1581 02e0 079A     		ldr	r2, [sp, #28]
 1582 02e2 0919     		adds	r1, r1, r4
 1583 02e4 6A41     		adcs	r2, r2, r5
 1584 02e6 0800     		movs	r0, r1
 1585 02e8 1100     		movs	r1, r2
 1586 02ea 9401     		lsls	r4, r2, #6
 1587 02ec 820E     		lsrs	r2, r0, #26
 1588              	.LVL318:
 1589 02ee 2243     		orrs	r2, r4
 1590 02f0 8B16     		asrs	r3, r1, #26
 1591              	.LVL319:
 347:fe.c          ****     h9 += carry8;
ARM GAS  C:\Users\NIGHDR~1\AppData\Local\Temp\ccfE2IUB.s 			page 35


 1592              		.loc 1 347 0
 1593 02f2 129C     		ldr	r4, [sp, #72]
 1594 02f4 139D     		ldr	r5, [sp, #76]
 1595 02f6 A418     		adds	r4, r4, r2
 1596 02f8 5D41     		adcs	r5, r5, r3
 1597              	.LVL320:
 348:fe.c          ****     h8 -= carry8 << 26;
 1598              		.loc 1 348 0
 1599 02fa 9509     		lsrs	r5, r2, #6
 1600 02fc 9906     		lsls	r1, r3, #26
 1601 02fe 2943     		orrs	r1, r5
 1602 0300 9006     		lsls	r0, r2, #26
 1603 0302 069A     		ldr	r2, [sp, #24]
 1604 0304 079B     		ldr	r3, [sp, #28]
 1605              	.LVL321:
 1606 0306 121A     		subs	r2, r2, r0
 1607 0308 8B41     		sbcs	r3, r3, r1
 1608              	.LVL322:
 349:fe.c          **** 
 350:fe.c          ****     h[0] = (int32_t) h0;
 1609              		.loc 1 350 0
 1610 030a 4146     		mov	r1, r8
 1611 030c 0E98     		ldr	r0, [sp, #56]
 1612 030e 0860     		str	r0, [r1]
 351:fe.c          ****     h[1] = (int32_t) h1;
 1613              		.loc 1 351 0
 1614 0310 0C98     		ldr	r0, [sp, #48]
 1615 0312 4860     		str	r0, [r1, #4]
 352:fe.c          ****     h[2] = (int32_t) h2;
 1616              		.loc 1 352 0
 1617 0314 0298     		ldr	r0, [sp, #8]
 1618 0316 8860     		str	r0, [r1, #8]
 353:fe.c          ****     h[3] = (int32_t) h3;
 1619              		.loc 1 353 0
 1620 0318 1098     		ldr	r0, [sp, #64]
 1621 031a C860     		str	r0, [r1, #12]
 354:fe.c          ****     h[4] = (int32_t) h4;
 1622              		.loc 1 354 0
 1623 031c 0098     		ldr	r0, [sp]
 1624 031e 0861     		str	r0, [r1, #16]
 355:fe.c          ****     h[5] = (int32_t) h5;
 1625              		.loc 1 355 0
 1626 0320 0898     		ldr	r0, [sp, #32]
 1627 0322 4861     		str	r0, [r1, #20]
 356:fe.c          ****     h[6] = (int32_t) h6;
 1628              		.loc 1 356 0
 1629 0324 8E61     		str	r6, [r1, #24]
 357:fe.c          ****     h[7] = (int32_t) h7;
 1630              		.loc 1 357 0
 1631 0326 0A98     		ldr	r0, [sp, #40]
 1632 0328 C861     		str	r0, [r1, #28]
 358:fe.c          ****     h[8] = (int32_t) h8;
 1633              		.loc 1 358 0
 1634 032a 0A62     		str	r2, [r1, #32]
 359:fe.c          ****     h[9] = (int32_t) h9;
 1635              		.loc 1 359 0
 1636 032c 4C62     		str	r4, [r1, #36]
ARM GAS  C:\Users\NIGHDR~1\AppData\Local\Temp\ccfE2IUB.s 			page 36


 360:fe.c          **** }
 1637              		.loc 1 360 0
 1638 032e 18B0     		add	sp, sp, #96
 1639              	.LVL323:
 1640              		@ sp needed
 1641              	.LVL324:
 1642 0330 04BC     		pop	{r2}
 1643 0332 9046     		mov	r8, r2
 1644 0334 F0BD     		pop	{r4, r5, r6, r7, pc}
 1645              	.L11:
 1646 0336 C046     		.align	2
 1647              	.L10:
 1648 0338 FCFFFF01 		.word	33554428
 1649              		.cfi_endproc
 1650              	.LFE8:
 1651              		.size	fe_frombytes, .-fe_frombytes
 1652              		.global	__aeabi_lmul
 1653              		.section	.text.fe_mul,"ax",%progbits
 1654              		.align	2
 1655              		.global	fe_mul
 1656              		.code	16
 1657              		.thumb_func
 1658              		.type	fe_mul, %function
 1659              	fe_mul:
 1660              	.LFB12:
 361:fe.c          **** 
 362:fe.c          **** 
 363:fe.c          **** 
 364:fe.c          **** void fe_invert(fe out, const fe z) {
 365:fe.c          ****     fe t0;
 366:fe.c          ****     fe t1;
 367:fe.c          ****     fe t2;
 368:fe.c          ****     fe t3;
 369:fe.c          ****     int i;
 370:fe.c          **** 
 371:fe.c          ****     fe_sq(t0, z);
 372:fe.c          **** 
 373:fe.c          ****     for (i = 1; i < 1; ++i) {
 374:fe.c          ****         fe_sq(t0, t0);
 375:fe.c          ****     }
 376:fe.c          **** 
 377:fe.c          ****     fe_sq(t1, t0);
 378:fe.c          **** 
 379:fe.c          ****     for (i = 1; i < 2; ++i) {
 380:fe.c          ****         fe_sq(t1, t1);
 381:fe.c          ****     }
 382:fe.c          **** 
 383:fe.c          ****     fe_mul(t1, z, t1);
 384:fe.c          ****     fe_mul(t0, t0, t1);
 385:fe.c          ****     fe_sq(t2, t0);
 386:fe.c          **** 
 387:fe.c          ****     for (i = 1; i < 1; ++i) {
 388:fe.c          ****         fe_sq(t2, t2);
 389:fe.c          ****     }
 390:fe.c          **** 
 391:fe.c          ****     fe_mul(t1, t1, t2);
 392:fe.c          ****     fe_sq(t2, t1);
ARM GAS  C:\Users\NIGHDR~1\AppData\Local\Temp\ccfE2IUB.s 			page 37


 393:fe.c          **** 
 394:fe.c          ****     for (i = 1; i < 5; ++i) {
 395:fe.c          ****         fe_sq(t2, t2);
 396:fe.c          ****     }
 397:fe.c          **** 
 398:fe.c          ****     fe_mul(t1, t2, t1);
 399:fe.c          ****     fe_sq(t2, t1);
 400:fe.c          **** 
 401:fe.c          ****     for (i = 1; i < 10; ++i) {
 402:fe.c          ****         fe_sq(t2, t2);
 403:fe.c          ****     }
 404:fe.c          **** 
 405:fe.c          ****     fe_mul(t2, t2, t1);
 406:fe.c          ****     fe_sq(t3, t2);
 407:fe.c          **** 
 408:fe.c          ****     for (i = 1; i < 20; ++i) {
 409:fe.c          ****         fe_sq(t3, t3);
 410:fe.c          ****     }
 411:fe.c          **** 
 412:fe.c          ****     fe_mul(t2, t3, t2);
 413:fe.c          ****     fe_sq(t2, t2);
 414:fe.c          **** 
 415:fe.c          ****     for (i = 1; i < 10; ++i) {
 416:fe.c          ****         fe_sq(t2, t2);
 417:fe.c          ****     }
 418:fe.c          **** 
 419:fe.c          ****     fe_mul(t1, t2, t1);
 420:fe.c          ****     fe_sq(t2, t1);
 421:fe.c          **** 
 422:fe.c          ****     for (i = 1; i < 50; ++i) {
 423:fe.c          ****         fe_sq(t2, t2);
 424:fe.c          ****     }
 425:fe.c          **** 
 426:fe.c          ****     fe_mul(t2, t2, t1);
 427:fe.c          ****     fe_sq(t3, t2);
 428:fe.c          **** 
 429:fe.c          ****     for (i = 1; i < 100; ++i) {
 430:fe.c          ****         fe_sq(t3, t3);
 431:fe.c          ****     }
 432:fe.c          **** 
 433:fe.c          ****     fe_mul(t2, t3, t2);
 434:fe.c          ****     fe_sq(t2, t2);
 435:fe.c          **** 
 436:fe.c          ****     for (i = 1; i < 50; ++i) {
 437:fe.c          ****         fe_sq(t2, t2);
 438:fe.c          ****     }
 439:fe.c          **** 
 440:fe.c          ****     fe_mul(t1, t2, t1);
 441:fe.c          ****     fe_sq(t1, t1);
 442:fe.c          **** 
 443:fe.c          ****     for (i = 1; i < 5; ++i) {
 444:fe.c          ****         fe_sq(t1, t1);
 445:fe.c          ****     }
 446:fe.c          **** 
 447:fe.c          ****     fe_mul(out, t1, t0);
 448:fe.c          **** }
 449:fe.c          **** 
ARM GAS  C:\Users\NIGHDR~1\AppData\Local\Temp\ccfE2IUB.s 			page 38


 450:fe.c          **** 
 451:fe.c          **** 
 452:fe.c          **** /*
 453:fe.c          ****     return 1 if f is in {1,3,5,...,q-2}
 454:fe.c          ****     return 0 if f is in {0,2,4,...,q-1}
 455:fe.c          **** 
 456:fe.c          ****     Preconditions:
 457:fe.c          ****        |f| bounded by 1.1*2^26,1.1*2^25,1.1*2^26,1.1*2^25,etc.
 458:fe.c          **** */
 459:fe.c          **** 
 460:fe.c          **** int fe_isnegative(const fe f) {
 461:fe.c          ****     unsigned char s[32];
 462:fe.c          **** 
 463:fe.c          ****     fe_tobytes(s, f);
 464:fe.c          ****     
 465:fe.c          ****     return s[0] & 1;
 466:fe.c          **** }
 467:fe.c          **** 
 468:fe.c          **** 
 469:fe.c          **** 
 470:fe.c          **** /*
 471:fe.c          ****     return 1 if f == 0
 472:fe.c          ****     return 0 if f != 0
 473:fe.c          **** 
 474:fe.c          ****     Preconditions:
 475:fe.c          ****        |f| bounded by 1.1*2^26,1.1*2^25,1.1*2^26,1.1*2^25,etc.
 476:fe.c          **** */
 477:fe.c          **** 
 478:fe.c          **** int fe_isnonzero(const fe f) {
 479:fe.c          ****     unsigned char s[32];
 480:fe.c          ****     unsigned char r;
 481:fe.c          **** 
 482:fe.c          ****     fe_tobytes(s, f);
 483:fe.c          **** 
 484:fe.c          ****     r = s[0];
 485:fe.c          ****     #define F(i) r |= s[i]
 486:fe.c          ****     F(1);
 487:fe.c          ****     F(2);
 488:fe.c          ****     F(3);
 489:fe.c          ****     F(4);
 490:fe.c          ****     F(5);
 491:fe.c          ****     F(6);
 492:fe.c          ****     F(7);
 493:fe.c          ****     F(8);
 494:fe.c          ****     F(9);
 495:fe.c          ****     F(10);
 496:fe.c          ****     F(11);
 497:fe.c          ****     F(12);
 498:fe.c          ****     F(13);
 499:fe.c          ****     F(14);
 500:fe.c          ****     F(15);
 501:fe.c          ****     F(16);
 502:fe.c          ****     F(17);
 503:fe.c          ****     F(18);
 504:fe.c          ****     F(19);
 505:fe.c          ****     F(20);
 506:fe.c          ****     F(21);
ARM GAS  C:\Users\NIGHDR~1\AppData\Local\Temp\ccfE2IUB.s 			page 39


 507:fe.c          ****     F(22);
 508:fe.c          ****     F(23);
 509:fe.c          ****     F(24);
 510:fe.c          ****     F(25);
 511:fe.c          ****     F(26);
 512:fe.c          ****     F(27);
 513:fe.c          ****     F(28);
 514:fe.c          ****     F(29);
 515:fe.c          ****     F(30);
 516:fe.c          ****     F(31);
 517:fe.c          ****     #undef F
 518:fe.c          **** 
 519:fe.c          ****     return r != 0;
 520:fe.c          **** }
 521:fe.c          **** 
 522:fe.c          **** 
 523:fe.c          **** 
 524:fe.c          **** /*
 525:fe.c          ****     h = f * g
 526:fe.c          ****     Can overlap h with f or g.
 527:fe.c          **** 
 528:fe.c          ****     Preconditions:
 529:fe.c          ****        |f| bounded by 1.65*2^26,1.65*2^25,1.65*2^26,1.65*2^25,etc.
 530:fe.c          ****        |g| bounded by 1.65*2^26,1.65*2^25,1.65*2^26,1.65*2^25,etc.
 531:fe.c          **** 
 532:fe.c          ****     Postconditions:
 533:fe.c          ****        |h| bounded by 1.01*2^25,1.01*2^24,1.01*2^25,1.01*2^24,etc.
 534:fe.c          ****     */
 535:fe.c          **** 
 536:fe.c          ****     /*
 537:fe.c          ****     Notes on implementation strategy:
 538:fe.c          **** 
 539:fe.c          ****     Using schoolbook multiplication.
 540:fe.c          ****     Karatsuba would save a little in some cost models.
 541:fe.c          **** 
 542:fe.c          ****     Most multiplications by 2 and 19 are 32-bit precomputations;
 543:fe.c          ****     cheaper than 64-bit postcomputations.
 544:fe.c          **** 
 545:fe.c          ****     There is one remaining multiplication by 19 in the carry chain;
 546:fe.c          ****     one *19 precomputation can be merged into this,
 547:fe.c          ****     but the resulting data flow is considerably less clean.
 548:fe.c          **** 
 549:fe.c          ****     There are 12 carries below.
 550:fe.c          ****     10 of them are 2-way parallelizable and vectorizable.
 551:fe.c          ****     Can get away with 11 carries, but then data flow is much deeper.
 552:fe.c          **** 
 553:fe.c          ****     With tighter constraints on inputs can squeeze carries into int32.
 554:fe.c          **** */
 555:fe.c          **** 
 556:fe.c          **** void fe_mul(fe h, const fe f, const fe g) {
 1661              		.loc 1 556 0
 1662              		.cfi_startproc
 1663              		@ args = 0, pretend = 0, frame = 856
 1664              		@ frame_needed = 0, uses_anonymous_args = 0
 1665              	.LVL325:
 1666 0000 F0B5     		push	{r4, r5, r6, r7, lr}
 1667              		.cfi_def_cfa_offset 20
ARM GAS  C:\Users\NIGHDR~1\AppData\Local\Temp\ccfE2IUB.s 			page 40


 1668              		.cfi_offset 4, -20
 1669              		.cfi_offset 5, -16
 1670              		.cfi_offset 6, -12
 1671              		.cfi_offset 7, -8
 1672              		.cfi_offset 14, -4
 1673 0002 5F46     		mov	r7, fp
 1674 0004 5646     		mov	r6, r10
 1675 0006 4D46     		mov	r5, r9
 1676 0008 4446     		mov	r4, r8
 1677 000a F0B4     		push	{r4, r5, r6, r7}
 1678              		.cfi_def_cfa_offset 36
 1679              		.cfi_offset 8, -36
 1680              		.cfi_offset 9, -32
 1681              		.cfi_offset 10, -28
 1682              		.cfi_offset 11, -24
 1683 000c FE4C     		ldr	r4, .L13
 1684 000e A544     		add	sp, sp, r4
 1685              		.cfi_def_cfa_offset 896
 1686 0010 8046     		mov	r8, r0
 557:fe.c          ****     int32_t f0 = f[0];
 1687              		.loc 1 557 0
 1688 0012 0C68     		ldr	r4, [r1]
 1689              	.LVL326:
 558:fe.c          ****     int32_t f1 = f[1];
 1690              		.loc 1 558 0
 1691 0014 4B68     		ldr	r3, [r1, #4]
 1692 0016 1493     		str	r3, [sp, #80]
 1693              	.LVL327:
 559:fe.c          ****     int32_t f2 = f[2];
 1694              		.loc 1 559 0
 1695 0018 8B68     		ldr	r3, [r1, #8]
 1696              	.LVL328:
 1697 001a 0093     		str	r3, [sp]
 1698              	.LVL329:
 560:fe.c          ****     int32_t f3 = f[3];
 1699              		.loc 1 560 0
 1700 001c C868     		ldr	r0, [r1, #12]
 1701              	.LVL330:
 1702 001e 1690     		str	r0, [sp, #88]
 1703              	.LVL331:
 561:fe.c          ****     int32_t f4 = f[4];
 1704              		.loc 1 561 0
 1705 0020 0869     		ldr	r0, [r1, #16]
 1706              	.LVL332:
 1707 0022 0C90     		str	r0, [sp, #48]
 1708              	.LVL333:
 562:fe.c          ****     int32_t f5 = f[5];
 1709              		.loc 1 562 0
 1710 0024 4D69     		ldr	r5, [r1, #20]
 1711 0026 1895     		str	r5, [sp, #96]
 1712              	.LVL334:
 563:fe.c          ****     int32_t f6 = f[6];
 1713              		.loc 1 563 0
 1714 0028 8D69     		ldr	r5, [r1, #24]
 1715              	.LVL335:
 1716 002a 3A95     		str	r5, [sp, #232]
 1717              	.LVL336:
ARM GAS  C:\Users\NIGHDR~1\AppData\Local\Temp\ccfE2IUB.s 			page 41


 564:fe.c          ****     int32_t f7 = f[7];
 1718              		.loc 1 564 0
 1719 002c CE69     		ldr	r6, [r1, #28]
 1720 002e 2C96     		str	r6, [sp, #176]
 1721              	.LVL337:
 565:fe.c          ****     int32_t f8 = f[8];
 1722              		.loc 1 565 0
 1723 0030 0E6A     		ldr	r6, [r1, #32]
 1724              	.LVL338:
 1725 0032 3C96     		str	r6, [sp, #240]
 1726              	.LVL339:
 566:fe.c          ****     int32_t f9 = f[9];
 1727              		.loc 1 566 0
 1728 0034 496A     		ldr	r1, [r1, #36]
 1729              	.LVL340:
 1730 0036 3091     		str	r1, [sp, #192]
 1731              	.LVL341:
 567:fe.c          ****     int32_t g0 = g[0];
 1732              		.loc 1 567 0
 1733 0038 1168     		ldr	r1, [r2]
 1734              	.LVL342:
 568:fe.c          ****     int32_t g1 = g[1];
 1735              		.loc 1 568 0
 1736 003a 5768     		ldr	r7, [r2, #4]
 1737              	.LVL343:
 569:fe.c          ****     int32_t g2 = g[2];
 1738              		.loc 1 569 0
 1739 003c 9668     		ldr	r6, [r2, #8]
 1740              	.LVL344:
 570:fe.c          ****     int32_t g3 = g[3];
 1741              		.loc 1 570 0
 1742 003e D068     		ldr	r0, [r2, #12]
 1743              	.LVL345:
 571:fe.c          ****     int32_t g4 = g[4];
 1744              		.loc 1 571 0
 1745 0040 1369     		ldr	r3, [r2, #16]
 1746              	.LVL346:
 1747 0042 2E93     		str	r3, [sp, #184]
 1748              	.LVL347:
 572:fe.c          ****     int32_t g5 = g[5];
 1749              		.loc 1 572 0
 1750 0044 5569     		ldr	r5, [r2, #20]
 1751              	.LVL348:
 573:fe.c          ****     int32_t g6 = g[6];
 1752              		.loc 1 573 0
 1753 0046 9369     		ldr	r3, [r2, #24]
 1754              	.LVL349:
 1755 0048 1E93     		str	r3, [sp, #120]
 1756              	.LVL350:
 574:fe.c          ****     int32_t g7 = g[7];
 1757              		.loc 1 574 0
 1758 004a D369     		ldr	r3, [r2, #28]
 1759              	.LVL351:
 1760 004c 9946     		mov	r9, r3
 1761              	.LVL352:
 575:fe.c          ****     int32_t g8 = g[8];
 1762              		.loc 1 575 0
ARM GAS  C:\Users\NIGHDR~1\AppData\Local\Temp\ccfE2IUB.s 			page 42


 1763 004e 136A     		ldr	r3, [r2, #32]
 1764              	.LVL353:
 1765 0050 9A46     		mov	r10, r3
 1766              	.LVL354:
 576:fe.c          ****     int32_t g9 = g[9];
 1767              		.loc 1 576 0
 1768 0052 526A     		ldr	r2, [r2, #36]
 1769              	.LVL355:
 1770 0054 9346     		mov	fp, r2
 1771              	.LVL356:
 577:fe.c          ****     int32_t g1_19 = 19 * g1; /* 1.959375*2^29 */
 1772              		.loc 1 577 0
 1773 0056 FB00     		lsls	r3, r7, #3
 1774              	.LVL357:
 1775 0058 DB19     		adds	r3, r3, r7
 1776 005a 5B00     		lsls	r3, r3, #1
 1777 005c DA19     		adds	r2, r3, r7
 1778              	.LVL358:
 1779 005e 3F92     		str	r2, [sp, #252]
 1780              	.LVL359:
 578:fe.c          ****     int32_t g2_19 = 19 * g2; /* 1.959375*2^30; still ok */
 1781              		.loc 1 578 0
 1782 0060 F300     		lsls	r3, r6, #3
 1783 0062 9B19     		adds	r3, r3, r6
 1784 0064 5B00     		lsls	r3, r3, #1
 1785 0066 9A19     		adds	r2, r3, r6
 1786              	.LVL360:
 1787 0068 4092     		str	r2, [sp, #256]
 1788              	.LVL361:
 579:fe.c          ****     int32_t g3_19 = 19 * g3;
 1789              		.loc 1 579 0
 1790 006a C300     		lsls	r3, r0, #3
 1791 006c 8446     		mov	ip, r0
 1792 006e 6344     		add	r3, r3, ip
 1793 0070 5B00     		lsls	r3, r3, #1
 1794 0072 0E90     		str	r0, [sp, #56]
 1795 0074 6344     		add	r3, r3, ip
 1796 0076 3E93     		str	r3, [sp, #248]
 1797              	.LVL362:
 580:fe.c          ****     int32_t g4_19 = 19 * g4;
 1798              		.loc 1 580 0
 1799 0078 2E98     		ldr	r0, [sp, #184]
 1800              	.LVL363:
 1801 007a C300     		lsls	r3, r0, #3
 1802              	.LVL364:
 1803 007c 8446     		mov	ip, r0
 1804              	.LVL365:
 1805 007e 6344     		add	r3, r3, ip
 1806 0080 5B00     		lsls	r3, r3, #1
 1807 0082 6344     		add	r3, r3, ip
 1808 0084 3193     		str	r3, [sp, #196]
 1809              	.LVL366:
 581:fe.c          ****     int32_t g5_19 = 19 * g5;
 1810              		.loc 1 581 0
 1811 0086 EB00     		lsls	r3, r5, #3
 1812              	.LVL367:
 1813 0088 5B19     		adds	r3, r3, r5
ARM GAS  C:\Users\NIGHDR~1\AppData\Local\Temp\ccfE2IUB.s 			page 43


 1814 008a 5B00     		lsls	r3, r3, #1
 1815 008c 5819     		adds	r0, r3, r5
 1816 008e 2990     		str	r0, [sp, #164]
 1817              	.LVL368:
 582:fe.c          ****     int32_t g6_19 = 19 * g6;
 1818              		.loc 1 582 0
 1819 0090 1E98     		ldr	r0, [sp, #120]
 1820              	.LVL369:
 1821 0092 C300     		lsls	r3, r0, #3
 1822 0094 8446     		mov	ip, r0
 1823 0096 6344     		add	r3, r3, ip
 1824 0098 5B00     		lsls	r3, r3, #1
 1825 009a 6344     		add	r3, r3, ip
 1826 009c 1B93     		str	r3, [sp, #108]
 1827              	.LVL370:
 583:fe.c          ****     int32_t g7_19 = 19 * g7;
 1828              		.loc 1 583 0
 1829 009e 4846     		mov	r0, r9
 1830 00a0 C300     		lsls	r3, r0, #3
 1831              	.LVL371:
 1832 00a2 4B44     		add	r3, r3, r9
 1833 00a4 5B00     		lsls	r3, r3, #1
 1834 00a6 9C46     		mov	ip, r3
 1835 00a8 CC44     		add	ip, ip, r9
 1836 00aa 6046     		mov	r0, ip
 1837 00ac 1090     		str	r0, [sp, #64]
 1838              	.LVL372:
 584:fe.c          ****     int32_t g8_19 = 19 * g8;
 1839              		.loc 1 584 0
 1840 00ae 5046     		mov	r0, r10
 1841              	.LVL373:
 1842 00b0 C300     		lsls	r3, r0, #3
 1843 00b2 5344     		add	r3, r3, r10
 1844 00b4 5B00     		lsls	r3, r3, #1
 1845 00b6 9C46     		mov	ip, r3
 1846              	.LVL374:
 1847 00b8 D444     		add	ip, ip, r10
 1848 00ba 6046     		mov	r0, ip
 1849 00bc 0690     		str	r0, [sp, #24]
 1850              	.LVL375:
 585:fe.c          ****     int32_t g9_19 = 19 * g9;
 1851              		.loc 1 585 0
 1852 00be 5B46     		mov	r3, fp
 1853 00c0 DB00     		lsls	r3, r3, #3
 1854 00c2 5B44     		add	r3, r3, fp
 1855 00c4 5B00     		lsls	r3, r3, #1
 1856 00c6 9C46     		mov	ip, r3
 1857 00c8 DC44     		add	ip, ip, fp
 1858 00ca 6046     		mov	r0, ip
 1859              	.LVL376:
 1860 00cc 0890     		str	r0, [sp, #32]
 1861              	.LVL377:
 586:fe.c          ****     int32_t f1_2 = 2 * f1;
 1862              		.loc 1 586 0
 1863 00ce 149B     		ldr	r3, [sp, #80]
 1864 00d0 5B00     		lsls	r3, r3, #1
 1865 00d2 2093     		str	r3, [sp, #128]
ARM GAS  C:\Users\NIGHDR~1\AppData\Local\Temp\ccfE2IUB.s 			page 44


 1866              	.LVL378:
 587:fe.c          ****     int32_t f3_2 = 2 * f3;
 1867              		.loc 1 587 0
 1868 00d4 1698     		ldr	r0, [sp, #88]
 1869              	.LVL379:
 1870 00d6 4200     		lsls	r2, r0, #1
 1871              	.LVL380:
 1872 00d8 2292     		str	r2, [sp, #136]
 1873              	.LVL381:
 588:fe.c          ****     int32_t f5_2 = 2 * f5;
 1874              		.loc 1 588 0
 1875 00da 189A     		ldr	r2, [sp, #96]
 1876              	.LVL382:
 1877 00dc 5000     		lsls	r0, r2, #1
 1878 00de 2490     		str	r0, [sp, #144]
 1879              	.LVL383:
 589:fe.c          ****     int32_t f7_2 = 2 * f7;
 1880              		.loc 1 589 0
 1881 00e0 2C98     		ldr	r0, [sp, #176]
 1882              	.LVL384:
 1883 00e2 4200     		lsls	r2, r0, #1
 1884 00e4 2692     		str	r2, [sp, #152]
 1885              	.LVL385:
 590:fe.c          ****     int32_t f9_2 = 2 * f9;
 1886              		.loc 1 590 0
 1887 00e6 309A     		ldr	r2, [sp, #192]
 1888              	.LVL386:
 1889 00e8 5000     		lsls	r0, r2, #1
 1890 00ea 2890     		str	r0, [sp, #160]
 1891              	.LVL387:
 591:fe.c          ****     int64_t f0g0    = f0   * (int64_t) g0;
 1892              		.loc 1 591 0
 1893 00ec E017     		asrs	r0, r4, #31
 1894              	.LVL388:
 1895 00ee 0290     		str	r0, [sp, #8]
 1896 00f0 CB17     		asrs	r3, r1, #31
 1897              	.LVL389:
 1898 00f2 0491     		str	r1, [sp, #16]
 1899 00f4 0A00     		movs	r2, r1
 1900 00f6 0A93     		str	r3, [sp, #40]
 1901 00f8 2000     		movs	r0, r4
 1902 00fa 0299     		ldr	r1, [sp, #8]
 1903              	.LVL390:
 1904 00fc FFF7FEFF 		bl	__aeabi_lmul
 1905              	.LVL391:
 1906 0100 4290     		str	r0, [sp, #264]
 1907 0102 4391     		str	r1, [sp, #268]
 1908              	.LVL392:
 592:fe.c          ****     int64_t f0g1    = f0   * (int64_t) g1;
 1909              		.loc 1 592 0
 1910 0104 F917     		asrs	r1, r7, #31
 1911 0106 3A00     		movs	r2, r7
 1912 0108 1291     		str	r1, [sp, #72]
 1913 010a 0B00     		movs	r3, r1
 1914 010c 2000     		movs	r0, r4
 1915              	.LVL393:
 1916 010e 0299     		ldr	r1, [sp, #8]
ARM GAS  C:\Users\NIGHDR~1\AppData\Local\Temp\ccfE2IUB.s 			page 45


 1917 0110 FFF7FEFF 		bl	__aeabi_lmul
 1918              	.LVL394:
 1919 0114 4490     		str	r0, [sp, #272]
 1920 0116 4591     		str	r1, [sp, #276]
 1921              	.LVL395:
 593:fe.c          ****     int64_t f0g2    = f0   * (int64_t) g2;
 1922              		.loc 1 593 0
 1923 0118 F117     		asrs	r1, r6, #31
 1924 011a 3200     		movs	r2, r6
 1925 011c 1C91     		str	r1, [sp, #112]
 1926 011e 0B00     		movs	r3, r1
 1927 0120 2000     		movs	r0, r4
 1928              	.LVL396:
 1929 0122 0299     		ldr	r1, [sp, #8]
 1930 0124 FFF7FEFF 		bl	__aeabi_lmul
 1931              	.LVL397:
 1932 0128 4690     		str	r0, [sp, #280]
 1933 012a 4791     		str	r1, [sp, #284]
 1934              	.LVL398:
 594:fe.c          ****     int64_t f0g3    = f0   * (int64_t) g3;
 1935              		.loc 1 594 0
 1936 012c 0E9A     		ldr	r2, [sp, #56]
 1937 012e D117     		asrs	r1, r2, #31
 1938 0130 2A91     		str	r1, [sp, #168]
 1939 0132 0B00     		movs	r3, r1
 1940 0134 2000     		movs	r0, r4
 1941              	.LVL399:
 1942 0136 0299     		ldr	r1, [sp, #8]
 1943 0138 FFF7FEFF 		bl	__aeabi_lmul
 1944              	.LVL400:
 1945 013c 4890     		str	r0, [sp, #288]
 1946 013e 4991     		str	r1, [sp, #292]
 1947              	.LVL401:
 595:fe.c          ****     int64_t f0g4    = f0   * (int64_t) g4;
 1948              		.loc 1 595 0
 1949 0140 2E9A     		ldr	r2, [sp, #184]
 1950 0142 D117     		asrs	r1, r2, #31
 1951 0144 3291     		str	r1, [sp, #200]
 1952 0146 0B00     		movs	r3, r1
 1953 0148 2000     		movs	r0, r4
 1954              	.LVL402:
 1955 014a 0299     		ldr	r1, [sp, #8]
 1956 014c FFF7FEFF 		bl	__aeabi_lmul
 1957              	.LVL403:
 1958 0150 4A90     		str	r0, [sp, #296]
 1959 0152 4B91     		str	r1, [sp, #300]
 1960              	.LVL404:
 596:fe.c          ****     int64_t f0g5    = f0   * (int64_t) g5;
 1961              		.loc 1 596 0
 1962 0154 E917     		asrs	r1, r5, #31
 1963 0156 2A00     		movs	r2, r5
 1964 0158 3491     		str	r1, [sp, #208]
 1965 015a 0B00     		movs	r3, r1
 1966 015c 2000     		movs	r0, r4
 1967              	.LVL405:
 1968 015e 0299     		ldr	r1, [sp, #8]
 1969 0160 FFF7FEFF 		bl	__aeabi_lmul
ARM GAS  C:\Users\NIGHDR~1\AppData\Local\Temp\ccfE2IUB.s 			page 46


 1970              	.LVL406:
 1971 0164 4C90     		str	r0, [sp, #304]
 1972 0166 4D91     		str	r1, [sp, #308]
 1973              	.LVL407:
 597:fe.c          ****     int64_t f0g6    = f0   * (int64_t) g6;
 1974              		.loc 1 597 0
 1975 0168 1E99     		ldr	r1, [sp, #120]
 1976 016a C817     		asrs	r0, r1, #31
 1977              	.LVL408:
 1978 016c 0A00     		movs	r2, r1
 1979 016e 3690     		str	r0, [sp, #216]
 1980 0170 0300     		movs	r3, r0
 1981 0172 2000     		movs	r0, r4
 1982 0174 0299     		ldr	r1, [sp, #8]
 1983 0176 FFF7FEFF 		bl	__aeabi_lmul
 1984              	.LVL409:
 1985 017a 4E90     		str	r0, [sp, #312]
 1986 017c 4F91     		str	r1, [sp, #316]
 1987              	.LVL410:
 598:fe.c          ****     int64_t f0g7    = f0   * (int64_t) g7;
 1988              		.loc 1 598 0
 1989 017e 4946     		mov	r1, r9
 1990 0180 C917     		asrs	r1, r1, #31
 1991 0182 4A46     		mov	r2, r9
 1992 0184 3891     		str	r1, [sp, #224]
 1993 0186 0B00     		movs	r3, r1
 1994 0188 2000     		movs	r0, r4
 1995              	.LVL411:
 1996 018a 0299     		ldr	r1, [sp, #8]
 1997 018c FFF7FEFF 		bl	__aeabi_lmul
 1998              	.LVL412:
 1999 0190 5090     		str	r0, [sp, #320]
 2000 0192 5191     		str	r1, [sp, #324]
 2001              	.LVL413:
 599:fe.c          ****     int64_t f0g8    = f0   * (int64_t) g8;
 2002              		.loc 1 599 0
 2003 0194 5146     		mov	r1, r10
 2004 0196 C917     		asrs	r1, r1, #31
 2005 0198 5246     		mov	r2, r10
 2006 019a 5291     		str	r1, [sp, #328]
 2007 019c 0B00     		movs	r3, r1
 2008 019e 2000     		movs	r0, r4
 2009              	.LVL414:
 2010 01a0 0299     		ldr	r1, [sp, #8]
 2011 01a2 FFF7FEFF 		bl	__aeabi_lmul
 2012              	.LVL415:
 2013 01a6 5490     		str	r0, [sp, #336]
 2014 01a8 5591     		str	r1, [sp, #340]
 2015              	.LVL416:
 600:fe.c          ****     int64_t f0g9    = f0   * (int64_t) g9;
 2016              		.loc 1 600 0
 2017 01aa 5B46     		mov	r3, fp
 2018 01ac DB17     		asrs	r3, r3, #31
 2019 01ae 5A46     		mov	r2, fp
 2020 01b0 2000     		movs	r0, r4
 2021              	.LVL417:
 2022 01b2 0299     		ldr	r1, [sp, #8]
ARM GAS  C:\Users\NIGHDR~1\AppData\Local\Temp\ccfE2IUB.s 			page 47


 2023 01b4 FFF7FEFF 		bl	__aeabi_lmul
 2024              	.LVL418:
 2025 01b8 5690     		str	r0, [sp, #344]
 2026 01ba 5791     		str	r1, [sp, #348]
 2027              	.LVL419:
 601:fe.c          ****     int64_t f1g0    = f1   * (int64_t) g0;
 2028              		.loc 1 601 0
 2029 01bc 149C     		ldr	r4, [sp, #80]
 2030              	.LVL420:
 2031 01be E217     		asrs	r2, r4, #31
 2032 01c0 1100     		movs	r1, r2
 2033 01c2 2200     		movs	r2, r4
 2034 01c4 0291     		str	r1, [sp, #8]
 2035 01c6 0B00     		movs	r3, r1
 2036 01c8 0498     		ldr	r0, [sp, #16]
 2037              	.LVL421:
 2038 01ca 0A99     		ldr	r1, [sp, #40]
 2039 01cc FFF7FEFF 		bl	__aeabi_lmul
 2040              	.LVL422:
 2041 01d0 5890     		str	r0, [sp, #352]
 2042 01d2 5991     		str	r1, [sp, #356]
 2043              	.LVL423:
 602:fe.c          ****     int64_t f1g1_2  = f1_2 * (int64_t) g1;
 2044              		.loc 1 602 0
 2045 01d4 2099     		ldr	r1, [sp, #128]
 2046 01d6 CC17     		asrs	r4, r1, #31
 2047 01d8 0A00     		movs	r2, r1
 2048 01da 2300     		movs	r3, r4
 2049 01dc 3800     		movs	r0, r7
 2050              	.LVL424:
 2051 01de 1299     		ldr	r1, [sp, #72]
 2052 01e0 FFF7FEFF 		bl	__aeabi_lmul
 2053              	.LVL425:
 2054 01e4 5A90     		str	r0, [sp, #360]
 2055 01e6 5B91     		str	r1, [sp, #364]
 2056              	.LVL426:
 603:fe.c          ****     int64_t f1g2    = f1   * (int64_t) g2;
 2057              		.loc 1 603 0
 2058 01e8 149A     		ldr	r2, [sp, #80]
 2059 01ea 029B     		ldr	r3, [sp, #8]
 2060 01ec 3000     		movs	r0, r6
 2061              	.LVL427:
 2062 01ee 1C99     		ldr	r1, [sp, #112]
 2063 01f0 FFF7FEFF 		bl	__aeabi_lmul
 2064              	.LVL428:
 2065 01f4 5C90     		str	r0, [sp, #368]
 2066 01f6 5D91     		str	r1, [sp, #372]
 2067              	.LVL429:
 604:fe.c          ****     int64_t f1g3_2  = f1_2 * (int64_t) g3;
 2068              		.loc 1 604 0
 2069 01f8 209A     		ldr	r2, [sp, #128]
 2070 01fa 2300     		movs	r3, r4
 2071 01fc 0E98     		ldr	r0, [sp, #56]
 2072              	.LVL430:
 2073 01fe 2A99     		ldr	r1, [sp, #168]
 2074 0200 FFF7FEFF 		bl	__aeabi_lmul
 2075              	.LVL431:
ARM GAS  C:\Users\NIGHDR~1\AppData\Local\Temp\ccfE2IUB.s 			page 48


 2076 0204 5E90     		str	r0, [sp, #376]
 2077 0206 5F91     		str	r1, [sp, #380]
 2078              	.LVL432:
 605:fe.c          ****     int64_t f1g4    = f1   * (int64_t) g4;
 2079              		.loc 1 605 0
 2080 0208 149A     		ldr	r2, [sp, #80]
 2081 020a 029B     		ldr	r3, [sp, #8]
 2082 020c 2E99     		ldr	r1, [sp, #184]
 2083 020e 8B46     		mov	fp, r1
 2084              	.LVL433:
 2085 0210 0800     		movs	r0, r1
 2086              	.LVL434:
 2087 0212 3299     		ldr	r1, [sp, #200]
 2088 0214 FFF7FEFF 		bl	__aeabi_lmul
 2089              	.LVL435:
 2090 0218 2E90     		str	r0, [sp, #184]
 2091 021a 2F91     		str	r1, [sp, #188]
 2092              	.LVL436:
 606:fe.c          ****     int64_t f1g5_2  = f1_2 * (int64_t) g5;
 2093              		.loc 1 606 0
 2094 021c 209A     		ldr	r2, [sp, #128]
 2095 021e 2300     		movs	r3, r4
 2096 0220 2800     		movs	r0, r5
 2097              	.LVL437:
 2098 0222 3499     		ldr	r1, [sp, #208]
 2099 0224 FFF7FEFF 		bl	__aeabi_lmul
 2100              	.LVL438:
 2101 0228 6090     		str	r0, [sp, #384]
 2102 022a 6191     		str	r1, [sp, #388]
 2103              	.LVL439:
 607:fe.c          ****     int64_t f1g6    = f1   * (int64_t) g6;
 2104              		.loc 1 607 0
 2105 022c 149A     		ldr	r2, [sp, #80]
 2106 022e 029B     		ldr	r3, [sp, #8]
 2107 0230 1E98     		ldr	r0, [sp, #120]
 2108              	.LVL440:
 2109 0232 3699     		ldr	r1, [sp, #216]
 2110 0234 FFF7FEFF 		bl	__aeabi_lmul
 2111              	.LVL441:
 2112 0238 6290     		str	r0, [sp, #392]
 2113 023a 6391     		str	r1, [sp, #396]
 2114              	.LVL442:
 608:fe.c          ****     int64_t f1g7_2  = f1_2 * (int64_t) g7;
 2115              		.loc 1 608 0
 2116 023c 209A     		ldr	r2, [sp, #128]
 2117 023e 2300     		movs	r3, r4
 2118 0240 4846     		mov	r0, r9
 2119              	.LVL443:
 2120 0242 3899     		ldr	r1, [sp, #224]
 2121 0244 FFF7FEFF 		bl	__aeabi_lmul
 2122              	.LVL444:
 2123 0248 6490     		str	r0, [sp, #400]
 2124 024a 6591     		str	r1, [sp, #404]
 2125              	.LVL445:
 609:fe.c          ****     int64_t f1g8    = f1   * (int64_t) g8;
 2126              		.loc 1 609 0
 2127 024c 149A     		ldr	r2, [sp, #80]
ARM GAS  C:\Users\NIGHDR~1\AppData\Local\Temp\ccfE2IUB.s 			page 49


 2128 024e 029B     		ldr	r3, [sp, #8]
 2129 0250 5046     		mov	r0, r10
 2130              	.LVL446:
 2131 0252 5299     		ldr	r1, [sp, #328]
 2132 0254 FFF7FEFF 		bl	__aeabi_lmul
 2133              	.LVL447:
 2134 0258 5290     		str	r0, [sp, #328]
 2135 025a 5391     		str	r1, [sp, #332]
 2136              	.LVL448:
 610:fe.c          ****     int64_t f1g9_38 = f1_2 * (int64_t) g9_19;
 2137              		.loc 1 610 0
 2138 025c 089A     		ldr	r2, [sp, #32]
 2139 025e D117     		asrs	r1, r2, #31
 2140 0260 0291     		str	r1, [sp, #8]
 2141 0262 0B00     		movs	r3, r1
 2142 0264 2098     		ldr	r0, [sp, #128]
 2143              	.LVL449:
 2144 0266 2100     		movs	r1, r4
 2145 0268 FFF7FEFF 		bl	__aeabi_lmul
 2146              	.LVL450:
 2147 026c 2090     		str	r0, [sp, #128]
 2148 026e 2191     		str	r1, [sp, #132]
 2149              	.LVL451:
 611:fe.c          ****     int64_t f2g0    = f2   * (int64_t) g0;
 2150              		.loc 1 611 0
 2151 0270 009B     		ldr	r3, [sp]
 2152 0272 DC17     		asrs	r4, r3, #31
 2153 0274 1A00     		movs	r2, r3
 2154 0276 2300     		movs	r3, r4
 2155 0278 0498     		ldr	r0, [sp, #16]
 2156              	.LVL452:
 2157 027a 0A99     		ldr	r1, [sp, #40]
 2158 027c FFF7FEFF 		bl	__aeabi_lmul
 2159              	.LVL453:
 2160 0280 6690     		str	r0, [sp, #408]
 2161 0282 6791     		str	r1, [sp, #412]
 2162              	.LVL454:
 612:fe.c          ****     int64_t f2g1    = f2   * (int64_t) g1;
 2163              		.loc 1 612 0
 2164 0284 009A     		ldr	r2, [sp]
 2165 0286 2300     		movs	r3, r4
 2166 0288 3800     		movs	r0, r7
 2167              	.LVL455:
 2168 028a 1299     		ldr	r1, [sp, #72]
 2169 028c FFF7FEFF 		bl	__aeabi_lmul
 2170              	.LVL456:
 2171 0290 6890     		str	r0, [sp, #416]
 2172 0292 6991     		str	r1, [sp, #420]
 2173              	.LVL457:
 613:fe.c          ****     int64_t f2g2    = f2   * (int64_t) g2;
 2174              		.loc 1 613 0
 2175 0294 009A     		ldr	r2, [sp]
 2176 0296 2300     		movs	r3, r4
 2177 0298 3000     		movs	r0, r6
 2178              	.LVL458:
 2179 029a 1C99     		ldr	r1, [sp, #112]
 2180 029c FFF7FEFF 		bl	__aeabi_lmul
ARM GAS  C:\Users\NIGHDR~1\AppData\Local\Temp\ccfE2IUB.s 			page 50


 2181              	.LVL459:
 2182 02a0 6A90     		str	r0, [sp, #424]
 2183 02a2 6B91     		str	r1, [sp, #428]
 2184              	.LVL460:
 614:fe.c          ****     int64_t f2g3    = f2   * (int64_t) g3;
 2185              		.loc 1 614 0
 2186 02a4 009A     		ldr	r2, [sp]
 2187 02a6 2300     		movs	r3, r4
 2188 02a8 0E98     		ldr	r0, [sp, #56]
 2189              	.LVL461:
 2190 02aa 2A99     		ldr	r1, [sp, #168]
 2191 02ac FFF7FEFF 		bl	__aeabi_lmul
 2192              	.LVL462:
 2193 02b0 6C90     		str	r0, [sp, #432]
 2194 02b2 6D91     		str	r1, [sp, #436]
 2195              	.LVL463:
 615:fe.c          ****     int64_t f2g4    = f2   * (int64_t) g4;
 2196              		.loc 1 615 0
 2197 02b4 009A     		ldr	r2, [sp]
 2198 02b6 2300     		movs	r3, r4
 2199 02b8 DA46     		mov	r10, fp
 2200              	.LVL464:
 2201 02ba 5846     		mov	r0, fp
 2202              	.LVL465:
 2203 02bc 3299     		ldr	r1, [sp, #200]
 2204 02be FFF7FEFF 		bl	__aeabi_lmul
 2205              	.LVL466:
 2206 02c2 6E90     		str	r0, [sp, #440]
 2207 02c4 6F91     		str	r1, [sp, #444]
 2208              	.LVL467:
 616:fe.c          ****     int64_t f2g5    = f2   * (int64_t) g5;
 2209              		.loc 1 616 0
 2210 02c6 009A     		ldr	r2, [sp]
 2211 02c8 2300     		movs	r3, r4
 2212 02ca 2800     		movs	r0, r5
 2213              	.LVL468:
 2214 02cc 3499     		ldr	r1, [sp, #208]
 2215 02ce FFF7FEFF 		bl	__aeabi_lmul
 2216              	.LVL469:
 2217 02d2 7090     		str	r0, [sp, #448]
 2218 02d4 7191     		str	r1, [sp, #452]
 2219              	.LVL470:
 617:fe.c          ****     int64_t f2g6    = f2   * (int64_t) g6;
 2220              		.loc 1 617 0
 2221 02d6 009A     		ldr	r2, [sp]
 2222 02d8 2300     		movs	r3, r4
 2223 02da 1E99     		ldr	r1, [sp, #120]
 2224 02dc 8B46     		mov	fp, r1
 2225              	.LVL471:
 2226 02de 0800     		movs	r0, r1
 2227              	.LVL472:
 2228 02e0 3699     		ldr	r1, [sp, #216]
 2229 02e2 FFF7FEFF 		bl	__aeabi_lmul
 2230              	.LVL473:
 2231 02e6 7290     		str	r0, [sp, #456]
 2232 02e8 7391     		str	r1, [sp, #460]
 2233              	.LVL474:
ARM GAS  C:\Users\NIGHDR~1\AppData\Local\Temp\ccfE2IUB.s 			page 51


 618:fe.c          ****     int64_t f2g7    = f2   * (int64_t) g7;
 2234              		.loc 1 618 0
 2235 02ea 009A     		ldr	r2, [sp]
 2236 02ec 2300     		movs	r3, r4
 2237 02ee 4846     		mov	r0, r9
 2238              	.LVL475:
 2239 02f0 3899     		ldr	r1, [sp, #224]
 2240 02f2 FFF7FEFF 		bl	__aeabi_lmul
 2241              	.LVL476:
 2242 02f6 3890     		str	r0, [sp, #224]
 2243 02f8 3991     		str	r1, [sp, #228]
 2244              	.LVL477:
 619:fe.c          ****     int64_t f2g8_19 = f2   * (int64_t) g8_19;
 2245              		.loc 1 619 0
 2246 02fa 0699     		ldr	r1, [sp, #24]
 2247 02fc CB17     		asrs	r3, r1, #31
 2248 02fe 0A00     		movs	r2, r1
 2249 0300 1493     		str	r3, [sp, #80]
 2250              	.LVL478:
 2251 0302 0098     		ldr	r0, [sp]
 2252              	.LVL479:
 2253 0304 2100     		movs	r1, r4
 2254 0306 FFF7FEFF 		bl	__aeabi_lmul
 2255              	.LVL480:
 2256 030a 7490     		str	r0, [sp, #464]
 2257 030c 7591     		str	r1, [sp, #468]
 2258              	.LVL481:
 620:fe.c          ****     int64_t f2g9_19 = f2   * (int64_t) g9_19;
 2259              		.loc 1 620 0
 2260 030e 009A     		ldr	r2, [sp]
 2261 0310 2300     		movs	r3, r4
 2262 0312 0898     		ldr	r0, [sp, #32]
 2263              	.LVL482:
 2264 0314 0299     		ldr	r1, [sp, #8]
 2265 0316 FFF7FEFF 		bl	__aeabi_lmul
 2266              	.LVL483:
 2267 031a 7690     		str	r0, [sp, #472]
 2268 031c 7791     		str	r1, [sp, #476]
 2269              	.LVL484:
 621:fe.c          ****     int64_t f3g0    = f3   * (int64_t) g0;
 2270              		.loc 1 621 0
 2271 031e 169B     		ldr	r3, [sp, #88]
 2272 0320 DC17     		asrs	r4, r3, #31
 2273 0322 1A00     		movs	r2, r3
 2274 0324 1E94     		str	r4, [sp, #120]
 2275              	.LVL485:
 2276 0326 2300     		movs	r3, r4
 2277 0328 0498     		ldr	r0, [sp, #16]
 2278              	.LVL486:
 2279 032a 0A99     		ldr	r1, [sp, #40]
 2280 032c FFF7FEFF 		bl	__aeabi_lmul
 2281              	.LVL487:
 2282 0330 7890     		str	r0, [sp, #480]
 2283 0332 7991     		str	r1, [sp, #484]
 2284              	.LVL488:
 622:fe.c          ****     int64_t f3g1_2  = f3_2 * (int64_t) g1;
 2285              		.loc 1 622 0
ARM GAS  C:\Users\NIGHDR~1\AppData\Local\Temp\ccfE2IUB.s 			page 52


 2286 0334 2299     		ldr	r1, [sp, #136]
 2287 0336 CC17     		asrs	r4, r1, #31
 2288 0338 0A00     		movs	r2, r1
 2289 033a 2300     		movs	r3, r4
 2290 033c 3800     		movs	r0, r7
 2291              	.LVL489:
 2292 033e 1299     		ldr	r1, [sp, #72]
 2293 0340 FFF7FEFF 		bl	__aeabi_lmul
 2294              	.LVL490:
 2295 0344 7A90     		str	r0, [sp, #488]
 2296 0346 7B91     		str	r1, [sp, #492]
 2297              	.LVL491:
 623:fe.c          ****     int64_t f3g2    = f3   * (int64_t) g2;
 2298              		.loc 1 623 0
 2299 0348 169A     		ldr	r2, [sp, #88]
 2300 034a 1E9B     		ldr	r3, [sp, #120]
 2301 034c 3000     		movs	r0, r6
 2302              	.LVL492:
 2303 034e 1C99     		ldr	r1, [sp, #112]
 2304 0350 FFF7FEFF 		bl	__aeabi_lmul
 2305              	.LVL493:
 2306 0354 7C90     		str	r0, [sp, #496]
 2307 0356 7D91     		str	r1, [sp, #500]
 2308              	.LVL494:
 624:fe.c          ****     int64_t f3g3_2  = f3_2 * (int64_t) g3;
 2309              		.loc 1 624 0
 2310 0358 229A     		ldr	r2, [sp, #136]
 2311 035a 2300     		movs	r3, r4
 2312 035c 0E98     		ldr	r0, [sp, #56]
 2313              	.LVL495:
 2314 035e 2A99     		ldr	r1, [sp, #168]
 2315 0360 FFF7FEFF 		bl	__aeabi_lmul
 2316              	.LVL496:
 2317 0364 7E90     		str	r0, [sp, #504]
 2318 0366 7F91     		str	r1, [sp, #508]
 2319              	.LVL497:
 625:fe.c          ****     int64_t f3g4    = f3   * (int64_t) g4;
 2320              		.loc 1 625 0
 2321 0368 169A     		ldr	r2, [sp, #88]
 2322 036a 1E9B     		ldr	r3, [sp, #120]
 2323 036c 5046     		mov	r0, r10
 2324              	.LVL498:
 2325 036e 3299     		ldr	r1, [sp, #200]
 2326 0370 FFF7FEFF 		bl	__aeabi_lmul
 2327              	.LVL499:
 2328 0374 8090     		str	r0, [sp, #512]
 2329 0376 8191     		str	r1, [sp, #516]
 2330              	.LVL500:
 626:fe.c          ****     int64_t f3g5_2  = f3_2 * (int64_t) g5;
 2331              		.loc 1 626 0
 2332 0378 229A     		ldr	r2, [sp, #136]
 2333 037a 2300     		movs	r3, r4
 2334 037c 2800     		movs	r0, r5
 2335              	.LVL501:
 2336 037e 3499     		ldr	r1, [sp, #208]
 2337 0380 FFF7FEFF 		bl	__aeabi_lmul
 2338              	.LVL502:
ARM GAS  C:\Users\NIGHDR~1\AppData\Local\Temp\ccfE2IUB.s 			page 53


 2339 0384 8290     		str	r0, [sp, #520]
 2340 0386 8391     		str	r1, [sp, #524]
 2341              	.LVL503:
 627:fe.c          ****     int64_t f3g6    = f3   * (int64_t) g6;
 2342              		.loc 1 627 0
 2343 0388 169A     		ldr	r2, [sp, #88]
 2344 038a 1E9B     		ldr	r3, [sp, #120]
 2345 038c 5846     		mov	r0, fp
 2346              	.LVL504:
 2347 038e 3699     		ldr	r1, [sp, #216]
 2348 0390 FFF7FEFF 		bl	__aeabi_lmul
 2349              	.LVL505:
 2350 0394 3690     		str	r0, [sp, #216]
 2351 0396 3791     		str	r1, [sp, #220]
 2352              	.LVL506:
 628:fe.c          ****     int64_t f3g7_38 = f3_2 * (int64_t) g7_19;
 2353              		.loc 1 628 0
 2354 0398 109A     		ldr	r2, [sp, #64]
 2355 039a D317     		asrs	r3, r2, #31
 2356 039c 0093     		str	r3, [sp]
 2357              	.LVL507:
 2358 039e 2298     		ldr	r0, [sp, #136]
 2359              	.LVL508:
 2360 03a0 2100     		movs	r1, r4
 2361 03a2 FFF7FEFF 		bl	__aeabi_lmul
 2362              	.LVL509:
 2363 03a6 8490     		str	r0, [sp, #528]
 2364 03a8 8591     		str	r1, [sp, #532]
 2365              	.LVL510:
 629:fe.c          ****     int64_t f3g8_19 = f3   * (int64_t) g8_19;
 2366              		.loc 1 629 0
 2367 03aa 169A     		ldr	r2, [sp, #88]
 2368 03ac 1E9B     		ldr	r3, [sp, #120]
 2369 03ae 0698     		ldr	r0, [sp, #24]
 2370              	.LVL511:
 2371 03b0 1499     		ldr	r1, [sp, #80]
 2372 03b2 FFF7FEFF 		bl	__aeabi_lmul
 2373              	.LVL512:
 2374 03b6 1E90     		str	r0, [sp, #120]
 2375 03b8 1F91     		str	r1, [sp, #124]
 2376              	.LVL513:
 630:fe.c          ****     int64_t f3g9_38 = f3_2 * (int64_t) g9_19;
 2377              		.loc 1 630 0
 2378 03ba 229A     		ldr	r2, [sp, #136]
 2379 03bc 2300     		movs	r3, r4
 2380 03be 0898     		ldr	r0, [sp, #32]
 2381              	.LVL514:
 2382 03c0 0299     		ldr	r1, [sp, #8]
 2383 03c2 FFF7FEFF 		bl	__aeabi_lmul
 2384              	.LVL515:
 2385 03c6 2290     		str	r0, [sp, #136]
 2386 03c8 2391     		str	r1, [sp, #140]
 2387              	.LVL516:
 631:fe.c          ****     int64_t f4g0    = f4   * (int64_t) g0;
 2388              		.loc 1 631 0
 2389 03ca 0C9B     		ldr	r3, [sp, #48]
 2390 03cc DC17     		asrs	r4, r3, #31
ARM GAS  C:\Users\NIGHDR~1\AppData\Local\Temp\ccfE2IUB.s 			page 54


 2391 03ce 1A00     		movs	r2, r3
 2392 03d0 2300     		movs	r3, r4
 2393 03d2 0498     		ldr	r0, [sp, #16]
 2394              	.LVL517:
 2395 03d4 0A99     		ldr	r1, [sp, #40]
 2396 03d6 FFF7FEFF 		bl	__aeabi_lmul
 2397              	.LVL518:
 2398 03da 8690     		str	r0, [sp, #536]
 2399 03dc 8791     		str	r1, [sp, #540]
 2400              	.LVL519:
 632:fe.c          ****     int64_t f4g1    = f4   * (int64_t) g1;
 2401              		.loc 1 632 0
 2402 03de 0C9A     		ldr	r2, [sp, #48]
 2403 03e0 2300     		movs	r3, r4
 2404 03e2 3800     		movs	r0, r7
 2405              	.LVL520:
 2406 03e4 1299     		ldr	r1, [sp, #72]
 2407 03e6 FFF7FEFF 		bl	__aeabi_lmul
 2408              	.LVL521:
 2409 03ea 8890     		str	r0, [sp, #544]
 2410 03ec 8991     		str	r1, [sp, #548]
 2411              	.LVL522:
 633:fe.c          ****     int64_t f4g2    = f4   * (int64_t) g2;
 2412              		.loc 1 633 0
 2413 03ee 0C9A     		ldr	r2, [sp, #48]
 2414 03f0 2300     		movs	r3, r4
 2415 03f2 3000     		movs	r0, r6
 2416              	.LVL523:
 2417 03f4 1C99     		ldr	r1, [sp, #112]
 2418 03f6 FFF7FEFF 		bl	__aeabi_lmul
 2419              	.LVL524:
 2420 03fa 8A90     		str	r0, [sp, #552]
 2421 03fc 8B91     		str	r1, [sp, #556]
 2422              	.LVL525:
 634:fe.c          ****     int64_t f4g3    = f4   * (int64_t) g3;
 2423              		.loc 1 634 0
 2424 03fe 0C9A     		ldr	r2, [sp, #48]
 2425 0400 2300     		movs	r3, r4
 2426 0402 0E98     		ldr	r0, [sp, #56]
 2427 0404 02E0     		b	.L14
 2428              	.L15:
 2429 0406 C046     		.align	2
 2430              	.L13:
 2431 0408 A4FCFFFF 		.word	-860
 2432              	.L14:
 2433              	.LVL526:
 2434 040c 2A99     		ldr	r1, [sp, #168]
 2435 040e FFF7FEFF 		bl	__aeabi_lmul
 2436              	.LVL527:
 2437 0412 8C90     		str	r0, [sp, #560]
 2438 0414 8D91     		str	r1, [sp, #564]
 2439              	.LVL528:
 635:fe.c          ****     int64_t f4g4    = f4   * (int64_t) g4;
 2440              		.loc 1 635 0
 2441 0416 0C9A     		ldr	r2, [sp, #48]
 2442 0418 2300     		movs	r3, r4
 2443 041a 5046     		mov	r0, r10
ARM GAS  C:\Users\NIGHDR~1\AppData\Local\Temp\ccfE2IUB.s 			page 55


 2444              	.LVL529:
 2445 041c 3299     		ldr	r1, [sp, #200]
 2446 041e FFF7FEFF 		bl	__aeabi_lmul
 2447              	.LVL530:
 2448 0422 8E90     		str	r0, [sp, #568]
 2449 0424 8F91     		str	r1, [sp, #572]
 2450              	.LVL531:
 636:fe.c          ****     int64_t f4g5    = f4   * (int64_t) g5;
 2451              		.loc 1 636 0
 2452 0426 0C9A     		ldr	r2, [sp, #48]
 2453 0428 2300     		movs	r3, r4
 2454 042a 2800     		movs	r0, r5
 2455              	.LVL532:
 2456 042c 3499     		ldr	r1, [sp, #208]
 2457 042e FFF7FEFF 		bl	__aeabi_lmul
 2458              	.LVL533:
 2459 0432 3490     		str	r0, [sp, #208]
 2460 0434 3591     		str	r1, [sp, #212]
 2461              	.LVL534:
 637:fe.c          ****     int64_t f4g6_19 = f4   * (int64_t) g6_19;
 2462              		.loc 1 637 0
 2463 0436 1B9B     		ldr	r3, [sp, #108]
 2464 0438 DA17     		asrs	r2, r3, #31
 2465 043a 1500     		movs	r5, r2
 2466              	.LVL535:
 2467 043c 1A00     		movs	r2, r3
 2468 043e 1695     		str	r5, [sp, #88]
 2469              	.LVL536:
 2470 0440 2B00     		movs	r3, r5
 2471 0442 0C9D     		ldr	r5, [sp, #48]
 2472 0444 2800     		movs	r0, r5
 2473              	.LVL537:
 2474 0446 2100     		movs	r1, r4
 2475 0448 FFF7FEFF 		bl	__aeabi_lmul
 2476              	.LVL538:
 2477 044c 9090     		str	r0, [sp, #576]
 2478 044e 9191     		str	r1, [sp, #580]
 2479              	.LVL539:
 638:fe.c          ****     int64_t f4g7_19 = f4   * (int64_t) g7_19;
 2480              		.loc 1 638 0
 2481 0450 2A00     		movs	r2, r5
 2482 0452 2300     		movs	r3, r4
 2483 0454 1098     		ldr	r0, [sp, #64]
 2484              	.LVL540:
 2485 0456 0099     		ldr	r1, [sp]
 2486 0458 FFF7FEFF 		bl	__aeabi_lmul
 2487              	.LVL541:
 2488 045c 9290     		str	r0, [sp, #584]
 2489 045e 9391     		str	r1, [sp, #588]
 2490              	.LVL542:
 639:fe.c          ****     int64_t f4g8_19 = f4   * (int64_t) g8_19;
 2491              		.loc 1 639 0
 2492 0460 2A00     		movs	r2, r5
 2493 0462 2300     		movs	r3, r4
 2494 0464 0698     		ldr	r0, [sp, #24]
 2495              	.LVL543:
 2496 0466 1499     		ldr	r1, [sp, #80]
ARM GAS  C:\Users\NIGHDR~1\AppData\Local\Temp\ccfE2IUB.s 			page 56


 2497 0468 FFF7FEFF 		bl	__aeabi_lmul
 2498              	.LVL544:
 2499 046c 9490     		str	r0, [sp, #592]
 2500 046e 9591     		str	r1, [sp, #596]
 2501              	.LVL545:
 640:fe.c          ****     int64_t f4g9_19 = f4   * (int64_t) g9_19;
 2502              		.loc 1 640 0
 2503 0470 2A00     		movs	r2, r5
 2504 0472 2300     		movs	r3, r4
 2505 0474 0898     		ldr	r0, [sp, #32]
 2506              	.LVL546:
 2507 0476 0299     		ldr	r1, [sp, #8]
 2508 0478 FFF7FEFF 		bl	__aeabi_lmul
 2509              	.LVL547:
 2510 047c 9690     		str	r0, [sp, #600]
 2511 047e 9791     		str	r1, [sp, #604]
 2512              	.LVL548:
 641:fe.c          ****     int64_t f5g0    = f5   * (int64_t) g0;
 2513              		.loc 1 641 0
 2514 0480 189B     		ldr	r3, [sp, #96]
 2515 0482 DD17     		asrs	r5, r3, #31
 2516 0484 1A00     		movs	r2, r3
 2517 0486 2B00     		movs	r3, r5
 2518 0488 0498     		ldr	r0, [sp, #16]
 2519              	.LVL549:
 2520 048a 0A99     		ldr	r1, [sp, #40]
 2521 048c FFF7FEFF 		bl	__aeabi_lmul
 2522              	.LVL550:
 2523 0490 9890     		str	r0, [sp, #608]
 2524 0492 9991     		str	r1, [sp, #612]
 2525              	.LVL551:
 642:fe.c          ****     int64_t f5g1_2  = f5_2 * (int64_t) g1;
 2526              		.loc 1 642 0
 2527 0494 249B     		ldr	r3, [sp, #144]
 2528 0496 DC17     		asrs	r4, r3, #31
 2529 0498 1A00     		movs	r2, r3
 2530 049a 2300     		movs	r3, r4
 2531 049c 3800     		movs	r0, r7
 2532              	.LVL552:
 2533 049e 1299     		ldr	r1, [sp, #72]
 2534 04a0 FFF7FEFF 		bl	__aeabi_lmul
 2535              	.LVL553:
 2536 04a4 9A90     		str	r0, [sp, #616]
 2537 04a6 9B91     		str	r1, [sp, #620]
 2538              	.LVL554:
 643:fe.c          ****     int64_t f5g2    = f5   * (int64_t) g2;
 2539              		.loc 1 643 0
 2540 04a8 189A     		ldr	r2, [sp, #96]
 2541 04aa 2B00     		movs	r3, r5
 2542 04ac 3000     		movs	r0, r6
 2543              	.LVL555:
 2544 04ae 1C99     		ldr	r1, [sp, #112]
 2545 04b0 FFF7FEFF 		bl	__aeabi_lmul
 2546              	.LVL556:
 2547 04b4 9C90     		str	r0, [sp, #624]
 2548 04b6 9D91     		str	r1, [sp, #628]
 2549              	.LVL557:
ARM GAS  C:\Users\NIGHDR~1\AppData\Local\Temp\ccfE2IUB.s 			page 57


 644:fe.c          ****     int64_t f5g3_2  = f5_2 * (int64_t) g3;
 2550              		.loc 1 644 0
 2551 04b8 249A     		ldr	r2, [sp, #144]
 2552 04ba 2300     		movs	r3, r4
 2553 04bc 0E98     		ldr	r0, [sp, #56]
 2554              	.LVL558:
 2555 04be 2A99     		ldr	r1, [sp, #168]
 2556 04c0 FFF7FEFF 		bl	__aeabi_lmul
 2557              	.LVL559:
 2558 04c4 9E90     		str	r0, [sp, #632]
 2559 04c6 9F91     		str	r1, [sp, #636]
 2560              	.LVL560:
 645:fe.c          ****     int64_t f5g4    = f5   * (int64_t) g4;
 2561              		.loc 1 645 0
 2562 04c8 189A     		ldr	r2, [sp, #96]
 2563 04ca 2B00     		movs	r3, r5
 2564 04cc 5046     		mov	r0, r10
 2565              	.LVL561:
 2566 04ce 3299     		ldr	r1, [sp, #200]
 2567 04d0 FFF7FEFF 		bl	__aeabi_lmul
 2568              	.LVL562:
 2569 04d4 3290     		str	r0, [sp, #200]
 2570 04d6 3391     		str	r1, [sp, #204]
 2571              	.LVL563:
 646:fe.c          ****     int64_t f5g5_38 = f5_2 * (int64_t) g5_19;
 2572              		.loc 1 646 0
 2573 04d8 299A     		ldr	r2, [sp, #164]
 2574 04da D317     		asrs	r3, r2, #31
 2575 04dc 0C93     		str	r3, [sp, #48]
 2576              	.LVL564:
 2577 04de 2498     		ldr	r0, [sp, #144]
 2578              	.LVL565:
 2579 04e0 2100     		movs	r1, r4
 2580 04e2 FFF7FEFF 		bl	__aeabi_lmul
 2581              	.LVL566:
 2582 04e6 A090     		str	r0, [sp, #640]
 2583 04e8 A191     		str	r1, [sp, #644]
 2584              	.LVL567:
 647:fe.c          ****     int64_t f5g6_19 = f5   * (int64_t) g6_19;
 2585              		.loc 1 647 0
 2586 04ea 189A     		ldr	r2, [sp, #96]
 2587 04ec 2B00     		movs	r3, r5
 2588 04ee 1B98     		ldr	r0, [sp, #108]
 2589              	.LVL568:
 2590 04f0 1699     		ldr	r1, [sp, #88]
 2591 04f2 FFF7FEFF 		bl	__aeabi_lmul
 2592              	.LVL569:
 2593 04f6 A290     		str	r0, [sp, #648]
 2594 04f8 A391     		str	r1, [sp, #652]
 2595              	.LVL570:
 648:fe.c          ****     int64_t f5g7_38 = f5_2 * (int64_t) g7_19;
 2596              		.loc 1 648 0
 2597 04fa 249A     		ldr	r2, [sp, #144]
 2598 04fc 2300     		movs	r3, r4
 2599 04fe 1098     		ldr	r0, [sp, #64]
 2600              	.LVL571:
 2601 0500 0099     		ldr	r1, [sp]
ARM GAS  C:\Users\NIGHDR~1\AppData\Local\Temp\ccfE2IUB.s 			page 58


 2602 0502 FFF7FEFF 		bl	__aeabi_lmul
 2603              	.LVL572:
 2604 0506 A490     		str	r0, [sp, #656]
 2605 0508 A591     		str	r1, [sp, #660]
 2606              	.LVL573:
 649:fe.c          ****     int64_t f5g8_19 = f5   * (int64_t) g8_19;
 2607              		.loc 1 649 0
 2608 050a 189A     		ldr	r2, [sp, #96]
 2609 050c 2B00     		movs	r3, r5
 2610 050e 0698     		ldr	r0, [sp, #24]
 2611              	.LVL574:
 2612 0510 1499     		ldr	r1, [sp, #80]
 2613 0512 FFF7FEFF 		bl	__aeabi_lmul
 2614              	.LVL575:
 2615 0516 A690     		str	r0, [sp, #664]
 2616 0518 A791     		str	r1, [sp, #668]
 2617              	.LVL576:
 650:fe.c          ****     int64_t f5g9_38 = f5_2 * (int64_t) g9_19;
 2618              		.loc 1 650 0
 2619 051a 249A     		ldr	r2, [sp, #144]
 2620 051c 2300     		movs	r3, r4
 2621 051e 0898     		ldr	r0, [sp, #32]
 2622              	.LVL577:
 2623 0520 0299     		ldr	r1, [sp, #8]
 2624 0522 FFF7FEFF 		bl	__aeabi_lmul
 2625              	.LVL578:
 2626 0526 2490     		str	r0, [sp, #144]
 2627 0528 2591     		str	r1, [sp, #148]
 2628              	.LVL579:
 651:fe.c          ****     int64_t f6g0    = f6   * (int64_t) g0;
 2629              		.loc 1 651 0
 2630 052a 3A9D     		ldr	r5, [sp, #232]
 2631 052c EC17     		asrs	r4, r5, #31
 2632 052e 2A00     		movs	r2, r5
 2633 0530 2300     		movs	r3, r4
 2634 0532 0498     		ldr	r0, [sp, #16]
 2635              	.LVL580:
 2636 0534 0A99     		ldr	r1, [sp, #40]
 2637 0536 FFF7FEFF 		bl	__aeabi_lmul
 2638              	.LVL581:
 2639 053a 3A90     		str	r0, [sp, #232]
 2640 053c 3B91     		str	r1, [sp, #236]
 2641              	.LVL582:
 652:fe.c          ****     int64_t f6g1    = f6   * (int64_t) g1;
 2642              		.loc 1 652 0
 2643 053e 2A00     		movs	r2, r5
 2644 0540 2300     		movs	r3, r4
 2645 0542 3800     		movs	r0, r7
 2646              	.LVL583:
 2647 0544 1299     		ldr	r1, [sp, #72]
 2648 0546 FFF7FEFF 		bl	__aeabi_lmul
 2649              	.LVL584:
 2650 054a A890     		str	r0, [sp, #672]
 2651 054c A991     		str	r1, [sp, #676]
 2652              	.LVL585:
 653:fe.c          ****     int64_t f6g2    = f6   * (int64_t) g2;
 2653              		.loc 1 653 0
ARM GAS  C:\Users\NIGHDR~1\AppData\Local\Temp\ccfE2IUB.s 			page 59


 2654 054e 2A00     		movs	r2, r5
 2655 0550 2300     		movs	r3, r4
 2656 0552 3000     		movs	r0, r6
 2657              	.LVL586:
 2658 0554 1C99     		ldr	r1, [sp, #112]
 2659 0556 FFF7FEFF 		bl	__aeabi_lmul
 2660              	.LVL587:
 2661 055a AA90     		str	r0, [sp, #680]
 2662 055c AB91     		str	r1, [sp, #684]
 2663              	.LVL588:
 654:fe.c          ****     int64_t f6g3    = f6   * (int64_t) g3;
 2664              		.loc 1 654 0
 2665 055e 2A00     		movs	r2, r5
 2666 0560 2300     		movs	r3, r4
 2667 0562 0E98     		ldr	r0, [sp, #56]
 2668              	.LVL589:
 2669 0564 2A99     		ldr	r1, [sp, #168]
 2670 0566 FFF7FEFF 		bl	__aeabi_lmul
 2671              	.LVL590:
 2672 056a 2A90     		str	r0, [sp, #168]
 2673 056c 2B91     		str	r1, [sp, #172]
 2674              	.LVL591:
 655:fe.c          ****     int64_t f6g4_19 = f6   * (int64_t) g4_19;
 2675              		.loc 1 655 0
 2676 056e 319B     		ldr	r3, [sp, #196]
 2677 0570 DA17     		asrs	r2, r3, #31
 2678 0572 1100     		movs	r1, r2
 2679 0574 1A00     		movs	r2, r3
 2680 0576 0E91     		str	r1, [sp, #56]
 2681              	.LVL592:
 2682 0578 0B00     		movs	r3, r1
 2683 057a 2800     		movs	r0, r5
 2684              	.LVL593:
 2685 057c 2100     		movs	r1, r4
 2686 057e FFF7FEFF 		bl	__aeabi_lmul
 2687              	.LVL594:
 2688 0582 AC90     		str	r0, [sp, #688]
 2689 0584 AD91     		str	r1, [sp, #692]
 2690              	.LVL595:
 656:fe.c          ****     int64_t f6g5_19 = f6   * (int64_t) g5_19;
 2691              		.loc 1 656 0
 2692 0586 2A00     		movs	r2, r5
 2693 0588 2300     		movs	r3, r4
 2694 058a 2998     		ldr	r0, [sp, #164]
 2695              	.LVL596:
 2696 058c 0C99     		ldr	r1, [sp, #48]
 2697 058e FFF7FEFF 		bl	__aeabi_lmul
 2698              	.LVL597:
 2699 0592 AE90     		str	r0, [sp, #696]
 2700 0594 AF91     		str	r1, [sp, #700]
 2701              	.LVL598:
 657:fe.c          ****     int64_t f6g6_19 = f6   * (int64_t) g6_19;
 2702              		.loc 1 657 0
 2703 0596 2A00     		movs	r2, r5
 2704 0598 2300     		movs	r3, r4
 2705 059a 1B98     		ldr	r0, [sp, #108]
 2706              	.LVL599:
ARM GAS  C:\Users\NIGHDR~1\AppData\Local\Temp\ccfE2IUB.s 			page 60


 2707 059c 1699     		ldr	r1, [sp, #88]
 2708 059e FFF7FEFF 		bl	__aeabi_lmul
 2709              	.LVL600:
 2710 05a2 B090     		str	r0, [sp, #704]
 2711 05a4 B191     		str	r1, [sp, #708]
 2712              	.LVL601:
 658:fe.c          ****     int64_t f6g7_19 = f6   * (int64_t) g7_19;
 2713              		.loc 1 658 0
 2714 05a6 2A00     		movs	r2, r5
 2715 05a8 2300     		movs	r3, r4
 2716 05aa 1098     		ldr	r0, [sp, #64]
 2717              	.LVL602:
 2718 05ac 0099     		ldr	r1, [sp]
 2719 05ae FFF7FEFF 		bl	__aeabi_lmul
 2720              	.LVL603:
 2721 05b2 B290     		str	r0, [sp, #712]
 2722 05b4 B391     		str	r1, [sp, #716]
 2723              	.LVL604:
 659:fe.c          ****     int64_t f6g8_19 = f6   * (int64_t) g8_19;
 2724              		.loc 1 659 0
 2725 05b6 2A00     		movs	r2, r5
 2726 05b8 2300     		movs	r3, r4
 2727 05ba 0698     		ldr	r0, [sp, #24]
 2728              	.LVL605:
 2729 05bc 1499     		ldr	r1, [sp, #80]
 2730 05be FFF7FEFF 		bl	__aeabi_lmul
 2731              	.LVL606:
 2732 05c2 B490     		str	r0, [sp, #720]
 2733 05c4 B591     		str	r1, [sp, #724]
 2734              	.LVL607:
 660:fe.c          ****     int64_t f6g9_19 = f6   * (int64_t) g9_19;
 2735              		.loc 1 660 0
 2736 05c6 2A00     		movs	r2, r5
 2737 05c8 2300     		movs	r3, r4
 2738 05ca 0898     		ldr	r0, [sp, #32]
 2739              	.LVL608:
 2740 05cc 0299     		ldr	r1, [sp, #8]
 2741 05ce FFF7FEFF 		bl	__aeabi_lmul
 2742              	.LVL609:
 2743 05d2 B690     		str	r0, [sp, #728]
 2744 05d4 B791     		str	r1, [sp, #732]
 2745              	.LVL610:
 661:fe.c          ****     int64_t f7g0    = f7   * (int64_t) g0;
 2746              		.loc 1 661 0
 2747 05d6 2C9B     		ldr	r3, [sp, #176]
 2748 05d8 DD17     		asrs	r5, r3, #31
 2749              	.LVL611:
 2750 05da 1A00     		movs	r2, r3
 2751 05dc 2B00     		movs	r3, r5
 2752 05de 0498     		ldr	r0, [sp, #16]
 2753              	.LVL612:
 2754 05e0 0A99     		ldr	r1, [sp, #40]
 2755 05e2 FFF7FEFF 		bl	__aeabi_lmul
 2756              	.LVL613:
 2757 05e6 B890     		str	r0, [sp, #736]
 2758 05e8 B991     		str	r1, [sp, #740]
 2759              	.LVL614:
ARM GAS  C:\Users\NIGHDR~1\AppData\Local\Temp\ccfE2IUB.s 			page 61


 662:fe.c          ****     int64_t f7g1_2  = f7_2 * (int64_t) g1;
 2760              		.loc 1 662 0
 2761 05ea 269B     		ldr	r3, [sp, #152]
 2762 05ec DC17     		asrs	r4, r3, #31
 2763 05ee 1A00     		movs	r2, r3
 2764 05f0 2300     		movs	r3, r4
 2765 05f2 3800     		movs	r0, r7
 2766              	.LVL615:
 2767 05f4 1299     		ldr	r1, [sp, #72]
 2768 05f6 FFF7FEFF 		bl	__aeabi_lmul
 2769              	.LVL616:
 2770 05fa BA90     		str	r0, [sp, #744]
 2771 05fc BB91     		str	r1, [sp, #748]
 2772              	.LVL617:
 663:fe.c          ****     int64_t f7g2    = f7   * (int64_t) g2;
 2773              		.loc 1 663 0
 2774 05fe 2C9A     		ldr	r2, [sp, #176]
 2775 0600 2B00     		movs	r3, r5
 2776 0602 3000     		movs	r0, r6
 2777              	.LVL618:
 2778 0604 1C99     		ldr	r1, [sp, #112]
 2779 0606 FFF7FEFF 		bl	__aeabi_lmul
 2780              	.LVL619:
 2781 060a 1C90     		str	r0, [sp, #112]
 2782 060c 1D91     		str	r1, [sp, #116]
 2783              	.LVL620:
 664:fe.c          ****     int64_t f7g3_38 = f7_2 * (int64_t) g3_19;
 2784              		.loc 1 664 0
 2785 060e 3E9A     		ldr	r2, [sp, #248]
 2786 0610 D317     		asrs	r3, r2, #31
 2787 0612 1893     		str	r3, [sp, #96]
 2788              	.LVL621:
 2789 0614 2698     		ldr	r0, [sp, #152]
 2790              	.LVL622:
 2791 0616 2100     		movs	r1, r4
 2792 0618 FFF7FEFF 		bl	__aeabi_lmul
 2793              	.LVL623:
 2794 061c BC90     		str	r0, [sp, #752]
 2795 061e BD91     		str	r1, [sp, #756]
 2796              	.LVL624:
 665:fe.c          ****     int64_t f7g4_19 = f7   * (int64_t) g4_19;
 2797              		.loc 1 665 0
 2798 0620 2C9E     		ldr	r6, [sp, #176]
 2799              	.LVL625:
 2800 0622 3200     		movs	r2, r6
 2801 0624 2B00     		movs	r3, r5
 2802 0626 3198     		ldr	r0, [sp, #196]
 2803              	.LVL626:
 2804 0628 0E99     		ldr	r1, [sp, #56]
 2805 062a FFF7FEFF 		bl	__aeabi_lmul
 2806              	.LVL627:
 2807 062e 2C90     		str	r0, [sp, #176]
 2808 0630 2D91     		str	r1, [sp, #180]
 2809              	.LVL628:
 666:fe.c          ****     int64_t f7g5_38 = f7_2 * (int64_t) g5_19;
 2810              		.loc 1 666 0
 2811 0632 269A     		ldr	r2, [sp, #152]
ARM GAS  C:\Users\NIGHDR~1\AppData\Local\Temp\ccfE2IUB.s 			page 62


 2812 0634 2300     		movs	r3, r4
 2813 0636 2998     		ldr	r0, [sp, #164]
 2814              	.LVL629:
 2815 0638 0C99     		ldr	r1, [sp, #48]
 2816 063a FFF7FEFF 		bl	__aeabi_lmul
 2817              	.LVL630:
 2818 063e BE90     		str	r0, [sp, #760]
 2819 0640 BF91     		str	r1, [sp, #764]
 2820              	.LVL631:
 667:fe.c          ****     int64_t f7g6_19 = f7   * (int64_t) g6_19;
 2821              		.loc 1 667 0
 2822 0642 3200     		movs	r2, r6
 2823 0644 2B00     		movs	r3, r5
 2824 0646 1B98     		ldr	r0, [sp, #108]
 2825              	.LVL632:
 2826 0648 1699     		ldr	r1, [sp, #88]
 2827 064a FFF7FEFF 		bl	__aeabi_lmul
 2828              	.LVL633:
 2829 064e C090     		str	r0, [sp, #768]
 2830 0650 C191     		str	r1, [sp, #772]
 2831              	.LVL634:
 668:fe.c          ****     int64_t f7g7_38 = f7_2 * (int64_t) g7_19;
 2832              		.loc 1 668 0
 2833 0652 269A     		ldr	r2, [sp, #152]
 2834 0654 2300     		movs	r3, r4
 2835 0656 1098     		ldr	r0, [sp, #64]
 2836              	.LVL635:
 2837 0658 0099     		ldr	r1, [sp]
 2838 065a FFF7FEFF 		bl	__aeabi_lmul
 2839              	.LVL636:
 2840 065e C290     		str	r0, [sp, #776]
 2841 0660 C391     		str	r1, [sp, #780]
 2842              	.LVL637:
 669:fe.c          ****     int64_t f7g8_19 = f7   * (int64_t) g8_19;
 2843              		.loc 1 669 0
 2844 0662 3200     		movs	r2, r6
 2845 0664 2B00     		movs	r3, r5
 2846 0666 0698     		ldr	r0, [sp, #24]
 2847              	.LVL638:
 2848 0668 1499     		ldr	r1, [sp, #80]
 2849 066a FFF7FEFF 		bl	__aeabi_lmul
 2850              	.LVL639:
 2851 066e C490     		str	r0, [sp, #784]
 2852 0670 C591     		str	r1, [sp, #788]
 2853              	.LVL640:
 670:fe.c          ****     int64_t f7g9_38 = f7_2 * (int64_t) g9_19;
 2854              		.loc 1 670 0
 2855 0672 269A     		ldr	r2, [sp, #152]
 2856 0674 2300     		movs	r3, r4
 2857 0676 0898     		ldr	r0, [sp, #32]
 2858              	.LVL641:
 2859 0678 0299     		ldr	r1, [sp, #8]
 2860 067a FFF7FEFF 		bl	__aeabi_lmul
 2861              	.LVL642:
 2862 067e 2690     		str	r0, [sp, #152]
 2863 0680 2791     		str	r1, [sp, #156]
 2864              	.LVL643:
ARM GAS  C:\Users\NIGHDR~1\AppData\Local\Temp\ccfE2IUB.s 			page 63


 671:fe.c          ****     int64_t f8g0    = f8   * (int64_t) g0;
 2865              		.loc 1 671 0
 2866 0682 3C9D     		ldr	r5, [sp, #240]
 2867 0684 EC17     		asrs	r4, r5, #31
 2868 0686 2A00     		movs	r2, r5
 2869 0688 2300     		movs	r3, r4
 2870 068a 0498     		ldr	r0, [sp, #16]
 2871              	.LVL644:
 2872 068c 0A99     		ldr	r1, [sp, #40]
 2873 068e FFF7FEFF 		bl	__aeabi_lmul
 2874              	.LVL645:
 2875 0692 3C90     		str	r0, [sp, #240]
 2876 0694 3D91     		str	r1, [sp, #244]
 2877              	.LVL646:
 672:fe.c          ****     int64_t f8g1    = f8   * (int64_t) g1;
 2878              		.loc 1 672 0
 2879 0696 2A00     		movs	r2, r5
 2880 0698 2300     		movs	r3, r4
 2881 069a 3800     		movs	r0, r7
 2882              	.LVL647:
 2883 069c 1299     		ldr	r1, [sp, #72]
 2884 069e FFF7FEFF 		bl	__aeabi_lmul
 2885              	.LVL648:
 2886 06a2 1290     		str	r0, [sp, #72]
 2887 06a4 1391     		str	r1, [sp, #76]
 2888              	.LVL649:
 673:fe.c          ****     int64_t f8g2_19 = f8   * (int64_t) g2_19;
 2889              		.loc 1 673 0
 2890 06a6 409F     		ldr	r7, [sp, #256]
 2891              	.LVL650:
 2892 06a8 FE17     		asrs	r6, r7, #31
 2893              	.LVL651:
 2894 06aa B946     		mov	r9, r7
 2895              	.LVL652:
 2896 06ac 3A00     		movs	r2, r7
 2897 06ae 3300     		movs	r3, r6
 2898 06b0 2800     		movs	r0, r5
 2899              	.LVL653:
 2900 06b2 2100     		movs	r1, r4
 2901 06b4 FFF7FEFF 		bl	__aeabi_lmul
 2902              	.LVL654:
 2903 06b8 4090     		str	r0, [sp, #256]
 2904 06ba 4191     		str	r1, [sp, #260]
 2905              	.LVL655:
 674:fe.c          ****     int64_t f8g3_19 = f8   * (int64_t) g3_19;
 2906              		.loc 1 674 0
 2907 06bc 2A00     		movs	r2, r5
 2908 06be 2300     		movs	r3, r4
 2909 06c0 3E98     		ldr	r0, [sp, #248]
 2910              	.LVL656:
 2911 06c2 1899     		ldr	r1, [sp, #96]
 2912 06c4 FFF7FEFF 		bl	__aeabi_lmul
 2913              	.LVL657:
 2914 06c8 C690     		str	r0, [sp, #792]
 2915 06ca C791     		str	r1, [sp, #796]
 2916              	.LVL658:
 675:fe.c          ****     int64_t f8g4_19 = f8   * (int64_t) g4_19;
ARM GAS  C:\Users\NIGHDR~1\AppData\Local\Temp\ccfE2IUB.s 			page 64


 2917              		.loc 1 675 0
 2918 06cc 2A00     		movs	r2, r5
 2919 06ce 2300     		movs	r3, r4
 2920 06d0 3198     		ldr	r0, [sp, #196]
 2921              	.LVL659:
 2922 06d2 0E99     		ldr	r1, [sp, #56]
 2923 06d4 FFF7FEFF 		bl	__aeabi_lmul
 2924              	.LVL660:
 2925 06d8 C890     		str	r0, [sp, #800]
 2926 06da C991     		str	r1, [sp, #804]
 2927              	.LVL661:
 676:fe.c          ****     int64_t f8g5_19 = f8   * (int64_t) g5_19;
 2928              		.loc 1 676 0
 2929 06dc 2A00     		movs	r2, r5
 2930 06de 2300     		movs	r3, r4
 2931 06e0 2998     		ldr	r0, [sp, #164]
 2932              	.LVL662:
 2933 06e2 0C99     		ldr	r1, [sp, #48]
 2934 06e4 FFF7FEFF 		bl	__aeabi_lmul
 2935              	.LVL663:
 2936 06e8 CA90     		str	r0, [sp, #808]
 2937 06ea CB91     		str	r1, [sp, #812]
 2938              	.LVL664:
 677:fe.c          ****     int64_t f8g6_19 = f8   * (int64_t) g6_19;
 2939              		.loc 1 677 0
 2940 06ec 2A00     		movs	r2, r5
 2941 06ee 2300     		movs	r3, r4
 2942 06f0 1B98     		ldr	r0, [sp, #108]
 2943              	.LVL665:
 2944 06f2 1699     		ldr	r1, [sp, #88]
 2945 06f4 FFF7FEFF 		bl	__aeabi_lmul
 2946              	.LVL666:
 2947 06f8 CC90     		str	r0, [sp, #816]
 2948 06fa CD91     		str	r1, [sp, #820]
 2949              	.LVL667:
 678:fe.c          ****     int64_t f8g7_19 = f8   * (int64_t) g7_19;
 2950              		.loc 1 678 0
 2951 06fc 2A00     		movs	r2, r5
 2952 06fe 2300     		movs	r3, r4
 2953 0700 1098     		ldr	r0, [sp, #64]
 2954              	.LVL668:
 2955 0702 0099     		ldr	r1, [sp]
 2956 0704 FFF7FEFF 		bl	__aeabi_lmul
 2957              	.LVL669:
 2958 0708 CE90     		str	r0, [sp, #824]
 2959 070a CF91     		str	r1, [sp, #828]
 2960              	.LVL670:
 679:fe.c          ****     int64_t f8g8_19 = f8   * (int64_t) g8_19;
 2961              		.loc 1 679 0
 2962 070c 2A00     		movs	r2, r5
 2963 070e 2300     		movs	r3, r4
 2964 0710 0698     		ldr	r0, [sp, #24]
 2965              	.LVL671:
 2966 0712 1499     		ldr	r1, [sp, #80]
 2967 0714 FFF7FEFF 		bl	__aeabi_lmul
 2968              	.LVL672:
 2969 0718 D090     		str	r0, [sp, #832]
ARM GAS  C:\Users\NIGHDR~1\AppData\Local\Temp\ccfE2IUB.s 			page 65


 2970 071a D191     		str	r1, [sp, #836]
 2971              	.LVL673:
 680:fe.c          ****     int64_t f8g9_19 = f8   * (int64_t) g9_19;
 2972              		.loc 1 680 0
 2973 071c 2A00     		movs	r2, r5
 2974 071e 2300     		movs	r3, r4
 2975 0720 089F     		ldr	r7, [sp, #32]
 2976              	.LVL674:
 2977 0722 3800     		movs	r0, r7
 2978              	.LVL675:
 2979 0724 0299     		ldr	r1, [sp, #8]
 2980 0726 FFF7FEFF 		bl	__aeabi_lmul
 2981              	.LVL676:
 2982 072a D290     		str	r0, [sp, #840]
 2983 072c D391     		str	r1, [sp, #844]
 2984              	.LVL677:
 681:fe.c          ****     int64_t f9g0    = f9   * (int64_t) g0;
 2985              		.loc 1 681 0
 2986 072e 309B     		ldr	r3, [sp, #192]
 2987 0730 DD17     		asrs	r5, r3, #31
 2988              	.LVL678:
 2989 0732 1A00     		movs	r2, r3
 2990 0734 2B00     		movs	r3, r5
 2991 0736 0498     		ldr	r0, [sp, #16]
 2992              	.LVL679:
 2993 0738 0A99     		ldr	r1, [sp, #40]
 2994 073a FFF7FEFF 		bl	__aeabi_lmul
 2995              	.LVL680:
 2996 073e D490     		str	r0, [sp, #848]
 2997 0740 D591     		str	r1, [sp, #852]
 2998              	.LVL681:
 682:fe.c          ****     int64_t f9g1_38 = f9_2 * (int64_t) g1_19;
 2999              		.loc 1 682 0
 3000 0742 2899     		ldr	r1, [sp, #160]
 3001 0744 CC17     		asrs	r4, r1, #31
 3002 0746 3F9A     		ldr	r2, [sp, #252]
 3003 0748 D317     		asrs	r3, r2, #31
 3004 074a 0800     		movs	r0, r1
 3005              	.LVL682:
 3006 074c 2100     		movs	r1, r4
 3007 074e FFF7FEFF 		bl	__aeabi_lmul
 3008              	.LVL683:
 3009 0752 0490     		str	r0, [sp, #16]
 3010 0754 0591     		str	r1, [sp, #20]
 3011              	.LVL684:
 683:fe.c          ****     int64_t f9g2_19 = f9   * (int64_t) g2_19;
 3012              		.loc 1 683 0
 3013 0756 309A     		ldr	r2, [sp, #192]
 3014 0758 2B00     		movs	r3, r5
 3015 075a 4846     		mov	r0, r9
 3016              	.LVL685:
 3017 075c 3100     		movs	r1, r6
 3018 075e FFF7FEFF 		bl	__aeabi_lmul
 3019              	.LVL686:
 3020 0762 0890     		str	r0, [sp, #32]
 3021 0764 0991     		str	r1, [sp, #36]
 3022              	.LVL687:
ARM GAS  C:\Users\NIGHDR~1\AppData\Local\Temp\ccfE2IUB.s 			page 66


 684:fe.c          ****     int64_t f9g3_38 = f9_2 * (int64_t) g3_19;
 3023              		.loc 1 684 0
 3024 0766 289A     		ldr	r2, [sp, #160]
 3025 0768 2300     		movs	r3, r4
 3026 076a 3E98     		ldr	r0, [sp, #248]
 3027              	.LVL688:
 3028 076c 1899     		ldr	r1, [sp, #96]
 3029 076e FFF7FEFF 		bl	__aeabi_lmul
 3030              	.LVL689:
 3031 0772 0A90     		str	r0, [sp, #40]
 3032 0774 0B91     		str	r1, [sp, #44]
 3033              	.LVL690:
 685:fe.c          ****     int64_t f9g4_19 = f9   * (int64_t) g4_19;
 3034              		.loc 1 685 0
 3035 0776 309E     		ldr	r6, [sp, #192]
 3036 0778 3200     		movs	r2, r6
 3037 077a 2B00     		movs	r3, r5
 3038 077c 3198     		ldr	r0, [sp, #196]
 3039              	.LVL691:
 3040 077e 0E99     		ldr	r1, [sp, #56]
 3041 0780 FFF7FEFF 		bl	__aeabi_lmul
 3042              	.LVL692:
 3043 0784 0E90     		str	r0, [sp, #56]
 3044 0786 0F91     		str	r1, [sp, #60]
 3045              	.LVL693:
 686:fe.c          ****     int64_t f9g5_38 = f9_2 * (int64_t) g5_19;
 3046              		.loc 1 686 0
 3047 0788 289A     		ldr	r2, [sp, #160]
 3048 078a 2300     		movs	r3, r4
 3049 078c 2998     		ldr	r0, [sp, #164]
 3050              	.LVL694:
 3051 078e 0C99     		ldr	r1, [sp, #48]
 3052 0790 FFF7FEFF 		bl	__aeabi_lmul
 3053              	.LVL695:
 3054 0794 0C90     		str	r0, [sp, #48]
 3055 0796 0D91     		str	r1, [sp, #52]
 3056              	.LVL696:
 687:fe.c          ****     int64_t f9g6_19 = f9   * (int64_t) g6_19;
 3057              		.loc 1 687 0
 3058 0798 3200     		movs	r2, r6
 3059 079a 2B00     		movs	r3, r5
 3060 079c 1B98     		ldr	r0, [sp, #108]
 3061              	.LVL697:
 3062 079e 1699     		ldr	r1, [sp, #88]
 3063 07a0 FFF7FEFF 		bl	__aeabi_lmul
 3064              	.LVL698:
 3065 07a4 1690     		str	r0, [sp, #88]
 3066 07a6 1791     		str	r1, [sp, #92]
 3067              	.LVL699:
 688:fe.c          ****     int64_t f9g7_38 = f9_2 * (int64_t) g7_19;
 3068              		.loc 1 688 0
 3069 07a8 289A     		ldr	r2, [sp, #160]
 3070 07aa 2300     		movs	r3, r4
 3071 07ac 1098     		ldr	r0, [sp, #64]
 3072              	.LVL700:
 3073 07ae 0099     		ldr	r1, [sp]
 3074 07b0 FFF7FEFF 		bl	__aeabi_lmul
ARM GAS  C:\Users\NIGHDR~1\AppData\Local\Temp\ccfE2IUB.s 			page 67


 3075              	.LVL701:
 3076 07b4 1090     		str	r0, [sp, #64]
 3077 07b6 1191     		str	r1, [sp, #68]
 3078              	.LVL702:
 689:fe.c          ****     int64_t f9g8_19 = f9   * (int64_t) g8_19;
 3079              		.loc 1 689 0
 3080 07b8 3200     		movs	r2, r6
 3081 07ba 2B00     		movs	r3, r5
 3082 07bc 0698     		ldr	r0, [sp, #24]
 3083              	.LVL703:
 3084 07be 1499     		ldr	r1, [sp, #80]
 3085 07c0 FFF7FEFF 		bl	__aeabi_lmul
 3086              	.LVL704:
 3087 07c4 1490     		str	r0, [sp, #80]
 3088 07c6 1591     		str	r1, [sp, #84]
 3089              	.LVL705:
 690:fe.c          ****     int64_t f9g9_38 = f9_2 * (int64_t) g9_19;
 3090              		.loc 1 690 0
 3091 07c8 289A     		ldr	r2, [sp, #160]
 3092 07ca 2300     		movs	r3, r4
 3093 07cc 3800     		movs	r0, r7
 3094              	.LVL706:
 3095 07ce 0299     		ldr	r1, [sp, #8]
 3096 07d0 FFF7FEFF 		bl	__aeabi_lmul
 3097              	.LVL707:
 3098 07d4 1890     		str	r0, [sp, #96]
 3099 07d6 1991     		str	r1, [sp, #100]
 3100              	.LVL708:
 691:fe.c          ****     int64_t h0 = f0g0 + f1g9_38 + f2g8_19 + f3g7_38 + f4g6_19 + f5g5_38 + f6g4_19 + f7g3_38 + f8g2_
 3101              		.loc 1 691 0
 3102 07d8 429A     		ldr	r2, [sp, #264]
 3103 07da 439B     		ldr	r3, [sp, #268]
 3104 07dc 209E     		ldr	r6, [sp, #128]
 3105 07de 219F     		ldr	r7, [sp, #132]
 3106 07e0 9219     		adds	r2, r2, r6
 3107 07e2 7B41     		adcs	r3, r3, r7
 3108 07e4 749C     		ldr	r4, [sp, #464]
 3109 07e6 759D     		ldr	r5, [sp, #468]
 3110 07e8 A418     		adds	r4, r4, r2
 3111 07ea 5D41     		adcs	r5, r5, r3
 3112 07ec 2200     		movs	r2, r4
 3113 07ee 2B00     		movs	r3, r5
 3114 07f0 849C     		ldr	r4, [sp, #528]
 3115 07f2 859D     		ldr	r5, [sp, #532]
 3116 07f4 A418     		adds	r4, r4, r2
 3117 07f6 5D41     		adcs	r5, r5, r3
 3118 07f8 2200     		movs	r2, r4
 3119 07fa 2B00     		movs	r3, r5
 3120 07fc 909C     		ldr	r4, [sp, #576]
 3121 07fe 919D     		ldr	r5, [sp, #580]
 3122 0800 A418     		adds	r4, r4, r2
 3123 0802 5D41     		adcs	r5, r5, r3
 3124 0804 2200     		movs	r2, r4
 3125 0806 2B00     		movs	r3, r5
 3126 0808 A09C     		ldr	r4, [sp, #640]
 3127 080a A19D     		ldr	r5, [sp, #644]
 3128 080c A418     		adds	r4, r4, r2
ARM GAS  C:\Users\NIGHDR~1\AppData\Local\Temp\ccfE2IUB.s 			page 68


 3129 080e 5D41     		adcs	r5, r5, r3
 3130 0810 2200     		movs	r2, r4
 3131 0812 2B00     		movs	r3, r5
 3132 0814 AC9C     		ldr	r4, [sp, #688]
 3133 0816 AD9D     		ldr	r5, [sp, #692]
 3134 0818 A418     		adds	r4, r4, r2
 3135 081a 5D41     		adcs	r5, r5, r3
 3136 081c 2200     		movs	r2, r4
 3137 081e 2B00     		movs	r3, r5
 3138 0820 BC9C     		ldr	r4, [sp, #752]
 3139 0822 BD9D     		ldr	r5, [sp, #756]
 3140 0824 A418     		adds	r4, r4, r2
 3141 0826 5D41     		adcs	r5, r5, r3
 3142 0828 2200     		movs	r2, r4
 3143 082a 2B00     		movs	r3, r5
 3144 082c 409C     		ldr	r4, [sp, #256]
 3145 082e 419D     		ldr	r5, [sp, #260]
 3146 0830 A418     		adds	r4, r4, r2
 3147 0832 5D41     		adcs	r5, r5, r3
 3148 0834 2200     		movs	r2, r4
 3149 0836 2B00     		movs	r3, r5
 3150 0838 049C     		ldr	r4, [sp, #16]
 3151 083a 059D     		ldr	r5, [sp, #20]
 3152 083c A418     		adds	r4, r4, r2
 3153 083e 5D41     		adcs	r5, r5, r3
 3154 0840 0094     		str	r4, [sp]
 3155 0842 0195     		str	r5, [sp, #4]
 3156              	.LVL709:
 692:fe.c          ****     int64_t h1 = f0g1 + f1g0   + f2g9_19 + f3g8_19 + f4g7_19 + f5g6_19 + f6g5_19 + f7g4_19 + f8g3_1
 3157              		.loc 1 692 0
 3158 0844 449E     		ldr	r6, [sp, #272]
 3159 0846 459F     		ldr	r7, [sp, #276]
 3160 0848 589B     		ldr	r3, [sp, #352]
 3161 084a 599C     		ldr	r4, [sp, #356]
 3162 084c F618     		adds	r6, r6, r3
 3163 084e 6741     		adcs	r7, r7, r4
 3164 0850 769C     		ldr	r4, [sp, #472]
 3165 0852 779D     		ldr	r5, [sp, #476]
 3166              	.LVL710:
 3167 0854 A419     		adds	r4, r4, r6
 3168 0856 7D41     		adcs	r5, r5, r7
 3169 0858 2600     		movs	r6, r4
 3170 085a 2F00     		movs	r7, r5
 3171              	.LVL711:
 3172 085c 1E9C     		ldr	r4, [sp, #120]
 3173 085e 1F9D     		ldr	r5, [sp, #124]
 3174 0860 A419     		adds	r4, r4, r6
 3175 0862 7D41     		adcs	r5, r5, r7
 3176 0864 2600     		movs	r6, r4
 3177 0866 2F00     		movs	r7, r5
 3178 0868 929C     		ldr	r4, [sp, #584]
 3179 086a 939D     		ldr	r5, [sp, #588]
 3180 086c A419     		adds	r4, r4, r6
 3181 086e 7D41     		adcs	r5, r5, r7
 3182 0870 2600     		movs	r6, r4
 3183 0872 2F00     		movs	r7, r5
 3184 0874 A29C     		ldr	r4, [sp, #648]
ARM GAS  C:\Users\NIGHDR~1\AppData\Local\Temp\ccfE2IUB.s 			page 69


 3185 0876 A39D     		ldr	r5, [sp, #652]
 3186 0878 A419     		adds	r4, r4, r6
 3187 087a 7D41     		adcs	r5, r5, r7
 3188 087c 2600     		movs	r6, r4
 3189 087e 2F00     		movs	r7, r5
 3190 0880 AE9C     		ldr	r4, [sp, #696]
 3191 0882 AF9D     		ldr	r5, [sp, #700]
 3192 0884 A419     		adds	r4, r4, r6
 3193 0886 7D41     		adcs	r5, r5, r7
 3194 0888 2600     		movs	r6, r4
 3195 088a 2F00     		movs	r7, r5
 3196 088c 2C9C     		ldr	r4, [sp, #176]
 3197 088e 2D9D     		ldr	r5, [sp, #180]
 3198 0890 A419     		adds	r4, r4, r6
 3199 0892 7D41     		adcs	r5, r5, r7
 3200 0894 2600     		movs	r6, r4
 3201 0896 2F00     		movs	r7, r5
 3202 0898 C69C     		ldr	r4, [sp, #792]
 3203 089a C79D     		ldr	r5, [sp, #796]
 3204 089c A419     		adds	r4, r4, r6
 3205 089e 7D41     		adcs	r5, r5, r7
 3206 08a0 2600     		movs	r6, r4
 3207 08a2 2F00     		movs	r7, r5
 3208 08a4 089B     		ldr	r3, [sp, #32]
 3209 08a6 099C     		ldr	r4, [sp, #36]
 3210 08a8 9B19     		adds	r3, r3, r6
 3211 08aa 7C41     		adcs	r4, r4, r7
 3212 08ac 0493     		str	r3, [sp, #16]
 3213 08ae 0594     		str	r4, [sp, #20]
 3214              	.LVL712:
 693:fe.c          ****     int64_t h2 = f0g2 + f1g1_2 + f2g0   + f3g9_38 + f4g8_19 + f5g7_38 + f6g6_19 + f7g5_38 + f8g4_19
 3215              		.loc 1 693 0
 3216 08b0 469A     		ldr	r2, [sp, #280]
 3217 08b2 479B     		ldr	r3, [sp, #284]
 3218 08b4 5A9E     		ldr	r6, [sp, #360]
 3219 08b6 5B9F     		ldr	r7, [sp, #364]
 3220 08b8 9219     		adds	r2, r2, r6
 3221 08ba 7B41     		adcs	r3, r3, r7
 3222 08bc 669C     		ldr	r4, [sp, #408]
 3223 08be 679D     		ldr	r5, [sp, #412]
 3224 08c0 A418     		adds	r4, r4, r2
 3225 08c2 5D41     		adcs	r5, r5, r3
 3226 08c4 2200     		movs	r2, r4
 3227 08c6 2B00     		movs	r3, r5
 3228              	.LVL713:
 3229 08c8 229C     		ldr	r4, [sp, #136]
 3230 08ca 239D     		ldr	r5, [sp, #140]
 3231 08cc A418     		adds	r4, r4, r2
 3232 08ce 5D41     		adcs	r5, r5, r3
 3233 08d0 2200     		movs	r2, r4
 3234 08d2 2B00     		movs	r3, r5
 3235 08d4 949C     		ldr	r4, [sp, #592]
 3236 08d6 959D     		ldr	r5, [sp, #596]
 3237 08d8 A418     		adds	r4, r4, r2
 3238 08da 5D41     		adcs	r5, r5, r3
 3239 08dc 2200     		movs	r2, r4
 3240 08de 2B00     		movs	r3, r5
ARM GAS  C:\Users\NIGHDR~1\AppData\Local\Temp\ccfE2IUB.s 			page 70


 3241 08e0 A49C     		ldr	r4, [sp, #656]
 3242 08e2 A59D     		ldr	r5, [sp, #660]
 3243 08e4 A418     		adds	r4, r4, r2
 3244 08e6 5D41     		adcs	r5, r5, r3
 3245 08e8 2200     		movs	r2, r4
 3246 08ea 2B00     		movs	r3, r5
 3247 08ec B09C     		ldr	r4, [sp, #704]
 3248 08ee B19D     		ldr	r5, [sp, #708]
 3249 08f0 A418     		adds	r4, r4, r2
 3250 08f2 5D41     		adcs	r5, r5, r3
 3251 08f4 2200     		movs	r2, r4
 3252 08f6 2B00     		movs	r3, r5
 3253 08f8 BE9C     		ldr	r4, [sp, #760]
 3254 08fa BF9D     		ldr	r5, [sp, #764]
 3255 08fc A418     		adds	r4, r4, r2
 3256 08fe 5D41     		adcs	r5, r5, r3
 3257 0900 2200     		movs	r2, r4
 3258 0902 2B00     		movs	r3, r5
 3259 0904 C89C     		ldr	r4, [sp, #800]
 3260 0906 C99D     		ldr	r5, [sp, #804]
 3261 0908 A418     		adds	r4, r4, r2
 3262 090a 5D41     		adcs	r5, r5, r3
 3263 090c 2200     		movs	r2, r4
 3264 090e 2B00     		movs	r3, r5
 3265 0910 0A9E     		ldr	r6, [sp, #40]
 3266 0912 0B9F     		ldr	r7, [sp, #44]
 3267 0914 B618     		adds	r6, r6, r2
 3268 0916 5F41     		adcs	r7, r7, r3
 3269 0918 0696     		str	r6, [sp, #24]
 3270 091a 0797     		str	r7, [sp, #28]
 3271              	.LVL714:
 694:fe.c          ****     int64_t h3 = f0g3 + f1g2   + f2g1   + f3g0   + f4g9_19 + f5g8_19 + f6g7_19 + f7g6_19 + f8g5_19 
 3272              		.loc 1 694 0
 3273 091c 489C     		ldr	r4, [sp, #288]
 3274 091e 499D     		ldr	r5, [sp, #292]
 3275 0920 5C9E     		ldr	r6, [sp, #368]
 3276 0922 5D9F     		ldr	r7, [sp, #372]
 3277              	.LVL715:
 3278 0924 A419     		adds	r4, r4, r6
 3279 0926 7D41     		adcs	r5, r5, r7
 3280 0928 2000     		movs	r0, r4
 3281              	.LVL716:
 3282 092a 2900     		movs	r1, r5
 3283 092c 689C     		ldr	r4, [sp, #416]
 3284 092e 699D     		ldr	r5, [sp, #420]
 3285 0930 2418     		adds	r4, r4, r0
 3286 0932 4D41     		adcs	r5, r5, r1
 3287 0934 2000     		movs	r0, r4
 3288 0936 2900     		movs	r1, r5
 3289 0938 789C     		ldr	r4, [sp, #480]
 3290 093a 799D     		ldr	r5, [sp, #484]
 3291 093c 2418     		adds	r4, r4, r0
 3292 093e 4D41     		adcs	r5, r5, r1
 3293 0940 2000     		movs	r0, r4
 3294 0942 2900     		movs	r1, r5
 3295 0944 969C     		ldr	r4, [sp, #600]
 3296 0946 979D     		ldr	r5, [sp, #604]
ARM GAS  C:\Users\NIGHDR~1\AppData\Local\Temp\ccfE2IUB.s 			page 71


 3297 0948 2418     		adds	r4, r4, r0
 3298 094a 4D41     		adcs	r5, r5, r1
 3299 094c 2000     		movs	r0, r4
 3300 094e 2900     		movs	r1, r5
 3301 0950 A69C     		ldr	r4, [sp, #664]
 3302 0952 A79D     		ldr	r5, [sp, #668]
 3303 0954 2418     		adds	r4, r4, r0
 3304 0956 4D41     		adcs	r5, r5, r1
 3305 0958 2000     		movs	r0, r4
 3306 095a 2900     		movs	r1, r5
 3307 095c B29C     		ldr	r4, [sp, #712]
 3308 095e B39D     		ldr	r5, [sp, #716]
 3309 0960 2418     		adds	r4, r4, r0
 3310 0962 4D41     		adcs	r5, r5, r1
 3311 0964 2000     		movs	r0, r4
 3312 0966 2900     		movs	r1, r5
 3313 0968 C09C     		ldr	r4, [sp, #768]
 3314 096a C19D     		ldr	r5, [sp, #772]
 3315 096c 2418     		adds	r4, r4, r0
 3316 096e 4D41     		adcs	r5, r5, r1
 3317 0970 2000     		movs	r0, r4
 3318 0972 2900     		movs	r1, r5
 3319 0974 CA9C     		ldr	r4, [sp, #808]
 3320 0976 CB9D     		ldr	r5, [sp, #812]
 3321 0978 2418     		adds	r4, r4, r0
 3322 097a 4D41     		adcs	r5, r5, r1
 3323 097c 2000     		movs	r0, r4
 3324 097e 2900     		movs	r1, r5
 3325 0980 0E9A     		ldr	r2, [sp, #56]
 3326 0982 0F9B     		ldr	r3, [sp, #60]
 3327 0984 1218     		adds	r2, r2, r0
 3328 0986 4B41     		adcs	r3, r3, r1
 3329 0988 0892     		str	r2, [sp, #32]
 3330 098a 0993     		str	r3, [sp, #36]
 3331              	.LVL717:
 695:fe.c          ****     int64_t h4 = f0g4 + f1g3_2 + f2g2   + f3g1_2 + f4g0   + f5g9_38 + f6g8_19 + f7g7_38 + f8g6_19 +
 3332              		.loc 1 695 0
 3333 098c 4A9A     		ldr	r2, [sp, #296]
 3334 098e 4B9B     		ldr	r3, [sp, #300]
 3335              	.LVL718:
 3336 0990 5E9E     		ldr	r6, [sp, #376]
 3337 0992 5F9F     		ldr	r7, [sp, #380]
 3338 0994 9219     		adds	r2, r2, r6
 3339 0996 7B41     		adcs	r3, r3, r7
 3340 0998 6A9C     		ldr	r4, [sp, #424]
 3341 099a 6B9D     		ldr	r5, [sp, #428]
 3342 099c A418     		adds	r4, r4, r2
 3343 099e 5D41     		adcs	r5, r5, r3
 3344 09a0 2200     		movs	r2, r4
 3345 09a2 2B00     		movs	r3, r5
 3346 09a4 7A9C     		ldr	r4, [sp, #488]
 3347 09a6 7B9D     		ldr	r5, [sp, #492]
 3348 09a8 A418     		adds	r4, r4, r2
 3349 09aa 5D41     		adcs	r5, r5, r3
 3350 09ac 2200     		movs	r2, r4
 3351 09ae 2B00     		movs	r3, r5
 3352 09b0 869C     		ldr	r4, [sp, #536]
ARM GAS  C:\Users\NIGHDR~1\AppData\Local\Temp\ccfE2IUB.s 			page 72


 3353 09b2 879D     		ldr	r5, [sp, #540]
 3354 09b4 A418     		adds	r4, r4, r2
 3355 09b6 5D41     		adcs	r5, r5, r3
 3356 09b8 2200     		movs	r2, r4
 3357 09ba 2B00     		movs	r3, r5
 3358 09bc 249C     		ldr	r4, [sp, #144]
 3359 09be 259D     		ldr	r5, [sp, #148]
 3360 09c0 A418     		adds	r4, r4, r2
 3361 09c2 5D41     		adcs	r5, r5, r3
 3362 09c4 2200     		movs	r2, r4
 3363 09c6 2B00     		movs	r3, r5
 3364 09c8 B49C     		ldr	r4, [sp, #720]
 3365 09ca B59D     		ldr	r5, [sp, #724]
 3366 09cc A418     		adds	r4, r4, r2
 3367 09ce 5D41     		adcs	r5, r5, r3
 3368 09d0 2200     		movs	r2, r4
 3369 09d2 2B00     		movs	r3, r5
 3370 09d4 C29C     		ldr	r4, [sp, #776]
 3371 09d6 C39D     		ldr	r5, [sp, #780]
 3372 09d8 A418     		adds	r4, r4, r2
 3373 09da 5D41     		adcs	r5, r5, r3
 3374 09dc 2200     		movs	r2, r4
 3375 09de 2B00     		movs	r3, r5
 3376 09e0 CC9C     		ldr	r4, [sp, #816]
 3377 09e2 CD9D     		ldr	r5, [sp, #820]
 3378 09e4 A418     		adds	r4, r4, r2
 3379 09e6 5D41     		adcs	r5, r5, r3
 3380 09e8 2200     		movs	r2, r4
 3381 09ea 2B00     		movs	r3, r5
 3382 09ec 0C9D     		ldr	r5, [sp, #48]
 3383 09ee 0D9E     		ldr	r6, [sp, #52]
 3384 09f0 AD18     		adds	r5, r5, r2
 3385 09f2 5E41     		adcs	r6, r6, r3
 3386 09f4 0295     		str	r5, [sp, #8]
 3387 09f6 0396     		str	r6, [sp, #12]
 3388              	.LVL719:
 696:fe.c          ****     int64_t h5 = f0g5 + f1g4   + f2g3   + f3g2   + f4g1   + f5g0   + f6g9_19 + f7g8_19 + f8g7_19 + 
 3389              		.loc 1 696 0
 3390 09f8 4C9C     		ldr	r4, [sp, #304]
 3391 09fa 4D9D     		ldr	r5, [sp, #308]
 3392 09fc 2E9E     		ldr	r6, [sp, #184]
 3393 09fe 2F9F     		ldr	r7, [sp, #188]
 3394 0a00 A419     		adds	r4, r4, r6
 3395 0a02 7D41     		adcs	r5, r5, r7
 3396 0a04 6C99     		ldr	r1, [sp, #432]
 3397 0a06 6D9A     		ldr	r2, [sp, #436]
 3398 0a08 0919     		adds	r1, r1, r4
 3399 0a0a 6A41     		adcs	r2, r2, r5
 3400 0a0c 0C00     		movs	r4, r1
 3401 0a0e 1500     		movs	r5, r2
 3402              	.LVL720:
 3403 0a10 7C99     		ldr	r1, [sp, #496]
 3404 0a12 7D9A     		ldr	r2, [sp, #500]
 3405 0a14 0919     		adds	r1, r1, r4
 3406 0a16 6A41     		adcs	r2, r2, r5
 3407 0a18 0C00     		movs	r4, r1
 3408 0a1a 1500     		movs	r5, r2
ARM GAS  C:\Users\NIGHDR~1\AppData\Local\Temp\ccfE2IUB.s 			page 73


 3409 0a1c 8899     		ldr	r1, [sp, #544]
 3410 0a1e 899A     		ldr	r2, [sp, #548]
 3411 0a20 0919     		adds	r1, r1, r4
 3412 0a22 6A41     		adcs	r2, r2, r5
 3413 0a24 0C00     		movs	r4, r1
 3414 0a26 1500     		movs	r5, r2
 3415 0a28 9899     		ldr	r1, [sp, #608]
 3416 0a2a 999A     		ldr	r2, [sp, #612]
 3417 0a2c 0919     		adds	r1, r1, r4
 3418 0a2e 6A41     		adcs	r2, r2, r5
 3419 0a30 0C00     		movs	r4, r1
 3420 0a32 1500     		movs	r5, r2
 3421 0a34 B699     		ldr	r1, [sp, #728]
 3422 0a36 B79A     		ldr	r2, [sp, #732]
 3423 0a38 0919     		adds	r1, r1, r4
 3424 0a3a 6A41     		adcs	r2, r2, r5
 3425 0a3c 0C00     		movs	r4, r1
 3426 0a3e 1500     		movs	r5, r2
 3427 0a40 C499     		ldr	r1, [sp, #784]
 3428 0a42 C59A     		ldr	r2, [sp, #788]
 3429 0a44 0919     		adds	r1, r1, r4
 3430 0a46 6A41     		adcs	r2, r2, r5
 3431 0a48 0C00     		movs	r4, r1
 3432 0a4a 1500     		movs	r5, r2
 3433 0a4c CE99     		ldr	r1, [sp, #824]
 3434 0a4e CF9A     		ldr	r2, [sp, #828]
 3435 0a50 0919     		adds	r1, r1, r4
 3436 0a52 6A41     		adcs	r2, r2, r5
 3437 0a54 0C00     		movs	r4, r1
 3438 0a56 1500     		movs	r5, r2
 3439 0a58 1699     		ldr	r1, [sp, #88]
 3440 0a5a 179A     		ldr	r2, [sp, #92]
 3441 0a5c 0919     		adds	r1, r1, r4
 3442 0a5e 6A41     		adcs	r2, r2, r5
 3443 0a60 0A91     		str	r1, [sp, #40]
 3444 0a62 0B92     		str	r2, [sp, #44]
 3445              	.LVL721:
 697:fe.c          ****     int64_t h6 = f0g6 + f1g5_2 + f2g4   + f3g3_2 + f4g2   + f5g1_2 + f6g0   + f7g9_38 + f8g8_19 + f
 3446              		.loc 1 697 0
 3447 0a64 4E9A     		ldr	r2, [sp, #312]
 3448 0a66 4F9B     		ldr	r3, [sp, #316]
 3449 0a68 609E     		ldr	r6, [sp, #384]
 3450 0a6a 619F     		ldr	r7, [sp, #388]
 3451 0a6c 9219     		adds	r2, r2, r6
 3452 0a6e 7B41     		adcs	r3, r3, r7
 3453 0a70 6E9D     		ldr	r5, [sp, #440]
 3454 0a72 6F9E     		ldr	r6, [sp, #444]
 3455 0a74 AD18     		adds	r5, r5, r2
 3456 0a76 5E41     		adcs	r6, r6, r3
 3457 0a78 2A00     		movs	r2, r5
 3458 0a7a 3300     		movs	r3, r6
 3459 0a7c 7E9D     		ldr	r5, [sp, #504]
 3460 0a7e 7F9E     		ldr	r6, [sp, #508]
 3461 0a80 AD18     		adds	r5, r5, r2
 3462 0a82 5E41     		adcs	r6, r6, r3
 3463 0a84 2A00     		movs	r2, r5
 3464 0a86 3300     		movs	r3, r6
ARM GAS  C:\Users\NIGHDR~1\AppData\Local\Temp\ccfE2IUB.s 			page 74


 3465 0a88 8A9D     		ldr	r5, [sp, #552]
 3466 0a8a 8B9E     		ldr	r6, [sp, #556]
 3467 0a8c AD18     		adds	r5, r5, r2
 3468 0a8e 5E41     		adcs	r6, r6, r3
 3469 0a90 2A00     		movs	r2, r5
 3470 0a92 3300     		movs	r3, r6
 3471 0a94 9A9D     		ldr	r5, [sp, #616]
 3472 0a96 9B9E     		ldr	r6, [sp, #620]
 3473 0a98 AD18     		adds	r5, r5, r2
 3474 0a9a 5E41     		adcs	r6, r6, r3
 3475 0a9c 2A00     		movs	r2, r5
 3476 0a9e 3300     		movs	r3, r6
 3477 0aa0 3A9D     		ldr	r5, [sp, #232]
 3478 0aa2 3B9E     		ldr	r6, [sp, #236]
 3479 0aa4 AD18     		adds	r5, r5, r2
 3480 0aa6 5E41     		adcs	r6, r6, r3
 3481 0aa8 2A00     		movs	r2, r5
 3482 0aaa 3300     		movs	r3, r6
 3483 0aac 269D     		ldr	r5, [sp, #152]
 3484 0aae 279E     		ldr	r6, [sp, #156]
 3485 0ab0 AD18     		adds	r5, r5, r2
 3486 0ab2 5E41     		adcs	r6, r6, r3
 3487 0ab4 2A00     		movs	r2, r5
 3488 0ab6 3300     		movs	r3, r6
 3489 0ab8 D09D     		ldr	r5, [sp, #832]
 3490 0aba D19E     		ldr	r6, [sp, #836]
 3491 0abc AD18     		adds	r5, r5, r2
 3492 0abe 5E41     		adcs	r6, r6, r3
 3493 0ac0 2A00     		movs	r2, r5
 3494 0ac2 3300     		movs	r3, r6
 3495 0ac4 109D     		ldr	r5, [sp, #64]
 3496 0ac6 119E     		ldr	r6, [sp, #68]
 3497 0ac8 AD18     		adds	r5, r5, r2
 3498 0aca 5E41     		adcs	r6, r6, r3
 3499 0acc 0C95     		str	r5, [sp, #48]
 3500 0ace 0D96     		str	r6, [sp, #52]
 3501              	.LVL722:
 698:fe.c          ****     int64_t h7 = f0g7 + f1g6   + f2g5   + f3g4   + f4g3   + f5g2   + f6g1   + f7g0   + f8g9_19 + f9
 3502              		.loc 1 698 0
 3503 0ad0 509E     		ldr	r6, [sp, #320]
 3504 0ad2 519F     		ldr	r7, [sp, #324]
 3505 0ad4 629B     		ldr	r3, [sp, #392]
 3506 0ad6 639C     		ldr	r4, [sp, #396]
 3507 0ad8 F618     		adds	r6, r6, r3
 3508 0ada 6741     		adcs	r7, r7, r4
 3509 0adc 7099     		ldr	r1, [sp, #448]
 3510 0ade 719A     		ldr	r2, [sp, #452]
 3511              	.LVL723:
 3512 0ae0 8919     		adds	r1, r1, r6
 3513 0ae2 7A41     		adcs	r2, r2, r7
 3514 0ae4 0E00     		movs	r6, r1
 3515 0ae6 1700     		movs	r7, r2
 3516 0ae8 8099     		ldr	r1, [sp, #512]
 3517 0aea 819A     		ldr	r2, [sp, #516]
 3518 0aec 8919     		adds	r1, r1, r6
 3519 0aee 7A41     		adcs	r2, r2, r7
 3520 0af0 0E00     		movs	r6, r1
ARM GAS  C:\Users\NIGHDR~1\AppData\Local\Temp\ccfE2IUB.s 			page 75


 3521 0af2 1700     		movs	r7, r2
 3522 0af4 8C99     		ldr	r1, [sp, #560]
 3523 0af6 8D9A     		ldr	r2, [sp, #564]
 3524 0af8 8919     		adds	r1, r1, r6
 3525 0afa 7A41     		adcs	r2, r2, r7
 3526 0afc 0E00     		movs	r6, r1
 3527 0afe 1700     		movs	r7, r2
 3528 0b00 9C99     		ldr	r1, [sp, #624]
 3529 0b02 9D9A     		ldr	r2, [sp, #628]
 3530 0b04 8919     		adds	r1, r1, r6
 3531 0b06 7A41     		adcs	r2, r2, r7
 3532 0b08 0E00     		movs	r6, r1
 3533 0b0a 1700     		movs	r7, r2
 3534 0b0c A899     		ldr	r1, [sp, #672]
 3535 0b0e A99A     		ldr	r2, [sp, #676]
 3536 0b10 8919     		adds	r1, r1, r6
 3537 0b12 7A41     		adcs	r2, r2, r7
 3538 0b14 0E00     		movs	r6, r1
 3539 0b16 1700     		movs	r7, r2
 3540 0b18 B899     		ldr	r1, [sp, #736]
 3541 0b1a B99A     		ldr	r2, [sp, #740]
 3542 0b1c 8919     		adds	r1, r1, r6
 3543 0b1e 7A41     		adcs	r2, r2, r7
 3544 0b20 0E00     		movs	r6, r1
 3545 0b22 1700     		movs	r7, r2
 3546 0b24 D299     		ldr	r1, [sp, #840]
 3547 0b26 D39A     		ldr	r2, [sp, #844]
 3548 0b28 8919     		adds	r1, r1, r6
 3549 0b2a 7A41     		adcs	r2, r2, r7
 3550 0b2c 0E00     		movs	r6, r1
 3551 0b2e 1700     		movs	r7, r2
 3552 0b30 1499     		ldr	r1, [sp, #80]
 3553 0b32 159A     		ldr	r2, [sp, #84]
 3554 0b34 8919     		adds	r1, r1, r6
 3555 0b36 7A41     		adcs	r2, r2, r7
 3556 0b38 0E91     		str	r1, [sp, #56]
 3557 0b3a 0F92     		str	r2, [sp, #60]
 3558              	.LVL724:
 699:fe.c          ****     int64_t h8 = f0g8 + f1g7_2 + f2g6   + f3g5_2 + f4g4   + f5g3_2 + f6g2   + f7g1_2 + f8g0   + f9g
 3559              		.loc 1 699 0
 3560 0b3c 549C     		ldr	r4, [sp, #336]
 3561 0b3e 559D     		ldr	r5, [sp, #340]
 3562 0b40 649A     		ldr	r2, [sp, #400]
 3563 0b42 659B     		ldr	r3, [sp, #404]
 3564 0b44 A418     		adds	r4, r4, r2
 3565 0b46 5D41     		adcs	r5, r5, r3
 3566 0b48 7299     		ldr	r1, [sp, #456]
 3567 0b4a 739A     		ldr	r2, [sp, #460]
 3568              	.LVL725:
 3569 0b4c 0919     		adds	r1, r1, r4
 3570 0b4e 6A41     		adcs	r2, r2, r5
 3571 0b50 0C00     		movs	r4, r1
 3572 0b52 1500     		movs	r5, r2
 3573              	.LVL726:
 3574 0b54 8299     		ldr	r1, [sp, #520]
 3575 0b56 839A     		ldr	r2, [sp, #524]
 3576 0b58 0919     		adds	r1, r1, r4
ARM GAS  C:\Users\NIGHDR~1\AppData\Local\Temp\ccfE2IUB.s 			page 76


 3577 0b5a 6A41     		adcs	r2, r2, r5
 3578 0b5c 0C00     		movs	r4, r1
 3579 0b5e 1500     		movs	r5, r2
 3580 0b60 8E99     		ldr	r1, [sp, #568]
 3581 0b62 8F9A     		ldr	r2, [sp, #572]
 3582 0b64 0919     		adds	r1, r1, r4
 3583 0b66 6A41     		adcs	r2, r2, r5
 3584 0b68 0C00     		movs	r4, r1
 3585 0b6a 1500     		movs	r5, r2
 3586 0b6c 9E99     		ldr	r1, [sp, #632]
 3587 0b6e 9F9A     		ldr	r2, [sp, #636]
 3588 0b70 0919     		adds	r1, r1, r4
 3589 0b72 6A41     		adcs	r2, r2, r5
 3590 0b74 0C00     		movs	r4, r1
 3591 0b76 1500     		movs	r5, r2
 3592 0b78 AA99     		ldr	r1, [sp, #680]
 3593 0b7a AB9A     		ldr	r2, [sp, #684]
 3594 0b7c 0919     		adds	r1, r1, r4
 3595 0b7e 6A41     		adcs	r2, r2, r5
 3596 0b80 0C00     		movs	r4, r1
 3597 0b82 1500     		movs	r5, r2
 3598 0b84 BA99     		ldr	r1, [sp, #744]
 3599 0b86 BB9A     		ldr	r2, [sp, #748]
 3600 0b88 0919     		adds	r1, r1, r4
 3601 0b8a 6A41     		adcs	r2, r2, r5
 3602 0b8c 0C00     		movs	r4, r1
 3603 0b8e 1500     		movs	r5, r2
 3604 0b90 3C99     		ldr	r1, [sp, #240]
 3605 0b92 3D9A     		ldr	r2, [sp, #244]
 3606 0b94 0919     		adds	r1, r1, r4
 3607 0b96 6A41     		adcs	r2, r2, r5
 3608 0b98 0C00     		movs	r4, r1
 3609 0b9a 1500     		movs	r5, r2
 3610 0b9c 189A     		ldr	r2, [sp, #96]
 3611 0b9e 199B     		ldr	r3, [sp, #100]
 3612 0ba0 1219     		adds	r2, r2, r4
 3613 0ba2 6B41     		adcs	r3, r3, r5
 3614 0ba4 1092     		str	r2, [sp, #64]
 3615 0ba6 1193     		str	r3, [sp, #68]
 3616              	.LVL727:
 700:fe.c          ****     int64_t h9 = f0g9 + f1g8   + f2g7   + f3g6   + f4g5   + f5g4   + f6g3   + f7g2   + f8g1   + f9g
 3617              		.loc 1 700 0
 3618 0ba8 5699     		ldr	r1, [sp, #344]
 3619 0baa 579A     		ldr	r2, [sp, #348]
 3620 0bac 529D     		ldr	r5, [sp, #328]
 3621 0bae 539E     		ldr	r6, [sp, #332]
 3622 0bb0 4919     		adds	r1, r1, r5
 3623 0bb2 7241     		adcs	r2, r2, r6
 3624 0bb4 0E00     		movs	r6, r1
 3625 0bb6 1700     		movs	r7, r2
 3626 0bb8 3899     		ldr	r1, [sp, #224]
 3627 0bba 399A     		ldr	r2, [sp, #228]
 3628 0bbc 8919     		adds	r1, r1, r6
 3629 0bbe 7A41     		adcs	r2, r2, r7
 3630 0bc0 0E00     		movs	r6, r1
 3631 0bc2 1700     		movs	r7, r2
 3632 0bc4 3699     		ldr	r1, [sp, #216]
ARM GAS  C:\Users\NIGHDR~1\AppData\Local\Temp\ccfE2IUB.s 			page 77


 3633 0bc6 379A     		ldr	r2, [sp, #220]
 3634 0bc8 8919     		adds	r1, r1, r6
 3635 0bca 7A41     		adcs	r2, r2, r7
 3636 0bcc 0E00     		movs	r6, r1
 3637 0bce 1700     		movs	r7, r2
 3638 0bd0 3499     		ldr	r1, [sp, #208]
 3639 0bd2 359A     		ldr	r2, [sp, #212]
 3640 0bd4 8919     		adds	r1, r1, r6
 3641 0bd6 7A41     		adcs	r2, r2, r7
 3642 0bd8 0E00     		movs	r6, r1
 3643 0bda 1700     		movs	r7, r2
 3644 0bdc 3299     		ldr	r1, [sp, #200]
 3645 0bde 339A     		ldr	r2, [sp, #204]
 3646 0be0 8919     		adds	r1, r1, r6
 3647 0be2 7A41     		adcs	r2, r2, r7
 3648 0be4 0E00     		movs	r6, r1
 3649 0be6 1700     		movs	r7, r2
 3650 0be8 2A99     		ldr	r1, [sp, #168]
 3651 0bea 2B9A     		ldr	r2, [sp, #172]
 3652 0bec 8919     		adds	r1, r1, r6
 3653 0bee 7A41     		adcs	r2, r2, r7
 3654 0bf0 0E00     		movs	r6, r1
 3655 0bf2 1700     		movs	r7, r2
 3656 0bf4 1C99     		ldr	r1, [sp, #112]
 3657 0bf6 1D9A     		ldr	r2, [sp, #116]
 3658 0bf8 8919     		adds	r1, r1, r6
 3659 0bfa 7A41     		adcs	r2, r2, r7
 3660 0bfc 0E00     		movs	r6, r1
 3661 0bfe 1700     		movs	r7, r2
 3662 0c00 1299     		ldr	r1, [sp, #72]
 3663 0c02 139A     		ldr	r2, [sp, #76]
 3664 0c04 8919     		adds	r1, r1, r6
 3665 0c06 7A41     		adcs	r2, r2, r7
 3666 0c08 0E00     		movs	r6, r1
 3667 0c0a 1700     		movs	r7, r2
 3668 0c0c D49B     		ldr	r3, [sp, #848]
 3669 0c0e D59C     		ldr	r4, [sp, #852]
 3670 0c10 9B19     		adds	r3, r3, r6
 3671 0c12 7C41     		adcs	r4, r4, r7
 3672 0c14 1293     		str	r3, [sp, #72]
 3673 0c16 1394     		str	r4, [sp, #76]
 3674              	.LVL728:
 701:fe.c          ****     int64_t carry0;
 702:fe.c          ****     int64_t carry1;
 703:fe.c          ****     int64_t carry2;
 704:fe.c          ****     int64_t carry3;
 705:fe.c          ****     int64_t carry4;
 706:fe.c          ****     int64_t carry5;
 707:fe.c          ****     int64_t carry6;
 708:fe.c          ****     int64_t carry7;
 709:fe.c          ****     int64_t carry8;
 710:fe.c          ****     int64_t carry9;
 711:fe.c          **** 
 712:fe.c          ****     carry0 = (h0 + (int64_t) (1 << 25)) >> 26;
 3675              		.loc 1 712 0
 3676 0c18 8020     		movs	r0, #128
 3677 0c1a 8004     		lsls	r0, r0, #18
ARM GAS  C:\Users\NIGHDR~1\AppData\Local\Temp\ccfE2IUB.s 			page 78


 3678 0c1c 0021     		movs	r1, #0
 3679 0c1e 009C     		ldr	r4, [sp]
 3680 0c20 019D     		ldr	r5, [sp, #4]
 3681 0c22 2418     		adds	r4, r4, r0
 3682 0c24 4D41     		adcs	r5, r5, r1
 3683 0c26 AE01     		lsls	r6, r5, #6
 3684 0c28 A20E     		lsrs	r2, r4, #26
 3685              	.LVL729:
 3686 0c2a 3243     		orrs	r2, r6
 3687 0c2c AB16     		asrs	r3, r5, #26
 3688              	.LVL730:
 713:fe.c          ****     h1 += carry0;
 3689              		.loc 1 713 0
 3690 0c2e 049E     		ldr	r6, [sp, #16]
 3691 0c30 059F     		ldr	r7, [sp, #20]
 3692 0c32 B618     		adds	r6, r6, r2
 3693 0c34 5F41     		adcs	r7, r7, r3
 3694 0c36 0496     		str	r6, [sp, #16]
 3695 0c38 0597     		str	r7, [sp, #20]
 3696              	.LVL731:
 714:fe.c          ****     h0 -= carry0 << 26;
 3697              		.loc 1 714 0
 3698 0c3a 9509     		lsrs	r5, r2, #6
 3699 0c3c AC46     		mov	ip, r5
 3700 0c3e 9D06     		lsls	r5, r3, #26
 3701 0c40 6746     		mov	r7, ip
 3702 0c42 3D43     		orrs	r5, r7
 3703 0c44 9406     		lsls	r4, r2, #26
 3704 0c46 009A     		ldr	r2, [sp]
 3705 0c48 019B     		ldr	r3, [sp, #4]
 3706              	.LVL732:
 3707 0c4a 121B     		subs	r2, r2, r4
 3708 0c4c AB41     		sbcs	r3, r3, r5
 3709 0c4e 1492     		str	r2, [sp, #80]
 3710 0c50 1593     		str	r3, [sp, #84]
 3711              	.LVL733:
 715:fe.c          ****     carry4 = (h4 + (int64_t) (1 << 25)) >> 26;
 3712              		.loc 1 715 0
 3713 0c52 029B     		ldr	r3, [sp, #8]
 3714 0c54 039C     		ldr	r4, [sp, #12]
 3715 0c56 C018     		adds	r0, r0, r3
 3716 0c58 6141     		adcs	r1, r1, r4
 3717 0c5a 8C01     		lsls	r4, r1, #6
 3718 0c5c 820E     		lsrs	r2, r0, #26
 3719              	.LVL734:
 3720 0c5e 2243     		orrs	r2, r4
 3721 0c60 8B16     		asrs	r3, r1, #26
 3722              	.LVL735:
 716:fe.c          ****     h5 += carry4;
 3723              		.loc 1 716 0
 3724 0c62 0A9C     		ldr	r4, [sp, #40]
 3725 0c64 0B9D     		ldr	r5, [sp, #44]
 3726 0c66 A418     		adds	r4, r4, r2
 3727 0c68 5D41     		adcs	r5, r5, r3
 3728              	.LVL736:
 717:fe.c          ****     h4 -= carry4 << 26;
 3729              		.loc 1 717 0
ARM GAS  C:\Users\NIGHDR~1\AppData\Local\Temp\ccfE2IUB.s 			page 79


 3730 0c6a 9709     		lsrs	r7, r2, #6
 3731 0c6c 9906     		lsls	r1, r3, #26
 3732 0c6e 3943     		orrs	r1, r7
 3733 0c70 9006     		lsls	r0, r2, #26
 3734 0c72 029A     		ldr	r2, [sp, #8]
 3735 0c74 039B     		ldr	r3, [sp, #12]
 3736              	.LVL737:
 3737 0c76 121A     		subs	r2, r2, r0
 3738 0c78 8B41     		sbcs	r3, r3, r1
 3739 0c7a 0A92     		str	r2, [sp, #40]
 3740 0c7c 0B93     		str	r3, [sp, #44]
 3741              	.LVL738:
 718:fe.c          **** 
 719:fe.c          ****     carry1 = (h1 + (int64_t) (1 << 24)) >> 25;
 3742              		.loc 1 719 0
 3743 0c7e 8020     		movs	r0, #128
 3744 0c80 4004     		lsls	r0, r0, #17
 3745 0c82 0021     		movs	r1, #0
 3746 0c84 049A     		ldr	r2, [sp, #16]
 3747 0c86 059B     		ldr	r3, [sp, #20]
 3748              	.LVL739:
 3749 0c88 8018     		adds	r0, r0, r2
 3750 0c8a 5941     		adcs	r1, r1, r3
 3751 0c8c CF01     		lsls	r7, r1, #7
 3752 0c8e 420E     		lsrs	r2, r0, #25
 3753 0c90 3A43     		orrs	r2, r7
 3754 0c92 4B16     		asrs	r3, r1, #25
 3755              	.LVL740:
 720:fe.c          ****     h2 += carry1;
 3756              		.loc 1 720 0
 3757 0c94 0698     		ldr	r0, [sp, #24]
 3758 0c96 0799     		ldr	r1, [sp, #28]
 3759 0c98 8018     		adds	r0, r0, r2
 3760 0c9a 5941     		adcs	r1, r1, r3
 3761 0c9c 0090     		str	r0, [sp]
 3762 0c9e 0191     		str	r1, [sp, #4]
 3763              	.LVL741:
 721:fe.c          ****     h1 -= carry1 << 25;
 3764              		.loc 1 721 0
 3765 0ca0 D709     		lsrs	r7, r2, #7
 3766 0ca2 5906     		lsls	r1, r3, #25
 3767 0ca4 3943     		orrs	r1, r7
 3768 0ca6 5006     		lsls	r0, r2, #25
 3769              	.LVL742:
 3770 0ca8 049E     		ldr	r6, [sp, #16]
 3771 0caa 059F     		ldr	r7, [sp, #20]
 3772 0cac 361A     		subs	r6, r6, r0
 3773 0cae 8F41     		sbcs	r7, r7, r1
 3774              	.LVL743:
 3775 0cb0 0496     		str	r6, [sp, #16]
 3776 0cb2 0597     		str	r7, [sp, #20]
 3777              	.LVL744:
 722:fe.c          ****     carry5 = (h5 + (int64_t) (1 << 24)) >> 25;
 3778              		.loc 1 722 0
 3779 0cb4 8021     		movs	r1, #128
 3780 0cb6 4904     		lsls	r1, r1, #17
 3781 0cb8 0022     		movs	r2, #0
ARM GAS  C:\Users\NIGHDR~1\AppData\Local\Temp\ccfE2IUB.s 			page 80


 3782              	.LVL745:
 3783 0cba 0919     		adds	r1, r1, r4
 3784 0cbc 6A41     		adcs	r2, r2, r5
 3785 0cbe 0800     		movs	r0, r1
 3786 0cc0 1100     		movs	r1, r2
 3787 0cc2 D601     		lsls	r6, r2, #7
 3788              	.LVL746:
 3789 0cc4 420E     		lsrs	r2, r0, #25
 3790 0cc6 3243     		orrs	r2, r6
 3791 0cc8 4B16     		asrs	r3, r1, #25
 3792              	.LVL747:
 723:fe.c          ****     h6 += carry5;
 3793              		.loc 1 723 0
 3794 0cca 0C98     		ldr	r0, [sp, #48]
 3795 0ccc 0D99     		ldr	r1, [sp, #52]
 3796 0cce 8018     		adds	r0, r0, r2
 3797 0cd0 5941     		adcs	r1, r1, r3
 3798 0cd2 0290     		str	r0, [sp, #8]
 3799 0cd4 0391     		str	r1, [sp, #12]
 3800              	.LVL748:
 724:fe.c          ****     h5 -= carry5 << 25;
 3801              		.loc 1 724 0
 3802 0cd6 D609     		lsrs	r6, r2, #7
 3803 0cd8 5906     		lsls	r1, r3, #25
 3804 0cda 3143     		orrs	r1, r6
 3805 0cdc 5006     		lsls	r0, r2, #25
 3806              	.LVL749:
 3807 0cde 2E00     		movs	r6, r5
 3808 0ce0 2500     		movs	r5, r4
 3809 0ce2 2D1A     		subs	r5, r5, r0
 3810 0ce4 8E41     		sbcs	r6, r6, r1
 3811 0ce6 0695     		str	r5, [sp, #24]
 3812 0ce8 0796     		str	r6, [sp, #28]
 3813              	.LVL750:
 725:fe.c          **** 
 726:fe.c          ****     carry2 = (h2 + (int64_t) (1 << 25)) >> 26;
 3814              		.loc 1 726 0
 3815 0cea 8023     		movs	r3, #128
 3816 0cec 9B04     		lsls	r3, r3, #18
 3817 0cee 0024     		movs	r4, #0
 3818 0cf0 009E     		ldr	r6, [sp]
 3819 0cf2 019F     		ldr	r7, [sp, #4]
 3820 0cf4 9B19     		adds	r3, r3, r6
 3821 0cf6 7C41     		adcs	r4, r4, r7
 3822 0cf8 1800     		movs	r0, r3
 3823 0cfa 2100     		movs	r1, r4
 3824 0cfc A401     		lsls	r4, r4, #6
 3825 0cfe 820E     		lsrs	r2, r0, #26
 3826              	.LVL751:
 3827 0d00 2243     		orrs	r2, r4
 3828 0d02 8B16     		asrs	r3, r1, #26
 3829              	.LVL752:
 727:fe.c          ****     h3 += carry2;
 3830              		.loc 1 727 0
 3831 0d04 0898     		ldr	r0, [sp, #32]
 3832 0d06 0999     		ldr	r1, [sp, #36]
 3833 0d08 8018     		adds	r0, r0, r2
ARM GAS  C:\Users\NIGHDR~1\AppData\Local\Temp\ccfE2IUB.s 			page 81


 3834 0d0a 5941     		adcs	r1, r1, r3
 3835              	.LVL753:
 728:fe.c          ****     h2 -= carry2 << 26;
 3836              		.loc 1 728 0
 3837 0d0c 9609     		lsrs	r6, r2, #6
 3838 0d0e 9D06     		lsls	r5, r3, #26
 3839              	.LVL754:
 3840 0d10 3543     		orrs	r5, r6
 3841 0d12 9406     		lsls	r4, r2, #26
 3842 0d14 009E     		ldr	r6, [sp]
 3843 0d16 019F     		ldr	r7, [sp, #4]
 3844 0d18 361B     		subs	r6, r6, r4
 3845 0d1a AF41     		sbcs	r7, r7, r5
 3846 0d1c 0896     		str	r6, [sp, #32]
 3847 0d1e 0997     		str	r7, [sp, #36]
 3848              	.LVL755:
 729:fe.c          ****     carry6 = (h6 + (int64_t) (1 << 25)) >> 26;
 3849              		.loc 1 729 0
 3850 0d20 8023     		movs	r3, #128
 3851 0d22 9B04     		lsls	r3, r3, #18
 3852 0d24 0024     		movs	r4, #0
 3853 0d26 029D     		ldr	r5, [sp, #8]
 3854 0d28 039E     		ldr	r6, [sp, #12]
 3855 0d2a 5B19     		adds	r3, r3, r5
 3856 0d2c 7441     		adcs	r4, r4, r6
 3857 0d2e 2500     		movs	r5, r4
 3858 0d30 1C00     		movs	r4, r3
 3859 0d32 AE01     		lsls	r6, r5, #6
 3860              	.LVL756:
 3861 0d34 A20E     		lsrs	r2, r4, #26
 3862              	.LVL757:
 3863 0d36 3243     		orrs	r2, r6
 3864 0d38 AB16     		asrs	r3, r5, #26
 3865              	.LVL758:
 730:fe.c          ****     h7 += carry6;
 3866              		.loc 1 730 0
 3867 0d3a 0E9E     		ldr	r6, [sp, #56]
 3868 0d3c 0F9F     		ldr	r7, [sp, #60]
 3869 0d3e B618     		adds	r6, r6, r2
 3870 0d40 5F41     		adcs	r7, r7, r3
 3871 0d42 0096     		str	r6, [sp]
 3872 0d44 0197     		str	r7, [sp, #4]
 3873              	.LVL759:
 731:fe.c          ****     h6 -= carry6 << 26;
 3874              		.loc 1 731 0
 3875 0d46 9509     		lsrs	r5, r2, #6
 3876 0d48 AC46     		mov	ip, r5
 3877 0d4a 9D06     		lsls	r5, r3, #26
 3878 0d4c 6746     		mov	r7, ip
 3879 0d4e 3D43     		orrs	r5, r7
 3880 0d50 9406     		lsls	r4, r2, #26
 3881 0d52 029A     		ldr	r2, [sp, #8]
 3882 0d54 039B     		ldr	r3, [sp, #12]
 3883              	.LVL760:
 3884 0d56 121B     		subs	r2, r2, r4
 3885 0d58 AB41     		sbcs	r3, r3, r5
 3886 0d5a 0292     		str	r2, [sp, #8]
ARM GAS  C:\Users\NIGHDR~1\AppData\Local\Temp\ccfE2IUB.s 			page 82


 3887 0d5c 0393     		str	r3, [sp, #12]
 3888              	.LVL761:
 732:fe.c          **** 
 733:fe.c          ****     carry3 = (h3 + (int64_t) (1 << 24)) >> 25;
 3889              		.loc 1 733 0
 3890 0d5e 8023     		movs	r3, #128
 3891 0d60 5B04     		lsls	r3, r3, #17
 3892 0d62 0024     		movs	r4, #0
 3893 0d64 1B18     		adds	r3, r3, r0
 3894 0d66 4C41     		adcs	r4, r4, r1
 3895 0d68 2500     		movs	r5, r4
 3896 0d6a 1C00     		movs	r4, r3
 3897 0d6c EF01     		lsls	r7, r5, #7
 3898 0d6e 620E     		lsrs	r2, r4, #25
 3899              	.LVL762:
 3900 0d70 3A43     		orrs	r2, r7
 3901 0d72 6B16     		asrs	r3, r5, #25
 3902              	.LVL763:
 734:fe.c          ****     h4 += carry3;
 3903              		.loc 1 734 0
 3904 0d74 0A9C     		ldr	r4, [sp, #40]
 3905 0d76 0B9D     		ldr	r5, [sp, #44]
 3906 0d78 A418     		adds	r4, r4, r2
 3907 0d7a 5D41     		adcs	r5, r5, r3
 3908 0d7c 0A94     		str	r4, [sp, #40]
 3909 0d7e 0B95     		str	r5, [sp, #44]
 3910              	.LVL764:
 735:fe.c          ****     h3 -= carry3 << 25;
 3911              		.loc 1 735 0
 3912 0d80 D709     		lsrs	r7, r2, #7
 3913 0d82 5D06     		lsls	r5, r3, #25
 3914 0d84 3D43     		orrs	r5, r7
 3915 0d86 5406     		lsls	r4, r2, #25
 3916              	.LVL765:
 3917 0d88 0A00     		movs	r2, r1
 3918              	.LVL766:
 3919 0d8a 0100     		movs	r1, r0
 3920 0d8c 091B     		subs	r1, r1, r4
 3921 0d8e AA41     		sbcs	r2, r2, r5
 3922 0d90 0C91     		str	r1, [sp, #48]
 3923 0d92 0D92     		str	r2, [sp, #52]
 3924              	.LVL767:
 736:fe.c          ****     carry7 = (h7 + (int64_t) (1 << 24)) >> 25;
 3925              		.loc 1 736 0
 3926 0d94 8023     		movs	r3, #128
 3927 0d96 5B04     		lsls	r3, r3, #17
 3928 0d98 0024     		movs	r4, #0
 3929 0d9a 009D     		ldr	r5, [sp]
 3930 0d9c 019E     		ldr	r6, [sp, #4]
 3931 0d9e 2900     		movs	r1, r5
 3932              	.LVL768:
 3933 0da0 3200     		movs	r2, r6
 3934 0da2 5B18     		adds	r3, r3, r1
 3935 0da4 5441     		adcs	r4, r4, r2
 3936 0da6 1800     		movs	r0, r3
 3937 0da8 2100     		movs	r1, r4
 3938 0daa E401     		lsls	r4, r4, #7
ARM GAS  C:\Users\NIGHDR~1\AppData\Local\Temp\ccfE2IUB.s 			page 83


 3939 0dac 420E     		lsrs	r2, r0, #25
 3940 0dae 2243     		orrs	r2, r4
 3941 0db0 4B16     		asrs	r3, r1, #25
 3942              	.LVL769:
 737:fe.c          ****     h8 += carry7;
 3943              		.loc 1 737 0
 3944 0db2 1098     		ldr	r0, [sp, #64]
 3945 0db4 1199     		ldr	r1, [sp, #68]
 3946 0db6 8018     		adds	r0, r0, r2
 3947 0db8 5941     		adcs	r1, r1, r3
 3948 0dba 0090     		str	r0, [sp]
 3949 0dbc 0191     		str	r1, [sp, #4]
 3950              	.LVL770:
 738:fe.c          ****     h7 -= carry7 << 25;
 3951              		.loc 1 738 0
 3952 0dbe D709     		lsrs	r7, r2, #7
 3953 0dc0 5906     		lsls	r1, r3, #25
 3954 0dc2 3943     		orrs	r1, r7
 3955 0dc4 5006     		lsls	r0, r2, #25
 3956              	.LVL771:
 3957 0dc6 3700     		movs	r7, r6
 3958 0dc8 2E00     		movs	r6, r5
 3959              	.LVL772:
 3960 0dca 361A     		subs	r6, r6, r0
 3961 0dcc 8F41     		sbcs	r7, r7, r1
 3962 0dce 0E96     		str	r6, [sp, #56]
 3963 0dd0 0F97     		str	r7, [sp, #60]
 3964              	.LVL773:
 739:fe.c          **** 
 740:fe.c          ****     carry4 = (h4 + (int64_t) (1 << 25)) >> 26;
 3965              		.loc 1 740 0
 3966 0dd2 8026     		movs	r6, #128
 3967              	.LVL774:
 3968 0dd4 B604     		lsls	r6, r6, #18
 3969 0dd6 0027     		movs	r7, #0
 3970 0dd8 0A9C     		ldr	r4, [sp, #40]
 3971 0dda 0B9D     		ldr	r5, [sp, #44]
 3972 0ddc 2100     		movs	r1, r4
 3973 0dde 2A00     		movs	r2, r5
 3974              	.LVL775:
 3975 0de0 7618     		adds	r6, r6, r1
 3976 0de2 5741     		adcs	r7, r7, r2
 3977 0de4 3000     		movs	r0, r6
 3978 0de6 BE01     		lsls	r6, r7, #6
 3979 0de8 820E     		lsrs	r2, r0, #26
 3980 0dea 3243     		orrs	r2, r6
 3981 0dec BB16     		asrs	r3, r7, #26
 3982              	.LVL776:
 741:fe.c          ****     h5 += carry4;
 3983              		.loc 1 741 0
 3984 0dee 0698     		ldr	r0, [sp, #24]
 3985 0df0 0799     		ldr	r1, [sp, #28]
 3986 0df2 8018     		adds	r0, r0, r2
 3987 0df4 5941     		adcs	r1, r1, r3
 3988 0df6 0690     		str	r0, [sp, #24]
 3989 0df8 0791     		str	r1, [sp, #28]
 3990              	.LVL777:
ARM GAS  C:\Users\NIGHDR~1\AppData\Local\Temp\ccfE2IUB.s 			page 84


 742:fe.c          ****     h4 -= carry4 << 26;
 3991              		.loc 1 742 0
 3992 0dfa 9609     		lsrs	r6, r2, #6
 3993 0dfc 9906     		lsls	r1, r3, #26
 3994 0dfe 3143     		orrs	r1, r6
 3995 0e00 9006     		lsls	r0, r2, #26
 3996              	.LVL778:
 3997 0e02 2600     		movs	r6, r4
 3998 0e04 2F00     		movs	r7, r5
 3999 0e06 361A     		subs	r6, r6, r0
 4000 0e08 8F41     		sbcs	r7, r7, r1
 4001 0e0a 0A96     		str	r6, [sp, #40]
 4002 0e0c 0B97     		str	r7, [sp, #44]
 4003              	.LVL779:
 743:fe.c          ****     carry8 = (h8 + (int64_t) (1 << 25)) >> 26;
 4004              		.loc 1 743 0
 4005 0e0e 8021     		movs	r1, #128
 4006 0e10 8904     		lsls	r1, r1, #18
 4007 0e12 0022     		movs	r2, #0
 4008              	.LVL780:
 4009 0e14 009B     		ldr	r3, [sp]
 4010 0e16 019C     		ldr	r4, [sp, #4]
 4011 0e18 C918     		adds	r1, r1, r3
 4012 0e1a 6241     		adcs	r2, r2, r4
 4013 0e1c 0800     		movs	r0, r1
 4014 0e1e 1100     		movs	r1, r2
 4015 0e20 9601     		lsls	r6, r2, #6
 4016              	.LVL781:
 4017 0e22 820E     		lsrs	r2, r0, #26
 4018 0e24 3243     		orrs	r2, r6
 4019 0e26 8B16     		asrs	r3, r1, #26
 4020              	.LVL782:
 744:fe.c          ****     h9 += carry8;
 4021              		.loc 1 744 0
 4022 0e28 1298     		ldr	r0, [sp, #72]
 4023 0e2a 1399     		ldr	r1, [sp, #76]
 4024 0e2c 8018     		adds	r0, r0, r2
 4025 0e2e 5941     		adcs	r1, r1, r3
 4026 0e30 0600     		movs	r6, r0
 4027 0e32 0F00     		movs	r7, r1
 4028              	.LVL783:
 745:fe.c          ****     h8 -= carry8 << 26;
 4029              		.loc 1 745 0
 4030 0e34 9109     		lsrs	r1, r2, #6
 4031 0e36 8C46     		mov	ip, r1
 4032 0e38 9906     		lsls	r1, r3, #26
 4033 0e3a 6546     		mov	r5, ip
 4034 0e3c 2943     		orrs	r1, r5
 4035 0e3e 9006     		lsls	r0, r2, #26
 4036 0e40 009B     		ldr	r3, [sp]
 4037 0e42 019C     		ldr	r4, [sp, #4]
 4038 0e44 1B1A     		subs	r3, r3, r0
 4039 0e46 8C41     		sbcs	r4, r4, r1
 4040 0e48 1093     		str	r3, [sp, #64]
 4041 0e4a 1194     		str	r4, [sp, #68]
 4042              	.LVL784:
 746:fe.c          **** 
ARM GAS  C:\Users\NIGHDR~1\AppData\Local\Temp\ccfE2IUB.s 			page 85


 747:fe.c          ****     carry9 = (h9 + (int64_t) (1 << 24)) >> 25;
 4043              		.loc 1 747 0
 4044 0e4c 8023     		movs	r3, #128
 4045              	.LVL785:
 4046 0e4e 5B04     		lsls	r3, r3, #17
 4047 0e50 0024     		movs	r4, #0
 4048 0e52 9B19     		adds	r3, r3, r6
 4049 0e54 7C41     		adcs	r4, r4, r7
 4050 0e56 1800     		movs	r0, r3
 4051 0e58 2100     		movs	r1, r4
 4052 0e5a E401     		lsls	r4, r4, #7
 4053 0e5c 420E     		lsrs	r2, r0, #25
 4054              	.LVL786:
 4055 0e5e 2243     		orrs	r2, r4
 4056 0e60 4B16     		asrs	r3, r1, #25
 4057              	.LVL787:
 748:fe.c          ****     h0 += carry9 * 19;
 4058              		.loc 1 748 0
 4059 0e62 540F     		lsrs	r4, r2, #29
 4060 0e64 D900     		lsls	r1, r3, #3
 4061 0e66 2143     		orrs	r1, r4
 4062 0e68 D000     		lsls	r0, r2, #3
 4063 0e6a 8018     		adds	r0, r0, r2
 4064 0e6c 5941     		adcs	r1, r1, r3
 4065 0e6e 0018     		adds	r0, r0, r0
 4066 0e70 4941     		adcs	r1, r1, r1
 4067 0e72 8018     		adds	r0, r0, r2
 4068 0e74 5941     		adcs	r1, r1, r3
 4069 0e76 149C     		ldr	r4, [sp, #80]
 4070 0e78 159D     		ldr	r5, [sp, #84]
 4071 0e7a 2418     		adds	r4, r4, r0
 4072 0e7c 4D41     		adcs	r5, r5, r1
 4073 0e7e 0094     		str	r4, [sp]
 4074 0e80 0195     		str	r5, [sp, #4]
 4075              	.LVL788:
 749:fe.c          ****     h9 -= carry9 << 25;
 4076              		.loc 1 749 0
 4077 0e82 D409     		lsrs	r4, r2, #7
 4078              	.LVL789:
 4079 0e84 5906     		lsls	r1, r3, #25
 4080 0e86 2143     		orrs	r1, r4
 4081 0e88 5006     		lsls	r0, r2, #25
 4082 0e8a 361A     		subs	r6, r6, r0
 4083 0e8c 8F41     		sbcs	r7, r7, r1
 4084              	.LVL790:
 750:fe.c          **** 
 751:fe.c          ****     carry0 = (h0 + (int64_t) (1 << 25)) >> 26;
 4085              		.loc 1 751 0
 4086 0e8e 8020     		movs	r0, #128
 4087 0e90 8004     		lsls	r0, r0, #18
 4088 0e92 0021     		movs	r1, #0
 4089 0e94 009C     		ldr	r4, [sp]
 4090 0e96 019D     		ldr	r5, [sp, #4]
 4091 0e98 0019     		adds	r0, r0, r4
 4092 0e9a 6941     		adcs	r1, r1, r5
 4093 0e9c 8C01     		lsls	r4, r1, #6
 4094 0e9e 820E     		lsrs	r2, r0, #26
ARM GAS  C:\Users\NIGHDR~1\AppData\Local\Temp\ccfE2IUB.s 			page 86


 4095              	.LVL791:
 4096 0ea0 2243     		orrs	r2, r4
 4097 0ea2 8B16     		asrs	r3, r1, #26
 4098              	.LVL792:
 752:fe.c          ****     h1 += carry0;
 4099              		.loc 1 752 0
 4100 0ea4 0498     		ldr	r0, [sp, #16]
 4101 0ea6 0599     		ldr	r1, [sp, #20]
 4102 0ea8 8018     		adds	r0, r0, r2
 4103 0eaa 5941     		adcs	r1, r1, r3
 4104 0eac 0400     		movs	r4, r0
 4105              	.LVL793:
 753:fe.c          ****     h0 -= carry0 << 26;
 4106              		.loc 1 753 0
 4107 0eae 9509     		lsrs	r5, r2, #6
 4108 0eb0 9906     		lsls	r1, r3, #26
 4109 0eb2 2943     		orrs	r1, r5
 4110 0eb4 9006     		lsls	r0, r2, #26
 4111 0eb6 009A     		ldr	r2, [sp]
 4112 0eb8 019B     		ldr	r3, [sp, #4]
 4113              	.LVL794:
 4114 0eba 121A     		subs	r2, r2, r0
 4115 0ebc 8B41     		sbcs	r3, r3, r1
 4116              	.LVL795:
 754:fe.c          **** 
 755:fe.c          ****     h[0] = (int32_t) h0;
 4117              		.loc 1 755 0
 4118 0ebe 4046     		mov	r0, r8
 4119 0ec0 0260     		str	r2, [r0]
 756:fe.c          ****     h[1] = (int32_t) h1;
 4120              		.loc 1 756 0
 4121 0ec2 4346     		mov	r3, r8
 4122 0ec4 4460     		str	r4, [r0, #4]
 757:fe.c          ****     h[2] = (int32_t) h2;
 4123              		.loc 1 757 0
 4124 0ec6 4446     		mov	r4, r8
 4125 0ec8 089D     		ldr	r5, [sp, #32]
 4126 0eca 8560     		str	r5, [r0, #8]
 758:fe.c          ****     h[3] = (int32_t) h3;
 4127              		.loc 1 758 0
 4128 0ecc 0C99     		ldr	r1, [sp, #48]
 4129 0ece C160     		str	r1, [r0, #12]
 759:fe.c          ****     h[4] = (int32_t) h4;
 4130              		.loc 1 759 0
 4131 0ed0 0A99     		ldr	r1, [sp, #40]
 4132 0ed2 0161     		str	r1, [r0, #16]
 760:fe.c          ****     h[5] = (int32_t) h5;
 4133              		.loc 1 760 0
 4134 0ed4 0698     		ldr	r0, [sp, #24]
 4135 0ed6 5861     		str	r0, [r3, #20]
 761:fe.c          ****     h[6] = (int32_t) h6;
 4136              		.loc 1 761 0
 4137 0ed8 029A     		ldr	r2, [sp, #8]
 4138 0eda 9A61     		str	r2, [r3, #24]
 762:fe.c          ****     h[7] = (int32_t) h7;
 4139              		.loc 1 762 0
 4140 0edc 0E99     		ldr	r1, [sp, #56]
ARM GAS  C:\Users\NIGHDR~1\AppData\Local\Temp\ccfE2IUB.s 			page 87


 4141 0ede D961     		str	r1, [r3, #28]
 763:fe.c          ****     h[8] = (int32_t) h8;
 4142              		.loc 1 763 0
 4143 0ee0 109B     		ldr	r3, [sp, #64]
 4144 0ee2 2362     		str	r3, [r4, #32]
 764:fe.c          ****     h[9] = (int32_t) h9;
 4145              		.loc 1 764 0
 4146 0ee4 6662     		str	r6, [r4, #36]
 765:fe.c          **** }
 4147              		.loc 1 765 0
 4148 0ee6 D723     		movs	r3, #215
 4149 0ee8 9B00     		lsls	r3, r3, #2
 4150 0eea 9D44     		add	sp, sp, r3
 4151              		@ sp needed
 4152              	.LVL796:
 4153              	.LVL797:
 4154              	.LVL798:
 4155              	.LVL799:
 4156 0eec 3CBC     		pop	{r2, r3, r4, r5}
 4157 0eee 9046     		mov	r8, r2
 4158 0ef0 9946     		mov	r9, r3
 4159 0ef2 A246     		mov	r10, r4
 4160 0ef4 AB46     		mov	fp, r5
 4161 0ef6 F0BD     		pop	{r4, r5, r6, r7, pc}
 4162              		.cfi_endproc
 4163              	.LFE12:
 4164              		.size	fe_mul, .-fe_mul
 4165              		.section	.text.fe_mul121666,"ax",%progbits
 4166              		.align	2
 4167              		.global	fe_mul121666
 4168              		.code	16
 4169              		.thumb_func
 4170              		.type	fe_mul121666, %function
 4171              	fe_mul121666:
 4172              	.LFB13:
 766:fe.c          **** 
 767:fe.c          **** 
 768:fe.c          **** /*
 769:fe.c          **** h = f * 121666
 770:fe.c          **** Can overlap h with f.
 771:fe.c          **** 
 772:fe.c          **** Preconditions:
 773:fe.c          ****    |f| bounded by 1.1*2^26,1.1*2^25,1.1*2^26,1.1*2^25,etc.
 774:fe.c          **** 
 775:fe.c          **** Postconditions:
 776:fe.c          ****    |h| bounded by 1.1*2^25,1.1*2^24,1.1*2^25,1.1*2^24,etc.
 777:fe.c          **** */
 778:fe.c          **** 
 779:fe.c          **** void fe_mul121666(fe h, fe f) {
 4173              		.loc 1 779 0
 4174              		.cfi_startproc
 4175              		@ args = 0, pretend = 0, frame = 104
 4176              		@ frame_needed = 0, uses_anonymous_args = 0
 4177              	.LVL800:
 4178 0000 F0B5     		push	{r4, r5, r6, r7, lr}
 4179              		.cfi_def_cfa_offset 20
 4180              		.cfi_offset 4, -20
ARM GAS  C:\Users\NIGHDR~1\AppData\Local\Temp\ccfE2IUB.s 			page 88


 4181              		.cfi_offset 5, -16
 4182              		.cfi_offset 6, -12
 4183              		.cfi_offset 7, -8
 4184              		.cfi_offset 14, -4
 4185 0002 5F46     		mov	r7, fp
 4186 0004 5646     		mov	r6, r10
 4187 0006 4D46     		mov	r5, r9
 4188 0008 4446     		mov	r4, r8
 4189 000a F0B4     		push	{r4, r5, r6, r7}
 4190              		.cfi_def_cfa_offset 36
 4191              		.cfi_offset 8, -36
 4192              		.cfi_offset 9, -32
 4193              		.cfi_offset 10, -28
 4194              		.cfi_offset 11, -24
 4195 000c 9BB0     		sub	sp, sp, #108
 4196              		.cfi_def_cfa_offset 144
 4197 000e 8046     		mov	r8, r0
 780:fe.c          ****     int32_t f0 = f[0];
 4198              		.loc 1 780 0
 4199 0010 0868     		ldr	r0, [r1]
 4200              	.LVL801:
 781:fe.c          ****     int32_t f1 = f[1];
 4201              		.loc 1 781 0
 4202 0012 4B68     		ldr	r3, [r1, #4]
 4203 0014 9B46     		mov	fp, r3
 4204              	.LVL802:
 782:fe.c          ****     int32_t f2 = f[2];
 4205              		.loc 1 782 0
 4206 0016 8B68     		ldr	r3, [r1, #8]
 4207              	.LVL803:
 4208 0018 9A46     		mov	r10, r3
 4209              	.LVL804:
 783:fe.c          ****     int32_t f3 = f[3];
 4210              		.loc 1 783 0
 4211 001a CB68     		ldr	r3, [r1, #12]
 4212              	.LVL805:
 4213 001c 9946     		mov	r9, r3
 4214              	.LVL806:
 784:fe.c          ****     int32_t f4 = f[4];
 4215              		.loc 1 784 0
 4216 001e 0F69     		ldr	r7, [r1, #16]
 4217              	.LVL807:
 785:fe.c          ****     int32_t f5 = f[5];
 4218              		.loc 1 785 0
 4219 0020 4E69     		ldr	r6, [r1, #20]
 4220              	.LVL808:
 786:fe.c          ****     int32_t f6 = f[6];
 4221              		.loc 1 786 0
 4222 0022 8D69     		ldr	r5, [r1, #24]
 4223              	.LVL809:
 787:fe.c          ****     int32_t f7 = f[7];
 4224              		.loc 1 787 0
 4225 0024 CC69     		ldr	r4, [r1, #28]
 4226              	.LVL810:
 788:fe.c          ****     int32_t f8 = f[8];
 4227              		.loc 1 788 0
 4228 0026 0B6A     		ldr	r3, [r1, #32]
ARM GAS  C:\Users\NIGHDR~1\AppData\Local\Temp\ccfE2IUB.s 			page 89


 4229              	.LVL811:
 4230 0028 0093     		str	r3, [sp]
 4231              	.LVL812:
 789:fe.c          ****     int32_t f9 = f[9];
 4232              		.loc 1 789 0
 4233 002a 4A6A     		ldr	r2, [r1, #36]
 4234 002c 0292     		str	r2, [sp, #8]
 4235              	.LVL813:
 790:fe.c          ****     int64_t h0 = f0 * (int64_t) 121666;
 4236              		.loc 1 790 0
 4237 002e C117     		asrs	r1, r0, #31
 4238              	.LVL814:
 4239 0030 C74A     		ldr	r2, .L17
 4240              	.LVL815:
 4241 0032 0023     		movs	r3, #0
 4242              	.LVL816:
 4243 0034 FFF7FEFF 		bl	__aeabi_lmul
 4244              	.LVL817:
 4245 0038 0490     		str	r0, [sp, #16]
 4246 003a 0591     		str	r1, [sp, #20]
 4247              	.LVL818:
 791:fe.c          ****     int64_t h1 = f1 * (int64_t) 121666;
 4248              		.loc 1 791 0
 4249 003c 5946     		mov	r1, fp
 4250 003e C917     		asrs	r1, r1, #31
 4251 0040 C34A     		ldr	r2, .L17
 4252 0042 0023     		movs	r3, #0
 4253 0044 5846     		mov	r0, fp
 4254              	.LVL819:
 4255 0046 FFF7FEFF 		bl	__aeabi_lmul
 4256              	.LVL820:
 4257 004a 0690     		str	r0, [sp, #24]
 4258 004c 0791     		str	r1, [sp, #28]
 4259              	.LVL821:
 792:fe.c          ****     int64_t h2 = f2 * (int64_t) 121666;
 4260              		.loc 1 792 0
 4261 004e 5146     		mov	r1, r10
 4262 0050 C917     		asrs	r1, r1, #31
 4263 0052 BF4A     		ldr	r2, .L17
 4264 0054 0023     		movs	r3, #0
 4265 0056 5046     		mov	r0, r10
 4266              	.LVL822:
 4267 0058 FFF7FEFF 		bl	__aeabi_lmul
 4268              	.LVL823:
 4269 005c 0890     		str	r0, [sp, #32]
 4270 005e 0991     		str	r1, [sp, #36]
 4271              	.LVL824:
 793:fe.c          ****     int64_t h3 = f3 * (int64_t) 121666;
 4272              		.loc 1 793 0
 4273 0060 4946     		mov	r1, r9
 4274 0062 C917     		asrs	r1, r1, #31
 4275 0064 BA4A     		ldr	r2, .L17
 4276 0066 0023     		movs	r3, #0
 4277 0068 4846     		mov	r0, r9
 4278              	.LVL825:
 4279 006a FFF7FEFF 		bl	__aeabi_lmul
 4280              	.LVL826:
ARM GAS  C:\Users\NIGHDR~1\AppData\Local\Temp\ccfE2IUB.s 			page 90


 4281 006e 1090     		str	r0, [sp, #64]
 4282 0070 1191     		str	r1, [sp, #68]
 4283              	.LVL827:
 794:fe.c          ****     int64_t h4 = f4 * (int64_t) 121666;
 4284              		.loc 1 794 0
 4285 0072 F917     		asrs	r1, r7, #31
 4286 0074 B64A     		ldr	r2, .L17
 4287 0076 0023     		movs	r3, #0
 4288 0078 3800     		movs	r0, r7
 4289              	.LVL828:
 4290 007a FFF7FEFF 		bl	__aeabi_lmul
 4291              	.LVL829:
 4292 007e 1290     		str	r0, [sp, #72]
 4293 0080 1391     		str	r1, [sp, #76]
 4294              	.LVL830:
 795:fe.c          ****     int64_t h5 = f5 * (int64_t) 121666;
 4295              		.loc 1 795 0
 4296 0082 F117     		asrs	r1, r6, #31
 4297 0084 B24A     		ldr	r2, .L17
 4298 0086 0023     		movs	r3, #0
 4299 0088 3000     		movs	r0, r6
 4300              	.LVL831:
 4301 008a FFF7FEFF 		bl	__aeabi_lmul
 4302              	.LVL832:
 4303 008e 1490     		str	r0, [sp, #80]
 4304 0090 1591     		str	r1, [sp, #84]
 4305              	.LVL833:
 796:fe.c          ****     int64_t h6 = f6 * (int64_t) 121666;
 4306              		.loc 1 796 0
 4307 0092 E917     		asrs	r1, r5, #31
 4308 0094 AE4A     		ldr	r2, .L17
 4309 0096 0023     		movs	r3, #0
 4310 0098 2800     		movs	r0, r5
 4311              	.LVL834:
 4312 009a FFF7FEFF 		bl	__aeabi_lmul
 4313              	.LVL835:
 4314 009e 1690     		str	r0, [sp, #88]
 4315 00a0 1791     		str	r1, [sp, #92]
 4316              	.LVL836:
 797:fe.c          ****     int64_t h7 = f7 * (int64_t) 121666;
 4317              		.loc 1 797 0
 4318 00a2 E117     		asrs	r1, r4, #31
 4319 00a4 AA4A     		ldr	r2, .L17
 4320 00a6 0023     		movs	r3, #0
 4321 00a8 2000     		movs	r0, r4
 4322              	.LVL837:
 4323 00aa FFF7FEFF 		bl	__aeabi_lmul
 4324              	.LVL838:
 4325 00ae 0A90     		str	r0, [sp, #40]
 4326 00b0 0B91     		str	r1, [sp, #44]
 4327              	.LVL839:
 798:fe.c          ****     int64_t h8 = f8 * (int64_t) 121666;
 4328              		.loc 1 798 0
 4329 00b2 009F     		ldr	r7, [sp]
 4330              	.LVL840:
 4331 00b4 F917     		asrs	r1, r7, #31
 4332 00b6 A64A     		ldr	r2, .L17
ARM GAS  C:\Users\NIGHDR~1\AppData\Local\Temp\ccfE2IUB.s 			page 91


 4333 00b8 0023     		movs	r3, #0
 4334 00ba 3800     		movs	r0, r7
 4335              	.LVL841:
 4336 00bc FFF7FEFF 		bl	__aeabi_lmul
 4337              	.LVL842:
 4338 00c0 1890     		str	r0, [sp, #96]
 4339 00c2 1991     		str	r1, [sp, #100]
 4340              	.LVL843:
 799:fe.c          ****     int64_t h9 = f9 * (int64_t) 121666;
 4341              		.loc 1 799 0
 4342 00c4 029F     		ldr	r7, [sp, #8]
 4343 00c6 F917     		asrs	r1, r7, #31
 4344 00c8 A14A     		ldr	r2, .L17
 4345 00ca 0023     		movs	r3, #0
 4346 00cc 3800     		movs	r0, r7
 4347              	.LVL844:
 4348 00ce FFF7FEFF 		bl	__aeabi_lmul
 4349              	.LVL845:
 4350 00d2 0400     		movs	r4, r0
 4351              	.LVL846:
 4352 00d4 0D00     		movs	r5, r1
 4353              	.LVL847:
 800:fe.c          ****     int64_t carry0;
 801:fe.c          ****     int64_t carry1;
 802:fe.c          ****     int64_t carry2;
 803:fe.c          ****     int64_t carry3;
 804:fe.c          ****     int64_t carry4;
 805:fe.c          ****     int64_t carry5;
 806:fe.c          ****     int64_t carry6;
 807:fe.c          ****     int64_t carry7;
 808:fe.c          ****     int64_t carry8;
 809:fe.c          ****     int64_t carry9;
 810:fe.c          **** 
 811:fe.c          ****     carry9 = (h9 + (int64_t) (1<<24)) >> 25; h0 += carry9 * 19; h9 -= carry9 << 25;
 4354              		.loc 1 811 0
 4355 00d6 0100     		movs	r1, r0
 4356 00d8 2A00     		movs	r2, r5
 4357 00da 8026     		movs	r6, #128
 4358              	.LVL848:
 4359 00dc 7604     		lsls	r6, r6, #17
 4360 00de 0027     		movs	r7, #0
 4361 00e0 8919     		adds	r1, r1, r6
 4362 00e2 7A41     		adcs	r2, r2, r7
 4363 00e4 0800     		movs	r0, r1
 4364 00e6 1100     		movs	r1, r2
 4365 00e8 D701     		lsls	r7, r2, #7
 4366 00ea 420E     		lsrs	r2, r0, #25
 4367 00ec 3A43     		orrs	r2, r7
 4368 00ee 4B16     		asrs	r3, r1, #25
 4369              	.LVL849:
 4370 00f0 510F     		lsrs	r1, r2, #29
 4371 00f2 8C46     		mov	ip, r1
 4372 00f4 D900     		lsls	r1, r3, #3
 4373 00f6 6746     		mov	r7, ip
 4374 00f8 3943     		orrs	r1, r7
 4375 00fa D000     		lsls	r0, r2, #3
 4376 00fc 8018     		adds	r0, r0, r2
ARM GAS  C:\Users\NIGHDR~1\AppData\Local\Temp\ccfE2IUB.s 			page 92


 4377 00fe 5941     		adcs	r1, r1, r3
 4378 0100 0018     		adds	r0, r0, r0
 4379 0102 4941     		adcs	r1, r1, r1
 4380 0104 8018     		adds	r0, r0, r2
 4381 0106 5941     		adcs	r1, r1, r3
 4382 0108 049E     		ldr	r6, [sp, #16]
 4383 010a 059F     		ldr	r7, [sp, #20]
 4384 010c 3618     		adds	r6, r6, r0
 4385 010e 4F41     		adcs	r7, r7, r1
 4386 0110 0096     		str	r6, [sp]
 4387 0112 0197     		str	r7, [sp, #4]
 4388              	.LVL850:
 4389 0114 D109     		lsrs	r1, r2, #7
 4390 0116 8C46     		mov	ip, r1
 4391 0118 5906     		lsls	r1, r3, #25
 4392 011a 6746     		mov	r7, ip
 4393 011c 3943     		orrs	r1, r7
 4394 011e 5006     		lsls	r0, r2, #25
 4395 0120 2300     		movs	r3, r4
 4396 0122 2C00     		movs	r4, r5
 4397              	.LVL851:
 4398 0124 1B1A     		subs	r3, r3, r0
 4399 0126 8C41     		sbcs	r4, r4, r1
 4400 0128 0C93     		str	r3, [sp, #48]
 4401 012a 0D94     		str	r4, [sp, #52]
 4402              	.LVL852:
 812:fe.c          ****     carry1 = (h1 + (int64_t) (1<<24)) >> 25; h2 += carry1; h1 -= carry1 << 25;
 4403              		.loc 1 812 0
 4404 012c 069D     		ldr	r5, [sp, #24]
 4405 012e 079E     		ldr	r6, [sp, #28]
 4406 0130 2B00     		movs	r3, r5
 4407              	.LVL853:
 4408 0132 3400     		movs	r4, r6
 4409 0134 8021     		movs	r1, #128
 4410 0136 4904     		lsls	r1, r1, #17
 4411 0138 0022     		movs	r2, #0
 4412              	.LVL854:
 4413 013a 5B18     		adds	r3, r3, r1
 4414 013c 5441     		adcs	r4, r4, r2
 4415 013e 1800     		movs	r0, r3
 4416 0140 2100     		movs	r1, r4
 4417 0142 E401     		lsls	r4, r4, #7
 4418 0144 420E     		lsrs	r2, r0, #25
 4419 0146 2243     		orrs	r2, r4
 4420 0148 4B16     		asrs	r3, r1, #25
 4421              	.LVL855:
 4422 014a 0898     		ldr	r0, [sp, #32]
 4423 014c 0999     		ldr	r1, [sp, #36]
 4424 014e 8018     		adds	r0, r0, r2
 4425 0150 5941     		adcs	r1, r1, r3
 4426 0152 0290     		str	r0, [sp, #8]
 4427 0154 0391     		str	r1, [sp, #12]
 4428              	.LVL856:
 4429 0156 D409     		lsrs	r4, r2, #7
 4430 0158 5906     		lsls	r1, r3, #25
 4431 015a 2143     		orrs	r1, r4
 4432 015c 5006     		lsls	r0, r2, #25
ARM GAS  C:\Users\NIGHDR~1\AppData\Local\Temp\ccfE2IUB.s 			page 93


 4433              	.LVL857:
 4434 015e 2B00     		movs	r3, r5
 4435 0160 3400     		movs	r4, r6
 4436 0162 1B1A     		subs	r3, r3, r0
 4437 0164 8C41     		sbcs	r4, r4, r1
 4438 0166 0E93     		str	r3, [sp, #56]
 4439 0168 0F94     		str	r4, [sp, #60]
 4440              	.LVL858:
 813:fe.c          ****     carry3 = (h3 + (int64_t) (1<<24)) >> 25; h4 += carry3; h3 -= carry3 << 25;
 4441              		.loc 1 813 0
 4442 016a 109D     		ldr	r5, [sp, #64]
 4443 016c 119E     		ldr	r6, [sp, #68]
 4444 016e 2A00     		movs	r2, r5
 4445              	.LVL859:
 4446 0170 3300     		movs	r3, r6
 4447              	.LVL860:
 4448 0172 8020     		movs	r0, #128
 4449 0174 4004     		lsls	r0, r0, #17
 4450 0176 0021     		movs	r1, #0
 4451 0178 1218     		adds	r2, r2, r0
 4452 017a 4B41     		adcs	r3, r3, r1
 4453 017c 1000     		movs	r0, r2
 4454 017e 1900     		movs	r1, r3
 4455 0180 DC01     		lsls	r4, r3, #7
 4456 0182 420E     		lsrs	r2, r0, #25
 4457 0184 2243     		orrs	r2, r4
 4458 0186 4B16     		asrs	r3, r1, #25
 4459              	.LVL861:
 4460 0188 1298     		ldr	r0, [sp, #72]
 4461 018a 1399     		ldr	r1, [sp, #76]
 4462 018c 8018     		adds	r0, r0, r2
 4463 018e 5941     		adcs	r1, r1, r3
 4464 0190 0490     		str	r0, [sp, #16]
 4465 0192 0591     		str	r1, [sp, #20]
 4466              	.LVL862:
 4467 0194 D409     		lsrs	r4, r2, #7
 4468 0196 5906     		lsls	r1, r3, #25
 4469 0198 2143     		orrs	r1, r4
 4470 019a 5006     		lsls	r0, r2, #25
 4471              	.LVL863:
 4472 019c 2A00     		movs	r2, r5
 4473              	.LVL864:
 4474 019e 3300     		movs	r3, r6
 4475 01a0 121A     		subs	r2, r2, r0
 4476 01a2 8B41     		sbcs	r3, r3, r1
 4477 01a4 1092     		str	r2, [sp, #64]
 4478 01a6 1193     		str	r3, [sp, #68]
 4479              	.LVL865:
 814:fe.c          ****     carry5 = (h5 + (int64_t) (1<<24)) >> 25; h6 += carry5; h5 -= carry5 << 25;
 4480              		.loc 1 814 0
 4481 01a8 149E     		ldr	r6, [sp, #80]
 4482 01aa 159F     		ldr	r7, [sp, #84]
 4483              	.LVL866:
 4484 01ac 3400     		movs	r4, r6
 4485 01ae 3D00     		movs	r5, r7
 4486 01b0 8022     		movs	r2, #128
 4487              	.LVL867:
ARM GAS  C:\Users\NIGHDR~1\AppData\Local\Temp\ccfE2IUB.s 			page 94


 4488 01b2 5204     		lsls	r2, r2, #17
 4489 01b4 0023     		movs	r3, #0
 4490 01b6 A418     		adds	r4, r4, r2
 4491 01b8 5D41     		adcs	r5, r5, r3
 4492 01ba 2000     		movs	r0, r4
 4493 01bc EC01     		lsls	r4, r5, #7
 4494 01be 420E     		lsrs	r2, r0, #25
 4495 01c0 2243     		orrs	r2, r4
 4496 01c2 6B16     		asrs	r3, r5, #25
 4497              	.LVL868:
 4498 01c4 169C     		ldr	r4, [sp, #88]
 4499 01c6 179D     		ldr	r5, [sp, #92]
 4500 01c8 A418     		adds	r4, r4, r2
 4501 01ca 5D41     		adcs	r5, r5, r3
 4502 01cc 0694     		str	r4, [sp, #24]
 4503 01ce 0795     		str	r5, [sp, #28]
 4504              	.LVL869:
 4505 01d0 D409     		lsrs	r4, r2, #7
 4506              	.LVL870:
 4507 01d2 5906     		lsls	r1, r3, #25
 4508 01d4 2143     		orrs	r1, r4
 4509 01d6 5006     		lsls	r0, r2, #25
 4510 01d8 3400     		movs	r4, r6
 4511 01da 3D00     		movs	r5, r7
 4512 01dc 241A     		subs	r4, r4, r0
 4513 01de 8D41     		sbcs	r5, r5, r1
 4514 01e0 1294     		str	r4, [sp, #72]
 4515 01e2 1395     		str	r5, [sp, #76]
 4516              	.LVL871:
 815:fe.c          ****     carry7 = (h7 + (int64_t) (1<<24)) >> 25; h8 += carry7; h7 -= carry7 << 25;
 4517              		.loc 1 815 0
 4518 01e4 0A9D     		ldr	r5, [sp, #40]
 4519 01e6 0B9E     		ldr	r6, [sp, #44]
 4520 01e8 8023     		movs	r3, #128
 4521 01ea 5B04     		lsls	r3, r3, #17
 4522 01ec 0024     		movs	r4, #0
 4523              	.LVL872:
 4524 01ee 5B19     		adds	r3, r3, r5
 4525 01f0 7441     		adcs	r4, r4, r6
 4526 01f2 1E00     		movs	r6, r3
 4527 01f4 E101     		lsls	r1, r4, #7
 4528 01f6 720E     		lsrs	r2, r6, #25
 4529              	.LVL873:
 4530 01f8 0A43     		orrs	r2, r1
 4531 01fa 6316     		asrs	r3, r4, #25
 4532              	.LVL874:
 4533 01fc 189D     		ldr	r5, [sp, #96]
 4534 01fe 199E     		ldr	r6, [sp, #100]
 4535 0200 AD18     		adds	r5, r5, r2
 4536 0202 5E41     		adcs	r6, r6, r3
 4537 0204 0895     		str	r5, [sp, #32]
 4538 0206 0996     		str	r6, [sp, #36]
 4539              	.LVL875:
 4540 0208 D409     		lsrs	r4, r2, #7
 4541 020a 5906     		lsls	r1, r3, #25
 4542 020c 2143     		orrs	r1, r4
 4543 020e 5006     		lsls	r0, r2, #25
ARM GAS  C:\Users\NIGHDR~1\AppData\Local\Temp\ccfE2IUB.s 			page 95


 4544 0210 0A9E     		ldr	r6, [sp, #40]
 4545 0212 0B9F     		ldr	r7, [sp, #44]
 4546 0214 361A     		subs	r6, r6, r0
 4547 0216 8F41     		sbcs	r7, r7, r1
 4548 0218 0A96     		str	r6, [sp, #40]
 4549 021a 0B97     		str	r7, [sp, #44]
 4550              	.LVL876:
 816:fe.c          **** 
 817:fe.c          ****     carry0 = (h0 + (int64_t) (1<<25)) >> 26; h1 += carry0; h0 -= carry0 << 26;
 4551              		.loc 1 817 0
 4552 021c 8024     		movs	r4, #128
 4553 021e A404     		lsls	r4, r4, #18
 4554 0220 0025     		movs	r5, #0
 4555              	.LVL877:
 4556 0222 0098     		ldr	r0, [sp]
 4557 0224 0199     		ldr	r1, [sp, #4]
 4558 0226 0019     		adds	r0, r0, r4
 4559 0228 6941     		adcs	r1, r1, r5
 4560 022a 8B01     		lsls	r3, r1, #6
 4561 022c 9C46     		mov	ip, r3
 4562 022e 820E     		lsrs	r2, r0, #26
 4563              	.LVL878:
 4564 0230 6646     		mov	r6, ip
 4565              	.LVL879:
 4566 0232 3243     		orrs	r2, r6
 4567 0234 8B16     		asrs	r3, r1, #26
 4568              	.LVL880:
 4569 0236 0E98     		ldr	r0, [sp, #56]
 4570 0238 0F99     		ldr	r1, [sp, #60]
 4571 023a 8018     		adds	r0, r0, r2
 4572 023c 5941     		adcs	r1, r1, r3
 4573 023e 0E90     		str	r0, [sp, #56]
 4574 0240 0F91     		str	r1, [sp, #60]
 4575              	.LVL881:
 4576 0242 9609     		lsrs	r6, r2, #6
 4577 0244 9906     		lsls	r1, r3, #26
 4578 0246 3143     		orrs	r1, r6
 4579 0248 9006     		lsls	r0, r2, #26
 4580              	.LVL882:
 4581 024a 009A     		ldr	r2, [sp]
 4582 024c 019B     		ldr	r3, [sp, #4]
 4583              	.LVL883:
 4584 024e 121A     		subs	r2, r2, r0
 4585 0250 8B41     		sbcs	r3, r3, r1
 4586 0252 0092     		str	r2, [sp]
 4587 0254 0193     		str	r3, [sp, #4]
 4588              	.LVL884:
 818:fe.c          ****     carry2 = (h2 + (int64_t) (1<<25)) >> 26; h3 += carry2; h2 -= carry2 << 26;
 4589              		.loc 1 818 0
 4590 0256 0299     		ldr	r1, [sp, #8]
 4591 0258 039A     		ldr	r2, [sp, #12]
 4592 025a 0919     		adds	r1, r1, r4
 4593 025c 6A41     		adcs	r2, r2, r5
 4594 025e 0800     		movs	r0, r1
 4595 0260 1100     		movs	r1, r2
 4596 0262 9601     		lsls	r6, r2, #6
 4597 0264 820E     		lsrs	r2, r0, #26
ARM GAS  C:\Users\NIGHDR~1\AppData\Local\Temp\ccfE2IUB.s 			page 96


 4598              	.LVL885:
 4599 0266 3243     		orrs	r2, r6
 4600 0268 8B16     		asrs	r3, r1, #26
 4601              	.LVL886:
 4602 026a 1098     		ldr	r0, [sp, #64]
 4603 026c 1199     		ldr	r1, [sp, #68]
 4604 026e 8018     		adds	r0, r0, r2
 4605 0270 5941     		adcs	r1, r1, r3
 4606 0272 1090     		str	r0, [sp, #64]
 4607 0274 1191     		str	r1, [sp, #68]
 4608              	.LVL887:
 4609 0276 9609     		lsrs	r6, r2, #6
 4610 0278 9906     		lsls	r1, r3, #26
 4611 027a 3143     		orrs	r1, r6
 4612 027c 9006     		lsls	r0, r2, #26
 4613              	.LVL888:
 4614 027e 029A     		ldr	r2, [sp, #8]
 4615 0280 039B     		ldr	r3, [sp, #12]
 4616              	.LVL889:
 4617 0282 121A     		subs	r2, r2, r0
 4618 0284 8B41     		sbcs	r3, r3, r1
 4619 0286 0292     		str	r2, [sp, #8]
 4620 0288 0393     		str	r3, [sp, #12]
 4621              	.LVL890:
 819:fe.c          ****     carry4 = (h4 + (int64_t) (1<<25)) >> 26; h5 += carry4; h4 -= carry4 << 26;
 4622              		.loc 1 819 0
 4623 028a 0499     		ldr	r1, [sp, #16]
 4624 028c 059A     		ldr	r2, [sp, #20]
 4625 028e 0919     		adds	r1, r1, r4
 4626 0290 6A41     		adcs	r2, r2, r5
 4627 0292 0800     		movs	r0, r1
 4628 0294 1100     		movs	r1, r2
 4629 0296 9601     		lsls	r6, r2, #6
 4630 0298 820E     		lsrs	r2, r0, #26
 4631              	.LVL891:
 4632 029a 3243     		orrs	r2, r6
 4633 029c 8B16     		asrs	r3, r1, #26
 4634              	.LVL892:
 4635 029e 1298     		ldr	r0, [sp, #72]
 4636 02a0 1399     		ldr	r1, [sp, #76]
 4637 02a2 8018     		adds	r0, r0, r2
 4638 02a4 5941     		adcs	r1, r1, r3
 4639 02a6 1290     		str	r0, [sp, #72]
 4640 02a8 1391     		str	r1, [sp, #76]
 4641              	.LVL893:
 4642 02aa 9609     		lsrs	r6, r2, #6
 4643 02ac 9906     		lsls	r1, r3, #26
 4644 02ae 3143     		orrs	r1, r6
 4645 02b0 9006     		lsls	r0, r2, #26
 4646              	.LVL894:
 4647 02b2 049A     		ldr	r2, [sp, #16]
 4648 02b4 059B     		ldr	r3, [sp, #20]
 4649              	.LVL895:
 4650 02b6 121A     		subs	r2, r2, r0
 4651 02b8 8B41     		sbcs	r3, r3, r1
 4652 02ba 0492     		str	r2, [sp, #16]
 4653 02bc 0593     		str	r3, [sp, #20]
ARM GAS  C:\Users\NIGHDR~1\AppData\Local\Temp\ccfE2IUB.s 			page 97


 4654              	.LVL896:
 820:fe.c          ****     carry6 = (h6 + (int64_t) (1<<25)) >> 26; h7 += carry6; h6 -= carry6 << 26;
 4655              		.loc 1 820 0
 4656 02be 0699     		ldr	r1, [sp, #24]
 4657 02c0 079A     		ldr	r2, [sp, #28]
 4658 02c2 0919     		adds	r1, r1, r4
 4659 02c4 6A41     		adcs	r2, r2, r5
 4660 02c6 0800     		movs	r0, r1
 4661 02c8 1100     		movs	r1, r2
 4662 02ca 9701     		lsls	r7, r2, #6
 4663 02cc 820E     		lsrs	r2, r0, #26
 4664              	.LVL897:
 4665 02ce 3A43     		orrs	r2, r7
 4666 02d0 8B16     		asrs	r3, r1, #26
 4667              	.LVL898:
 4668 02d2 0A9E     		ldr	r6, [sp, #40]
 4669 02d4 0B9F     		ldr	r7, [sp, #44]
 4670 02d6 B618     		adds	r6, r6, r2
 4671 02d8 5F41     		adcs	r7, r7, r3
 4672 02da 0A96     		str	r6, [sp, #40]
 4673 02dc 0B97     		str	r7, [sp, #44]
 4674              	.LVL899:
 4675 02de 9609     		lsrs	r6, r2, #6
 4676              	.LVL900:
 4677 02e0 9906     		lsls	r1, r3, #26
 4678 02e2 3143     		orrs	r1, r6
 4679 02e4 9006     		lsls	r0, r2, #26
 4680 02e6 069E     		ldr	r6, [sp, #24]
 4681 02e8 079F     		ldr	r7, [sp, #28]
 4682 02ea 361A     		subs	r6, r6, r0
 4683 02ec 8F41     		sbcs	r7, r7, r1
 4684              	.LVL901:
 821:fe.c          ****     carry8 = (h8 + (int64_t) (1<<25)) >> 26; h9 += carry8; h8 -= carry8 << 26;
 4685              		.loc 1 821 0
 4686 02ee 0899     		ldr	r1, [sp, #32]
 4687 02f0 099A     		ldr	r2, [sp, #36]
 4688 02f2 0919     		adds	r1, r1, r4
 4689 02f4 6A41     		adcs	r2, r2, r5
 4690 02f6 0800     		movs	r0, r1
 4691 02f8 1100     		movs	r1, r2
 4692 02fa 9401     		lsls	r4, r2, #6
 4693 02fc 820E     		lsrs	r2, r0, #26
 4694              	.LVL902:
 4695 02fe 2243     		orrs	r2, r4
 4696 0300 8B16     		asrs	r3, r1, #26
 4697              	.LVL903:
 4698 0302 0C9C     		ldr	r4, [sp, #48]
 4699 0304 0D9D     		ldr	r5, [sp, #52]
 4700 0306 A418     		adds	r4, r4, r2
 4701 0308 5D41     		adcs	r5, r5, r3
 4702 030a 2000     		movs	r0, r4
 4703              	.LVL904:
 4704 030c 9109     		lsrs	r1, r2, #6
 4705 030e 9D06     		lsls	r5, r3, #26
 4706 0310 0D43     		orrs	r5, r1
 4707 0312 9406     		lsls	r4, r2, #26
 4708 0314 089A     		ldr	r2, [sp, #32]
ARM GAS  C:\Users\NIGHDR~1\AppData\Local\Temp\ccfE2IUB.s 			page 98


 4709 0316 099B     		ldr	r3, [sp, #36]
 4710              	.LVL905:
 4711 0318 121B     		subs	r2, r2, r4
 4712 031a AB41     		sbcs	r3, r3, r5
 4713              	.LVL906:
 822:fe.c          **** 
 823:fe.c          ****     h[0] = (int32_t) h0;
 4714              		.loc 1 823 0
 4715 031c 4546     		mov	r5, r8
 4716 031e 009C     		ldr	r4, [sp]
 4717 0320 2C60     		str	r4, [r5]
 824:fe.c          ****     h[1] = (int32_t) h1;
 4718              		.loc 1 824 0
 4719 0322 0E9C     		ldr	r4, [sp, #56]
 4720 0324 6C60     		str	r4, [r5, #4]
 825:fe.c          ****     h[2] = (int32_t) h2;
 4721              		.loc 1 825 0
 4722 0326 029C     		ldr	r4, [sp, #8]
 4723 0328 AC60     		str	r4, [r5, #8]
 826:fe.c          ****     h[3] = (int32_t) h3;
 4724              		.loc 1 826 0
 4725 032a 109C     		ldr	r4, [sp, #64]
 4726 032c EC60     		str	r4, [r5, #12]
 827:fe.c          ****     h[4] = (int32_t) h4;
 4727              		.loc 1 827 0
 4728 032e 049C     		ldr	r4, [sp, #16]
 4729 0330 2C61     		str	r4, [r5, #16]
 828:fe.c          ****     h[5] = (int32_t) h5;
 4730              		.loc 1 828 0
 4731 0332 129C     		ldr	r4, [sp, #72]
 4732 0334 6C61     		str	r4, [r5, #20]
 829:fe.c          ****     h[6] = (int32_t) h6;
 4733              		.loc 1 829 0
 4734 0336 4446     		mov	r4, r8
 4735 0338 AE61     		str	r6, [r5, #24]
 830:fe.c          ****     h[7] = (int32_t) h7;
 4736              		.loc 1 830 0
 4737 033a 0A9D     		ldr	r5, [sp, #40]
 4738 033c E561     		str	r5, [r4, #28]
 831:fe.c          ****     h[8] = (int32_t) h8;
 4739              		.loc 1 831 0
 4740 033e 2262     		str	r2, [r4, #32]
 832:fe.c          ****     h[9] = (int32_t) h9;
 4741              		.loc 1 832 0
 4742 0340 6062     		str	r0, [r4, #36]
 833:fe.c          **** }
 4743              		.loc 1 833 0
 4744 0342 1BB0     		add	sp, sp, #108
 4745              	.LVL907:
 4746              		@ sp needed
 4747              	.LVL908:
 4748              	.LVL909:
 4749              	.LVL910:
 4750              	.LVL911:
 4751 0344 3CBC     		pop	{r2, r3, r4, r5}
 4752 0346 9046     		mov	r8, r2
 4753 0348 9946     		mov	r9, r3
ARM GAS  C:\Users\NIGHDR~1\AppData\Local\Temp\ccfE2IUB.s 			page 99


 4754 034a A246     		mov	r10, r4
 4755 034c AB46     		mov	fp, r5
 4756 034e F0BD     		pop	{r4, r5, r6, r7, pc}
 4757              	.L18:
 4758              		.align	2
 4759              	.L17:
 4760 0350 42DB0100 		.word	121666
 4761              		.cfi_endproc
 4762              	.LFE13:
 4763              		.size	fe_mul121666, .-fe_mul121666
 4764              		.section	.text.fe_neg,"ax",%progbits
 4765              		.align	2
 4766              		.global	fe_neg
 4767              		.code	16
 4768              		.thumb_func
 4769              		.type	fe_neg, %function
 4770              	fe_neg:
 4771              	.LFB14:
 834:fe.c          **** 
 835:fe.c          **** 
 836:fe.c          **** /*
 837:fe.c          **** h = -f
 838:fe.c          **** 
 839:fe.c          **** Preconditions:
 840:fe.c          ****    |f| bounded by 1.1*2^25,1.1*2^24,1.1*2^25,1.1*2^24,etc.
 841:fe.c          **** 
 842:fe.c          **** Postconditions:
 843:fe.c          ****    |h| bounded by 1.1*2^25,1.1*2^24,1.1*2^25,1.1*2^24,etc.
 844:fe.c          **** */
 845:fe.c          **** 
 846:fe.c          **** void fe_neg(fe h, const fe f) {
 4772              		.loc 1 846 0
 4773              		.cfi_startproc
 4774              		@ args = 0, pretend = 0, frame = 0
 4775              		@ frame_needed = 0, uses_anonymous_args = 0
 4776              	.LVL912:
 4777 0000 F0B5     		push	{r4, r5, r6, r7, lr}
 4778              		.cfi_def_cfa_offset 20
 4779              		.cfi_offset 4, -20
 4780              		.cfi_offset 5, -16
 4781              		.cfi_offset 6, -12
 4782              		.cfi_offset 7, -8
 4783              		.cfi_offset 14, -4
 4784 0002 5746     		mov	r7, r10
 4785 0004 4E46     		mov	r6, r9
 4786 0006 4546     		mov	r5, r8
 4787 0008 E0B4     		push	{r5, r6, r7}
 4788              		.cfi_def_cfa_offset 32
 4789              		.cfi_offset 8, -32
 4790              		.cfi_offset 9, -28
 4791              		.cfi_offset 10, -24
 847:fe.c          ****     int32_t f0 = f[0];
 4792              		.loc 1 847 0
 4793 000a 0B68     		ldr	r3, [r1]
 4794 000c 9946     		mov	r9, r3
 4795              	.LVL913:
 848:fe.c          ****     int32_t f1 = f[1];
ARM GAS  C:\Users\NIGHDR~1\AppData\Local\Temp\ccfE2IUB.s 			page 100


 4796              		.loc 1 848 0
 4797 000e 4B68     		ldr	r3, [r1, #4]
 4798              	.LVL914:
 4799 0010 9846     		mov	r8, r3
 4800              	.LVL915:
 849:fe.c          ****     int32_t f2 = f[2];
 4801              		.loc 1 849 0
 4802 0012 8B68     		ldr	r3, [r1, #8]
 4803              	.LVL916:
 4804 0014 9C46     		mov	ip, r3
 4805              	.LVL917:
 850:fe.c          ****     int32_t f3 = f[3];
 4806              		.loc 1 850 0
 4807 0016 CF68     		ldr	r7, [r1, #12]
 4808              	.LVL918:
 851:fe.c          ****     int32_t f4 = f[4];
 4809              		.loc 1 851 0
 4810 0018 0E69     		ldr	r6, [r1, #16]
 4811              	.LVL919:
 852:fe.c          ****     int32_t f5 = f[5];
 4812              		.loc 1 852 0
 4813 001a 4D69     		ldr	r5, [r1, #20]
 4814              	.LVL920:
 853:fe.c          ****     int32_t f6 = f[6];
 4815              		.loc 1 853 0
 4816 001c 8C69     		ldr	r4, [r1, #24]
 4817              	.LVL921:
 854:fe.c          ****     int32_t f7 = f[7];
 4818              		.loc 1 854 0
 4819 001e CB69     		ldr	r3, [r1, #28]
 4820              	.LVL922:
 4821 0020 9A46     		mov	r10, r3
 4822              	.LVL923:
 855:fe.c          ****     int32_t f8 = f[8];
 4823              		.loc 1 855 0
 4824 0022 0A6A     		ldr	r2, [r1, #32]
 4825              	.LVL924:
 856:fe.c          ****     int32_t f9 = f[9];
 4826              		.loc 1 856 0
 4827 0024 4B6A     		ldr	r3, [r1, #36]
 4828              	.LVL925:
 857:fe.c          ****     int32_t h0 = -f0;
 4829              		.loc 1 857 0
 4830 0026 4946     		mov	r1, r9
 4831              	.LVL926:
 4832 0028 4942     		rsbs	r1, r1, #0
 4833 002a 8946     		mov	r9, r1
 4834              	.LVL927:
 858:fe.c          ****     int32_t h1 = -f1;
 4835              		.loc 1 858 0
 4836 002c 4146     		mov	r1, r8
 4837              	.LVL928:
 4838 002e 4942     		rsbs	r1, r1, #0
 4839 0030 8846     		mov	r8, r1
 4840              	.LVL929:
 859:fe.c          ****     int32_t h2 = -f2;
 4841              		.loc 1 859 0
ARM GAS  C:\Users\NIGHDR~1\AppData\Local\Temp\ccfE2IUB.s 			page 101


 4842 0032 6146     		mov	r1, ip
 4843              	.LVL930:
 4844 0034 4942     		rsbs	r1, r1, #0
 4845 0036 8C46     		mov	ip, r1
 4846              	.LVL931:
 860:fe.c          ****     int32_t h3 = -f3;
 4847              		.loc 1 860 0
 4848 0038 7F42     		rsbs	r7, r7, #0
 4849              	.LVL932:
 861:fe.c          ****     int32_t h4 = -f4;
 4850              		.loc 1 861 0
 4851 003a 7642     		rsbs	r6, r6, #0
 4852              	.LVL933:
 862:fe.c          ****     int32_t h5 = -f5;
 4853              		.loc 1 862 0
 4854 003c 6D42     		rsbs	r5, r5, #0
 4855              	.LVL934:
 863:fe.c          ****     int32_t h6 = -f6;
 4856              		.loc 1 863 0
 4857 003e 6442     		rsbs	r4, r4, #0
 4858              	.LVL935:
 864:fe.c          ****     int32_t h7 = -f7;
 4859              		.loc 1 864 0
 4860 0040 5146     		mov	r1, r10
 4861              	.LVL936:
 4862 0042 4942     		rsbs	r1, r1, #0
 4863              	.LVL937:
 865:fe.c          ****     int32_t h8 = -f8;
 4864              		.loc 1 865 0
 4865 0044 5242     		rsbs	r2, r2, #0
 4866              	.LVL938:
 866:fe.c          ****     int32_t h9 = -f9;
 4867              		.loc 1 866 0
 4868 0046 5B42     		rsbs	r3, r3, #0
 4869              	.LVL939:
 4870 0048 9A46     		mov	r10, r3
 4871              	.LVL940:
 867:fe.c          **** 
 868:fe.c          ****     h[0] = h0;
 4872              		.loc 1 868 0
 4873 004a 4B46     		mov	r3, r9
 4874              	.LVL941:
 4875 004c 0360     		str	r3, [r0]
 869:fe.c          ****     h[1] = h1;
 4876              		.loc 1 869 0
 4877 004e 4346     		mov	r3, r8
 4878 0050 4360     		str	r3, [r0, #4]
 870:fe.c          ****     h[2] = h2;
 4879              		.loc 1 870 0
 4880 0052 6346     		mov	r3, ip
 4881 0054 8360     		str	r3, [r0, #8]
 871:fe.c          ****     h[3] = h3;
 4882              		.loc 1 871 0
 4883 0056 C760     		str	r7, [r0, #12]
 872:fe.c          ****     h[4] = h4;
 4884              		.loc 1 872 0
 4885 0058 0661     		str	r6, [r0, #16]
ARM GAS  C:\Users\NIGHDR~1\AppData\Local\Temp\ccfE2IUB.s 			page 102


 873:fe.c          ****     h[5] = h5;
 4886              		.loc 1 873 0
 4887 005a 4561     		str	r5, [r0, #20]
 874:fe.c          ****     h[6] = h6;
 4888              		.loc 1 874 0
 4889 005c 8461     		str	r4, [r0, #24]
 875:fe.c          ****     h[7] = h7;
 4890              		.loc 1 875 0
 4891 005e C161     		str	r1, [r0, #28]
 876:fe.c          ****     h[8] = h8;
 4892              		.loc 1 876 0
 4893 0060 0262     		str	r2, [r0, #32]
 877:fe.c          ****     h[9] = h9;
 4894              		.loc 1 877 0
 4895 0062 5346     		mov	r3, r10
 4896 0064 4362     		str	r3, [r0, #36]
 878:fe.c          **** }
 4897              		.loc 1 878 0
 4898              		@ sp needed
 4899              	.LVL942:
 4900              	.LVL943:
 4901              	.LVL944:
 4902              	.LVL945:
 4903              	.LVL946:
 4904              	.LVL947:
 4905              	.LVL948:
 4906 0066 1CBC     		pop	{r2, r3, r4}
 4907 0068 9046     		mov	r8, r2
 4908 006a 9946     		mov	r9, r3
 4909 006c A246     		mov	r10, r4
 4910 006e F0BD     		pop	{r4, r5, r6, r7, pc}
 4911              		.cfi_endproc
 4912              	.LFE14:
 4913              		.size	fe_neg, .-fe_neg
 4914              		.section	.text.fe_sq,"ax",%progbits
 4915              		.align	2
 4916              		.global	fe_sq
 4917              		.code	16
 4918              		.thumb_func
 4919              		.type	fe_sq, %function
 4920              	fe_sq:
 4921              	.LFB16:
 879:fe.c          **** 
 880:fe.c          **** 
 881:fe.c          **** void fe_pow22523(fe out, const fe z) {
 882:fe.c          ****     fe t0;
 883:fe.c          ****     fe t1;
 884:fe.c          ****     fe t2;
 885:fe.c          ****     int i;
 886:fe.c          ****     fe_sq(t0, z);
 887:fe.c          **** 
 888:fe.c          ****     for (i = 1; i < 1; ++i) {
 889:fe.c          ****         fe_sq(t0, t0);
 890:fe.c          ****     }
 891:fe.c          **** 
 892:fe.c          ****     fe_sq(t1, t0);
 893:fe.c          **** 
ARM GAS  C:\Users\NIGHDR~1\AppData\Local\Temp\ccfE2IUB.s 			page 103


 894:fe.c          ****     for (i = 1; i < 2; ++i) {
 895:fe.c          ****         fe_sq(t1, t1);
 896:fe.c          ****     }
 897:fe.c          **** 
 898:fe.c          ****     fe_mul(t1, z, t1);
 899:fe.c          ****     fe_mul(t0, t0, t1);
 900:fe.c          ****     fe_sq(t0, t0);
 901:fe.c          **** 
 902:fe.c          ****     for (i = 1; i < 1; ++i) {
 903:fe.c          ****         fe_sq(t0, t0);
 904:fe.c          ****     }
 905:fe.c          **** 
 906:fe.c          ****     fe_mul(t0, t1, t0);
 907:fe.c          ****     fe_sq(t1, t0);
 908:fe.c          **** 
 909:fe.c          ****     for (i = 1; i < 5; ++i) {
 910:fe.c          ****         fe_sq(t1, t1);
 911:fe.c          ****     }
 912:fe.c          **** 
 913:fe.c          ****     fe_mul(t0, t1, t0);
 914:fe.c          ****     fe_sq(t1, t0);
 915:fe.c          **** 
 916:fe.c          ****     for (i = 1; i < 10; ++i) {
 917:fe.c          ****         fe_sq(t1, t1);
 918:fe.c          ****     }
 919:fe.c          **** 
 920:fe.c          ****     fe_mul(t1, t1, t0);
 921:fe.c          ****     fe_sq(t2, t1);
 922:fe.c          **** 
 923:fe.c          ****     for (i = 1; i < 20; ++i) {
 924:fe.c          ****         fe_sq(t2, t2);
 925:fe.c          ****     }
 926:fe.c          **** 
 927:fe.c          ****     fe_mul(t1, t2, t1);
 928:fe.c          ****     fe_sq(t1, t1);
 929:fe.c          **** 
 930:fe.c          ****     for (i = 1; i < 10; ++i) {
 931:fe.c          ****         fe_sq(t1, t1);
 932:fe.c          ****     }
 933:fe.c          **** 
 934:fe.c          ****     fe_mul(t0, t1, t0);
 935:fe.c          ****     fe_sq(t1, t0);
 936:fe.c          **** 
 937:fe.c          ****     for (i = 1; i < 50; ++i) {
 938:fe.c          ****         fe_sq(t1, t1);
 939:fe.c          ****     }
 940:fe.c          **** 
 941:fe.c          ****     fe_mul(t1, t1, t0);
 942:fe.c          ****     fe_sq(t2, t1);
 943:fe.c          **** 
 944:fe.c          ****     for (i = 1; i < 100; ++i) {
 945:fe.c          ****         fe_sq(t2, t2);
 946:fe.c          ****     }
 947:fe.c          **** 
 948:fe.c          ****     fe_mul(t1, t2, t1);
 949:fe.c          ****     fe_sq(t1, t1);
 950:fe.c          **** 
ARM GAS  C:\Users\NIGHDR~1\AppData\Local\Temp\ccfE2IUB.s 			page 104


 951:fe.c          ****     for (i = 1; i < 50; ++i) {
 952:fe.c          ****         fe_sq(t1, t1);
 953:fe.c          ****     }
 954:fe.c          **** 
 955:fe.c          ****     fe_mul(t0, t1, t0);
 956:fe.c          ****     fe_sq(t0, t0);
 957:fe.c          **** 
 958:fe.c          ****     for (i = 1; i < 2; ++i) {
 959:fe.c          ****         fe_sq(t0, t0);
 960:fe.c          ****     }
 961:fe.c          **** 
 962:fe.c          ****     fe_mul(out, t0, z);
 963:fe.c          ****     return;
 964:fe.c          **** }
 965:fe.c          **** 
 966:fe.c          **** 
 967:fe.c          **** /*
 968:fe.c          **** h = f * f
 969:fe.c          **** Can overlap h with f.
 970:fe.c          **** 
 971:fe.c          **** Preconditions:
 972:fe.c          ****    |f| bounded by 1.65*2^26,1.65*2^25,1.65*2^26,1.65*2^25,etc.
 973:fe.c          **** 
 974:fe.c          **** Postconditions:
 975:fe.c          ****    |h| bounded by 1.01*2^25,1.01*2^24,1.01*2^25,1.01*2^24,etc.
 976:fe.c          **** */
 977:fe.c          **** 
 978:fe.c          **** /*
 979:fe.c          **** See fe_mul.c for discussion of implementation strategy.
 980:fe.c          **** */
 981:fe.c          **** 
 982:fe.c          **** void fe_sq(fe h, const fe f) {
 4922              		.loc 1 982 0
 4923              		.cfi_startproc
 4924              		@ args = 0, pretend = 0, frame = 472
 4925              		@ frame_needed = 0, uses_anonymous_args = 0
 4926              	.LVL949:
 4927 0000 F0B5     		push	{r4, r5, r6, r7, lr}
 4928              		.cfi_def_cfa_offset 20
 4929              		.cfi_offset 4, -20
 4930              		.cfi_offset 5, -16
 4931              		.cfi_offset 6, -12
 4932              		.cfi_offset 7, -8
 4933              		.cfi_offset 14, -4
 4934 0002 5F46     		mov	r7, fp
 4935 0004 5646     		mov	r6, r10
 4936 0006 4D46     		mov	r5, r9
 4937 0008 4446     		mov	r4, r8
 4938 000a F0B4     		push	{r4, r5, r6, r7}
 4939              		.cfi_def_cfa_offset 36
 4940              		.cfi_offset 8, -36
 4941              		.cfi_offset 9, -32
 4942              		.cfi_offset 10, -28
 4943              		.cfi_offset 11, -24
 4944 000c F7B0     		sub	sp, sp, #476
 4945              		.cfi_def_cfa_offset 512
 4946 000e 8146     		mov	r9, r0
ARM GAS  C:\Users\NIGHDR~1\AppData\Local\Temp\ccfE2IUB.s 			page 105


 983:fe.c          ****     int32_t f0 = f[0];
 4947              		.loc 1 983 0
 4948 0010 0868     		ldr	r0, [r1]
 4949              	.LVL950:
 984:fe.c          ****     int32_t f1 = f[1];
 4950              		.loc 1 984 0
 4951 0012 4B68     		ldr	r3, [r1, #4]
 4952 0014 9B46     		mov	fp, r3
 4953              	.LVL951:
 985:fe.c          ****     int32_t f2 = f[2];
 4954              		.loc 1 985 0
 4955 0016 8B68     		ldr	r3, [r1, #8]
 4956              	.LVL952:
 4957 0018 1A00     		movs	r2, r3
 4958              	.LVL953:
 986:fe.c          ****     int32_t f3 = f[3];
 4959              		.loc 1 986 0
 4960 001a CB68     		ldr	r3, [r1, #12]
 4961 001c 1A93     		str	r3, [sp, #104]
 4962              	.LVL954:
 987:fe.c          ****     int32_t f4 = f[4];
 4963              		.loc 1 987 0
 4964 001e 0B69     		ldr	r3, [r1, #16]
 4965              	.LVL955:
 988:fe.c          ****     int32_t f5 = f[5];
 4966              		.loc 1 988 0
 4967 0020 4C69     		ldr	r4, [r1, #20]
 4968 0022 1894     		str	r4, [sp, #96]
 4969              	.LVL956:
 989:fe.c          ****     int32_t f6 = f[6];
 4970              		.loc 1 989 0
 4971 0024 8E69     		ldr	r6, [r1, #24]
 4972              	.LVL957:
 990:fe.c          ****     int32_t f7 = f[7];
 4973              		.loc 1 990 0
 4974 0026 CD69     		ldr	r5, [r1, #28]
 4975 0028 AA46     		mov	r10, r5
 4976              	.LVL958:
 991:fe.c          ****     int32_t f8 = f[8];
 4977              		.loc 1 991 0
 4978 002a 0F6A     		ldr	r7, [r1, #32]
 4979              	.LVL959:
 992:fe.c          ****     int32_t f9 = f[9];
 4980              		.loc 1 992 0
 4981 002c 4D6A     		ldr	r5, [r1, #36]
 4982              	.LVL960:
 4983 002e A846     		mov	r8, r5
 4984              	.LVL961:
 993:fe.c          ****     int32_t f0_2 = 2 * f0;
 4985              		.loc 1 993 0
 4986 0030 4500     		lsls	r5, r0, #1
 4987              	.LVL962:
 994:fe.c          ****     int32_t f1_2 = 2 * f1;
 4988              		.loc 1 994 0
 4989 0032 5C46     		mov	r4, fp
 4990              	.LVL963:
 4991 0034 6400     		lsls	r4, r4, #1
ARM GAS  C:\Users\NIGHDR~1\AppData\Local\Temp\ccfE2IUB.s 			page 106


 4992              	.LVL964:
 995:fe.c          ****     int32_t f2_2 = 2 * f2;
 4993              		.loc 1 995 0
 4994 0036 1092     		str	r2, [sp, #64]
 4995 0038 5100     		lsls	r1, r2, #1
 4996              	.LVL965:
 4997 003a 1291     		str	r1, [sp, #72]
 4998              	.LVL966:
 996:fe.c          ****     int32_t f3_2 = 2 * f3;
 4999              		.loc 1 996 0
 5000 003c 1A9A     		ldr	r2, [sp, #104]
 5001              	.LVL967:
 5002 003e 5200     		lsls	r2, r2, #1
 5003 0040 0092     		str	r2, [sp]
 5004              	.LVL968:
 997:fe.c          ****     int32_t f4_2 = 2 * f4;
 5005              		.loc 1 997 0
 5006 0042 0893     		str	r3, [sp, #32]
 5007 0044 5B00     		lsls	r3, r3, #1
 5008              	.LVL969:
 5009 0046 1E93     		str	r3, [sp, #120]
 5010              	.LVL970:
 998:fe.c          ****     int32_t f5_2 = 2 * f5;
 5011              		.loc 1 998 0
 5012 0048 1899     		ldr	r1, [sp, #96]
 5013              	.LVL971:
 5014 004a 4B00     		lsls	r3, r1, #1
 5015              	.LVL972:
 5016 004c 0A93     		str	r3, [sp, #40]
 5017              	.LVL973:
 999:fe.c          ****     int32_t f6_2 = 2 * f6;
 5018              		.loc 1 999 0
 5019 004e 7300     		lsls	r3, r6, #1
 5020              	.LVL974:
 5021 0050 4493     		str	r3, [sp, #272]
 5022              	.LVL975:
1000:fe.c          ****     int32_t f7_2 = 2 * f7;
 5023              		.loc 1 1000 0
 5024 0052 5346     		mov	r3, r10
 5025              	.LVL976:
 5026 0054 5B00     		lsls	r3, r3, #1
 5027 0056 2093     		str	r3, [sp, #128]
 5028              	.LVL977:
1001:fe.c          ****     int32_t f5_38 = 38 * f5; /* 1.959375*2^30 */
 5029              		.loc 1 1001 0
 5030 0058 2622     		movs	r2, #38
 5031              	.LVL978:
 5032 005a 0B00     		movs	r3, r1
 5033              	.LVL979:
 5034 005c 5343     		muls	r3, r2
 5035 005e 3093     		str	r3, [sp, #192]
 5036              	.LVL980:
1002:fe.c          ****     int32_t f6_19 = 19 * f6; /* 1.959375*2^30 */
 5037              		.loc 1 1002 0
 5038 0060 F300     		lsls	r3, r6, #3
 5039              	.LVL981:
 5040 0062 9B19     		adds	r3, r3, r6
ARM GAS  C:\Users\NIGHDR~1\AppData\Local\Temp\ccfE2IUB.s 			page 107


 5041 0064 5B00     		lsls	r3, r3, #1
 5042 0066 9919     		adds	r1, r3, r6
 5043 0068 2291     		str	r1, [sp, #136]
 5044              	.LVL982:
1003:fe.c          ****     int32_t f7_38 = 38 * f7; /* 1.959375*2^30 */
 5045              		.loc 1 1003 0
 5046 006a 5146     		mov	r1, r10
 5047              	.LVL983:
 5048 006c 5143     		muls	r1, r2
 5049 006e 1491     		str	r1, [sp, #80]
 5050              	.LVL984:
1004:fe.c          ****     int32_t f8_19 = 19 * f8; /* 1.959375*2^30 */
 5051              		.loc 1 1004 0
 5052 0070 FB00     		lsls	r3, r7, #3
 5053 0072 DB19     		adds	r3, r3, r7
 5054 0074 5B00     		lsls	r3, r3, #1
 5055 0076 D919     		adds	r1, r3, r7
 5056              	.LVL985:
 5057 0078 0491     		str	r1, [sp, #16]
 5058              	.LVL986:
1005:fe.c          ****     int32_t f9_38 = 38 * f9; /* 1.959375*2^30 */
 5059              		.loc 1 1005 0
 5060 007a 4346     		mov	r3, r8
 5061 007c 5343     		muls	r3, r2
 5062 007e 0293     		str	r3, [sp, #8]
 5063              	.LVL987:
1006:fe.c          ****     int64_t f0f0    = f0   * (int64_t) f0;
 5064              		.loc 1 1006 0
 5065 0080 C117     		asrs	r1, r0, #31
 5066              	.LVL988:
 5067 0082 0200     		movs	r2, r0
 5068 0084 0B00     		movs	r3, r1
 5069              	.LVL989:
 5070 0086 FFF7FEFF 		bl	__aeabi_lmul
 5071              	.LVL990:
 5072 008a 3290     		str	r0, [sp, #200]
 5073 008c 3391     		str	r1, [sp, #204]
 5074              	.LVL991:
1007:fe.c          ****     int64_t f0f1_2  = f0_2 * (int64_t) f1;
 5075              		.loc 1 1007 0
 5076 008e E817     		asrs	r0, r5, #31
 5077              	.LVL992:
 5078 0090 0100     		movs	r1, r0
 5079 0092 5846     		mov	r0, fp
 5080 0094 C017     		asrs	r0, r0, #31
 5081 0096 5A46     		mov	r2, fp
 5082 0098 0E90     		str	r0, [sp, #56]
 5083 009a 0300     		movs	r3, r0
 5084 009c 2800     		movs	r0, r5
 5085 009e 0691     		str	r1, [sp, #24]
 5086 00a0 FFF7FEFF 		bl	__aeabi_lmul
 5087              	.LVL993:
 5088 00a4 3490     		str	r0, [sp, #208]
 5089 00a6 3591     		str	r1, [sp, #212]
 5090              	.LVL994:
1008:fe.c          ****     int64_t f0f2_2  = f0_2 * (int64_t) f2;
 5091              		.loc 1 1008 0
ARM GAS  C:\Users\NIGHDR~1\AppData\Local\Temp\ccfE2IUB.s 			page 108


 5092 00a8 1098     		ldr	r0, [sp, #64]
 5093              	.LVL995:
 5094 00aa C217     		asrs	r2, r0, #31
 5095 00ac 1100     		movs	r1, r2
 5096 00ae 0200     		movs	r2, r0
 5097 00b0 2491     		str	r1, [sp, #144]
 5098 00b2 0B00     		movs	r3, r1
 5099 00b4 2800     		movs	r0, r5
 5100 00b6 0699     		ldr	r1, [sp, #24]
 5101 00b8 FFF7FEFF 		bl	__aeabi_lmul
 5102              	.LVL996:
 5103 00bc 3690     		str	r0, [sp, #216]
 5104 00be 3791     		str	r1, [sp, #220]
 5105              	.LVL997:
1009:fe.c          ****     int64_t f0f3_2  = f0_2 * (int64_t) f3;
 5106              		.loc 1 1009 0
 5107 00c0 1A98     		ldr	r0, [sp, #104]
 5108              	.LVL998:
 5109 00c2 C117     		asrs	r1, r0, #31
 5110 00c4 0200     		movs	r2, r0
 5111 00c6 2A91     		str	r1, [sp, #168]
 5112 00c8 0B00     		movs	r3, r1
 5113 00ca 2800     		movs	r0, r5
 5114 00cc 0699     		ldr	r1, [sp, #24]
 5115 00ce FFF7FEFF 		bl	__aeabi_lmul
 5116              	.LVL999:
 5117 00d2 3890     		str	r0, [sp, #224]
 5118 00d4 3991     		str	r1, [sp, #228]
 5119              	.LVL1000:
1010:fe.c          ****     int64_t f0f4_2  = f0_2 * (int64_t) f4;
 5120              		.loc 1 1010 0
 5121 00d6 089A     		ldr	r2, [sp, #32]
 5122 00d8 D317     		asrs	r3, r2, #31
 5123 00da 0C93     		str	r3, [sp, #48]
 5124 00dc 2800     		movs	r0, r5
 5125              	.LVL1001:
 5126 00de 0699     		ldr	r1, [sp, #24]
 5127 00e0 FFF7FEFF 		bl	__aeabi_lmul
 5128              	.LVL1002:
 5129 00e4 3A90     		str	r0, [sp, #232]
 5130 00e6 3B91     		str	r1, [sp, #236]
 5131              	.LVL1003:
1011:fe.c          ****     int64_t f0f5_2  = f0_2 * (int64_t) f5;
 5132              		.loc 1 1011 0
 5133 00e8 1899     		ldr	r1, [sp, #96]
 5134 00ea C817     		asrs	r0, r1, #31
 5135              	.LVL1004:
 5136 00ec 0A00     		movs	r2, r1
 5137 00ee 2690     		str	r0, [sp, #152]
 5138 00f0 0300     		movs	r3, r0
 5139 00f2 2800     		movs	r0, r5
 5140 00f4 0699     		ldr	r1, [sp, #24]
 5141 00f6 FFF7FEFF 		bl	__aeabi_lmul
 5142              	.LVL1005:
 5143 00fa 3C90     		str	r0, [sp, #240]
 5144 00fc 3D91     		str	r1, [sp, #244]
 5145              	.LVL1006:
ARM GAS  C:\Users\NIGHDR~1\AppData\Local\Temp\ccfE2IUB.s 			page 109


1012:fe.c          ****     int64_t f0f6_2  = f0_2 * (int64_t) f6;
 5146              		.loc 1 1012 0
 5147 00fe F217     		asrs	r2, r6, #31
 5148 0100 1100     		movs	r1, r2
 5149 0102 3200     		movs	r2, r6
 5150 0104 1691     		str	r1, [sp, #88]
 5151 0106 0B00     		movs	r3, r1
 5152 0108 2800     		movs	r0, r5
 5153              	.LVL1007:
 5154 010a 0699     		ldr	r1, [sp, #24]
 5155 010c FFF7FEFF 		bl	__aeabi_lmul
 5156              	.LVL1008:
 5157 0110 3E90     		str	r0, [sp, #248]
 5158 0112 3F91     		str	r1, [sp, #252]
 5159              	.LVL1009:
1013:fe.c          ****     int64_t f0f7_2  = f0_2 * (int64_t) f7;
 5160              		.loc 1 1013 0
 5161 0114 5146     		mov	r1, r10
 5162 0116 CB17     		asrs	r3, r1, #31
 5163 0118 5246     		mov	r2, r10
 5164 011a 2C93     		str	r3, [sp, #176]
 5165 011c 2800     		movs	r0, r5
 5166              	.LVL1010:
 5167 011e 0699     		ldr	r1, [sp, #24]
 5168 0120 FFF7FEFF 		bl	__aeabi_lmul
 5169              	.LVL1011:
 5170 0124 4090     		str	r0, [sp, #256]
 5171 0126 4191     		str	r1, [sp, #260]
 5172              	.LVL1012:
1014:fe.c          ****     int64_t f0f8_2  = f0_2 * (int64_t) f8;
 5173              		.loc 1 1014 0
 5174 0128 FB17     		asrs	r3, r7, #31
 5175 012a 3A00     		movs	r2, r7
 5176 012c 2893     		str	r3, [sp, #160]
 5177 012e 2800     		movs	r0, r5
 5178              	.LVL1013:
 5179 0130 0699     		ldr	r1, [sp, #24]
 5180 0132 FFF7FEFF 		bl	__aeabi_lmul
 5181              	.LVL1014:
 5182 0136 4290     		str	r0, [sp, #264]
 5183 0138 4391     		str	r1, [sp, #268]
 5184              	.LVL1015:
1015:fe.c          ****     int64_t f0f9_2  = f0_2 * (int64_t) f9;
 5185              		.loc 1 1015 0
 5186 013a 4146     		mov	r1, r8
 5187 013c C917     		asrs	r1, r1, #31
 5188 013e 4246     		mov	r2, r8
 5189 0140 4591     		str	r1, [sp, #276]
 5190 0142 0B00     		movs	r3, r1
 5191 0144 2800     		movs	r0, r5
 5192              	.LVL1016:
 5193 0146 0699     		ldr	r1, [sp, #24]
 5194 0148 FFF7FEFF 		bl	__aeabi_lmul
 5195              	.LVL1017:
 5196 014c 4690     		str	r0, [sp, #280]
 5197 014e 4791     		str	r1, [sp, #284]
 5198              	.LVL1018:
ARM GAS  C:\Users\NIGHDR~1\AppData\Local\Temp\ccfE2IUB.s 			page 110


1016:fe.c          ****     int64_t f1f1_2  = f1_2 * (int64_t) f1;
 5199              		.loc 1 1016 0
 5200 0150 E517     		asrs	r5, r4, #31
 5201              	.LVL1019:
 5202 0152 2200     		movs	r2, r4
 5203 0154 2B00     		movs	r3, r5
 5204 0156 5846     		mov	r0, fp
 5205              	.LVL1020:
 5206 0158 0E99     		ldr	r1, [sp, #56]
 5207 015a FFF7FEFF 		bl	__aeabi_lmul
 5208              	.LVL1021:
 5209 015e 4890     		str	r0, [sp, #288]
 5210 0160 4991     		str	r1, [sp, #292]
 5211              	.LVL1022:
1017:fe.c          ****     int64_t f1f2_2  = f1_2 * (int64_t) f2;
 5212              		.loc 1 1017 0
 5213 0162 2200     		movs	r2, r4
 5214 0164 2B00     		movs	r3, r5
 5215 0166 1098     		ldr	r0, [sp, #64]
 5216              	.LVL1023:
 5217 0168 2499     		ldr	r1, [sp, #144]
 5218 016a FFF7FEFF 		bl	__aeabi_lmul
 5219              	.LVL1024:
 5220 016e 4A90     		str	r0, [sp, #296]
 5221 0170 4B91     		str	r1, [sp, #300]
 5222              	.LVL1025:
1018:fe.c          ****     int64_t f1f3_4  = f1_2 * (int64_t) f3_2;
 5223              		.loc 1 1018 0
 5224 0172 0099     		ldr	r1, [sp]
 5225 0174 CA17     		asrs	r2, r1, #31
 5226 0176 1300     		movs	r3, r2
 5227 0178 0A00     		movs	r2, r1
 5228 017a 0E93     		str	r3, [sp, #56]
 5229 017c 2000     		movs	r0, r4
 5230              	.LVL1026:
 5231 017e 2900     		movs	r1, r5
 5232 0180 FFF7FEFF 		bl	__aeabi_lmul
 5233              	.LVL1027:
 5234 0184 4C90     		str	r0, [sp, #304]
 5235 0186 4D91     		str	r1, [sp, #308]
 5236              	.LVL1028:
1019:fe.c          ****     int64_t f1f4_2  = f1_2 * (int64_t) f4;
 5237              		.loc 1 1019 0
 5238 0188 2200     		movs	r2, r4
 5239 018a 2B00     		movs	r3, r5
 5240 018c 0898     		ldr	r0, [sp, #32]
 5241              	.LVL1029:
 5242 018e 0C99     		ldr	r1, [sp, #48]
 5243 0190 FFF7FEFF 		bl	__aeabi_lmul
 5244              	.LVL1030:
 5245 0194 4E90     		str	r0, [sp, #312]
 5246 0196 4F91     		str	r1, [sp, #316]
 5247              	.LVL1031:
1020:fe.c          ****     int64_t f1f5_4  = f1_2 * (int64_t) f5_2;
 5248              		.loc 1 1020 0
 5249 0198 0A9A     		ldr	r2, [sp, #40]
 5250 019a D317     		asrs	r3, r2, #31
ARM GAS  C:\Users\NIGHDR~1\AppData\Local\Temp\ccfE2IUB.s 			page 111


 5251 019c 1C93     		str	r3, [sp, #112]
 5252 019e 2000     		movs	r0, r4
 5253              	.LVL1032:
 5254 01a0 2900     		movs	r1, r5
 5255 01a2 FFF7FEFF 		bl	__aeabi_lmul
 5256              	.LVL1033:
 5257 01a6 5090     		str	r0, [sp, #320]
 5258 01a8 5191     		str	r1, [sp, #324]
 5259              	.LVL1034:
1021:fe.c          ****     int64_t f1f6_2  = f1_2 * (int64_t) f6;
 5260              		.loc 1 1021 0
 5261 01aa 2200     		movs	r2, r4
 5262 01ac 2B00     		movs	r3, r5
 5263 01ae 3000     		movs	r0, r6
 5264              	.LVL1035:
 5265 01b0 1699     		ldr	r1, [sp, #88]
 5266 01b2 FFF7FEFF 		bl	__aeabi_lmul
 5267              	.LVL1036:
 5268 01b6 5290     		str	r0, [sp, #328]
 5269 01b8 5391     		str	r1, [sp, #332]
 5270              	.LVL1037:
1022:fe.c          ****     int64_t f1f7_4  = f1_2 * (int64_t) f7_2;
 5271              		.loc 1 1022 0
 5272 01ba 209A     		ldr	r2, [sp, #128]
 5273 01bc D117     		asrs	r1, r2, #31
 5274 01be 2F91     		str	r1, [sp, #188]
 5275 01c0 0B00     		movs	r3, r1
 5276 01c2 2000     		movs	r0, r4
 5277              	.LVL1038:
 5278 01c4 2900     		movs	r1, r5
 5279 01c6 FFF7FEFF 		bl	__aeabi_lmul
 5280              	.LVL1039:
 5281 01ca 5490     		str	r0, [sp, #336]
 5282 01cc 5591     		str	r1, [sp, #340]
 5283              	.LVL1040:
1023:fe.c          ****     int64_t f1f8_2  = f1_2 * (int64_t) f8;
 5284              		.loc 1 1023 0
 5285 01ce 2200     		movs	r2, r4
 5286 01d0 2B00     		movs	r3, r5
 5287 01d2 3800     		movs	r0, r7
 5288              	.LVL1041:
 5289 01d4 2899     		ldr	r1, [sp, #160]
 5290 01d6 FFF7FEFF 		bl	__aeabi_lmul
 5291              	.LVL1042:
 5292 01da 5690     		str	r0, [sp, #344]
 5293 01dc 5791     		str	r1, [sp, #348]
 5294              	.LVL1043:
1024:fe.c          ****     int64_t f1f9_76 = f1_2 * (int64_t) f9_38;
 5295              		.loc 1 1024 0
 5296 01de 029B     		ldr	r3, [sp, #8]
 5297 01e0 DA17     		asrs	r2, r3, #31
 5298 01e2 1100     		movs	r1, r2
 5299 01e4 1A00     		movs	r2, r3
 5300 01e6 0691     		str	r1, [sp, #24]
 5301 01e8 0B00     		movs	r3, r1
 5302 01ea 2000     		movs	r0, r4
 5303              	.LVL1044:
ARM GAS  C:\Users\NIGHDR~1\AppData\Local\Temp\ccfE2IUB.s 			page 112


 5304 01ec 2900     		movs	r1, r5
 5305 01ee FFF7FEFF 		bl	__aeabi_lmul
 5306              	.LVL1045:
 5307 01f2 5890     		str	r0, [sp, #352]
 5308 01f4 5991     		str	r1, [sp, #356]
 5309              	.LVL1046:
1025:fe.c          ****     int64_t f2f2    = f2   * (int64_t) f2;
 5310              		.loc 1 1025 0
 5311 01f6 109C     		ldr	r4, [sp, #64]
 5312              	.LVL1047:
 5313 01f8 2200     		movs	r2, r4
 5314 01fa 249D     		ldr	r5, [sp, #144]
 5315 01fc 2B00     		movs	r3, r5
 5316 01fe 2000     		movs	r0, r4
 5317              	.LVL1048:
 5318 0200 2900     		movs	r1, r5
 5319 0202 FFF7FEFF 		bl	__aeabi_lmul
 5320              	.LVL1049:
 5321 0206 5A90     		str	r0, [sp, #360]
 5322 0208 5B91     		str	r1, [sp, #364]
 5323              	.LVL1050:
1026:fe.c          ****     int64_t f2f3_2  = f2_2 * (int64_t) f3;
 5324              		.loc 1 1026 0
 5325 020a 129D     		ldr	r5, [sp, #72]
 5326 020c EC17     		asrs	r4, r5, #31
 5327 020e 2A00     		movs	r2, r5
 5328 0210 2300     		movs	r3, r4
 5329 0212 1A98     		ldr	r0, [sp, #104]
 5330              	.LVL1051:
 5331 0214 2A99     		ldr	r1, [sp, #168]
 5332 0216 FFF7FEFF 		bl	__aeabi_lmul
 5333              	.LVL1052:
 5334 021a 5C90     		str	r0, [sp, #368]
 5335 021c 5D91     		str	r1, [sp, #372]
 5336              	.LVL1053:
1027:fe.c          ****     int64_t f2f4_2  = f2_2 * (int64_t) f4;
 5337              		.loc 1 1027 0
 5338 021e 1295     		str	r5, [sp, #72]
 5339              	.LVL1054:
 5340 0220 2A00     		movs	r2, r5
 5341 0222 2300     		movs	r3, r4
 5342 0224 089D     		ldr	r5, [sp, #32]
 5343              	.LVL1055:
 5344 0226 2800     		movs	r0, r5
 5345              	.LVL1056:
 5346 0228 0C99     		ldr	r1, [sp, #48]
 5347 022a FFF7FEFF 		bl	__aeabi_lmul
 5348              	.LVL1057:
 5349 022e 5E90     		str	r0, [sp, #376]
 5350 0230 5F91     		str	r1, [sp, #380]
 5351              	.LVL1058:
1028:fe.c          ****     int64_t f2f5_2  = f2_2 * (int64_t) f5;
 5352              		.loc 1 1028 0
 5353 0232 129A     		ldr	r2, [sp, #72]
 5354 0234 2300     		movs	r3, r4
 5355 0236 1899     		ldr	r1, [sp, #96]
 5356 0238 8B46     		mov	fp, r1
ARM GAS  C:\Users\NIGHDR~1\AppData\Local\Temp\ccfE2IUB.s 			page 113


 5357              	.LVL1059:
 5358 023a 0800     		movs	r0, r1
 5359              	.LVL1060:
 5360 023c 2699     		ldr	r1, [sp, #152]
 5361 023e FFF7FEFF 		bl	__aeabi_lmul
 5362              	.LVL1061:
 5363 0242 6090     		str	r0, [sp, #384]
 5364 0244 6191     		str	r1, [sp, #388]
 5365              	.LVL1062:
1029:fe.c          ****     int64_t f2f6_2  = f2_2 * (int64_t) f6;
 5366              		.loc 1 1029 0
 5367 0246 129A     		ldr	r2, [sp, #72]
 5368 0248 2300     		movs	r3, r4
 5369 024a 3000     		movs	r0, r6
 5370              	.LVL1063:
 5371 024c 1699     		ldr	r1, [sp, #88]
 5372 024e FFF7FEFF 		bl	__aeabi_lmul
 5373              	.LVL1064:
 5374 0252 6290     		str	r0, [sp, #392]
 5375 0254 6391     		str	r1, [sp, #396]
 5376              	.LVL1065:
1030:fe.c          ****     int64_t f2f7_2  = f2_2 * (int64_t) f7;
 5377              		.loc 1 1030 0
 5378 0256 129A     		ldr	r2, [sp, #72]
 5379 0258 2300     		movs	r3, r4
 5380 025a 5046     		mov	r0, r10
 5381              	.LVL1066:
 5382 025c 2C99     		ldr	r1, [sp, #176]
 5383 025e FFF7FEFF 		bl	__aeabi_lmul
 5384              	.LVL1067:
 5385 0262 6490     		str	r0, [sp, #400]
 5386 0264 6591     		str	r1, [sp, #404]
 5387              	.LVL1068:
1031:fe.c          ****     int64_t f2f8_38 = f2_2 * (int64_t) f8_19;
 5388              		.loc 1 1031 0
 5389 0266 049A     		ldr	r2, [sp, #16]
 5390 0268 D317     		asrs	r3, r2, #31
 5391 026a 1893     		str	r3, [sp, #96]
 5392              	.LVL1069:
 5393 026c 1298     		ldr	r0, [sp, #72]
 5394              	.LVL1070:
 5395 026e 2100     		movs	r1, r4
 5396 0270 FFF7FEFF 		bl	__aeabi_lmul
 5397              	.LVL1071:
 5398 0274 1290     		str	r0, [sp, #72]
 5399 0276 1391     		str	r1, [sp, #76]
 5400              	.LVL1072:
1032:fe.c          ****     int64_t f2f9_38 = f2   * (int64_t) f9_38;
 5401              		.loc 1 1032 0
 5402 0278 029C     		ldr	r4, [sp, #8]
 5403 027a 2200     		movs	r2, r4
 5404 027c 069B     		ldr	r3, [sp, #24]
 5405 027e 1098     		ldr	r0, [sp, #64]
 5406              	.LVL1073:
 5407 0280 2499     		ldr	r1, [sp, #144]
 5408 0282 FFF7FEFF 		bl	__aeabi_lmul
 5409              	.LVL1074:
ARM GAS  C:\Users\NIGHDR~1\AppData\Local\Temp\ccfE2IUB.s 			page 114


 5410 0286 2490     		str	r0, [sp, #144]
 5411 0288 2591     		str	r1, [sp, #148]
 5412              	.LVL1075:
1033:fe.c          ****     int64_t f3f3_2  = f3_2 * (int64_t) f3;
 5413              		.loc 1 1033 0
 5414 028a 009A     		ldr	r2, [sp]
 5415 028c 0E9B     		ldr	r3, [sp, #56]
