ARM GAS  C:\Users\NIGHDR~1\AppData\Local\Temp\ccrnUt9g.s 			page 1


   1              		.syntax unified
   2              		.cpu cortex-m0
   3              		.fpu softvfp
   4              		.eabi_attribute 20, 1
   5              		.eabi_attribute 21, 1
   6              		.eabi_attribute 23, 3
   7              		.eabi_attribute 24, 1
   8              		.eabi_attribute 25, 1
   9              		.eabi_attribute 26, 1
  10              		.eabi_attribute 30, 1
  11              		.eabi_attribute 34, 0
  12              		.eabi_attribute 18, 4
  13              		.thumb
  14              		.syntax unified
  15              		.file	"ge.c"
  16              		.text
  17              	.Ltext0:
  18              		.cfi_sections	.debug_frame
  19              		.section	.text.slide,"ax",%progbits
  20              		.align	2
  21              		.code	16
  22              		.thumb_func
  23              		.type	slide, %function
  24              	slide:
  25              	.LFB1:
  26              		.file 1 "ge.c"
   1:ge.c          **** #include "ge.h"
   2:ge.c          **** #include "precomp_data.h"
   3:ge.c          **** 
   4:ge.c          **** 
   5:ge.c          **** /*
   6:ge.c          **** r = p + q
   7:ge.c          **** */
   8:ge.c          **** 
   9:ge.c          **** void ge_add(ge_p1p1 *r, const ge_p3 *p, const ge_cached *q) {
  10:ge.c          ****     fe t0;
  11:ge.c          ****     fe_add(r->X, p->Y, p->X);
  12:ge.c          ****     fe_sub(r->Y, p->Y, p->X);
  13:ge.c          ****     fe_mul(r->Z, r->X, q->YplusX);
  14:ge.c          ****     fe_mul(r->Y, r->Y, q->YminusX);
  15:ge.c          ****     fe_mul(r->T, q->T2d, p->T);
  16:ge.c          ****     fe_mul(r->X, p->Z, q->Z);
  17:ge.c          ****     fe_add(t0, r->X, r->X);
  18:ge.c          ****     fe_sub(r->X, r->Z, r->Y);
  19:ge.c          ****     fe_add(r->Y, r->Z, r->Y);
  20:ge.c          ****     fe_add(r->Z, t0, r->T);
  21:ge.c          ****     fe_sub(r->T, t0, r->T);
  22:ge.c          **** }
  23:ge.c          **** 
  24:ge.c          **** 
  25:ge.c          **** static void slide(signed char *r, const unsigned char *a) {
  27              		.loc 1 25 0
  28              		.cfi_startproc
  29              		@ args = 0, pretend = 0, frame = 0
  30              		@ frame_needed = 0, uses_anonymous_args = 0
  31              	.LVL0:
  32 0000 F0B5     		push	{r4, r5, r6, r7, lr}
ARM GAS  C:\Users\NIGHDR~1\AppData\Local\Temp\ccrnUt9g.s 			page 2


  33              		.cfi_def_cfa_offset 20
  34              		.cfi_offset 4, -20
  35              		.cfi_offset 5, -16
  36              		.cfi_offset 6, -12
  37              		.cfi_offset 7, -8
  38              		.cfi_offset 14, -4
  39 0002 4746     		mov	r7, r8
  40 0004 80B4     		push	{r7}
  41              		.cfi_def_cfa_offset 24
  42              		.cfi_offset 8, -24
  43              	.LVL1:
  26:ge.c          ****     int i;
  27:ge.c          ****     int b;
  28:ge.c          ****     int k;
  29:ge.c          **** 
  30:ge.c          ****     for (i = 0; i < 256; ++i) {
  44              		.loc 1 30 0
  45 0006 0023     		movs	r3, #0
  46 0008 08E0     		b	.L2
  47              	.LVL2:
  48              	.L3:
  31:ge.c          ****         r[i] = 1 & (a[i >> 3] >> (i & 7));
  49              		.loc 1 31 0 discriminator 3
  50 000a DA10     		asrs	r2, r3, #3
  51 000c 8A5C     		ldrb	r2, [r1, r2]
  52 000e 0724     		movs	r4, #7
  53 0010 1C40     		ands	r4, r3
  54 0012 2241     		asrs	r2, r2, r4
  55 0014 0124     		movs	r4, #1
  56 0016 2240     		ands	r2, r4
  57 0018 C254     		strb	r2, [r0, r3]
  30:ge.c          ****         r[i] = 1 & (a[i >> 3] >> (i & 7));
  58              		.loc 1 30 0 discriminator 3
  59 001a 0133     		adds	r3, r3, #1
  60              	.LVL3:
  61              	.L2:
  30:ge.c          ****         r[i] = 1 & (a[i >> 3] >> (i & 7));
  62              		.loc 1 30 0 is_stmt 0 discriminator 1
  63 001c FF2B     		cmp	r3, #255
  64 001e F4DD     		ble	.L3
  65 0020 0025     		movs	r5, #0
  66 0022 34E0     		b	.L4
  67              	.LVL4:
  68              	.L13:
  32:ge.c          ****     }
  33:ge.c          **** 
  34:ge.c          ****     for (i = 0; i < 256; ++i)
  35:ge.c          ****         if (r[i]) {
  69              		.loc 1 35 0 is_stmt 1
  70 0024 4319     		adds	r3, r0, r5
  71 0026 9846     		mov	r8, r3
  72 0028 1B78     		ldrb	r3, [r3]
  73 002a 5BB2     		sxtb	r3, r3
  74 002c 002B     		cmp	r3, #0
  75 002e 27D1     		bne	.L14
  76 0030 2CE0     		b	.L6
  77              	.LVL5:
ARM GAS  C:\Users\NIGHDR~1\AppData\Local\Temp\ccrnUt9g.s 			page 3


  78              	.L12:
  36:ge.c          ****             for (b = 1; b <= 6 && i + b < 256; ++b) {
  37:ge.c          ****                 if (r[i + b]) {
  79              		.loc 1 37 0
  80 0032 C118     		adds	r1, r0, r3
  81 0034 0022     		movs	r2, #0
  82 0036 8A56     		ldrsb	r2, [r1, r2]
  83 0038 002A     		cmp	r2, #0
  84 003a 1FD0     		beq	.L7
  38:ge.c          ****                     if (r[i] + (r[i + b] << b) <= 15) {
  85              		.loc 1 38 0
  86 003c 4646     		mov	r6, r8
  87 003e 3678     		ldrb	r6, [r6]
  88 0040 76B2     		sxtb	r6, r6
  89 0042 A240     		lsls	r2, r2, r4
  90 0044 B718     		adds	r7, r6, r2
  91 0046 0F2F     		cmp	r7, #15
  92 0048 04DC     		bgt	.L8
  39:ge.c          ****                         r[i] += r[i + b] << b;
  93              		.loc 1 39 0
  94 004a 4346     		mov	r3, r8
  95 004c 1F70     		strb	r7, [r3]
  40:ge.c          ****                         r[i + b] = 0;
  96              		.loc 1 40 0
  97 004e 0023     		movs	r3, #0
  98 0050 0B70     		strb	r3, [r1]
  99 0052 13E0     		b	.L7
 100              	.L8:
  41:ge.c          ****                     } else if (r[i] - (r[i + b] << b) >= -15) {
 101              		.loc 1 41 0
 102 0054 B11A     		subs	r1, r6, r2
 103 0056 0F31     		adds	r1, r1, #15
 104 0058 18DB     		blt	.L6
  42:ge.c          ****                         r[i] -= r[i + b] << b;
 105              		.loc 1 42 0
 106 005a B21A     		subs	r2, r6, r2
 107 005c 4146     		mov	r1, r8
 108 005e 0A70     		strb	r2, [r1]
 109              	.LVL6:
  43:ge.c          **** 
  44:ge.c          ****                         for (k = i + b; k < 256; ++k) {
 110              		.loc 1 44 0
 111 0060 0AE0     		b	.L9
 112              	.L11:
  45:ge.c          ****                             if (!r[k]) {
 113              		.loc 1 45 0
 114 0062 C218     		adds	r2, r0, r3
 115 0064 0021     		movs	r1, #0
 116 0066 5156     		ldrsb	r1, [r2, r1]
 117 0068 0029     		cmp	r1, #0
 118 006a 02D1     		bne	.L10
  46:ge.c          ****                                 r[k] = 1;
 119              		.loc 1 46 0
 120 006c 0123     		movs	r3, #1
 121              	.LVL7:
 122 006e 1370     		strb	r3, [r2]
  47:ge.c          ****                                 break;
ARM GAS  C:\Users\NIGHDR~1\AppData\Local\Temp\ccrnUt9g.s 			page 4


 123              		.loc 1 47 0
 124 0070 04E0     		b	.L7
 125              	.LVL8:
 126              	.L10:
  48:ge.c          ****                             }
  49:ge.c          **** 
  50:ge.c          ****                             r[k] = 0;
 127              		.loc 1 50 0 discriminator 2
 128 0072 0021     		movs	r1, #0
 129 0074 1170     		strb	r1, [r2]
  44:ge.c          ****                             if (!r[k]) {
 130              		.loc 1 44 0 discriminator 2
 131 0076 0133     		adds	r3, r3, #1
 132              	.LVL9:
 133              	.L9:
  44:ge.c          ****                             if (!r[k]) {
 134              		.loc 1 44 0 is_stmt 0 discriminator 1
 135 0078 FF2B     		cmp	r3, #255
 136 007a F2DD     		ble	.L11
 137              	.LVL10:
 138              	.L7:
  36:ge.c          ****                 if (r[i + b]) {
 139              		.loc 1 36 0 is_stmt 1 discriminator 2
 140 007c 0134     		adds	r4, r4, #1
 141              	.LVL11:
 142 007e 00E0     		b	.L5
 143              	.LVL12:
 144              	.L14:
 145 0080 0124     		movs	r4, #1
 146              	.L5:
 147              	.LVL13:
  36:ge.c          ****                 if (r[i + b]) {
 148              		.loc 1 36 0 is_stmt 0 discriminator 1
 149 0082 062C     		cmp	r4, #6
 150 0084 02DC     		bgt	.L6
  36:ge.c          ****                 if (r[i + b]) {
 151              		.loc 1 36 0 discriminator 3
 152 0086 2B19     		adds	r3, r5, r4
 153 0088 FF2B     		cmp	r3, #255
 154 008a D2DD     		ble	.L12
 155              	.LVL14:
 156              	.L6:
  34:ge.c          ****         if (r[i]) {
 157              		.loc 1 34 0 is_stmt 1 discriminator 2
 158 008c 0135     		adds	r5, r5, #1
 159              	.LVL15:
 160              	.L4:
  34:ge.c          ****         if (r[i]) {
 161              		.loc 1 34 0 is_stmt 0 discriminator 1
 162 008e FF2D     		cmp	r5, #255
 163 0090 C8DD     		ble	.L13
  51:ge.c          ****                         }
  52:ge.c          ****                     } else {
  53:ge.c          ****                         break;
  54:ge.c          ****                     }
  55:ge.c          ****                 }
  56:ge.c          ****             }
ARM GAS  C:\Users\NIGHDR~1\AppData\Local\Temp\ccrnUt9g.s 			page 5


  57:ge.c          ****         }
  58:ge.c          **** }
 164              		.loc 1 58 0 is_stmt 1
 165              		@ sp needed
 166              	.LVL16:
 167 0092 04BC     		pop	{r2}
 168 0094 9046     		mov	r8, r2
 169 0096 F0BD     		pop	{r4, r5, r6, r7, pc}
 170              		.cfi_endproc
 171              	.LFE1:
 172              		.size	slide, .-slide
 173              		.section	.text.equal,"ax",%progbits
 174              		.align	2
 175              		.code	16
 176              		.thumb_func
 177              		.type	equal, %function
 178              	equal:
 179              	.LFB15:
  59:ge.c          **** 
  60:ge.c          **** /*
  61:ge.c          **** r = a * A + b * B
  62:ge.c          **** where a = a[0]+256*a[1]+...+256^31 a[31].
  63:ge.c          **** and b = b[0]+256*b[1]+...+256^31 b[31].
  64:ge.c          **** B is the Ed25519 base point (x,4/5) with x positive.
  65:ge.c          **** */
  66:ge.c          **** 
  67:ge.c          **** void ge_double_scalarmult_vartime(ge_p2 *r, const unsigned char *a, const ge_p3 *A, const unsigned 
  68:ge.c          ****     signed char aslide[256];
  69:ge.c          ****     signed char bslide[256];
  70:ge.c          ****     ge_cached Ai[8]; /* A,3A,5A,7A,9A,11A,13A,15A */
  71:ge.c          ****     ge_p1p1 t;
  72:ge.c          ****     ge_p3 u;
  73:ge.c          ****     ge_p3 A2;
  74:ge.c          ****     int i;
  75:ge.c          ****     slide(aslide, a);
  76:ge.c          ****     slide(bslide, b);
  77:ge.c          ****     ge_p3_to_cached(&Ai[0], A);
  78:ge.c          ****     ge_p3_dbl(&t, A);
  79:ge.c          ****     ge_p1p1_to_p3(&A2, &t);
  80:ge.c          ****     ge_add(&t, &A2, &Ai[0]);
  81:ge.c          ****     ge_p1p1_to_p3(&u, &t);
  82:ge.c          ****     ge_p3_to_cached(&Ai[1], &u);
  83:ge.c          ****     ge_add(&t, &A2, &Ai[1]);
  84:ge.c          ****     ge_p1p1_to_p3(&u, &t);
  85:ge.c          ****     ge_p3_to_cached(&Ai[2], &u);
  86:ge.c          ****     ge_add(&t, &A2, &Ai[2]);
  87:ge.c          ****     ge_p1p1_to_p3(&u, &t);
  88:ge.c          ****     ge_p3_to_cached(&Ai[3], &u);
  89:ge.c          ****     ge_add(&t, &A2, &Ai[3]);
  90:ge.c          ****     ge_p1p1_to_p3(&u, &t);
  91:ge.c          ****     ge_p3_to_cached(&Ai[4], &u);
  92:ge.c          ****     ge_add(&t, &A2, &Ai[4]);
  93:ge.c          ****     ge_p1p1_to_p3(&u, &t);
  94:ge.c          ****     ge_p3_to_cached(&Ai[5], &u);
  95:ge.c          ****     ge_add(&t, &A2, &Ai[5]);
  96:ge.c          ****     ge_p1p1_to_p3(&u, &t);
  97:ge.c          ****     ge_p3_to_cached(&Ai[6], &u);
ARM GAS  C:\Users\NIGHDR~1\AppData\Local\Temp\ccrnUt9g.s 			page 6


  98:ge.c          ****     ge_add(&t, &A2, &Ai[6]);
  99:ge.c          ****     ge_p1p1_to_p3(&u, &t);
 100:ge.c          ****     ge_p3_to_cached(&Ai[7], &u);
 101:ge.c          ****     ge_p2_0(r);
 102:ge.c          **** 
 103:ge.c          ****     for (i = 255; i >= 0; --i) {
 104:ge.c          ****         if (aslide[i] || bslide[i]) {
 105:ge.c          ****             break;
 106:ge.c          ****         }
 107:ge.c          ****     }
 108:ge.c          **** 
 109:ge.c          ****     for (; i >= 0; --i) {
 110:ge.c          ****         ge_p2_dbl(&t, r);
 111:ge.c          **** 
 112:ge.c          ****         if (aslide[i] > 0) {
 113:ge.c          ****             ge_p1p1_to_p3(&u, &t);
 114:ge.c          ****             ge_add(&t, &u, &Ai[aslide[i] / 2]);
 115:ge.c          ****         } else if (aslide[i] < 0) {
 116:ge.c          ****             ge_p1p1_to_p3(&u, &t);
 117:ge.c          ****             ge_sub(&t, &u, &Ai[(-aslide[i]) / 2]);
 118:ge.c          ****         }
 119:ge.c          **** 
 120:ge.c          ****         if (bslide[i] > 0) {
 121:ge.c          ****             ge_p1p1_to_p3(&u, &t);
 122:ge.c          ****             ge_madd(&t, &u, &Bi[bslide[i] / 2]);
 123:ge.c          ****         } else if (bslide[i] < 0) {
 124:ge.c          ****             ge_p1p1_to_p3(&u, &t);
 125:ge.c          ****             ge_msub(&t, &u, &Bi[(-bslide[i]) / 2]);
 126:ge.c          ****         }
 127:ge.c          **** 
 128:ge.c          ****         ge_p1p1_to_p2(r, &t);
 129:ge.c          ****     }
 130:ge.c          **** }
 131:ge.c          **** 
 132:ge.c          **** 
 133:ge.c          **** static const fe d = {
 134:ge.c          ****     -10913610, 13857413, -15372611, 6949391, 114729, -8787816, -6275908, -3247719, -18696448, -1205
 135:ge.c          **** };
 136:ge.c          **** 
 137:ge.c          **** static const fe sqrtm1 = {
 138:ge.c          ****     -32595792, -7943725, 9377950, 3500415, 12389472, -272473, -25146209, -2005654, 326686, 11406482
 139:ge.c          **** };
 140:ge.c          **** 
 141:ge.c          **** int ge_frombytes_negate_vartime(ge_p3 *h, const unsigned char *s) {
 142:ge.c          ****     fe u;
 143:ge.c          ****     fe v;
 144:ge.c          ****     fe v3;
 145:ge.c          ****     fe vxx;
 146:ge.c          ****     fe check;
 147:ge.c          ****     fe_frombytes(h->Y, s);
 148:ge.c          ****     fe_1(h->Z);
 149:ge.c          ****     fe_sq(u, h->Y);
 150:ge.c          ****     fe_mul(v, u, d);
 151:ge.c          ****     fe_sub(u, u, h->Z);     /* u = y^2-1 */
 152:ge.c          ****     fe_add(v, v, h->Z);     /* v = dy^2+1 */
 153:ge.c          ****     fe_sq(v3, v);
 154:ge.c          ****     fe_mul(v3, v3, v);      /* v3 = v^3 */
ARM GAS  C:\Users\NIGHDR~1\AppData\Local\Temp\ccrnUt9g.s 			page 7


 155:ge.c          ****     fe_sq(h->X, v3);
 156:ge.c          ****     fe_mul(h->X, h->X, v);
 157:ge.c          ****     fe_mul(h->X, h->X, u);  /* x = uv^7 */
 158:ge.c          ****     fe_pow22523(h->X, h->X); /* x = (uv^7)^((q-5)/8) */
 159:ge.c          ****     fe_mul(h->X, h->X, v3);
 160:ge.c          ****     fe_mul(h->X, h->X, u);  /* x = uv^3(uv^7)^((q-5)/8) */
 161:ge.c          ****     fe_sq(vxx, h->X);
 162:ge.c          ****     fe_mul(vxx, vxx, v);
 163:ge.c          ****     fe_sub(check, vxx, u);  /* vx^2-u */
 164:ge.c          **** 
 165:ge.c          ****     if (fe_isnonzero(check)) {
 166:ge.c          ****         fe_add(check, vxx, u); /* vx^2+u */
 167:ge.c          **** 
 168:ge.c          ****         if (fe_isnonzero(check)) {
 169:ge.c          ****             return -1;
 170:ge.c          ****         }
 171:ge.c          **** 
 172:ge.c          ****         fe_mul(h->X, h->X, sqrtm1);
 173:ge.c          ****     }
 174:ge.c          **** 
 175:ge.c          ****     if (fe_isnegative(h->X) == (s[31] >> 7)) {
 176:ge.c          ****         fe_neg(h->X, h->X);
 177:ge.c          ****     }
 178:ge.c          **** 
 179:ge.c          ****     fe_mul(h->T, h->X, h->Y);
 180:ge.c          ****     return 0;
 181:ge.c          **** }
 182:ge.c          **** 
 183:ge.c          **** 
 184:ge.c          **** /*
 185:ge.c          **** r = p + q
 186:ge.c          **** */
 187:ge.c          **** 
 188:ge.c          **** void ge_madd(ge_p1p1 *r, const ge_p3 *p, const ge_precomp *q) {
 189:ge.c          ****     fe t0;
 190:ge.c          ****     fe_add(r->X, p->Y, p->X);
 191:ge.c          ****     fe_sub(r->Y, p->Y, p->X);
 192:ge.c          ****     fe_mul(r->Z, r->X, q->yplusx);
 193:ge.c          ****     fe_mul(r->Y, r->Y, q->yminusx);
 194:ge.c          ****     fe_mul(r->T, q->xy2d, p->T);
 195:ge.c          ****     fe_add(t0, p->Z, p->Z);
 196:ge.c          ****     fe_sub(r->X, r->Z, r->Y);
 197:ge.c          ****     fe_add(r->Y, r->Z, r->Y);
 198:ge.c          ****     fe_add(r->Z, t0, r->T);
 199:ge.c          ****     fe_sub(r->T, t0, r->T);
 200:ge.c          **** }
 201:ge.c          **** 
 202:ge.c          **** 
 203:ge.c          **** /*
 204:ge.c          **** r = p - q
 205:ge.c          **** */
 206:ge.c          **** 
 207:ge.c          **** void ge_msub(ge_p1p1 *r, const ge_p3 *p, const ge_precomp *q) {
 208:ge.c          ****     fe t0;
 209:ge.c          **** 
 210:ge.c          ****     fe_add(r->X, p->Y, p->X);
 211:ge.c          ****     fe_sub(r->Y, p->Y, p->X);
ARM GAS  C:\Users\NIGHDR~1\AppData\Local\Temp\ccrnUt9g.s 			page 8


 212:ge.c          ****     fe_mul(r->Z, r->X, q->yminusx);
 213:ge.c          ****     fe_mul(r->Y, r->Y, q->yplusx);
 214:ge.c          ****     fe_mul(r->T, q->xy2d, p->T);
 215:ge.c          ****     fe_add(t0, p->Z, p->Z);
 216:ge.c          ****     fe_sub(r->X, r->Z, r->Y);
 217:ge.c          ****     fe_add(r->Y, r->Z, r->Y);
 218:ge.c          ****     fe_sub(r->Z, t0, r->T);
 219:ge.c          ****     fe_add(r->T, t0, r->T);
 220:ge.c          **** }
 221:ge.c          **** 
 222:ge.c          **** 
 223:ge.c          **** /*
 224:ge.c          **** r = p
 225:ge.c          **** */
 226:ge.c          **** 
 227:ge.c          **** void ge_p1p1_to_p2(ge_p2 *r, const ge_p1p1 *p) {
 228:ge.c          ****     fe_mul(r->X, p->X, p->T);
 229:ge.c          ****     fe_mul(r->Y, p->Y, p->Z);
 230:ge.c          ****     fe_mul(r->Z, p->Z, p->T);
 231:ge.c          **** }
 232:ge.c          **** 
 233:ge.c          **** 
 234:ge.c          **** 
 235:ge.c          **** /*
 236:ge.c          **** r = p
 237:ge.c          **** */
 238:ge.c          **** 
 239:ge.c          **** void ge_p1p1_to_p3(ge_p3 *r, const ge_p1p1 *p) {
 240:ge.c          ****     fe_mul(r->X, p->X, p->T);
 241:ge.c          ****     fe_mul(r->Y, p->Y, p->Z);
 242:ge.c          ****     fe_mul(r->Z, p->Z, p->T);
 243:ge.c          ****     fe_mul(r->T, p->X, p->Y);
 244:ge.c          **** }
 245:ge.c          **** 
 246:ge.c          **** 
 247:ge.c          **** void ge_p2_0(ge_p2 *h) {
 248:ge.c          ****     fe_0(h->X);
 249:ge.c          ****     fe_1(h->Y);
 250:ge.c          ****     fe_1(h->Z);
 251:ge.c          **** }
 252:ge.c          **** 
 253:ge.c          **** 
 254:ge.c          **** 
 255:ge.c          **** /*
 256:ge.c          **** r = 2 * p
 257:ge.c          **** */
 258:ge.c          **** 
 259:ge.c          **** void ge_p2_dbl(ge_p1p1 *r, const ge_p2 *p) {
 260:ge.c          ****     fe t0;
 261:ge.c          **** 
 262:ge.c          ****     fe_sq(r->X, p->X);
 263:ge.c          ****     fe_sq(r->Z, p->Y);
 264:ge.c          ****     fe_sq2(r->T, p->Z);
 265:ge.c          ****     fe_add(r->Y, p->X, p->Y);
 266:ge.c          ****     fe_sq(t0, r->Y);
 267:ge.c          ****     fe_add(r->Y, r->Z, r->X);
 268:ge.c          ****     fe_sub(r->Z, r->Z, r->X);
ARM GAS  C:\Users\NIGHDR~1\AppData\Local\Temp\ccrnUt9g.s 			page 9


 269:ge.c          ****     fe_sub(r->X, t0, r->Y);
 270:ge.c          ****     fe_sub(r->T, r->T, r->Z);
 271:ge.c          **** }
 272:ge.c          **** 
 273:ge.c          **** 
 274:ge.c          **** void ge_p3_0(ge_p3 *h) {
 275:ge.c          ****     fe_0(h->X);
 276:ge.c          ****     fe_1(h->Y);
 277:ge.c          ****     fe_1(h->Z);
 278:ge.c          ****     fe_0(h->T);
 279:ge.c          **** }
 280:ge.c          **** 
 281:ge.c          **** 
 282:ge.c          **** /*
 283:ge.c          **** r = 2 * p
 284:ge.c          **** */
 285:ge.c          **** 
 286:ge.c          **** void ge_p3_dbl(ge_p1p1 *r, const ge_p3 *p) {
 287:ge.c          ****     ge_p2 q;
 288:ge.c          ****     ge_p3_to_p2(&q, p);
 289:ge.c          ****     ge_p2_dbl(r, &q);
 290:ge.c          **** }
 291:ge.c          **** 
 292:ge.c          **** 
 293:ge.c          **** 
 294:ge.c          **** /*
 295:ge.c          **** r = p
 296:ge.c          **** */
 297:ge.c          **** 
 298:ge.c          **** static const fe d2 = {
 299:ge.c          ****     -21827239, -5839606, -30745221, 13898782, 229458, 15978800, -12551817, -6495438, 29715968, 9444
 300:ge.c          **** };
 301:ge.c          **** 
 302:ge.c          **** void ge_p3_to_cached(ge_cached *r, const ge_p3 *p) {
 303:ge.c          ****     fe_add(r->YplusX, p->Y, p->X);
 304:ge.c          ****     fe_sub(r->YminusX, p->Y, p->X);
 305:ge.c          ****     fe_copy(r->Z, p->Z);
 306:ge.c          ****     fe_mul(r->T2d, p->T, d2);
 307:ge.c          **** }
 308:ge.c          **** 
 309:ge.c          **** 
 310:ge.c          **** /*
 311:ge.c          **** r = p
 312:ge.c          **** */
 313:ge.c          **** 
 314:ge.c          **** void ge_p3_to_p2(ge_p2 *r, const ge_p3 *p) {
 315:ge.c          ****     fe_copy(r->X, p->X);
 316:ge.c          ****     fe_copy(r->Y, p->Y);
 317:ge.c          ****     fe_copy(r->Z, p->Z);
 318:ge.c          **** }
 319:ge.c          **** 
 320:ge.c          **** 
 321:ge.c          **** void ge_p3_tobytes(unsigned char *s, const ge_p3 *h) {
 322:ge.c          ****     fe recip;
 323:ge.c          ****     fe x;
 324:ge.c          ****     fe y;
 325:ge.c          ****     fe_invert(recip, h->Z);
ARM GAS  C:\Users\NIGHDR~1\AppData\Local\Temp\ccrnUt9g.s 			page 10


 326:ge.c          ****     fe_mul(x, h->X, recip);
 327:ge.c          ****     fe_mul(y, h->Y, recip);
 328:ge.c          ****     fe_tobytes(s, y);
 329:ge.c          ****     s[31] ^= fe_isnegative(x) << 7;
 330:ge.c          **** }
 331:ge.c          **** 
 332:ge.c          **** 
 333:ge.c          **** static unsigned char equal(signed char b, signed char c) {
 180              		.loc 1 333 0
 181              		.cfi_startproc
 182              		@ args = 0, pretend = 0, frame = 0
 183              		@ frame_needed = 0, uses_anonymous_args = 0
 184              	.LVL17:
 185 0000 30B5     		push	{r4, r5, lr}
 186              		.cfi_def_cfa_offset 12
 187              		.cfi_offset 4, -12
 188              		.cfi_offset 5, -8
 189              		.cfi_offset 14, -4
 334:ge.c          ****     unsigned char ub = b;
 190              		.loc 1 334 0
 191 0002 C0B2     		uxtb	r0, r0
 192              	.LVL18:
 335:ge.c          ****     unsigned char uc = c;
 193              		.loc 1 335 0
 194 0004 C9B2     		uxtb	r1, r1
 195              	.LVL19:
 336:ge.c          ****     unsigned char x = ub ^ uc; /* 0: yes; 1..255: no */
 337:ge.c          ****     uint64_t y = x; /* 0: yes; 1..255: no */
 196              		.loc 1 337 0
 197 0006 4840     		eors	r0, r1
 198              	.LVL20:
 199 0008 0400     		movs	r4, r0
 200 000a 0025     		movs	r5, #0
 201              	.LVL21:
 338:ge.c          ****     y -= 1; /* large: yes; 0..254: no */
 202              		.loc 1 338 0
 203 000c 0122     		movs	r2, #1
 204 000e 5242     		rsbs	r2, r2, #0
 205 0010 D317     		asrs	r3, r2, #31
 206 0012 1219     		adds	r2, r2, r4
 207 0014 6B41     		adcs	r3, r3, r5
 208              	.LVL22:
 339:ge.c          ****     y >>= 63; /* 1: yes; 0: no */
 340:ge.c          ****     return (unsigned char) y;
 209              		.loc 1 340 0
 210 0016 D80F     		lsrs	r0, r3, #31
 341:ge.c          **** }
 211              		.loc 1 341 0
 212              		@ sp needed
 213 0018 30BD     		pop	{r4, r5, pc}
 214              		.cfi_endproc
 215              	.LFE15:
 216              		.size	equal, .-equal
 217 001a C046     		.section	.text.negative,"ax",%progbits
 218              		.align	2
 219              		.code	16
 220              		.thumb_func
ARM GAS  C:\Users\NIGHDR~1\AppData\Local\Temp\ccrnUt9g.s 			page 11


 221              		.type	negative, %function
 222              	negative:
 223              	.LFB16:
 342:ge.c          **** 
 343:ge.c          **** static unsigned char negative(signed char b) {
 224              		.loc 1 343 0
 225              		.cfi_startproc
 226              		@ args = 0, pretend = 0, frame = 0
 227              		@ frame_needed = 0, uses_anonymous_args = 0
 228              		@ link register save eliminated.
 229              	.LVL23:
 344:ge.c          ****     uint64_t x = b; /* 18446744073709551361..18446744073709551615: yes; 0..255: no */
 345:ge.c          ****     x >>= 63; /* 1: yes; 0: no */
 346:ge.c          ****     return (unsigned char) x;
 230              		.loc 1 346 0
 231 0000 C00F     		lsrs	r0, r0, #31
 232              	.LVL24:
 347:ge.c          **** }
 233              		.loc 1 347 0
 234              		@ sp needed
 235 0002 7047     		bx	lr
 236              		.cfi_endproc
 237              	.LFE16:
 238              		.size	negative, .-negative
 239              		.section	.text.cmov,"ax",%progbits
 240              		.align	2
 241              		.code	16
 242              		.thumb_func
 243              		.type	cmov, %function
 244              	cmov:
 245              	.LFB17:
 348:ge.c          **** 
 349:ge.c          **** static void cmov(ge_precomp *t, const ge_precomp *u, unsigned char b) {
 246              		.loc 1 349 0
 247              		.cfi_startproc
 248              		@ args = 0, pretend = 0, frame = 0
 249              		@ frame_needed = 0, uses_anonymous_args = 0
 250              	.LVL25:
 251 0000 70B5     		push	{r4, r5, r6, lr}
 252              		.cfi_def_cfa_offset 16
 253              		.cfi_offset 4, -16
 254              		.cfi_offset 5, -12
 255              		.cfi_offset 6, -8
 256              		.cfi_offset 14, -4
 257 0002 0400     		movs	r4, r0
 258 0004 0D00     		movs	r5, r1
 259 0006 1600     		movs	r6, r2
 350:ge.c          ****     fe_cmov(t->yplusx, u->yplusx, b);
 260              		.loc 1 350 0
 261 0008 FFF7FEFF 		bl	fe_cmov
 262              	.LVL26:
 351:ge.c          ****     fe_cmov(t->yminusx, u->yminusx, b);
 263              		.loc 1 351 0
 264 000c 2000     		movs	r0, r4
 265 000e 2830     		adds	r0, r0, #40
 266 0010 2900     		movs	r1, r5
 267 0012 2831     		adds	r1, r1, #40
ARM GAS  C:\Users\NIGHDR~1\AppData\Local\Temp\ccrnUt9g.s 			page 12


 268 0014 3200     		movs	r2, r6
 269 0016 FFF7FEFF 		bl	fe_cmov
 270              	.LVL27:
 352:ge.c          ****     fe_cmov(t->xy2d, u->xy2d, b);
 271              		.loc 1 352 0
 272 001a 2000     		movs	r0, r4
 273 001c 5030     		adds	r0, r0, #80
 274 001e 2900     		movs	r1, r5
 275 0020 5031     		adds	r1, r1, #80
 276 0022 3200     		movs	r2, r6
 277 0024 FFF7FEFF 		bl	fe_cmov
 278              	.LVL28:
 353:ge.c          **** }
 279              		.loc 1 353 0
 280              		@ sp needed
 281              	.LVL29:
 282              	.LVL30:
 283 0028 70BD     		pop	{r4, r5, r6, pc}
 284              		.cfi_endproc
 285              	.LFE17:
 286              		.size	cmov, .-cmov
 287 002a C046     		.section	.text.select,"ax",%progbits
 288              		.align	2
 289              		.code	16
 290              		.thumb_func
 291              		.type	select, %function
 292              	select:
 293              	.LFB18:
 354:ge.c          **** 
 355:ge.c          **** 
 356:ge.c          **** static void select(ge_precomp *t, int pos, signed char b) {
 294              		.loc 1 356 0
 295              		.cfi_startproc
 296              		@ args = 0, pretend = 0, frame = 136
 297              		@ frame_needed = 0, uses_anonymous_args = 0
 298              	.LVL31:
 299 0000 F0B5     		push	{r4, r5, r6, r7, lr}
 300              		.cfi_def_cfa_offset 20
 301              		.cfi_offset 4, -20
 302              		.cfi_offset 5, -16
 303              		.cfi_offset 6, -12
 304              		.cfi_offset 7, -8
 305              		.cfi_offset 14, -4
 306 0002 A3B0     		sub	sp, sp, #140
 307              		.cfi_def_cfa_offset 160
 308 0004 0500     		movs	r5, r0
 309 0006 0F00     		movs	r7, r1
 310 0008 1600     		movs	r6, r2
 357:ge.c          ****     ge_precomp minust;
 358:ge.c          ****     unsigned char bnegative = negative(b);
 311              		.loc 1 358 0
 312 000a 1000     		movs	r0, r2
 313              	.LVL32:
 314 000c FFF7FEFF 		bl	negative
 315              	.LVL33:
 359:ge.c          ****     unsigned char babs = b - (((-bnegative) & b) << 1);
 316              		.loc 1 359 0
ARM GAS  C:\Users\NIGHDR~1\AppData\Local\Temp\ccrnUt9g.s 			page 13


 317 0010 0390     		str	r0, [sp, #12]
 318 0012 4442     		rsbs	r4, r0, #0
 319 0014 3440     		ands	r4, r6
 320 0016 6400     		lsls	r4, r4, #1
 321 0018 341B     		subs	r4, r6, r4
 322 001a E4B2     		uxtb	r4, r4
 323              	.LVL34:
 360:ge.c          ****     fe_1(t->yplusx);
 324              		.loc 1 360 0
 325 001c 2800     		movs	r0, r5
 326              	.LVL35:
 327 001e FFF7FEFF 		bl	fe_1
 328              	.LVL36:
 361:ge.c          ****     fe_1(t->yminusx);
 329              		.loc 1 361 0
 330 0022 2821     		movs	r1, #40
 331 0024 8C46     		mov	ip, r1
 332 0026 AC44     		add	ip, ip, r5
 333 0028 6146     		mov	r1, ip
 334 002a 0191     		str	r1, [sp, #4]
 335 002c 6046     		mov	r0, ip
 336 002e FFF7FEFF 		bl	fe_1
 337              	.LVL37:
 362:ge.c          ****     fe_0(t->xy2d);
 338              		.loc 1 362 0
 339 0032 5020     		movs	r0, #80
 340 0034 8446     		mov	ip, r0
 341 0036 AC44     		add	ip, ip, r5
 342 0038 6046     		mov	r0, ip
 343 003a 0290     		str	r0, [sp, #8]
 344 003c FFF7FEFF 		bl	fe_0
 345              	.LVL38:
 363:ge.c          ****     cmov(t, &base[pos][0], equal(babs, 1));
 346              		.loc 1 363 0
 347 0040 63B2     		sxtb	r3, r4
 348 0042 0121     		movs	r1, #1
 349 0044 0093     		str	r3, [sp]
 350 0046 1800     		movs	r0, r3
 351 0048 FFF7FEFF 		bl	equal
 352              	.LVL39:
 353 004c 0200     		movs	r2, r0
 354 004e 3D4E     		ldr	r6, .L19
 355 0050 3C01     		lsls	r4, r7, #4
 356              	.LVL40:
 357 0052 E31B     		subs	r3, r4, r7
 358 0054 9901     		lsls	r1, r3, #6
 359 0056 7118     		adds	r1, r6, r1
 360 0058 2800     		movs	r0, r5
 361 005a FFF7FEFF 		bl	cmov
 362              	.LVL41:
 364:ge.c          ****     cmov(t, &base[pos][1], equal(babs, 2));
 363              		.loc 1 364 0
 364 005e 0221     		movs	r1, #2
 365 0060 0098     		ldr	r0, [sp]
 366 0062 FFF7FEFF 		bl	equal
 367              	.LVL42:
 368 0066 0200     		movs	r2, r0
ARM GAS  C:\Users\NIGHDR~1\AppData\Local\Temp\ccrnUt9g.s 			page 14


 369 0068 E31B     		subs	r3, r4, r7
 370 006a 9901     		lsls	r1, r3, #6
 371 006c 7831     		adds	r1, r1, #120
 372 006e 7118     		adds	r1, r6, r1
 373 0070 2800     		movs	r0, r5
 374 0072 FFF7FEFF 		bl	cmov
 375              	.LVL43:
 365:ge.c          ****     cmov(t, &base[pos][2], equal(babs, 3));
 376              		.loc 1 365 0
 377 0076 0321     		movs	r1, #3
 378 0078 0098     		ldr	r0, [sp]
 379 007a FFF7FEFF 		bl	equal
 380              	.LVL44:
 381 007e 0200     		movs	r2, r0
 382 0080 E31B     		subs	r3, r4, r7
 383 0082 9901     		lsls	r1, r3, #6
 384 0084 F031     		adds	r1, r1, #240
 385 0086 7118     		adds	r1, r6, r1
 386 0088 2800     		movs	r0, r5
 387 008a FFF7FEFF 		bl	cmov
 388              	.LVL45:
 366:ge.c          ****     cmov(t, &base[pos][3], equal(babs, 4));
 389              		.loc 1 366 0
 390 008e 0421     		movs	r1, #4
 391 0090 0098     		ldr	r0, [sp]
 392 0092 FFF7FEFF 		bl	equal
 393              	.LVL46:
 394 0096 0200     		movs	r2, r0
 395 0098 E31B     		subs	r3, r4, r7
 396 009a 9901     		lsls	r1, r3, #6
 397 009c 6931     		adds	r1, r1, #105
 398 009e FF31     		adds	r1, r1, #255
 399 00a0 7118     		adds	r1, r6, r1
 400 00a2 2800     		movs	r0, r5
 401 00a4 FFF7FEFF 		bl	cmov
 402              	.LVL47:
 367:ge.c          ****     cmov(t, &base[pos][4], equal(babs, 5));
 403              		.loc 1 367 0
 404 00a8 0521     		movs	r1, #5
 405 00aa 0098     		ldr	r0, [sp]
 406 00ac FFF7FEFF 		bl	equal
 407              	.LVL48:
 408 00b0 0200     		movs	r2, r0
 409 00b2 E31B     		subs	r3, r4, r7
 410 00b4 9901     		lsls	r1, r3, #6
 411 00b6 E131     		adds	r1, r1, #225
 412 00b8 FF31     		adds	r1, r1, #255
 413 00ba 7118     		adds	r1, r6, r1
 414 00bc 2800     		movs	r0, r5
 415 00be FFF7FEFF 		bl	cmov
 416              	.LVL49:
 368:ge.c          ****     cmov(t, &base[pos][5], equal(babs, 6));
 417              		.loc 1 368 0
 418 00c2 0621     		movs	r1, #6
 419 00c4 0098     		ldr	r0, [sp]
 420 00c6 FFF7FEFF 		bl	equal
 421              	.LVL50:
ARM GAS  C:\Users\NIGHDR~1\AppData\Local\Temp\ccrnUt9g.s 			page 15


 422 00ca 0200     		movs	r2, r0
 423 00cc E31B     		subs	r3, r4, r7
 424 00ce 9901     		lsls	r1, r3, #6
 425 00d0 9623     		movs	r3, #150
 426 00d2 9B00     		lsls	r3, r3, #2
 427 00d4 9C46     		mov	ip, r3
 428 00d6 6144     		add	r1, r1, ip
 429 00d8 7118     		adds	r1, r6, r1
 430 00da 2800     		movs	r0, r5
 431 00dc FFF7FEFF 		bl	cmov
 432              	.LVL51:
 369:ge.c          ****     cmov(t, &base[pos][6], equal(babs, 7));
 433              		.loc 1 369 0
 434 00e0 0721     		movs	r1, #7
 435 00e2 0098     		ldr	r0, [sp]
 436 00e4 FFF7FEFF 		bl	equal
 437              	.LVL52:
 438 00e8 0200     		movs	r2, r0
 439 00ea E31B     		subs	r3, r4, r7
 440 00ec 9901     		lsls	r1, r3, #6
 441 00ee B423     		movs	r3, #180
 442 00f0 9B00     		lsls	r3, r3, #2
 443 00f2 9C46     		mov	ip, r3
 444 00f4 6144     		add	r1, r1, ip
 445 00f6 7118     		adds	r1, r6, r1
 446 00f8 2800     		movs	r0, r5
 447 00fa FFF7FEFF 		bl	cmov
 448              	.LVL53:
 370:ge.c          ****     cmov(t, &base[pos][7], equal(babs, 8));
 449              		.loc 1 370 0
 450 00fe 0821     		movs	r1, #8
 451 0100 0098     		ldr	r0, [sp]
 452 0102 FFF7FEFF 		bl	equal
 453              	.LVL54:
 454 0106 0200     		movs	r2, r0
 455 0108 E31B     		subs	r3, r4, r7
 456 010a 9901     		lsls	r1, r3, #6
 457 010c D224     		movs	r4, #210
 458 010e A400     		lsls	r4, r4, #2
 459 0110 A446     		mov	ip, r4
 460 0112 6144     		add	r1, r1, ip
 461 0114 7118     		adds	r1, r6, r1
 462 0116 2800     		movs	r0, r5
 463 0118 FFF7FEFF 		bl	cmov
 464              	.LVL55:
 371:ge.c          ****     fe_copy(minust.yplusx, t->yminusx);
 465              		.loc 1 371 0
 466 011c 0199     		ldr	r1, [sp, #4]
 467 011e 04A8     		add	r0, sp, #16
 468 0120 FFF7FEFF 		bl	fe_copy
 469              	.LVL56:
 372:ge.c          ****     fe_copy(minust.yminusx, t->yplusx);
 470              		.loc 1 372 0
 471 0124 2900     		movs	r1, r5
 472 0126 0EA8     		add	r0, sp, #56
 473 0128 FFF7FEFF 		bl	fe_copy
 474              	.LVL57:
ARM GAS  C:\Users\NIGHDR~1\AppData\Local\Temp\ccrnUt9g.s 			page 16


 373:ge.c          ****     fe_neg(minust.xy2d, t->xy2d);
 475              		.loc 1 373 0
 476 012c 0299     		ldr	r1, [sp, #8]
 477 012e 18A8     		add	r0, sp, #96
 478 0130 FFF7FEFF 		bl	fe_neg
 479              	.LVL58:
 374:ge.c          ****     cmov(t, &minust, bnegative);
 480              		.loc 1 374 0
 481 0134 039A     		ldr	r2, [sp, #12]
 482 0136 04A9     		add	r1, sp, #16
 483 0138 2800     		movs	r0, r5
 484 013a FFF7FEFF 		bl	cmov
 485              	.LVL59:
 375:ge.c          **** }
 486              		.loc 1 375 0
 487 013e 23B0     		add	sp, sp, #140
 488              	.LVL60:
 489              		@ sp needed
 490              	.LVL61:
 491              	.LVL62:
 492 0140 F0BD     		pop	{r4, r5, r6, r7, pc}
 493              	.L20:
 494 0142 C046     		.align	2
 495              	.L19:
 496 0144 00000000 		.word	.LANCHOR0
 497              		.cfi_endproc
 498              	.LFE18:
 499              		.size	select, .-select
 500              		.section	.text.ge_add,"ax",%progbits
 501              		.align	2
 502              		.global	ge_add
 503              		.code	16
 504              		.thumb_func
 505              		.type	ge_add, %function
 506              	ge_add:
 507              	.LFB0:
   9:ge.c          ****     fe t0;
 508              		.loc 1 9 0
 509              		.cfi_startproc
 510              		@ args = 0, pretend = 0, frame = 48
 511              		@ frame_needed = 0, uses_anonymous_args = 0
 512              	.LVL63:
 513 0000 F0B5     		push	{r4, r5, r6, r7, lr}
 514              		.cfi_def_cfa_offset 20
 515              		.cfi_offset 4, -20
 516              		.cfi_offset 5, -16
 517              		.cfi_offset 6, -12
 518              		.cfi_offset 7, -8
 519              		.cfi_offset 14, -4
 520 0002 8DB0     		sub	sp, sp, #52
 521              		.cfi_def_cfa_offset 72
 522 0004 0400     		movs	r4, r0
 523 0006 0D00     		movs	r5, r1
 524 0008 1700     		movs	r7, r2
  11:ge.c          ****     fe_sub(r->Y, p->Y, p->X);
 525              		.loc 1 11 0
 526 000a 0E00     		movs	r6, r1
ARM GAS  C:\Users\NIGHDR~1\AppData\Local\Temp\ccrnUt9g.s 			page 17


 527 000c 2836     		adds	r6, r6, #40
 528 000e 0A00     		movs	r2, r1
 529              	.LVL64:
 530 0010 3100     		movs	r1, r6
 531              	.LVL65:
 532 0012 FFF7FEFF 		bl	fe_add
 533              	.LVL66:
  12:ge.c          ****     fe_mul(r->Z, r->X, q->YplusX);
 534              		.loc 1 12 0
 535 0016 2823     		movs	r3, #40
 536 0018 9C46     		mov	ip, r3
 537 001a A444     		add	ip, ip, r4
 538 001c 6346     		mov	r3, ip
 539 001e 2A00     		movs	r2, r5
 540 0020 3100     		movs	r1, r6
 541 0022 6646     		mov	r6, ip
 542 0024 1800     		movs	r0, r3
 543 0026 FFF7FEFF 		bl	fe_sub
 544              	.LVL67:
  13:ge.c          ****     fe_mul(r->Y, r->Y, q->YminusX);
 545              		.loc 1 13 0
 546 002a 5023     		movs	r3, #80
 547 002c 9C46     		mov	ip, r3
 548 002e A444     		add	ip, ip, r4
 549 0030 6346     		mov	r3, ip
 550 0032 3A00     		movs	r2, r7
 551 0034 2100     		movs	r1, r4
 552 0036 0193     		str	r3, [sp, #4]
 553 0038 6046     		mov	r0, ip
 554 003a FFF7FEFF 		bl	fe_mul
 555              	.LVL68:
  14:ge.c          ****     fe_mul(r->T, q->T2d, p->T);
 556              		.loc 1 14 0
 557 003e 3A00     		movs	r2, r7
 558 0040 2832     		adds	r2, r2, #40
 559 0042 3100     		movs	r1, r6
 560 0044 0096     		str	r6, [sp]
 561 0046 3000     		movs	r0, r6
 562 0048 FFF7FEFF 		bl	fe_mul
 563              	.LVL69:
  15:ge.c          ****     fe_mul(r->X, p->Z, q->Z);
 564              		.loc 1 15 0
 565 004c 5036     		adds	r6, r6, #80
 566 004e 3900     		movs	r1, r7
 567 0050 7831     		adds	r1, r1, #120
 568 0052 2A00     		movs	r2, r5
 569 0054 7832     		adds	r2, r2, #120
 570 0056 3000     		movs	r0, r6
 571 0058 FFF7FEFF 		bl	fe_mul
 572              	.LVL70:
  16:ge.c          ****     fe_add(t0, r->X, r->X);
 573              		.loc 1 16 0
 574 005c 2900     		movs	r1, r5
 575 005e 5031     		adds	r1, r1, #80
 576 0060 3A00     		movs	r2, r7
 577 0062 5032     		adds	r2, r2, #80
 578 0064 2000     		movs	r0, r4
ARM GAS  C:\Users\NIGHDR~1\AppData\Local\Temp\ccrnUt9g.s 			page 18


 579 0066 FFF7FEFF 		bl	fe_mul
 580              	.LVL71:
  17:ge.c          ****     fe_sub(r->X, r->Z, r->Y);
 581              		.loc 1 17 0
 582 006a 2200     		movs	r2, r4
 583 006c 2100     		movs	r1, r4
 584 006e 02A8     		add	r0, sp, #8
 585 0070 FFF7FEFF 		bl	fe_add
 586              	.LVL72:
  18:ge.c          ****     fe_add(r->Y, r->Z, r->Y);
 587              		.loc 1 18 0
 588 0074 009D     		ldr	r5, [sp]
 589              	.LVL73:
 590 0076 2A00     		movs	r2, r5
 591 0078 019F     		ldr	r7, [sp, #4]
 592              	.LVL74:
 593 007a 3900     		movs	r1, r7
 594 007c 2000     		movs	r0, r4
 595 007e FFF7FEFF 		bl	fe_sub
 596              	.LVL75:
  19:ge.c          ****     fe_add(r->Z, t0, r->T);
 597              		.loc 1 19 0
 598 0082 2A00     		movs	r2, r5
 599 0084 3900     		movs	r1, r7
 600 0086 2800     		movs	r0, r5
 601 0088 FFF7FEFF 		bl	fe_add
 602              	.LVL76:
  20:ge.c          ****     fe_sub(r->T, t0, r->T);
 603              		.loc 1 20 0
 604 008c 3200     		movs	r2, r6
 605 008e 02A9     		add	r1, sp, #8
 606 0090 3800     		movs	r0, r7
 607 0092 FFF7FEFF 		bl	fe_add
 608              	.LVL77:
  21:ge.c          **** }
 609              		.loc 1 21 0
 610 0096 3200     		movs	r2, r6
 611 0098 02A9     		add	r1, sp, #8
 612 009a 3000     		movs	r0, r6
 613 009c FFF7FEFF 		bl	fe_sub
 614              	.LVL78:
  22:ge.c          **** 
 615              		.loc 1 22 0
 616 00a0 0DB0     		add	sp, sp, #52
 617              		@ sp needed
 618              	.LVL79:
 619 00a2 F0BD     		pop	{r4, r5, r6, r7, pc}
 620              		.cfi_endproc
 621              	.LFE0:
 622              		.size	ge_add, .-ge_add
 623              		.section	.text.ge_frombytes_negate_vartime,"ax",%progbits
 624              		.align	2
 625              		.global	ge_frombytes_negate_vartime
 626              		.code	16
 627              		.thumb_func
 628              		.type	ge_frombytes_negate_vartime, %function
 629              	ge_frombytes_negate_vartime:
ARM GAS  C:\Users\NIGHDR~1\AppData\Local\Temp\ccrnUt9g.s 			page 19


 630              	.LFB3:
 141:ge.c          ****     fe u;
 631              		.loc 1 141 0
 632              		.cfi_startproc
 633              		@ args = 0, pretend = 0, frame = 200
 634              		@ frame_needed = 0, uses_anonymous_args = 0
 635              	.LVL80:
 636 0000 F0B5     		push	{r4, r5, r6, r7, lr}
 637              		.cfi_def_cfa_offset 20
 638              		.cfi_offset 4, -20
 639              		.cfi_offset 5, -16
 640              		.cfi_offset 6, -12
 641              		.cfi_offset 7, -8
 642              		.cfi_offset 14, -4
 643 0002 B3B0     		sub	sp, sp, #204
 644              		.cfi_def_cfa_offset 224
 645 0004 0400     		movs	r4, r0
 646 0006 0F00     		movs	r7, r1
 147:ge.c          ****     fe_1(h->Z);
 647              		.loc 1 147 0
 648 0008 0600     		movs	r6, r0
 649 000a 2836     		adds	r6, r6, #40
 650 000c 3000     		movs	r0, r6
 651              	.LVL81:
 652 000e FFF7FEFF 		bl	fe_frombytes
 653              	.LVL82:
 148:ge.c          ****     fe_sq(u, h->Y);
 654              		.loc 1 148 0
 655 0012 2500     		movs	r5, r4
 656 0014 5035     		adds	r5, r5, #80
 657 0016 2800     		movs	r0, r5
 658 0018 FFF7FEFF 		bl	fe_1
 659              	.LVL83:
 149:ge.c          ****     fe_mul(v, u, d);
 660              		.loc 1 149 0
 661 001c 3100     		movs	r1, r6
 662 001e 28A8     		add	r0, sp, #160
 663 0020 FFF7FEFF 		bl	fe_sq
 664              	.LVL84:
 150:ge.c          ****     fe_sub(u, u, h->Z);     /* u = y^2-1 */
 665              		.loc 1 150 0
 666 0024 364A     		ldr	r2, .L27
 667 0026 28A9     		add	r1, sp, #160
 668 0028 1EA8     		add	r0, sp, #120
 669 002a FFF7FEFF 		bl	fe_mul
 670              	.LVL85:
 151:ge.c          ****     fe_add(v, v, h->Z);     /* v = dy^2+1 */
 671              		.loc 1 151 0
 672 002e 2A00     		movs	r2, r5
 673 0030 28A9     		add	r1, sp, #160
 674 0032 0800     		movs	r0, r1
 675 0034 FFF7FEFF 		bl	fe_sub
 676              	.LVL86:
 152:ge.c          ****     fe_sq(v3, v);
 677              		.loc 1 152 0
 678 0038 2A00     		movs	r2, r5
 679 003a 1EA9     		add	r1, sp, #120
ARM GAS  C:\Users\NIGHDR~1\AppData\Local\Temp\ccrnUt9g.s 			page 20


 680 003c 0800     		movs	r0, r1
 681 003e FFF7FEFF 		bl	fe_add
 682              	.LVL87:
 153:ge.c          ****     fe_mul(v3, v3, v);      /* v3 = v^3 */
 683              		.loc 1 153 0
 684 0042 1EA9     		add	r1, sp, #120
 685 0044 14A8     		add	r0, sp, #80
 686 0046 FFF7FEFF 		bl	fe_sq
 687              	.LVL88:
 154:ge.c          ****     fe_sq(h->X, v3);
 688              		.loc 1 154 0
 689 004a 1EAA     		add	r2, sp, #120
 690 004c 14A9     		add	r1, sp, #80
 691 004e 0800     		movs	r0, r1
 692 0050 FFF7FEFF 		bl	fe_mul
 693              	.LVL89:
 155:ge.c          ****     fe_mul(h->X, h->X, v);
 694              		.loc 1 155 0
 695 0054 14A9     		add	r1, sp, #80
 696 0056 2000     		movs	r0, r4
 697 0058 FFF7FEFF 		bl	fe_sq
 698              	.LVL90:
 156:ge.c          ****     fe_mul(h->X, h->X, u);  /* x = uv^7 */
 699              		.loc 1 156 0
 700 005c 1EAA     		add	r2, sp, #120
 701 005e 2100     		movs	r1, r4
 702 0060 2000     		movs	r0, r4
 703 0062 FFF7FEFF 		bl	fe_mul
 704              	.LVL91:
 157:ge.c          ****     fe_pow22523(h->X, h->X); /* x = (uv^7)^((q-5)/8) */
 705              		.loc 1 157 0
 706 0066 28AA     		add	r2, sp, #160
 707 0068 2100     		movs	r1, r4
 708 006a 2000     		movs	r0, r4
 709 006c FFF7FEFF 		bl	fe_mul
 710              	.LVL92:
 158:ge.c          ****     fe_mul(h->X, h->X, v3);
 711              		.loc 1 158 0
 712 0070 2100     		movs	r1, r4
 713 0072 2000     		movs	r0, r4
 714 0074 FFF7FEFF 		bl	fe_pow22523
 715              	.LVL93:
 159:ge.c          ****     fe_mul(h->X, h->X, u);  /* x = uv^3(uv^7)^((q-5)/8) */
 716              		.loc 1 159 0
 717 0078 14AA     		add	r2, sp, #80
 718 007a 2100     		movs	r1, r4
 719 007c 2000     		movs	r0, r4
 720 007e FFF7FEFF 		bl	fe_mul
 721              	.LVL94:
 160:ge.c          ****     fe_sq(vxx, h->X);
 722              		.loc 1 160 0
 723 0082 28AA     		add	r2, sp, #160
 724 0084 2100     		movs	r1, r4
 725 0086 2000     		movs	r0, r4
 726 0088 FFF7FEFF 		bl	fe_mul
 727              	.LVL95:
 161:ge.c          ****     fe_mul(vxx, vxx, v);
ARM GAS  C:\Users\NIGHDR~1\AppData\Local\Temp\ccrnUt9g.s 			page 21


 728              		.loc 1 161 0
 729 008c 2100     		movs	r1, r4
 730 008e 0AA8     		add	r0, sp, #40
 731 0090 FFF7FEFF 		bl	fe_sq
 732              	.LVL96:
 162:ge.c          ****     fe_sub(check, vxx, u);  /* vx^2-u */
 733              		.loc 1 162 0
 734 0094 1EAA     		add	r2, sp, #120
 735 0096 0AA9     		add	r1, sp, #40
 736 0098 0800     		movs	r0, r1
 737 009a FFF7FEFF 		bl	fe_mul
 738              	.LVL97:
 163:ge.c          **** 
 739              		.loc 1 163 0
 740 009e 28AA     		add	r2, sp, #160
 741 00a0 0AA9     		add	r1, sp, #40
 742 00a2 6846     		mov	r0, sp
 743 00a4 FFF7FEFF 		bl	fe_sub
 744              	.LVL98:
 165:ge.c          ****         fe_add(check, vxx, u); /* vx^2+u */
 745              		.loc 1 165 0
 746 00a8 6846     		mov	r0, sp
 747 00aa FFF7FEFF 		bl	fe_isnonzero
 748              	.LVL99:
 749 00ae 0028     		cmp	r0, #0
 750 00b0 0FD0     		beq	.L23
 166:ge.c          **** 
 751              		.loc 1 166 0
 752 00b2 28AA     		add	r2, sp, #160
 753 00b4 0AA9     		add	r1, sp, #40
 754 00b6 6846     		mov	r0, sp
 755 00b8 FFF7FEFF 		bl	fe_add
 756              	.LVL100:
 168:ge.c          ****             return -1;
 757              		.loc 1 168 0
 758 00bc 6846     		mov	r0, sp
 759 00be FFF7FEFF 		bl	fe_isnonzero
 760              	.LVL101:
 761 00c2 0028     		cmp	r0, #0
 762 00c4 18D1     		bne	.L26
 172:ge.c          ****     }
 763              		.loc 1 172 0
 764 00c6 0E4A     		ldr	r2, .L27
 765 00c8 2832     		adds	r2, r2, #40
 766 00ca 2100     		movs	r1, r4
 767 00cc 2000     		movs	r0, r4
 768 00ce FFF7FEFF 		bl	fe_mul
 769              	.LVL102:
 770              	.L23:
 175:ge.c          ****         fe_neg(h->X, h->X);
 771              		.loc 1 175 0
 772 00d2 2000     		movs	r0, r4
 773 00d4 FFF7FEFF 		bl	fe_isnegative
 774              	.LVL103:
 775 00d8 FB7F     		ldrb	r3, [r7, #31]
 776 00da DB09     		lsrs	r3, r3, #7
 777 00dc 9842     		cmp	r0, r3
ARM GAS  C:\Users\NIGHDR~1\AppData\Local\Temp\ccrnUt9g.s 			page 22


 778 00de 03D1     		bne	.L25
 176:ge.c          ****     }
 779              		.loc 1 176 0
 780 00e0 2100     		movs	r1, r4
 781 00e2 2000     		movs	r0, r4
 782 00e4 FFF7FEFF 		bl	fe_neg
 783              	.LVL104:
 784              	.L25:
 179:ge.c          ****     return 0;
 785              		.loc 1 179 0
 786 00e8 2000     		movs	r0, r4
 787 00ea 7830     		adds	r0, r0, #120
 788 00ec 3200     		movs	r2, r6
 789 00ee 2100     		movs	r1, r4
 790 00f0 FFF7FEFF 		bl	fe_mul
 791              	.LVL105:
 180:ge.c          **** }
 792              		.loc 1 180 0
 793 00f4 0020     		movs	r0, #0
 794 00f6 01E0     		b	.L24
 795              	.L26:
 169:ge.c          ****         }
 796              		.loc 1 169 0
 797 00f8 0120     		movs	r0, #1
 798 00fa 4042     		rsbs	r0, r0, #0
 799              	.L24:
 181:ge.c          **** 
 800              		.loc 1 181 0
 801 00fc 33B0     		add	sp, sp, #204
 802              		@ sp needed
 803              	.LVL106:
 804              	.LVL107:
 805              	.LVL108:
 806              	.LVL109:
 807 00fe F0BD     		pop	{r4, r5, r6, r7, pc}
 808              	.L28:
 809              		.align	2
 810              	.L27:
 811 0100 00780000 		.word	.LANCHOR1
 812              		.cfi_endproc
 813              	.LFE3:
 814              		.size	ge_frombytes_negate_vartime, .-ge_frombytes_negate_vartime
 815              		.section	.text.ge_madd,"ax",%progbits
 816              		.align	2
 817              		.global	ge_madd
 818              		.code	16
 819              		.thumb_func
 820              		.type	ge_madd, %function
 821              	ge_madd:
 822              	.LFB4:
 188:ge.c          ****     fe t0;
 823              		.loc 1 188 0
 824              		.cfi_startproc
 825              		@ args = 0, pretend = 0, frame = 48
 826              		@ frame_needed = 0, uses_anonymous_args = 0
 827              	.LVL110:
 828 0000 F0B5     		push	{r4, r5, r6, r7, lr}
ARM GAS  C:\Users\NIGHDR~1\AppData\Local\Temp\ccrnUt9g.s 			page 23


 829              		.cfi_def_cfa_offset 20
 830              		.cfi_offset 4, -20
 831              		.cfi_offset 5, -16
 832              		.cfi_offset 6, -12
 833              		.cfi_offset 7, -8
 834              		.cfi_offset 14, -4
 835 0002 8DB0     		sub	sp, sp, #52
 836              		.cfi_def_cfa_offset 72
 837 0004 0700     		movs	r7, r0
 838 0006 0C00     		movs	r4, r1
 839 0008 1500     		movs	r5, r2
 190:ge.c          ****     fe_sub(r->Y, p->Y, p->X);
 840              		.loc 1 190 0
 841 000a 0E00     		movs	r6, r1
 842 000c 2836     		adds	r6, r6, #40
 843 000e 0A00     		movs	r2, r1
 844              	.LVL111:
 845 0010 3100     		movs	r1, r6
 846              	.LVL112:
 847 0012 FFF7FEFF 		bl	fe_add
 848              	.LVL113:
 191:ge.c          ****     fe_mul(r->Z, r->X, q->yplusx);
 849              		.loc 1 191 0
 850 0016 2823     		movs	r3, #40
 851 0018 9C46     		mov	ip, r3
 852 001a BC44     		add	ip, ip, r7
 853 001c 6346     		mov	r3, ip
 854 001e 2200     		movs	r2, r4
 855 0020 3100     		movs	r1, r6
 856 0022 6646     		mov	r6, ip
 857 0024 1800     		movs	r0, r3
 858 0026 FFF7FEFF 		bl	fe_sub
 859              	.LVL114:
 192:ge.c          ****     fe_mul(r->Y, r->Y, q->yminusx);
 860              		.loc 1 192 0
 861 002a 5023     		movs	r3, #80
 862 002c 9C46     		mov	ip, r3
 863 002e BC44     		add	ip, ip, r7
 864 0030 6346     		mov	r3, ip
 865 0032 2A00     		movs	r2, r5
 866 0034 3900     		movs	r1, r7
 867 0036 0193     		str	r3, [sp, #4]
 868 0038 6046     		mov	r0, ip
 869 003a FFF7FEFF 		bl	fe_mul
 870              	.LVL115:
 193:ge.c          ****     fe_mul(r->T, q->xy2d, p->T);
 871              		.loc 1 193 0
 872 003e 2A00     		movs	r2, r5
 873 0040 2832     		adds	r2, r2, #40
 874 0042 3100     		movs	r1, r6
 875 0044 0096     		str	r6, [sp]
 876 0046 3000     		movs	r0, r6
 877 0048 FFF7FEFF 		bl	fe_mul
 878              	.LVL116:
 194:ge.c          ****     fe_add(t0, p->Z, p->Z);
 879              		.loc 1 194 0
 880 004c 5036     		adds	r6, r6, #80
ARM GAS  C:\Users\NIGHDR~1\AppData\Local\Temp\ccrnUt9g.s 			page 24


 881 004e 2900     		movs	r1, r5
 882 0050 5031     		adds	r1, r1, #80
 883 0052 2200     		movs	r2, r4
 884 0054 7832     		adds	r2, r2, #120
 885 0056 3000     		movs	r0, r6
 886 0058 FFF7FEFF 		bl	fe_mul
 887              	.LVL117:
 195:ge.c          ****     fe_sub(r->X, r->Z, r->Y);
 888              		.loc 1 195 0
 889 005c 2100     		movs	r1, r4
 890 005e 5031     		adds	r1, r1, #80
 891 0060 0A00     		movs	r2, r1
 892 0062 02A8     		add	r0, sp, #8
 893 0064 FFF7FEFF 		bl	fe_add
 894              	.LVL118:
 196:ge.c          ****     fe_add(r->Y, r->Z, r->Y);
 895              		.loc 1 196 0
 896 0068 009C     		ldr	r4, [sp]
 897              	.LVL119:
 898 006a 2200     		movs	r2, r4
 899 006c 019D     		ldr	r5, [sp, #4]
 900              	.LVL120:
 901 006e 2900     		movs	r1, r5
 902 0070 3800     		movs	r0, r7
 903 0072 FFF7FEFF 		bl	fe_sub
 904              	.LVL121:
 197:ge.c          ****     fe_add(r->Z, t0, r->T);
 905              		.loc 1 197 0
 906 0076 2200     		movs	r2, r4
 907 0078 2900     		movs	r1, r5
 908 007a 2000     		movs	r0, r4
 909 007c FFF7FEFF 		bl	fe_add
 910              	.LVL122:
 198:ge.c          ****     fe_sub(r->T, t0, r->T);
 911              		.loc 1 198 0
 912 0080 3200     		movs	r2, r6
 913 0082 02A9     		add	r1, sp, #8
 914 0084 2800     		movs	r0, r5
 915 0086 FFF7FEFF 		bl	fe_add
 916              	.LVL123:
 199:ge.c          **** }
 917              		.loc 1 199 0
 918 008a 3200     		movs	r2, r6
 919 008c 02A9     		add	r1, sp, #8
 920 008e 3000     		movs	r0, r6
 921 0090 FFF7FEFF 		bl	fe_sub
 922              	.LVL124:
 200:ge.c          **** 
 923              		.loc 1 200 0
 924 0094 0DB0     		add	sp, sp, #52
 925              		@ sp needed
 926              	.LVL125:
 927 0096 F0BD     		pop	{r4, r5, r6, r7, pc}
 928              		.cfi_endproc
 929              	.LFE4:
 930              		.size	ge_madd, .-ge_madd
 931              		.section	.text.ge_msub,"ax",%progbits
ARM GAS  C:\Users\NIGHDR~1\AppData\Local\Temp\ccrnUt9g.s 			page 25


 932              		.align	2
 933              		.global	ge_msub
 934              		.code	16
 935              		.thumb_func
 936              		.type	ge_msub, %function
 937              	ge_msub:
 938              	.LFB5:
 207:ge.c          ****     fe t0;
 939              		.loc 1 207 0
 940              		.cfi_startproc
 941              		@ args = 0, pretend = 0, frame = 48
 942              		@ frame_needed = 0, uses_anonymous_args = 0
 943              	.LVL126:
 944 0000 F0B5     		push	{r4, r5, r6, r7, lr}
 945              		.cfi_def_cfa_offset 20
 946              		.cfi_offset 4, -20
 947              		.cfi_offset 5, -16
 948              		.cfi_offset 6, -12
 949              		.cfi_offset 7, -8
 950              		.cfi_offset 14, -4
 951 0002 8DB0     		sub	sp, sp, #52
 952              		.cfi_def_cfa_offset 72
 953 0004 0700     		movs	r7, r0
 954 0006 0C00     		movs	r4, r1
 955 0008 1500     		movs	r5, r2
 210:ge.c          ****     fe_sub(r->Y, p->Y, p->X);
 956              		.loc 1 210 0
 957 000a 0E00     		movs	r6, r1
 958 000c 2836     		adds	r6, r6, #40
 959 000e 0A00     		movs	r2, r1
 960              	.LVL127:
 961 0010 3100     		movs	r1, r6
 962              	.LVL128:
 963 0012 FFF7FEFF 		bl	fe_add
 964              	.LVL129:
 211:ge.c          ****     fe_mul(r->Z, r->X, q->yminusx);
 965              		.loc 1 211 0
 966 0016 2823     		movs	r3, #40
 967 0018 9C46     		mov	ip, r3
 968 001a BC44     		add	ip, ip, r7
 969 001c 6346     		mov	r3, ip
 970 001e 2200     		movs	r2, r4
 971 0020 3100     		movs	r1, r6
 972 0022 6646     		mov	r6, ip
 973 0024 1800     		movs	r0, r3
 974 0026 FFF7FEFF 		bl	fe_sub
 975              	.LVL130:
 212:ge.c          ****     fe_mul(r->Y, r->Y, q->yplusx);
 976              		.loc 1 212 0
 977 002a 5023     		movs	r3, #80
 978 002c 9C46     		mov	ip, r3
 979 002e BC44     		add	ip, ip, r7
 980 0030 6346     		mov	r3, ip
 981 0032 2A00     		movs	r2, r5
 982 0034 2832     		adds	r2, r2, #40
 983 0036 3900     		movs	r1, r7
 984 0038 0193     		str	r3, [sp, #4]
ARM GAS  C:\Users\NIGHDR~1\AppData\Local\Temp\ccrnUt9g.s 			page 26


 985 003a 6046     		mov	r0, ip
 986 003c FFF7FEFF 		bl	fe_mul
 987              	.LVL131:
 213:ge.c          ****     fe_mul(r->T, q->xy2d, p->T);
 988              		.loc 1 213 0
 989 0040 2A00     		movs	r2, r5
 990 0042 3100     		movs	r1, r6
 991 0044 0096     		str	r6, [sp]
 992 0046 3000     		movs	r0, r6
 993 0048 FFF7FEFF 		bl	fe_mul
 994              	.LVL132:
 214:ge.c          ****     fe_add(t0, p->Z, p->Z);
 995              		.loc 1 214 0
 996 004c 5036     		adds	r6, r6, #80
 997 004e 2900     		movs	r1, r5
 998 0050 5031     		adds	r1, r1, #80
 999 0052 2200     		movs	r2, r4
 1000 0054 7832     		adds	r2, r2, #120
 1001 0056 3000     		movs	r0, r6
 1002 0058 FFF7FEFF 		bl	fe_mul
 1003              	.LVL133:
 215:ge.c          ****     fe_sub(r->X, r->Z, r->Y);
 1004              		.loc 1 215 0
 1005 005c 2100     		movs	r1, r4
 1006 005e 5031     		adds	r1, r1, #80
 1007 0060 0A00     		movs	r2, r1
 1008 0062 02A8     		add	r0, sp, #8
 1009 0064 FFF7FEFF 		bl	fe_add
 1010              	.LVL134:
 216:ge.c          ****     fe_add(r->Y, r->Z, r->Y);
 1011              		.loc 1 216 0
 1012 0068 009C     		ldr	r4, [sp]
 1013              	.LVL135:
 1014 006a 2200     		movs	r2, r4
 1015 006c 019D     		ldr	r5, [sp, #4]
 1016              	.LVL136:
 1017 006e 2900     		movs	r1, r5
 1018 0070 3800     		movs	r0, r7
 1019 0072 FFF7FEFF 		bl	fe_sub
 1020              	.LVL137:
 217:ge.c          ****     fe_sub(r->Z, t0, r->T);
 1021              		.loc 1 217 0
 1022 0076 2200     		movs	r2, r4
 1023 0078 2900     		movs	r1, r5
 1024 007a 2000     		movs	r0, r4
 1025 007c FFF7FEFF 		bl	fe_add
 1026              	.LVL138:
 218:ge.c          ****     fe_add(r->T, t0, r->T);
 1027              		.loc 1 218 0
 1028 0080 3200     		movs	r2, r6
 1029 0082 02A9     		add	r1, sp, #8
 1030 0084 2800     		movs	r0, r5
 1031 0086 FFF7FEFF 		bl	fe_sub
 1032              	.LVL139:
 219:ge.c          **** }
 1033              		.loc 1 219 0
 1034 008a 3200     		movs	r2, r6
ARM GAS  C:\Users\NIGHDR~1\AppData\Local\Temp\ccrnUt9g.s 			page 27


 1035 008c 02A9     		add	r1, sp, #8
 1036 008e 3000     		movs	r0, r6
 1037 0090 FFF7FEFF 		bl	fe_add
 1038              	.LVL140:
 220:ge.c          **** 
 1039              		.loc 1 220 0
 1040 0094 0DB0     		add	sp, sp, #52
 1041              		@ sp needed
 1042              	.LVL141:
 1043 0096 F0BD     		pop	{r4, r5, r6, r7, pc}
 1044              		.cfi_endproc
 1045              	.LFE5:
 1046              		.size	ge_msub, .-ge_msub
 1047              		.section	.text.ge_p1p1_to_p2,"ax",%progbits
 1048              		.align	2
 1049              		.global	ge_p1p1_to_p2
 1050              		.code	16
 1051              		.thumb_func
 1052              		.type	ge_p1p1_to_p2, %function
 1053              	ge_p1p1_to_p2:
 1054              	.LFB6:
 227:ge.c          ****     fe_mul(r->X, p->X, p->T);
 1055              		.loc 1 227 0
 1056              		.cfi_startproc
 1057              		@ args = 0, pretend = 0, frame = 0
 1058              		@ frame_needed = 0, uses_anonymous_args = 0
 1059              	.LVL142:
 1060 0000 70B5     		push	{r4, r5, r6, lr}
 1061              		.cfi_def_cfa_offset 16
 1062              		.cfi_offset 4, -16
 1063              		.cfi_offset 5, -12
 1064              		.cfi_offset 6, -8
 1065              		.cfi_offset 14, -4
 1066 0002 0400     		movs	r4, r0
 1067 0004 0D00     		movs	r5, r1
 228:ge.c          ****     fe_mul(r->Y, p->Y, p->Z);
 1068              		.loc 1 228 0
 1069 0006 0E00     		movs	r6, r1
 1070 0008 7836     		adds	r6, r6, #120
 1071 000a 3200     		movs	r2, r6
 1072 000c FFF7FEFF 		bl	fe_mul
 1073              	.LVL143:
 229:ge.c          ****     fe_mul(r->Z, p->Z, p->T);
 1074              		.loc 1 229 0
 1075 0010 2000     		movs	r0, r4
 1076 0012 2830     		adds	r0, r0, #40
 1077 0014 2900     		movs	r1, r5
 1078 0016 2831     		adds	r1, r1, #40
 1079 0018 5035     		adds	r5, r5, #80
 1080              	.LVL144:
 1081 001a 2A00     		movs	r2, r5
 1082 001c FFF7FEFF 		bl	fe_mul
 1083              	.LVL145:
 230:ge.c          **** }
 1084              		.loc 1 230 0
 1085 0020 2000     		movs	r0, r4
 1086 0022 5030     		adds	r0, r0, #80
ARM GAS  C:\Users\NIGHDR~1\AppData\Local\Temp\ccrnUt9g.s 			page 28


 1087 0024 3200     		movs	r2, r6
 1088 0026 2900     		movs	r1, r5
 1089 0028 FFF7FEFF 		bl	fe_mul
 1090              	.LVL146:
 231:ge.c          **** 
 1091              		.loc 1 231 0
 1092              		@ sp needed
 1093              	.LVL147:
 1094              	.LVL148:
 1095              	.LVL149:
 1096 002c 70BD     		pop	{r4, r5, r6, pc}
 1097              		.cfi_endproc
 1098              	.LFE6:
 1099              		.size	ge_p1p1_to_p2, .-ge_p1p1_to_p2
 1100 002e C046     		.section	.text.ge_p1p1_to_p3,"ax",%progbits
 1101              		.align	2
 1102              		.global	ge_p1p1_to_p3
 1103              		.code	16
 1104              		.thumb_func
 1105              		.type	ge_p1p1_to_p3, %function
 1106              	ge_p1p1_to_p3:
 1107              	.LFB7:
 239:ge.c          ****     fe_mul(r->X, p->X, p->T);
 1108              		.loc 1 239 0
 1109              		.cfi_startproc
 1110              		@ args = 0, pretend = 0, frame = 8
 1111              		@ frame_needed = 0, uses_anonymous_args = 0
 1112              	.LVL150:
 1113 0000 F0B5     		push	{r4, r5, r6, r7, lr}
 1114              		.cfi_def_cfa_offset 20
 1115              		.cfi_offset 4, -20
 1116              		.cfi_offset 5, -16
 1117              		.cfi_offset 6, -12
 1118              		.cfi_offset 7, -8
 1119              		.cfi_offset 14, -4
 1120 0002 83B0     		sub	sp, sp, #12
 1121              		.cfi_def_cfa_offset 32
 1122 0004 0400     		movs	r4, r0
 1123 0006 0D00     		movs	r5, r1
 240:ge.c          ****     fe_mul(r->Y, p->Y, p->Z);
 1124              		.loc 1 240 0
 1125 0008 0F00     		movs	r7, r1
 1126 000a 7837     		adds	r7, r7, #120
 1127 000c 3A00     		movs	r2, r7
 1128 000e FFF7FEFF 		bl	fe_mul
 1129              	.LVL151:
 241:ge.c          ****     fe_mul(r->Z, p->Z, p->T);
 1130              		.loc 1 241 0
 1131 0012 2000     		movs	r0, r4
 1132 0014 2830     		adds	r0, r0, #40
 1133 0016 2823     		movs	r3, #40
 1134 0018 9C46     		mov	ip, r3
 1135 001a AC44     		add	ip, ip, r5
 1136 001c 6346     		mov	r3, ip
 1137 001e 2E00     		movs	r6, r5
 1138 0020 5036     		adds	r6, r6, #80
 1139 0022 3200     		movs	r2, r6
ARM GAS  C:\Users\NIGHDR~1\AppData\Local\Temp\ccrnUt9g.s 			page 29


 1140 0024 0193     		str	r3, [sp, #4]
 1141 0026 6146     		mov	r1, ip
 1142 0028 FFF7FEFF 		bl	fe_mul
 1143              	.LVL152:
 242:ge.c          ****     fe_mul(r->T, p->X, p->Y);
 1144              		.loc 1 242 0
 1145 002c 2000     		movs	r0, r4
 1146 002e 5030     		adds	r0, r0, #80
 1147 0030 3A00     		movs	r2, r7
 1148 0032 3100     		movs	r1, r6
 1149 0034 FFF7FEFF 		bl	fe_mul
 1150              	.LVL153:
 243:ge.c          **** }
 1151              		.loc 1 243 0
 1152 0038 2000     		movs	r0, r4
 1153 003a 7830     		adds	r0, r0, #120
 1154 003c 019A     		ldr	r2, [sp, #4]
 1155 003e 2900     		movs	r1, r5
 1156 0040 FFF7FEFF 		bl	fe_mul
 1157              	.LVL154:
 244:ge.c          **** 
 1158              		.loc 1 244 0
 1159 0044 03B0     		add	sp, sp, #12
 1160              		@ sp needed
 1161              	.LVL155:
 1162              	.LVL156:
 1163              	.LVL157:
 1164              	.LVL158:
 1165 0046 F0BD     		pop	{r4, r5, r6, r7, pc}
 1166              		.cfi_endproc
 1167              	.LFE7:
 1168              		.size	ge_p1p1_to_p3, .-ge_p1p1_to_p3
 1169              		.section	.text.ge_p2_0,"ax",%progbits
 1170              		.align	2
 1171              		.global	ge_p2_0
 1172              		.code	16
 1173              		.thumb_func
 1174              		.type	ge_p2_0, %function
 1175              	ge_p2_0:
 1176              	.LFB8:
 247:ge.c          ****     fe_0(h->X);
 1177              		.loc 1 247 0
 1178              		.cfi_startproc
 1179              		@ args = 0, pretend = 0, frame = 0
 1180              		@ frame_needed = 0, uses_anonymous_args = 0
 1181              	.LVL159:
 1182 0000 10B5     		push	{r4, lr}
 1183              		.cfi_def_cfa_offset 8
 1184              		.cfi_offset 4, -8
 1185              		.cfi_offset 14, -4
 1186 0002 0400     		movs	r4, r0
 248:ge.c          ****     fe_1(h->Y);
 1187              		.loc 1 248 0
 1188 0004 FFF7FEFF 		bl	fe_0
 1189              	.LVL160:
 249:ge.c          ****     fe_1(h->Z);
 1190              		.loc 1 249 0
ARM GAS  C:\Users\NIGHDR~1\AppData\Local\Temp\ccrnUt9g.s 			page 30


 1191 0008 2000     		movs	r0, r4
 1192 000a 2830     		adds	r0, r0, #40
 1193 000c FFF7FEFF 		bl	fe_1
 1194              	.LVL161:
 250:ge.c          **** }
 1195              		.loc 1 250 0
 1196 0010 2000     		movs	r0, r4
 1197 0012 5030     		adds	r0, r0, #80
 1198 0014 FFF7FEFF 		bl	fe_1
 1199              	.LVL162:
 251:ge.c          **** 
 1200              		.loc 1 251 0
 1201              		@ sp needed
 1202              	.LVL163:
 1203 0018 10BD     		pop	{r4, pc}
 1204              		.cfi_endproc
 1205              	.LFE8:
 1206              		.size	ge_p2_0, .-ge_p2_0
 1207 001a C046     		.section	.text.ge_p2_dbl,"ax",%progbits
 1208              		.align	2
 1209              		.global	ge_p2_dbl
 1210              		.code	16
 1211              		.thumb_func
 1212              		.type	ge_p2_dbl, %function
 1213              	ge_p2_dbl:
 1214              	.LFB9:
 259:ge.c          ****     fe t0;
 1215              		.loc 1 259 0
 1216              		.cfi_startproc
 1217              		@ args = 0, pretend = 0, frame = 48
 1218              		@ frame_needed = 0, uses_anonymous_args = 0
 1219              	.LVL164:
 1220 0000 F0B5     		push	{r4, r5, r6, r7, lr}
 1221              		.cfi_def_cfa_offset 20
 1222              		.cfi_offset 4, -20
 1223              		.cfi_offset 5, -16
 1224              		.cfi_offset 6, -12
 1225              		.cfi_offset 7, -8
 1226              		.cfi_offset 14, -4
 1227 0002 8DB0     		sub	sp, sp, #52
 1228              		.cfi_def_cfa_offset 72
 1229 0004 0400     		movs	r4, r0
 1230 0006 0F00     		movs	r7, r1
 262:ge.c          ****     fe_sq(r->Z, p->Y);
 1231              		.loc 1 262 0
 1232 0008 FFF7FEFF 		bl	fe_sq
 1233              	.LVL165:
 263:ge.c          ****     fe_sq2(r->T, p->Z);
 1234              		.loc 1 263 0
 1235 000c 2500     		movs	r5, r4
 1236 000e 5035     		adds	r5, r5, #80
 1237 0010 2823     		movs	r3, #40
 1238 0012 9C46     		mov	ip, r3
 1239 0014 BC44     		add	ip, ip, r7
 1240 0016 6346     		mov	r3, ip
 1241 0018 0093     		str	r3, [sp]
 1242 001a 6146     		mov	r1, ip
ARM GAS  C:\Users\NIGHDR~1\AppData\Local\Temp\ccrnUt9g.s 			page 31


 1243 001c 2800     		movs	r0, r5
 1244 001e FFF7FEFF 		bl	fe_sq
 1245              	.LVL166:
 264:ge.c          ****     fe_add(r->Y, p->X, p->Y);
 1246              		.loc 1 264 0
 1247 0022 7821     		movs	r1, #120
 1248 0024 8C46     		mov	ip, r1
 1249 0026 A444     		add	ip, ip, r4
 1250 0028 6346     		mov	r3, ip
 1251 002a 3900     		movs	r1, r7
 1252 002c 5031     		adds	r1, r1, #80
 1253 002e 0193     		str	r3, [sp, #4]
 1254 0030 6046     		mov	r0, ip
 1255 0032 FFF7FEFF 		bl	fe_sq2
 1256              	.LVL167:
 265:ge.c          ****     fe_sq(t0, r->Y);
 1257              		.loc 1 265 0
 1258 0036 2600     		movs	r6, r4
 1259 0038 2836     		adds	r6, r6, #40
 1260 003a 009A     		ldr	r2, [sp]
 1261 003c 3900     		movs	r1, r7
 1262 003e 3000     		movs	r0, r6
 1263 0040 FFF7FEFF 		bl	fe_add
 1264              	.LVL168:
 266:ge.c          ****     fe_add(r->Y, r->Z, r->X);
 1265              		.loc 1 266 0
 1266 0044 3100     		movs	r1, r6
 1267 0046 02A8     		add	r0, sp, #8
 1268 0048 FFF7FEFF 		bl	fe_sq
 1269              	.LVL169:
 267:ge.c          ****     fe_sub(r->Z, r->Z, r->X);
 1270              		.loc 1 267 0
 1271 004c 2200     		movs	r2, r4
 1272 004e 2900     		movs	r1, r5
 1273 0050 3000     		movs	r0, r6
 1274 0052 FFF7FEFF 		bl	fe_add
 1275              	.LVL170:
 268:ge.c          ****     fe_sub(r->X, t0, r->Y);
 1276              		.loc 1 268 0
 1277 0056 2200     		movs	r2, r4
 1278 0058 2900     		movs	r1, r5
 1279 005a 2800     		movs	r0, r5
 1280 005c FFF7FEFF 		bl	fe_sub
 1281              	.LVL171:
 269:ge.c          ****     fe_sub(r->T, r->T, r->Z);
 1282              		.loc 1 269 0
 1283 0060 3200     		movs	r2, r6
 1284 0062 02A9     		add	r1, sp, #8
 1285 0064 2000     		movs	r0, r4
 1286 0066 FFF7FEFF 		bl	fe_sub
 1287              	.LVL172:
 270:ge.c          **** }
 1288              		.loc 1 270 0
 1289 006a 2A00     		movs	r2, r5
 1290 006c 0198     		ldr	r0, [sp, #4]
 1291 006e 0100     		movs	r1, r0
 1292 0070 FFF7FEFF 		bl	fe_sub
ARM GAS  C:\Users\NIGHDR~1\AppData\Local\Temp\ccrnUt9g.s 			page 32


 1293              	.LVL173:
 271:ge.c          **** 
 1294              		.loc 1 271 0
 1295 0074 0DB0     		add	sp, sp, #52
 1296              		@ sp needed
 1297              	.LVL174:
 1298              	.LVL175:
 1299              	.LVL176:
 1300 0076 F0BD     		pop	{r4, r5, r6, r7, pc}
 1301              		.cfi_endproc
 1302              	.LFE9:
 1303              		.size	ge_p2_dbl, .-ge_p2_dbl
 1304              		.section	.text.ge_p3_0,"ax",%progbits
 1305              		.align	2
 1306              		.global	ge_p3_0
 1307              		.code	16
 1308              		.thumb_func
 1309              		.type	ge_p3_0, %function
 1310              	ge_p3_0:
 1311              	.LFB10:
 274:ge.c          ****     fe_0(h->X);
 1312              		.loc 1 274 0
 1313              		.cfi_startproc
 1314              		@ args = 0, pretend = 0, frame = 0
 1315              		@ frame_needed = 0, uses_anonymous_args = 0
 1316              	.LVL177:
 1317 0000 10B5     		push	{r4, lr}
 1318              		.cfi_def_cfa_offset 8
 1319              		.cfi_offset 4, -8
 1320              		.cfi_offset 14, -4
 1321 0002 0400     		movs	r4, r0
 275:ge.c          ****     fe_1(h->Y);
 1322              		.loc 1 275 0
 1323 0004 FFF7FEFF 		bl	fe_0
 1324              	.LVL178:
 276:ge.c          ****     fe_1(h->Z);
 1325              		.loc 1 276 0
 1326 0008 2000     		movs	r0, r4
 1327 000a 2830     		adds	r0, r0, #40
 1328 000c FFF7FEFF 		bl	fe_1
 1329              	.LVL179:
 277:ge.c          ****     fe_0(h->T);
 1330              		.loc 1 277 0
 1331 0010 2000     		movs	r0, r4
 1332 0012 5030     		adds	r0, r0, #80
 1333 0014 FFF7FEFF 		bl	fe_1
 1334              	.LVL180:
 278:ge.c          **** }
 1335              		.loc 1 278 0
 1336 0018 2000     		movs	r0, r4
 1337 001a 7830     		adds	r0, r0, #120
 1338 001c FFF7FEFF 		bl	fe_0
 1339              	.LVL181:
 279:ge.c          **** 
 1340              		.loc 1 279 0
 1341              		@ sp needed
 1342              	.LVL182:
ARM GAS  C:\Users\NIGHDR~1\AppData\Local\Temp\ccrnUt9g.s 			page 33


 1343 0020 10BD     		pop	{r4, pc}
 1344              		.cfi_endproc
 1345              	.LFE10:
 1346              		.size	ge_p3_0, .-ge_p3_0
 1347 0022 C046     		.section	.text.ge_p3_to_cached,"ax",%progbits
 1348              		.align	2
 1349              		.global	ge_p3_to_cached
 1350              		.code	16
 1351              		.thumb_func
 1352              		.type	ge_p3_to_cached, %function
 1353              	ge_p3_to_cached:
 1354              	.LFB12:
 302:ge.c          ****     fe_add(r->YplusX, p->Y, p->X);
 1355              		.loc 1 302 0
 1356              		.cfi_startproc
 1357              		@ args = 0, pretend = 0, frame = 0
 1358              		@ frame_needed = 0, uses_anonymous_args = 0
 1359              	.LVL183:
 1360 0000 70B5     		push	{r4, r5, r6, lr}
 1361              		.cfi_def_cfa_offset 16
 1362              		.cfi_offset 4, -16
 1363              		.cfi_offset 5, -12
 1364              		.cfi_offset 6, -8
 1365              		.cfi_offset 14, -4
 1366 0002 0500     		movs	r5, r0
 1367 0004 0C00     		movs	r4, r1
 303:ge.c          ****     fe_sub(r->YminusX, p->Y, p->X);
 1368              		.loc 1 303 0
 1369 0006 0E00     		movs	r6, r1
 1370 0008 2836     		adds	r6, r6, #40
 1371 000a 0A00     		movs	r2, r1
 1372 000c 3100     		movs	r1, r6
 1373              	.LVL184:
 1374 000e FFF7FEFF 		bl	fe_add
 1375              	.LVL185:
 304:ge.c          ****     fe_copy(r->Z, p->Z);
 1376              		.loc 1 304 0
 1377 0012 2800     		movs	r0, r5
 1378 0014 2830     		adds	r0, r0, #40
 1379 0016 2200     		movs	r2, r4
 1380 0018 3100     		movs	r1, r6
 1381 001a FFF7FEFF 		bl	fe_sub
 1382              	.LVL186:
 305:ge.c          ****     fe_mul(r->T2d, p->T, d2);
 1383              		.loc 1 305 0
 1384 001e 2800     		movs	r0, r5
 1385 0020 5030     		adds	r0, r0, #80
 1386 0022 2100     		movs	r1, r4
 1387 0024 5031     		adds	r1, r1, #80
 1388 0026 FFF7FEFF 		bl	fe_copy
 1389              	.LVL187:
 306:ge.c          **** }
 1390              		.loc 1 306 0
 1391 002a 2800     		movs	r0, r5
 1392 002c 7830     		adds	r0, r0, #120
 1393 002e 2100     		movs	r1, r4
 1394 0030 7831     		adds	r1, r1, #120
ARM GAS  C:\Users\NIGHDR~1\AppData\Local\Temp\ccrnUt9g.s 			page 34


 1395 0032 024A     		ldr	r2, .L37
 1396 0034 5032     		adds	r2, r2, #80
 1397 0036 FFF7FEFF 		bl	fe_mul
 1398              	.LVL188:
 307:ge.c          **** 
 1399              		.loc 1 307 0
 1400              		@ sp needed
 1401              	.LVL189:
 1402              	.LVL190:
 1403              	.LVL191:
 1404 003a 70BD     		pop	{r4, r5, r6, pc}
 1405              	.L38:
 1406              		.align	2
 1407              	.L37:
 1408 003c 00780000 		.word	.LANCHOR1
 1409              		.cfi_endproc
 1410              	.LFE12:
 1411              		.size	ge_p3_to_cached, .-ge_p3_to_cached
 1412              		.section	.text.ge_p3_to_p2,"ax",%progbits
 1413              		.align	2
 1414              		.global	ge_p3_to_p2
 1415              		.code	16
 1416              		.thumb_func
 1417              		.type	ge_p3_to_p2, %function
 1418              	ge_p3_to_p2:
 1419              	.LFB13:
 314:ge.c          ****     fe_copy(r->X, p->X);
 1420              		.loc 1 314 0
 1421              		.cfi_startproc
 1422              		@ args = 0, pretend = 0, frame = 0
 1423              		@ frame_needed = 0, uses_anonymous_args = 0
 1424              	.LVL192:
 1425 0000 70B5     		push	{r4, r5, r6, lr}
 1426              		.cfi_def_cfa_offset 16
 1427              		.cfi_offset 4, -16
 1428              		.cfi_offset 5, -12
 1429              		.cfi_offset 6, -8
 1430              		.cfi_offset 14, -4
 1431 0002 0400     		movs	r4, r0
 1432 0004 0D00     		movs	r5, r1
 315:ge.c          ****     fe_copy(r->Y, p->Y);
 1433              		.loc 1 315 0
 1434 0006 FFF7FEFF 		bl	fe_copy
 1435              	.LVL193:
 316:ge.c          ****     fe_copy(r->Z, p->Z);
 1436              		.loc 1 316 0
 1437 000a 2000     		movs	r0, r4
 1438 000c 2830     		adds	r0, r0, #40
 1439 000e 2900     		movs	r1, r5
 1440 0010 2831     		adds	r1, r1, #40
 1441 0012 FFF7FEFF 		bl	fe_copy
 1442              	.LVL194:
 317:ge.c          **** }
 1443              		.loc 1 317 0
 1444 0016 2000     		movs	r0, r4
 1445 0018 5030     		adds	r0, r0, #80
 1446 001a 2900     		movs	r1, r5
ARM GAS  C:\Users\NIGHDR~1\AppData\Local\Temp\ccrnUt9g.s 			page 35


 1447 001c 5031     		adds	r1, r1, #80
 1448 001e FFF7FEFF 		bl	fe_copy
 1449              	.LVL195:
 318:ge.c          **** 
 1450              		.loc 1 318 0
 1451              		@ sp needed
 1452              	.LVL196:
 1453              	.LVL197:
 1454 0022 70BD     		pop	{r4, r5, r6, pc}
 1455              		.cfi_endproc
 1456              	.LFE13:
 1457              		.size	ge_p3_to_p2, .-ge_p3_to_p2
 1458              		.section	.text.ge_p3_dbl,"ax",%progbits
 1459              		.align	2
 1460              		.global	ge_p3_dbl
 1461              		.code	16
 1462              		.thumb_func
 1463              		.type	ge_p3_dbl, %function
 1464              	ge_p3_dbl:
 1465              	.LFB11:
 286:ge.c          ****     ge_p2 q;
 1466              		.loc 1 286 0
 1467              		.cfi_startproc
 1468              		@ args = 0, pretend = 0, frame = 120
 1469              		@ frame_needed = 0, uses_anonymous_args = 0
 1470              	.LVL198:
 1471 0000 10B5     		push	{r4, lr}
 1472              		.cfi_def_cfa_offset 8
 1473              		.cfi_offset 4, -8
 1474              		.cfi_offset 14, -4
 1475 0002 9EB0     		sub	sp, sp, #120
 1476              		.cfi_def_cfa_offset 128
 1477 0004 0400     		movs	r4, r0
 288:ge.c          ****     ge_p2_dbl(r, &q);
 1478              		.loc 1 288 0
 1479 0006 6846     		mov	r0, sp
 1480              	.LVL199:
 1481 0008 FFF7FEFF 		bl	ge_p3_to_p2
 1482              	.LVL200:
 289:ge.c          **** }
 1483              		.loc 1 289 0
 1484 000c 6946     		mov	r1, sp
 1485 000e 2000     		movs	r0, r4
 1486 0010 FFF7FEFF 		bl	ge_p2_dbl
 1487              	.LVL201:
 290:ge.c          **** 
 1488              		.loc 1 290 0
 1489 0014 1EB0     		add	sp, sp, #120
 1490              		@ sp needed
 1491              	.LVL202:
 1492 0016 10BD     		pop	{r4, pc}
 1493              		.cfi_endproc
 1494              	.LFE11:
 1495              		.size	ge_p3_dbl, .-ge_p3_dbl
 1496              		.section	.text.ge_p3_tobytes,"ax",%progbits
 1497              		.align	2
 1498              		.global	ge_p3_tobytes
ARM GAS  C:\Users\NIGHDR~1\AppData\Local\Temp\ccrnUt9g.s 			page 36


 1499              		.code	16
 1500              		.thumb_func
 1501              		.type	ge_p3_tobytes, %function
 1502              	ge_p3_tobytes:
 1503              	.LFB14:
 321:ge.c          ****     fe recip;
 1504              		.loc 1 321 0
 1505              		.cfi_startproc
 1506              		@ args = 0, pretend = 0, frame = 120
 1507              		@ frame_needed = 0, uses_anonymous_args = 0
 1508              	.LVL203:
 1509 0000 30B5     		push	{r4, r5, lr}
 1510              		.cfi_def_cfa_offset 12
 1511              		.cfi_offset 4, -12
 1512              		.cfi_offset 5, -8
 1513              		.cfi_offset 14, -4
 1514 0002 9FB0     		sub	sp, sp, #124
 1515              		.cfi_def_cfa_offset 136
 1516 0004 0500     		movs	r5, r0
 1517 0006 0C00     		movs	r4, r1
 325:ge.c          ****     fe_mul(x, h->X, recip);
 1518              		.loc 1 325 0
 1519 0008 5031     		adds	r1, r1, #80
 1520              	.LVL204:
 1521 000a 14A8     		add	r0, sp, #80
 1522              	.LVL205:
 1523 000c FFF7FEFF 		bl	fe_invert
 1524              	.LVL206:
 326:ge.c          ****     fe_mul(y, h->Y, recip);
 1525              		.loc 1 326 0
 1526 0010 14AA     		add	r2, sp, #80
 1527 0012 2100     		movs	r1, r4
 1528 0014 0AA8     		add	r0, sp, #40
 1529 0016 FFF7FEFF 		bl	fe_mul
 1530              	.LVL207:
 327:ge.c          ****     fe_tobytes(s, y);
 1531              		.loc 1 327 0
 1532 001a 2100     		movs	r1, r4
 1533 001c 2831     		adds	r1, r1, #40
 1534 001e 14AA     		add	r2, sp, #80
 1535 0020 6846     		mov	r0, sp
 1536 0022 FFF7FEFF 		bl	fe_mul
 1537              	.LVL208:
 328:ge.c          ****     s[31] ^= fe_isnegative(x) << 7;
 1538              		.loc 1 328 0
 1539 0026 6946     		mov	r1, sp
 1540 0028 2800     		movs	r0, r5
 1541 002a FFF7FEFF 		bl	fe_tobytes
 1542              	.LVL209:
 329:ge.c          **** }
 1543              		.loc 1 329 0
 1544 002e 0AA8     		add	r0, sp, #40
 1545 0030 FFF7FEFF 		bl	fe_isnegative
 1546              	.LVL210:
 1547 0034 C001     		lsls	r0, r0, #7
 1548 0036 EB7F     		ldrb	r3, [r5, #31]
 1549 0038 5840     		eors	r0, r3
ARM GAS  C:\Users\NIGHDR~1\AppData\Local\Temp\ccrnUt9g.s 			page 37


 1550 003a E877     		strb	r0, [r5, #31]
 330:ge.c          **** 
 1551              		.loc 1 330 0
 1552 003c 1FB0     		add	sp, sp, #124
 1553              		@ sp needed
 1554              	.LVL211:
 1555              	.LVL212:
 1556 003e 30BD     		pop	{r4, r5, pc}
 1557              		.cfi_endproc
 1558              	.LFE14:
 1559              		.size	ge_p3_tobytes, .-ge_p3_tobytes
 1560              		.section	.text.ge_scalarmult_base,"ax",%progbits
 1561              		.align	2
 1562              		.global	ge_scalarmult_base
 1563              		.code	16
 1564              		.thumb_func
 1565              		.type	ge_scalarmult_base, %function
 1566              	ge_scalarmult_base:
 1567              	.LFB19:
 376:ge.c          **** 
 377:ge.c          **** /*
 378:ge.c          **** h = a * B
 379:ge.c          **** where a = a[0]+256*a[1]+...+256^31 a[31]
 380:ge.c          **** B is the Ed25519 base point (x,4/5) with x positive.
 381:ge.c          **** 
 382:ge.c          **** Preconditions:
 383:ge.c          ****   a[31] <= 127
 384:ge.c          **** */
 385:ge.c          **** 
 386:ge.c          **** void ge_scalarmult_base(ge_p3 *h, const unsigned char *a) {
 1568              		.loc 1 386 0
 1569              		.cfi_startproc
 1570              		@ args = 0, pretend = 0, frame = 464
 1571              		@ frame_needed = 0, uses_anonymous_args = 0
 1572              	.LVL213:
 1573 0000 70B5     		push	{r4, r5, r6, lr}
 1574              		.cfi_def_cfa_offset 16
 1575              		.cfi_offset 4, -16
 1576              		.cfi_offset 5, -12
 1577              		.cfi_offset 6, -8
 1578              		.cfi_offset 14, -4
 1579 0002 F4B0     		sub	sp, sp, #464
 1580              		.cfi_def_cfa_offset 480
 1581 0004 0400     		movs	r4, r0
 1582              	.LVL214:
 387:ge.c          ****     signed char e[64];
 388:ge.c          ****     signed char carry;
 389:ge.c          ****     ge_p1p1 r;
 390:ge.c          ****     ge_p2 s;
 391:ge.c          ****     ge_precomp t;
 392:ge.c          ****     int i;
 393:ge.c          **** 
 394:ge.c          ****     for (i = 0; i < 32; ++i) {
 1583              		.loc 1 394 0
 1584 0006 0023     		movs	r3, #0
 1585 0008 09E0     		b	.L43
 1586              	.LVL215:
ARM GAS  C:\Users\NIGHDR~1\AppData\Local\Temp\ccrnUt9g.s 			page 38


 1587              	.L44:
 395:ge.c          ****         e[2 * i + 0] = (a[i] >> 0) & 15;
 1588              		.loc 1 395 0 discriminator 3
 1589 000a 5A00     		lsls	r2, r3, #1
 1590 000c C85C     		ldrb	r0, [r1, r3]
 1591 000e 64AE     		add	r6, sp, #400
 1592 0010 0F25     		movs	r5, #15
 1593 0012 0540     		ands	r5, r0
 1594 0014 B554     		strb	r5, [r6, r2]
 396:ge.c          ****         e[2 * i + 1] = (a[i] >> 4) & 15;
 1595              		.loc 1 396 0 discriminator 3
 1596 0016 0132     		adds	r2, r2, #1
 1597 0018 0009     		lsrs	r0, r0, #4
 1598 001a B054     		strb	r0, [r6, r2]
 394:ge.c          ****         e[2 * i + 0] = (a[i] >> 0) & 15;
 1599              		.loc 1 394 0 discriminator 3
 1600 001c 0133     		adds	r3, r3, #1
 1601              	.LVL216:
 1602              	.L43:
 394:ge.c          ****         e[2 * i + 0] = (a[i] >> 0) & 15;
 1603              		.loc 1 394 0 is_stmt 0 discriminator 1
 1604 001e 1F2B     		cmp	r3, #31
 1605 0020 F3DD     		ble	.L44
 1606 0022 0022     		movs	r2, #0
 1607 0024 0023     		movs	r3, #0
 1608              	.LVL217:
 1609 0026 0BE0     		b	.L45
 1610              	.LVL218:
 1611              	.L46:
 397:ge.c          ****     }
 398:ge.c          **** 
 399:ge.c          ****     /* each e[i] is between 0 and 15 */
 400:ge.c          ****     /* e[63] is between 0 and 7 */
 401:ge.c          ****     carry = 0;
 402:ge.c          **** 
 403:ge.c          ****     for (i = 0; i < 63; ++i) {
 404:ge.c          ****         e[i] += carry;
 1612              		.loc 1 404 0 is_stmt 1 discriminator 3
 1613 0028 64A8     		add	r0, sp, #400
 1614 002a 815C     		ldrb	r1, [r0, r2]
 1615 002c CB18     		adds	r3, r1, r3
 1616              	.LVL219:
 1617 002e D9B2     		uxtb	r1, r3
 405:ge.c          ****         carry = e[i] + 8;
 1618              		.loc 1 405 0 discriminator 3
 1619 0030 0B00     		movs	r3, r1
 1620 0032 0833     		adds	r3, r3, #8
 1621 0034 5BB2     		sxtb	r3, r3
 1622              	.LVL220:
 406:ge.c          ****         carry >>= 4;
 1623              		.loc 1 406 0 discriminator 3
 1624 0036 1B11     		asrs	r3, r3, #4
 1625              	.LVL221:
 407:ge.c          ****         e[i] -= carry << 4;
 1626              		.loc 1 407 0 discriminator 3
 1627 0038 1D01     		lsls	r5, r3, #4
 1628 003a 491B     		subs	r1, r1, r5
ARM GAS  C:\Users\NIGHDR~1\AppData\Local\Temp\ccrnUt9g.s 			page 39


 1629 003c 8154     		strb	r1, [r0, r2]
 403:ge.c          ****         e[i] += carry;
 1630              		.loc 1 403 0 discriminator 3
 1631 003e 0132     		adds	r2, r2, #1
 1632              	.LVL222:
 1633              	.L45:
 403:ge.c          ****         e[i] += carry;
 1634              		.loc 1 403 0 is_stmt 0 discriminator 1
 1635 0040 3E2A     		cmp	r2, #62
 1636 0042 F1DD     		ble	.L46
 408:ge.c          ****     }
 409:ge.c          **** 
 410:ge.c          ****     e[63] += carry;
 1637              		.loc 1 410 0 is_stmt 1
 1638 0044 64A9     		add	r1, sp, #400
 1639 0046 3F22     		movs	r2, #63
 1640              	.LVL223:
 1641 0048 885C     		ldrb	r0, [r1, r2]
 1642 004a C318     		adds	r3, r0, r3
 1643              	.LVL224:
 1644 004c 8B54     		strb	r3, [r1, r2]
 411:ge.c          ****     /* each e[i] is between -8 and 8 */
 412:ge.c          ****     ge_p3_0(h);
 1645              		.loc 1 412 0
 1646 004e 2000     		movs	r0, r4
 1647 0050 FFF7FEFF 		bl	ge_p3_0
 1648              	.LVL225:
 413:ge.c          **** 
 414:ge.c          ****     for (i = 1; i < 64; i += 2) {
 1649              		.loc 1 414 0
 1650 0054 0125     		movs	r5, #1
 1651 0056 11E0     		b	.L47
 1652              	.LVL226:
 1653              	.L48:
 415:ge.c          ****         select(&t, i / 2, e[i]);
 1654              		.loc 1 415 0 discriminator 3
 1655 0058 64AB     		add	r3, sp, #400
 1656 005a 5A57     		ldrsb	r2, [r3, r5]
 1657 005c E90F     		lsrs	r1, r5, #31
 1658 005e 4919     		adds	r1, r1, r5
 1659 0060 4910     		asrs	r1, r1, #1
 1660 0062 6846     		mov	r0, sp
 1661 0064 FFF7FEFF 		bl	select
 1662              	.LVL227:
 416:ge.c          ****         ge_madd(&r, h, &t);
 1663              		.loc 1 416 0 discriminator 3
 1664 0068 6A46     		mov	r2, sp
 1665 006a 2100     		movs	r1, r4
 1666 006c 3CA8     		add	r0, sp, #240
 1667 006e FFF7FEFF 		bl	ge_madd
 1668              	.LVL228:
 417:ge.c          ****         ge_p1p1_to_p3(h, &r);
 1669              		.loc 1 417 0 discriminator 3
 1670 0072 3CA9     		add	r1, sp, #240
 1671 0074 2000     		movs	r0, r4
 1672 0076 FFF7FEFF 		bl	ge_p1p1_to_p3
 1673              	.LVL229:
ARM GAS  C:\Users\NIGHDR~1\AppData\Local\Temp\ccrnUt9g.s 			page 40


 414:ge.c          ****         select(&t, i / 2, e[i]);
 1674              		.loc 1 414 0 discriminator 3
 1675 007a 0235     		adds	r5, r5, #2
 1676              	.LVL230:
 1677              	.L47:
 414:ge.c          ****         select(&t, i / 2, e[i]);
 1678              		.loc 1 414 0 is_stmt 0 discriminator 1
 1679 007c 3F2D     		cmp	r5, #63
 1680 007e EBDD     		ble	.L48
 418:ge.c          ****     }
 419:ge.c          **** 
 420:ge.c          ****     ge_p3_dbl(&r, h);
 1681              		.loc 1 420 0 is_stmt 1
 1682 0080 2100     		movs	r1, r4
 1683 0082 3CA8     		add	r0, sp, #240
 1684 0084 FFF7FEFF 		bl	ge_p3_dbl
 1685              	.LVL231:
 421:ge.c          ****     ge_p1p1_to_p2(&s, &r);
 1686              		.loc 1 421 0
 1687 0088 3CA9     		add	r1, sp, #240
 1688 008a 1EA8     		add	r0, sp, #120
 1689 008c FFF7FEFF 		bl	ge_p1p1_to_p2
 1690              	.LVL232:
 422:ge.c          ****     ge_p2_dbl(&r, &s);
 1691              		.loc 1 422 0
 1692 0090 1EA9     		add	r1, sp, #120
 1693 0092 3CA8     		add	r0, sp, #240
 1694 0094 FFF7FEFF 		bl	ge_p2_dbl
 1695              	.LVL233:
 423:ge.c          ****     ge_p1p1_to_p2(&s, &r);
 1696              		.loc 1 423 0
 1697 0098 3CA9     		add	r1, sp, #240
 1698 009a 1EA8     		add	r0, sp, #120
 1699 009c FFF7FEFF 		bl	ge_p1p1_to_p2
 1700              	.LVL234:
 424:ge.c          ****     ge_p2_dbl(&r, &s);
 1701              		.loc 1 424 0
 1702 00a0 1EA9     		add	r1, sp, #120
 1703 00a2 3CA8     		add	r0, sp, #240
 1704 00a4 FFF7FEFF 		bl	ge_p2_dbl
 1705              	.LVL235:
 425:ge.c          ****     ge_p1p1_to_p2(&s, &r);
 1706              		.loc 1 425 0
 1707 00a8 3CA9     		add	r1, sp, #240
 1708 00aa 1EA8     		add	r0, sp, #120
 1709 00ac FFF7FEFF 		bl	ge_p1p1_to_p2
 1710              	.LVL236:
 426:ge.c          ****     ge_p2_dbl(&r, &s);
 1711              		.loc 1 426 0
 1712 00b0 1EA9     		add	r1, sp, #120
 1713 00b2 3CA8     		add	r0, sp, #240
 1714 00b4 FFF7FEFF 		bl	ge_p2_dbl
 1715              	.LVL237:
 427:ge.c          ****     ge_p1p1_to_p3(h, &r);
 1716              		.loc 1 427 0
 1717 00b8 3CA9     		add	r1, sp, #240
 1718 00ba 2000     		movs	r0, r4
ARM GAS  C:\Users\NIGHDR~1\AppData\Local\Temp\ccrnUt9g.s 			page 41


 1719 00bc FFF7FEFF 		bl	ge_p1p1_to_p3
 1720              	.LVL238:
 428:ge.c          **** 
 429:ge.c          ****     for (i = 0; i < 64; i += 2) {
 1721              		.loc 1 429 0
 1722 00c0 0025     		movs	r5, #0
 1723 00c2 11E0     		b	.L49
 1724              	.LVL239:
 1725              	.L50:
 430:ge.c          ****         select(&t, i / 2, e[i]);
 1726              		.loc 1 430 0 discriminator 3
 1727 00c4 64AB     		add	r3, sp, #400
 1728 00c6 5A57     		ldrsb	r2, [r3, r5]
 1729 00c8 E90F     		lsrs	r1, r5, #31
 1730 00ca 4919     		adds	r1, r1, r5
 1731 00cc 4910     		asrs	r1, r1, #1
 1732 00ce 6846     		mov	r0, sp
 1733 00d0 FFF7FEFF 		bl	select
 1734              	.LVL240:
 431:ge.c          ****         ge_madd(&r, h, &t);
 1735              		.loc 1 431 0 discriminator 3
 1736 00d4 6A46     		mov	r2, sp
 1737 00d6 2100     		movs	r1, r4
 1738 00d8 3CA8     		add	r0, sp, #240
 1739 00da FFF7FEFF 		bl	ge_madd
 1740              	.LVL241:
 432:ge.c          ****         ge_p1p1_to_p3(h, &r);
 1741              		.loc 1 432 0 discriminator 3
 1742 00de 3CA9     		add	r1, sp, #240
 1743 00e0 2000     		movs	r0, r4
 1744 00e2 FFF7FEFF 		bl	ge_p1p1_to_p3
 1745              	.LVL242:
 429:ge.c          ****         select(&t, i / 2, e[i]);
 1746              		.loc 1 429 0 discriminator 3
 1747 00e6 0235     		adds	r5, r5, #2
 1748              	.LVL243:
 1749              	.L49:
 429:ge.c          ****         select(&t, i / 2, e[i]);
 1750              		.loc 1 429 0 is_stmt 0 discriminator 1
 1751 00e8 3F2D     		cmp	r5, #63
 1752 00ea EBDD     		ble	.L50
 433:ge.c          ****     }
 434:ge.c          **** }
 1753              		.loc 1 434 0 is_stmt 1
 1754 00ec 74B0     		add	sp, sp, #464
 1755              		@ sp needed
 1756              	.LVL244:
 1757              	.LVL245:
 1758 00ee 70BD     		pop	{r4, r5, r6, pc}
 1759              		.cfi_endproc
 1760              	.LFE19:
 1761              		.size	ge_scalarmult_base, .-ge_scalarmult_base
 1762              		.section	.text.ge_sub,"ax",%progbits
 1763              		.align	2
 1764              		.global	ge_sub
 1765              		.code	16
 1766              		.thumb_func
ARM GAS  C:\Users\NIGHDR~1\AppData\Local\Temp\ccrnUt9g.s 			page 42


 1767              		.type	ge_sub, %function
 1768              	ge_sub:
 1769              	.LFB20:
 435:ge.c          **** 
 436:ge.c          **** 
 437:ge.c          **** /*
 438:ge.c          **** r = p - q
 439:ge.c          **** */
 440:ge.c          **** 
 441:ge.c          **** void ge_sub(ge_p1p1 *r, const ge_p3 *p, const ge_cached *q) {
 1770              		.loc 1 441 0
 1771              		.cfi_startproc
 1772              		@ args = 0, pretend = 0, frame = 48
 1773              		@ frame_needed = 0, uses_anonymous_args = 0
 1774              	.LVL246:
 1775 0000 F0B5     		push	{r4, r5, r6, r7, lr}
 1776              		.cfi_def_cfa_offset 20
 1777              		.cfi_offset 4, -20
 1778              		.cfi_offset 5, -16
 1779              		.cfi_offset 6, -12
 1780              		.cfi_offset 7, -8
 1781              		.cfi_offset 14, -4
 1782 0002 8DB0     		sub	sp, sp, #52
 1783              		.cfi_def_cfa_offset 72
 1784 0004 0400     		movs	r4, r0
 1785 0006 0D00     		movs	r5, r1
 1786 0008 1700     		movs	r7, r2
 442:ge.c          ****     fe t0;
 443:ge.c          ****     
 444:ge.c          ****     fe_add(r->X, p->Y, p->X);
 1787              		.loc 1 444 0
 1788 000a 0E00     		movs	r6, r1
 1789 000c 2836     		adds	r6, r6, #40
 1790 000e 0A00     		movs	r2, r1
 1791              	.LVL247:
 1792 0010 3100     		movs	r1, r6
 1793              	.LVL248:
 1794 0012 FFF7FEFF 		bl	fe_add
 1795              	.LVL249:
 445:ge.c          ****     fe_sub(r->Y, p->Y, p->X);
 1796              		.loc 1 445 0
 1797 0016 2823     		movs	r3, #40
 1798 0018 9C46     		mov	ip, r3
 1799 001a A444     		add	ip, ip, r4
 1800 001c 6346     		mov	r3, ip
 1801 001e 2A00     		movs	r2, r5
 1802 0020 3100     		movs	r1, r6
 1803 0022 6646     		mov	r6, ip
 1804 0024 1800     		movs	r0, r3
 1805 0026 FFF7FEFF 		bl	fe_sub
 1806              	.LVL250:
 446:ge.c          ****     fe_mul(r->Z, r->X, q->YminusX);
 1807              		.loc 1 446 0
 1808 002a 5023     		movs	r3, #80
 1809 002c 9C46     		mov	ip, r3
 1810 002e A444     		add	ip, ip, r4
 1811 0030 6346     		mov	r3, ip
ARM GAS  C:\Users\NIGHDR~1\AppData\Local\Temp\ccrnUt9g.s 			page 43


 1812 0032 3A00     		movs	r2, r7
 1813 0034 2832     		adds	r2, r2, #40
 1814 0036 2100     		movs	r1, r4
 1815 0038 0193     		str	r3, [sp, #4]
 1816 003a 6046     		mov	r0, ip
 1817 003c FFF7FEFF 		bl	fe_mul
 1818              	.LVL251:
 447:ge.c          ****     fe_mul(r->Y, r->Y, q->YplusX);
 1819              		.loc 1 447 0
 1820 0040 3A00     		movs	r2, r7
 1821 0042 3100     		movs	r1, r6
 1822 0044 0096     		str	r6, [sp]
 1823 0046 3000     		movs	r0, r6
 1824 0048 FFF7FEFF 		bl	fe_mul
 1825              	.LVL252:
 448:ge.c          ****     fe_mul(r->T, q->T2d, p->T);
 1826              		.loc 1 448 0
 1827 004c 5036     		adds	r6, r6, #80
 1828 004e 3900     		movs	r1, r7
 1829 0050 7831     		adds	r1, r1, #120
 1830 0052 2A00     		movs	r2, r5
 1831 0054 7832     		adds	r2, r2, #120
 1832 0056 3000     		movs	r0, r6
 1833 0058 FFF7FEFF 		bl	fe_mul
 1834              	.LVL253:
 449:ge.c          ****     fe_mul(r->X, p->Z, q->Z);
 1835              		.loc 1 449 0
 1836 005c 2900     		movs	r1, r5
 1837 005e 5031     		adds	r1, r1, #80
 1838 0060 3A00     		movs	r2, r7
 1839 0062 5032     		adds	r2, r2, #80
 1840 0064 2000     		movs	r0, r4
 1841 0066 FFF7FEFF 		bl	fe_mul
 1842              	.LVL254:
 450:ge.c          ****     fe_add(t0, r->X, r->X);
 1843              		.loc 1 450 0
 1844 006a 2200     		movs	r2, r4
 1845 006c 2100     		movs	r1, r4
 1846 006e 02A8     		add	r0, sp, #8
 1847 0070 FFF7FEFF 		bl	fe_add
 1848              	.LVL255:
 451:ge.c          ****     fe_sub(r->X, r->Z, r->Y);
 1849              		.loc 1 451 0
 1850 0074 009D     		ldr	r5, [sp]
 1851              	.LVL256:
 1852 0076 2A00     		movs	r2, r5
 1853 0078 019F     		ldr	r7, [sp, #4]
 1854              	.LVL257:
 1855 007a 3900     		movs	r1, r7
 1856 007c 2000     		movs	r0, r4
 1857 007e FFF7FEFF 		bl	fe_sub
 1858              	.LVL258:
 452:ge.c          ****     fe_add(r->Y, r->Z, r->Y);
 1859              		.loc 1 452 0
 1860 0082 2A00     		movs	r2, r5
 1861 0084 3900     		movs	r1, r7
 1862 0086 2800     		movs	r0, r5
ARM GAS  C:\Users\NIGHDR~1\AppData\Local\Temp\ccrnUt9g.s 			page 44


 1863 0088 FFF7FEFF 		bl	fe_add
 1864              	.LVL259:
 453:ge.c          ****     fe_sub(r->Z, t0, r->T);
 1865              		.loc 1 453 0
 1866 008c 3200     		movs	r2, r6
 1867 008e 02A9     		add	r1, sp, #8
 1868 0090 3800     		movs	r0, r7
 1869 0092 FFF7FEFF 		bl	fe_sub
 1870              	.LVL260:
 454:ge.c          ****     fe_add(r->T, t0, r->T);
 1871              		.loc 1 454 0
 1872 0096 3200     		movs	r2, r6
 1873 0098 02A9     		add	r1, sp, #8
 1874 009a 3000     		movs	r0, r6
 1875 009c FFF7FEFF 		bl	fe_add
 1876              	.LVL261:
 455:ge.c          **** }
 1877              		.loc 1 455 0
 1878 00a0 0DB0     		add	sp, sp, #52
 1879              		@ sp needed
 1880              	.LVL262:
 1881 00a2 F0BD     		pop	{r4, r5, r6, r7, pc}
 1882              		.cfi_endproc
 1883              	.LFE20:
 1884              		.size	ge_sub, .-ge_sub
 1885              		.section	.text.ge_double_scalarmult_vartime,"ax",%progbits
 1886              		.align	2
 1887              		.global	ge_double_scalarmult_vartime
 1888              		.code	16
 1889              		.thumb_func
 1890              		.type	ge_double_scalarmult_vartime, %function
 1891              	ge_double_scalarmult_vartime:
 1892              	.LFB2:
  67:ge.c          ****     signed char aslide[256];
 1893              		.loc 1 67 0
 1894              		.cfi_startproc
 1895              		@ args = 0, pretend = 0, frame = 2272
 1896              		@ frame_needed = 0, uses_anonymous_args = 0
 1897              	.LVL263:
 1898 0000 70B5     		push	{r4, r5, r6, lr}
 1899              		.cfi_def_cfa_offset 16
 1900              		.cfi_offset 4, -16
 1901              		.cfi_offset 5, -12
 1902              		.cfi_offset 6, -8
 1903              		.cfi_offset 14, -4
 1904 0002 8A4C     		ldr	r4, .L61
 1905 0004 A544     		add	sp, sp, r4
 1906              		.cfi_def_cfa_offset 2288
 1907 0006 0500     		movs	r5, r0
 1908 0008 1400     		movs	r4, r2
 1909 000a 1E00     		movs	r6, r3
  75:ge.c          ****     slide(bslide, b);
 1910              		.loc 1 75 0
 1911 000c FC20     		movs	r0, #252
 1912              	.LVL264:
 1913 000e C000     		lsls	r0, r0, #3
 1914 0010 6844     		add	r0, r0, sp
ARM GAS  C:\Users\NIGHDR~1\AppData\Local\Temp\ccrnUt9g.s 			page 45


 1915 0012 FFF7FEFF 		bl	slide
 1916              	.LVL265:
  76:ge.c          ****     ge_p3_to_cached(&Ai[0], A);
 1917              		.loc 1 76 0
 1918 0016 3100     		movs	r1, r6
 1919 0018 DC20     		movs	r0, #220
 1920 001a C000     		lsls	r0, r0, #3
 1921 001c 6844     		add	r0, r0, sp
 1922 001e FFF7FEFF 		bl	slide
 1923              	.LVL266:
  77:ge.c          ****     ge_p3_dbl(&t, A);
 1924              		.loc 1 77 0
 1925 0022 2100     		movs	r1, r4
 1926 0024 78A8     		add	r0, sp, #480
 1927 0026 FFF7FEFF 		bl	ge_p3_to_cached
 1928              	.LVL267:
  78:ge.c          ****     ge_p1p1_to_p3(&A2, &t);
 1929              		.loc 1 78 0
 1930 002a 2100     		movs	r1, r4
 1931 002c 50A8     		add	r0, sp, #320
 1932 002e FFF7FEFF 		bl	ge_p3_dbl
 1933              	.LVL268:
  79:ge.c          ****     ge_add(&t, &A2, &Ai[0]);
 1934              		.loc 1 79 0
 1935 0032 50A9     		add	r1, sp, #320
 1936 0034 6846     		mov	r0, sp
 1937 0036 FFF7FEFF 		bl	ge_p1p1_to_p3
 1938              	.LVL269:
  80:ge.c          ****     ge_p1p1_to_p3(&u, &t);
 1939              		.loc 1 80 0
 1940 003a 78AA     		add	r2, sp, #480
 1941 003c 6946     		mov	r1, sp
 1942 003e 50A8     		add	r0, sp, #320
 1943 0040 FFF7FEFF 		bl	ge_add
 1944              	.LVL270:
  81:ge.c          ****     ge_p3_to_cached(&Ai[1], &u);
 1945              		.loc 1 81 0
 1946 0044 50A9     		add	r1, sp, #320
 1947 0046 28A8     		add	r0, sp, #160
 1948 0048 FFF7FEFF 		bl	ge_p1p1_to_p3
 1949              	.LVL271:
  82:ge.c          ****     ge_add(&t, &A2, &Ai[1]);
 1950              		.loc 1 82 0
 1951 004c 28A9     		add	r1, sp, #160
 1952 004e A0A8     		add	r0, sp, #640
 1953 0050 FFF7FEFF 		bl	ge_p3_to_cached
 1954              	.LVL272:
  83:ge.c          ****     ge_p1p1_to_p3(&u, &t);
 1955              		.loc 1 83 0
 1956 0054 A0AA     		add	r2, sp, #640
 1957 0056 6946     		mov	r1, sp
 1958 0058 50A8     		add	r0, sp, #320
 1959 005a FFF7FEFF 		bl	ge_add
 1960              	.LVL273:
  84:ge.c          ****     ge_p3_to_cached(&Ai[2], &u);
 1961              		.loc 1 84 0
 1962 005e 50A9     		add	r1, sp, #320
ARM GAS  C:\Users\NIGHDR~1\AppData\Local\Temp\ccrnUt9g.s 			page 46


 1963 0060 28A8     		add	r0, sp, #160
 1964 0062 FFF7FEFF 		bl	ge_p1p1_to_p3
 1965              	.LVL274:
  85:ge.c          ****     ge_add(&t, &A2, &Ai[2]);
 1966              		.loc 1 85 0
 1967 0066 28A9     		add	r1, sp, #160
 1968 0068 C8A8     		add	r0, sp, #800
 1969 006a FFF7FEFF 		bl	ge_p3_to_cached
 1970              	.LVL275:
  86:ge.c          ****     ge_p1p1_to_p3(&u, &t);
 1971              		.loc 1 86 0
 1972 006e C8AA     		add	r2, sp, #800
 1973 0070 6946     		mov	r1, sp
 1974 0072 50A8     		add	r0, sp, #320
 1975 0074 FFF7FEFF 		bl	ge_add
 1976              	.LVL276:
  87:ge.c          ****     ge_p3_to_cached(&Ai[3], &u);
 1977              		.loc 1 87 0
 1978 0078 50A9     		add	r1, sp, #320
 1979 007a 28A8     		add	r0, sp, #160
 1980 007c FFF7FEFF 		bl	ge_p1p1_to_p3
 1981              	.LVL277:
  88:ge.c          ****     ge_add(&t, &A2, &Ai[3]);
 1982              		.loc 1 88 0
 1983 0080 28A9     		add	r1, sp, #160
 1984 0082 F0A8     		add	r0, sp, #960
 1985 0084 FFF7FEFF 		bl	ge_p3_to_cached
 1986              	.LVL278:
  89:ge.c          ****     ge_p1p1_to_p3(&u, &t);
 1987              		.loc 1 89 0
 1988 0088 F0AA     		add	r2, sp, #960
 1989 008a 6946     		mov	r1, sp
 1990 008c 50A8     		add	r0, sp, #320
 1991 008e FFF7FEFF 		bl	ge_add
 1992              	.LVL279:
  90:ge.c          ****     ge_p3_to_cached(&Ai[4], &u);
 1993              		.loc 1 90 0
 1994 0092 50A9     		add	r1, sp, #320
 1995 0094 28A8     		add	r0, sp, #160
 1996 0096 FFF7FEFF 		bl	ge_p1p1_to_p3
 1997              	.LVL280:
  91:ge.c          ****     ge_add(&t, &A2, &Ai[4]);
 1998              		.loc 1 91 0
 1999 009a 28A9     		add	r1, sp, #160
 2000 009c FFA8     		add	r0, sp, #1020
 2001 009e 6430     		adds	r0, r0, #100
 2002 00a0 FFF7FEFF 		bl	ge_p3_to_cached
 2003              	.LVL281:
  92:ge.c          ****     ge_p1p1_to_p3(&u, &t);
 2004              		.loc 1 92 0
 2005 00a4 FFAA     		add	r2, sp, #1020
 2006 00a6 6432     		adds	r2, r2, #100
 2007 00a8 6946     		mov	r1, sp
 2008 00aa 50A8     		add	r0, sp, #320
 2009 00ac FFF7FEFF 		bl	ge_add
 2010              	.LVL282:
  93:ge.c          ****     ge_p3_to_cached(&Ai[5], &u);
ARM GAS  C:\Users\NIGHDR~1\AppData\Local\Temp\ccrnUt9g.s 			page 47


 2011              		.loc 1 93 0
 2012 00b0 50A9     		add	r1, sp, #320
 2013 00b2 28A8     		add	r0, sp, #160
 2014 00b4 FFF7FEFF 		bl	ge_p1p1_to_p3
 2015              	.LVL283:
  94:ge.c          ****     ge_add(&t, &A2, &Ai[5]);
 2016              		.loc 1 94 0
 2017 00b8 28A9     		add	r1, sp, #160
 2018 00ba A023     		movs	r3, #160
 2019 00bc DB00     		lsls	r3, r3, #3
 2020 00be 6B44     		add	r3, r3, sp
 2021 00c0 1800     		movs	r0, r3
 2022 00c2 FFF7FEFF 		bl	ge_p3_to_cached
 2023              	.LVL284:
  95:ge.c          ****     ge_p1p1_to_p3(&u, &t);
 2024              		.loc 1 95 0
 2025 00c6 A023     		movs	r3, #160
 2026 00c8 DB00     		lsls	r3, r3, #3
 2027 00ca 6B44     		add	r3, r3, sp
 2028 00cc 1A00     		movs	r2, r3
 2029 00ce 6946     		mov	r1, sp
 2030 00d0 50A8     		add	r0, sp, #320
 2031 00d2 FFF7FEFF 		bl	ge_add
 2032              	.LVL285:
  96:ge.c          ****     ge_p3_to_cached(&Ai[6], &u);
 2033              		.loc 1 96 0
 2034 00d6 50A9     		add	r1, sp, #320
 2035 00d8 28A8     		add	r0, sp, #160
 2036 00da FFF7FEFF 		bl	ge_p1p1_to_p3
 2037              	.LVL286:
  97:ge.c          ****     ge_add(&t, &A2, &Ai[6]);
 2038              		.loc 1 97 0
 2039 00de 28A9     		add	r1, sp, #160
 2040 00e0 B423     		movs	r3, #180
 2041 00e2 DB00     		lsls	r3, r3, #3
 2042 00e4 6B44     		add	r3, r3, sp
 2043 00e6 1800     		movs	r0, r3
 2044 00e8 FFF7FEFF 		bl	ge_p3_to_cached
 2045              	.LVL287:
  98:ge.c          ****     ge_p1p1_to_p3(&u, &t);
 2046              		.loc 1 98 0
 2047 00ec B423     		movs	r3, #180
 2048 00ee DB00     		lsls	r3, r3, #3
 2049 00f0 6B44     		add	r3, r3, sp
 2050 00f2 1A00     		movs	r2, r3
 2051 00f4 6946     		mov	r1, sp
 2052 00f6 50A8     		add	r0, sp, #320
 2053 00f8 FFF7FEFF 		bl	ge_add
 2054              	.LVL288:
  99:ge.c          ****     ge_p3_to_cached(&Ai[7], &u);
 2055              		.loc 1 99 0
 2056 00fc 50A9     		add	r1, sp, #320
 2057 00fe 28A8     		add	r0, sp, #160
 2058 0100 FFF7FEFF 		bl	ge_p1p1_to_p3
 2059              	.LVL289:
 100:ge.c          ****     ge_p2_0(r);
 2060              		.loc 1 100 0
ARM GAS  C:\Users\NIGHDR~1\AppData\Local\Temp\ccrnUt9g.s 			page 48


 2061 0104 28A9     		add	r1, sp, #160
 2062 0106 C820     		movs	r0, #200
 2063 0108 C000     		lsls	r0, r0, #3
 2064 010a 6844     		add	r0, r0, sp
 2065 010c FFF7FEFF 		bl	ge_p3_to_cached
 2066              	.LVL290:
 101:ge.c          **** 
 2067              		.loc 1 101 0
 2068 0110 2800     		movs	r0, r5
 2069 0112 FFF7FEFF 		bl	ge_p2_0
 2070              	.LVL291:
 103:ge.c          ****         if (aslide[i] || bslide[i]) {
 2071              		.loc 1 103 0
 2072 0116 FF24     		movs	r4, #255
 2073              	.LVL292:
 2074 0118 0DE0     		b	.L53
 2075              	.LVL293:
 2076              	.L55:
 104:ge.c          ****             break;
 2077              		.loc 1 104 0
 2078 011a FC23     		movs	r3, #252
 2079 011c DB00     		lsls	r3, r3, #3
 2080 011e 6B44     		add	r3, r3, sp
 2081 0120 1B57     		ldrsb	r3, [r3, r4]
 2082 0122 002B     		cmp	r3, #0
 2083 0124 00D0     		beq	.LCB1961
 2084 0126 7AE0     		b	.L54	@long jump
 2085              	.LCB1961:
 104:ge.c          ****             break;
 2086              		.loc 1 104 0 is_stmt 0 discriminator 1
 2087 0128 DC23     		movs	r3, #220
 2088 012a DB00     		lsls	r3, r3, #3
 2089 012c 6B44     		add	r3, r3, sp
 2090 012e 1B57     		ldrsb	r3, [r3, r4]
 2091 0130 002B     		cmp	r3, #0
 2092 0132 74D1     		bne	.L54
 103:ge.c          ****         if (aslide[i] || bslide[i]) {
 2093              		.loc 1 103 0 is_stmt 1 discriminator 2
 2094 0134 013C     		subs	r4, r4, #1
 2095              	.LVL294:
 2096              	.L53:
 103:ge.c          ****         if (aslide[i] || bslide[i]) {
 2097              		.loc 1 103 0 is_stmt 0 discriminator 1
 2098 0136 002C     		cmp	r4, #0
 2099 0138 EFDA     		bge	.L55
 2100 013a 70E0     		b	.L54
 2101              	.L60:
 110:ge.c          **** 
 2102              		.loc 1 110 0 is_stmt 1
 2103 013c 2900     		movs	r1, r5
 2104 013e 50A8     		add	r0, sp, #320
 2105 0140 FFF7FEFF 		bl	ge_p2_dbl
 2106              	.LVL295:
 112:ge.c          ****             ge_p1p1_to_p3(&u, &t);
 2107              		.loc 1 112 0
 2108 0144 FC23     		movs	r3, #252
 2109 0146 DB00     		lsls	r3, r3, #3
ARM GAS  C:\Users\NIGHDR~1\AppData\Local\Temp\ccrnUt9g.s 			page 49


 2110 0148 6B44     		add	r3, r3, sp
 2111 014a 1B57     		ldrsb	r3, [r3, r4]
 2112 014c 002B     		cmp	r3, #0
 2113 014e 15DD     		ble	.L56
 113:ge.c          ****             ge_add(&t, &u, &Ai[aslide[i] / 2]);
 2114              		.loc 1 113 0
 2115 0150 50A9     		add	r1, sp, #320
 2116 0152 28A8     		add	r0, sp, #160
 2117 0154 FFF7FEFF 		bl	ge_p1p1_to_p3
 2118              	.LVL296:
 114:ge.c          ****         } else if (aslide[i] < 0) {
 2119              		.loc 1 114 0
 2120 0158 FC23     		movs	r3, #252
 2121 015a DB00     		lsls	r3, r3, #3
 2122 015c 6B44     		add	r3, r3, sp
 2123 015e 1B57     		ldrsb	r3, [r3, r4]
 2124 0160 DA0F     		lsrs	r2, r3, #31
 2125 0162 D318     		adds	r3, r2, r3
 2126 0164 5B10     		asrs	r3, r3, #1
 2127 0166 9A00     		lsls	r2, r3, #2
 2128 0168 D318     		adds	r3, r2, r3
 2129 016a 5A01     		lsls	r2, r3, #5
 2130 016c 78AB     		add	r3, sp, #480
 2131 016e 9C46     		mov	ip, r3
 2132 0170 6244     		add	r2, r2, ip
 2133 0172 28A9     		add	r1, sp, #160
 2134 0174 50A8     		add	r0, sp, #320
 2135 0176 FFF7FEFF 		bl	ge_add
 2136              	.LVL297:
 2137 017a 17E0     		b	.L57
 2138              	.L56:
 115:ge.c          ****             ge_p1p1_to_p3(&u, &t);
 2139              		.loc 1 115 0
 2140 017c 002B     		cmp	r3, #0
 2141 017e 15DA     		bge	.L57
 116:ge.c          ****             ge_sub(&t, &u, &Ai[(-aslide[i]) / 2]);
 2142              		.loc 1 116 0
 2143 0180 50A9     		add	r1, sp, #320
 2144 0182 28A8     		add	r0, sp, #160
 2145 0184 FFF7FEFF 		bl	ge_p1p1_to_p3
 2146              	.LVL298:
 117:ge.c          ****         }
 2147              		.loc 1 117 0
 2148 0188 FC23     		movs	r3, #252
 2149 018a DB00     		lsls	r3, r3, #3
 2150 018c 6B44     		add	r3, r3, sp
 2151 018e 1B57     		ldrsb	r3, [r3, r4]
 2152 0190 5B42     		rsbs	r3, r3, #0
 2153 0192 DA0F     		lsrs	r2, r3, #31
 2154 0194 D318     		adds	r3, r2, r3
 2155 0196 5B10     		asrs	r3, r3, #1
 2156 0198 9A00     		lsls	r2, r3, #2
 2157 019a D318     		adds	r3, r2, r3
 2158 019c 5A01     		lsls	r2, r3, #5
 2159 019e 78AB     		add	r3, sp, #480
 2160 01a0 9C46     		mov	ip, r3
 2161 01a2 6244     		add	r2, r2, ip
ARM GAS  C:\Users\NIGHDR~1\AppData\Local\Temp\ccrnUt9g.s 			page 50


 2162 01a4 28A9     		add	r1, sp, #160
 2163 01a6 50A8     		add	r0, sp, #320
 2164 01a8 FFF7FEFF 		bl	ge_sub
 2165              	.LVL299:
 2166              	.L57:
 120:ge.c          ****             ge_p1p1_to_p3(&u, &t);
 2167              		.loc 1 120 0
 2168 01ac DC23     		movs	r3, #220
 2169 01ae DB00     		lsls	r3, r3, #3
 2170 01b0 6B44     		add	r3, r3, sp
 2171 01b2 1B57     		ldrsb	r3, [r3, r4]
 2172 01b4 002B     		cmp	r3, #0
 2173 01b6 15DD     		ble	.L58
 121:ge.c          ****             ge_madd(&t, &u, &Bi[bslide[i] / 2]);
 2174              		.loc 1 121 0
 2175 01b8 50A9     		add	r1, sp, #320
 2176 01ba 28A8     		add	r0, sp, #160
 2177 01bc FFF7FEFF 		bl	ge_p1p1_to_p3
 2178              	.LVL300:
 122:ge.c          ****         } else if (bslide[i] < 0) {
 2179              		.loc 1 122 0
 2180 01c0 DC23     		movs	r3, #220
 2181 01c2 DB00     		lsls	r3, r3, #3
 2182 01c4 6B44     		add	r3, r3, sp
 2183 01c6 1B57     		ldrsb	r3, [r3, r4]
 2184 01c8 DA0F     		lsrs	r2, r3, #31
 2185 01ca D318     		adds	r3, r2, r3
 2186 01cc 5B10     		asrs	r3, r3, #1
 2187 01ce 1A01     		lsls	r2, r3, #4
 2188 01d0 D31A     		subs	r3, r2, r3
 2189 01d2 D900     		lsls	r1, r3, #3
 2190 01d4 164A     		ldr	r2, .L61+4
 2191 01d6 7832     		adds	r2, r2, #120
 2192 01d8 5218     		adds	r2, r2, r1
 2193 01da 28A9     		add	r1, sp, #160
 2194 01dc 50A8     		add	r0, sp, #320
 2195 01de FFF7FEFF 		bl	ge_madd
 2196              	.LVL301:
 2197 01e2 17E0     		b	.L59
 2198              	.L58:
 123:ge.c          ****             ge_p1p1_to_p3(&u, &t);
 2199              		.loc 1 123 0
 2200 01e4 002B     		cmp	r3, #0
 2201 01e6 15DA     		bge	.L59
 124:ge.c          ****             ge_msub(&t, &u, &Bi[(-bslide[i]) / 2]);
 2202              		.loc 1 124 0
 2203 01e8 50A9     		add	r1, sp, #320
 2204 01ea 28A8     		add	r0, sp, #160
 2205 01ec FFF7FEFF 		bl	ge_p1p1_to_p3
 2206              	.LVL302:
 125:ge.c          ****         }
 2207              		.loc 1 125 0
 2208 01f0 DC23     		movs	r3, #220
 2209 01f2 DB00     		lsls	r3, r3, #3
 2210 01f4 6B44     		add	r3, r3, sp
 2211 01f6 1B57     		ldrsb	r3, [r3, r4]
 2212 01f8 5B42     		rsbs	r3, r3, #0
ARM GAS  C:\Users\NIGHDR~1\AppData\Local\Temp\ccrnUt9g.s 			page 51


 2213 01fa DA0F     		lsrs	r2, r3, #31
 2214 01fc D318     		adds	r3, r2, r3
 2215 01fe 5B10     		asrs	r3, r3, #1
 2216 0200 1A01     		lsls	r2, r3, #4
 2217 0202 D31A     		subs	r3, r2, r3
 2218 0204 D900     		lsls	r1, r3, #3
 2219 0206 0A4A     		ldr	r2, .L61+4
 2220 0208 7832     		adds	r2, r2, #120
 2221 020a 5218     		adds	r2, r2, r1
 2222 020c 28A9     		add	r1, sp, #160
 2223 020e 50A8     		add	r0, sp, #320
 2224 0210 FFF7FEFF 		bl	ge_msub
 2225              	.LVL303:
 2226              	.L59:
 128:ge.c          ****     }
 2227              		.loc 1 128 0
 2228 0214 50A9     		add	r1, sp, #320
 2229 0216 2800     		movs	r0, r5
 2230 0218 FFF7FEFF 		bl	ge_p1p1_to_p2
 2231              	.LVL304:
 109:ge.c          ****         ge_p2_dbl(&t, r);
 2232              		.loc 1 109 0
 2233 021c 013C     		subs	r4, r4, #1
 2234              	.LVL305:
 2235              	.L54:
 109:ge.c          ****         ge_p2_dbl(&t, r);
 2236              		.loc 1 109 0 is_stmt 0 discriminator 1
 2237 021e 002C     		cmp	r4, #0
 2238 0220 8CDA     		bge	.L60
 130:ge.c          **** 
 2239              		.loc 1 130 0 is_stmt 1
 2240 0222 8E23     		movs	r3, #142
 2241 0224 1B01     		lsls	r3, r3, #4
 2242 0226 9D44     		add	sp, sp, r3
 2243              		@ sp needed
 2244              	.LVL306:
 2245              	.LVL307:
 2246              	.LVL308:
 2247 0228 70BD     		pop	{r4, r5, r6, pc}
 2248              	.L62:
 2249 022a C046     		.align	2
 2250              	.L61:
 2251 022c 20F7FFFF 		.word	-2272
 2252 0230 00780000 		.word	.LANCHOR1
 2253              		.cfi_endproc
 2254              	.LFE2:
 2255              		.size	ge_double_scalarmult_vartime, .-ge_double_scalarmult_vartime
 2256              		.section	.text.ge_tobytes,"ax",%progbits
 2257              		.align	2
 2258              		.global	ge_tobytes
 2259              		.code	16
 2260              		.thumb_func
 2261              		.type	ge_tobytes, %function
 2262              	ge_tobytes:
 2263              	.LFB21:
 456:ge.c          **** 
 457:ge.c          **** 
ARM GAS  C:\Users\NIGHDR~1\AppData\Local\Temp\ccrnUt9g.s 			page 52


 458:ge.c          **** void ge_tobytes(unsigned char *s, const ge_p2 *h) {
 2264              		.loc 1 458 0
 2265              		.cfi_startproc
 2266              		@ args = 0, pretend = 0, frame = 120
 2267              		@ frame_needed = 0, uses_anonymous_args = 0
 2268              	.LVL309:
 2269 0000 30B5     		push	{r4, r5, lr}
 2270              		.cfi_def_cfa_offset 12
 2271              		.cfi_offset 4, -12
 2272              		.cfi_offset 5, -8
 2273              		.cfi_offset 14, -4
 2274 0002 9FB0     		sub	sp, sp, #124
 2275              		.cfi_def_cfa_offset 136
 2276 0004 0500     		movs	r5, r0
 2277 0006 0C00     		movs	r4, r1
 459:ge.c          ****     fe recip;
 460:ge.c          ****     fe x;
 461:ge.c          ****     fe y;
 462:ge.c          ****     fe_invert(recip, h->Z);
 2278              		.loc 1 462 0
 2279 0008 5031     		adds	r1, r1, #80
 2280              	.LVL310:
 2281 000a 14A8     		add	r0, sp, #80
 2282              	.LVL311:
 2283 000c FFF7FEFF 		bl	fe_invert
 2284              	.LVL312:
 463:ge.c          ****     fe_mul(x, h->X, recip);
 2285              		.loc 1 463 0
 2286 0010 14AA     		add	r2, sp, #80
 2287 0012 2100     		movs	r1, r4
 2288 0014 0AA8     		add	r0, sp, #40
 2289 0016 FFF7FEFF 		bl	fe_mul
 2290              	.LVL313:
 464:ge.c          ****     fe_mul(y, h->Y, recip);
 2291              		.loc 1 464 0
 2292 001a 2100     		movs	r1, r4
 2293 001c 2831     		adds	r1, r1, #40
 2294 001e 14AA     		add	r2, sp, #80
 2295 0020 6846     		mov	r0, sp
 2296 0022 FFF7FEFF 		bl	fe_mul
 2297              	.LVL314:
 465:ge.c          ****     fe_tobytes(s, y);
 2298              		.loc 1 465 0
 2299 0026 6946     		mov	r1, sp
 2300 0028 2800     		movs	r0, r5
 2301 002a FFF7FEFF 		bl	fe_tobytes
 2302              	.LVL315:
 466:ge.c          ****     s[31] ^= fe_isnegative(x) << 7;
 2303              		.loc 1 466 0
 2304 002e 0AA8     		add	r0, sp, #40
 2305 0030 FFF7FEFF 		bl	fe_isnegative
 2306              	.LVL316:
 2307 0034 C001     		lsls	r0, r0, #7
 2308 0036 EB7F     		ldrb	r3, [r5, #31]
 2309 0038 5840     		eors	r0, r3
 2310 003a E877     		strb	r0, [r5, #31]
 467:ge.c          **** }
ARM GAS  C:\Users\NIGHDR~1\AppData\Local\Temp\ccrnUt9g.s 			page 53


 2311              		.loc 1 467 0
 2312 003c 1FB0     		add	sp, sp, #124
 2313              		@ sp needed
 2314              	.LVL317:
 2315              	.LVL318:
 2316 003e 30BD     		pop	{r4, r5, pc}
 2317              		.cfi_endproc
 2318              	.LFE21:
 2319              		.size	ge_tobytes, .-ge_tobytes
 2320              		.section	.rodata
 2321              		.align	2
 2322              		.set	.LANCHOR0,. + 0
 2323              		.set	.LANCHOR1,. + 30720
 2324              		.type	base, %object
 2325              		.size	base, 30720
 2326              	base:
 2327 0000 853B8C01 		.word	25967493
 2328 0004 BDF124FF 		.word	-14356035
 2329 0008 F825C301 		.word	29566456
 2330 000c 60DC3700 		.word	3660896
 2331 0010 B74C3EFF 		.word	-12694345
 2332 0014 C3423D00 		.word	4014787
 2333 0018 324CA401 		.word	27544626
 2334 001c E1A44CFF 		.word	-11754271
 2335 0020 4C3DA3FF 		.word	-6079156
 2336 0024 753E1F00 		.word	2047605
 2337 0028 519140FF 		.word	-12545711
 2338 002c 76410E00 		.word	934262
 2339 0030 A273D6FF 		.word	-2722910
 2340 0034 068A2E00 		.word	3049990
 2341 0038 7CE6F4FF 		.word	-727428
 2342 003c 0A8A8F00 		.word	9406986
 2343 0040 341AC200 		.word	12720692
 2344 0044 B8F44C00 		.word	5043384
 2345 0048 818F2901 		.word	19500929
 2346 004c BEF413FF 		.word	-15469378
 2347 0050 7BAA7AFF 		.word	-8738181
 2348 0054 62814400 		.word	4489570
 2349 0058 79D59300 		.word	9688441
 2350 005c 56651EFF 		.word	-14785194
 2351 0060 A1679B00 		.word	10184609
 2352 0064 8C5943FF 		.word	-12363380
 2353 0068 EFE5BE01 		.word	29287919
 2354 006c 430BB500 		.word	11864899
 2355 0070 C6F089FE 		.word	-24514362
 2356 0074 EE45BCFF 		.word	-4438546
 2357 0078 EA713CFF 		.word	-12815894
 2358 007c 25FF39FF 		.word	-12976347
 2359 0080 45B2B6FE 		.word	-21581243
 2360 0084 80D0B300 		.word	11784320
 2361 0088 761A7DFE 		.word	-25355658
 2362 008c 0307D6FF 		.word	-2750717
 2363 0090 F1324DFF 		.word	-11717903
 2364 0094 55CBC5FF 		.word	-3814571
 2365 0098 D387FAFF 		.word	-358445
 2366 009c 193064FF 		.word	-10211303
 2367 00a0 BBD5B4FE 		.word	-21703237
ARM GAS  C:\Users\NIGHDR~1\AppData\Local\Temp\ccrnUt9g.s 			page 54


 2368 00a4 11586900 		.word	6903825
 2369 00a8 53D19E01 		.word	27185491
 2370 00ac 05736200 		.word	6451973
 2371 00b0 04AE3CFE 		.word	-29577724
 2372 00b4 AB376EFF 		.word	-9554005
 2373 00b8 D9B511FF 		.word	-15616551
 2374 00bc 14BCAA00 		.word	11189268
 2375 00c0 929C66FE 		.word	-26829678
 2376 00c4 57D6AEFF 		.word	-5319081
 2377 00c8 727A9B01 		.word	26966642
 2378 00cc E92CAA00 		.word	11152617
 2379 00d0 7F08EF01 		.word	32442495
 2380 00d4 D6ECEA00 		.word	15396054
 2381 00d8 AF05DB00 		.word	14353839
 2382 00dc 316A3DFF 		.word	-12752335
 2383 00e0 0642D0FF 		.word	-3128826
 2384 00e4 026A6EFF 		.word	-9541118
 2385 00e8 51EA13FF 		.word	-15472047
 2386 00ec D76BC0FF 		.word	-4166697
 2387 00f0 4397EE00 		.word	15636291
 2388 00f4 132A6CFF 		.word	-9688557
 2389 00f8 E5557101 		.word	24204773
 2390 00fc 324487FF 		.word	-7912398
 2391 0100 116A0900 		.word	616977
 2392 0104 326701FF 		.word	-16685262
 2393 0108 5001A801 		.word	27787600
 2394 010c 23981EFF 		.word	-14772189
 2395 0110 10A8B901 		.word	28944400
 2396 0114 3859E8FF 		.word	-1550024
 2397 0118 65D2FC00 		.word	16568933
 2398 011c 29FA4700 		.word	4717097
 2399 0120 CCAA4FFF 		.word	-11556148
 2400 0124 0E2EEFFF 		.word	-1102322
 2401 0128 504DEF00 		.word	15682896
 2402 012c BDD64BFF 		.word	-11807043
 2403 0130 118DF900 		.word	16354577
 2404 0134 26504CFF 		.word	-11775962
 2405 0138 BE557500 		.word	7689662
 2406 013c 56E4AA00 		.word	11199574
 2407 0140 9CD8D001 		.word	30464156
 2408 0144 C3CFA4FF 		.word	-5976125
 2409 0148 96424CFF 		.word	-11779434
 2410 014c AFE110FF 		.word	-15670865
 2411 0150 8D506201 		.word	23220365
 2412 0154 4CDBF200 		.word	15915852
 2413 0158 C6A27200 		.word	7512774
 2414 015c 2EDA9800 		.word	10017326
 2415 0160 9B2BF1FE 		.word	-17749093
 2416 0164 9BA068FF 		.word	-9920357
 2417 0168 B209FCFE 		.word	-17036878
 2418 016c 646ED400 		.word	13921892
 2419 0170 0E05A700 		.word	10945806
 2420 0174 E9EFA3FF 		.word	-6033431
 2421 0178 1C979D01 		.word	27105052
 2422 017c 65920AFF 		.word	-16084379
 2423 0180 FE9E46FE 		.word	-28926210
 2424 0184 47F9E400 		.word	15006023
ARM GAS  C:\Users\NIGHDR~1\AppData\Local\Temp\ccrnUt9g.s 			page 55


 2425 0188 581E3200 		.word	3284568
 2426 018c 443AA0FF 		.word	-6276540
 2427 0190 BF186801 		.word	23599295
 2428 0194 814281FF 		.word	-8306047
 2429 0198 C03255FF 		.word	-11193664
 2430 019c 08B38AFF 		.word	-7687416
 2431 01a0 26FAC900 		.word	13236774
 2432 01a4 7350A000 		.word	10506355
 2433 01a8 83E67100 		.word	7464579
 2434 01ac 7D589300 		.word	9656445
 2435 01b0 5A44C700 		.word	13059162
 2436 01b4 FD4C9E00 		.word	10374397
 2437 01b8 1CFF7600 		.word	7798556
 2438 01bc 71FAFE00 		.word	16710257
 2439 01c0 424B2E00 		.word	3033922
 2440 01c4 E6DA2B00 		.word	2874086
 2441 01c8 E578BA01 		.word	28997861
 2442 01cc 94442B00 		.word	2835604
 2443 01d0 887CEE01 		.word	32406664
 2444 01d4 BB6BC5FF 		.word	-3839045
 2445 01d8 5435F6FF 		.word	-641708
 2446 01dc 3374FEFF 		.word	-101325
 2447 01e0 33BBA500 		.word	10861363
 2448 01e4 0211AF00 		.word	11473154
 2449 01e8 4254A001 		.word	27284546
 2450 01ec F73A1E00 		.word	1981175
 2451 01f0 234135FE 		.word	-30064349
 2452 01f4 45ECBF00 		.word	12577861
 2453 01f8 2D86F501 		.word	32867885
 2454 01fc A37BDD00 		.word	14515107
 2455 0200 206E14FF 		.word	-15438304
 2456 0204 3417A500 		.word	10819380
 2457 0208 BAD64700 		.word	4708026
 2458 020c E9B06000 		.word	6336745
 2459 0210 F2EF3601 		.word	20377586
 2460 0214 39598A00 		.word	9066809
 2461 0218 530054FF 		.word	-11272109
 2462 021c 88A06400 		.word	6594696
 2463 0220 5C8E78FE 		.word	-25653668
 2464 0224 687CBE00 		.word	12483688
 2465 0228 B5B13EFF 		.word	-12668491
 2466 022c FA295500 		.word	5581306
 2467 0230 98822A01 		.word	19563160
 2468 0234 60FCF600 		.word	16186464
 2469 0238 97973FFE 		.word	-29386857
 2470 023c EF853E00 		.word	4097519
 2471 0240 20389C00 		.word	10237984
 2472 0244 2DA7BDFF 		.word	-4348115
 2473 0248 8E85B301 		.word	28542350
 2474 024c 8356D300 		.word	13850243
 2475 0250 BBB396FE 		.word	-23678021
 2476 0254 FAAA0EFF 		.word	-15815942
 2477 0258 447115FF 		.word	-15371964
 2478 025c DEBA3BFF 		.word	-12862754
 2479 0260 4207F101 		.word	32573250
 2480 0264 45064800 		.word	4720197
 2481 0268 569C6CFE 		.word	-26436522
ARM GAS  C:\Users\NIGHDR~1\AppData\Local\Temp\ccrnUt9g.s 			page 56


 2482 026c 37A75900 		.word	5875511
 2483 0270 6D34DBFE 		.word	-19188627
 2484 0274 0DB017FF 		.word	-15224819
 2485 0278 C42C6AFF 		.word	-9818940
 2486 027c EF9547FF 		.word	-12085777
 2487 0280 A48C7DFF 		.word	-8549212
 2488 0284 9FAD0100 		.word	109983
 2489 0288 3329E700 		.word	15149363
 2490 028c 913E2100 		.word	2178705
 2491 0290 8A6F5D01 		.word	22900618
 2492 0294 B9534500 		.word	4543417
 2493 0298 90732E00 		.word	3044240
 2494 029c 619710FF 		.word	-15689887
 2495 02a0 18E41A00 		.word	1762328
 2496 02a4 31D9E200 		.word	14866737
 2497 02a8 714BEAFE 		.word	-18199695
 2498 02ac C1990CFF 		.word	-15951423
 2499 02b0 B63060FF 		.word	-10473290
 2500 02b4 0E0D1A00 		.word	1707278
 2501 02b8 80C3F9FE 		.word	-17185920
 2502 02bc 45C13B00 		.word	3916101
 2503 02c0 842551FE 		.word	-28236412
 2504 02c4 7D6A3C00 		.word	3959421
 2505 02c8 D6F0A901 		.word	27914454
 2506 02cc A4E34200 		.word	4383652
 2507 02d0 D2A34E00 		.word	5153746
 2508 02d4 25349700 		.word	9909285
 2509 02d8 634D1A00 		.word	1723747
 2510 02dc EE9CD5FF 		.word	-2777874
 2511 02e0 D5C0D101 		.word	30523605
 2512 02e4 492E5400 		.word	5516873
 2513 02e8 14412901 		.word	19480852
 2514 02ec 36CE4F00 		.word	5230134
 2515 02f0 C98392FE 		.word	-23952439
 2516 02f4 AA6F18FF 		.word	-15175766
 2517 02f8 B12132FE 		.word	-30269007
 2518 02fc AB26CBFF 		.word	-3463509
 2519 0300 4EF77400 		.word	7665486
 2520 0304 D1DD9900 		.word	10083793
 2521 0308 8580B201 		.word	28475525
 2522 030c 3A2C1900 		.word	1649722
 2523 0310 C9273B01 		.word	20654025
 2524 0314 BD13FC00 		.word	16520125
 2525 0318 31E5D201 		.word	30598449
 2526 031c 75BB7500 		.word	7715701
 2527 0320 B5B3B801 		.word	28881845
 2528 0324 0072DB00 		.word	14381568
 2529 0328 305E9300 		.word	9657904
 2530 032c F5293800 		.word	3680757
 2531 0330 7D0DCCFE 		.word	-20181635
 2532 0334 F4AD7700 		.word	7843316
 2533 0338 2CDD20FE 		.word	-31400660
 2534 033c 54EA1400 		.word	1370708
 2535 0340 F9A0C601 		.word	29794553
 2536 0344 EC7EEAFF 		.word	-1409300
 2537 0348 8F3EDD00 		.word	14499471
 2538 034c 8159D6FF 		.word	-2729599
ARM GAS  C:\Users\NIGHDR~1\AppData\Local\Temp\ccrnUt9g.s 			page 57


 2539 0350 378B05FE 		.word	-33191113
 2540 0354 4414BFFF 		.word	-4254652
 2541 0358 0ECCB201 		.word	28494862
 2542 035c 23C3D900 		.word	14271267
 2543 0360 2F33CE01 		.word	30290735
 2544 0364 26F6A500 		.word	10876454
 2545 0368 CE1B06FE 		.word	-33154098
 2546 036c 9E572400 		.word	2381726
 2547 0370 D93492FF 		.word	-7195431
 2548 0374 7D7BD7FF 		.word	-2655363
 2549 0378 553C1FFF 		.word	-14730155
 2550 037c AB0D0700 		.word	462251
 2551 0380 DAF558FE 		.word	-27724326
 2552 0384 FC233C00 		.word	3941372
 2553 0388 37D6A0FF 		.word	-6236617
 2554 038c 85653800 		.word	3696005
 2555 0390 E02013FE 		.word	-32300832
 2556 0394 9340EA00 		.word	15351955
 2557 0398 1A91A201 		.word	27431194
 2558 039c 72767D00 		.word	8222322
 2559 03a0 F8FCFA00 		.word	16448760
 2560 03a4 655EC4FF 		.word	-3907995
 2561 03a8 C68DE2FE 		.word	-18707002
 2562 03ac 332AB600 		.word	11938355
 2563 03b0 870C09FE 		.word	-32961401
 2564 03b4 6DACD2FF 		.word	-2970515
 2565 03b8 C5ECC201 		.word	29551813
 2566 03bc F1419A00 		.word	10109425
 2567 03c0 309C2FFF 		.word	-13657040
 2568 03c4 994337FF 		.word	-13155431
 2569 03c8 DAA522FE 		.word	-31283750
 2570 03cc 4AB4B300 		.word	11777098
 2571 03d0 DA424701 		.word	21447386
 2572 03d4 587A6300 		.word	6519384
 2573 03d8 D4B5DBFF 		.word	-2378284
 2574 03dc 5C2AE7FF 		.word	-1627556
 2575 03e0 EF009A00 		.word	10092783
 2576 03e4 F54DB7FF 		.word	-4764171
 2577 03e8 5E51AA01 		.word	27939166
 2578 03ec 12D5D800 		.word	14210322
 2579 03f0 AB5D4700 		.word	4677035
 2580 03f4 345EF800 		.word	16277044
 2581 03f8 1297A1FE 		.word	-22964462
 2582 03fc C5D142FF 		.word	-12398139
 2583 0400 AEF40FFE 		.word	-32508754
 2584 0404 A230B700 		.word	12005538
 2585 0408 313DF0FE 		.word	-17810127
 2586 040c B65DC300 		.word	12803510
 2587 0410 C7E40601 		.word	17228999
 2588 0414 C80511FF 		.word	-15661624
 2589 0418 892DEDFF 		.word	-1233527
 2590 041c 6C940400 		.word	300140
 2591 0420 5A4FEDFF 		.word	-1224870
 2592 0424 273F4DFF 		.word	-11714777
 2593 0428 3552CF01 		.word	30364213
 2594 042c 8E1676FF 		.word	-9038194
 2595 0430 65E81201 		.word	18016357
ARM GAS  C:\Users\NIGHDR~1\AppData\Local\Temp\ccrnUt9g.s 			page 58


 2596 0434 5C1A4300 		.word	4397660
 2597 0438 05C858FF 		.word	-10958843
 2598 043c 21A88AFF 		.word	-7690207
 2599 0440 95E14800 		.word	4776341
 2600 0444 02D11BFF 		.word	-14954238
 2601 0448 2CF5A801 		.word	27850028
 2602 044c DCED11FF 		.word	-15602212
 2603 0450 1ED369FE 		.word	-26619106
 2604 0454 8DEEDD00 		.word	14544525
 2605 0458 8050F5FE 		.word	-17477504
 2606 045c 6FFE0E00 		.word	982639
 2607 0460 DE5FBE01 		.word	29253598
 2608 0464 DF09F100 		.word	15796703
 2609 0468 924CD4FF 		.word	-2863982
 2610 046c 6CCD68FF 		.word	-9908884
 2611 0470 3F759900 		.word	10057023
 2612 0474 90453000 		.word	3163536
 2613 0478 23E46F00 		.word	7332899
 2614 047c C021C1FF 		.word	-4120128
 2615 0480 70D6BEFE 		.word	-21047696
 2616 0484 73989700 		.word	9934963
 2617 0488 17665800 		.word	5793303
 2618 048c 334AF800 		.word	16271923
 2619 0490 E2C78FFE 		.word	-24131614
 2620 0494 CCA265FF 		.word	-10116404
 2621 0498 D061BD01 		.word	29188560
 2622 049c F5681200 		.word	1206517
 2623 04a0 E6F61EFF 		.word	-14747930
 2624 04a4 17944500 		.word	4559895
 2625 04a8 6E5834FE 		.word	-30123922
 2626 04ac E2B559FF 		.word	-10897950
 2627 04b0 D02F5AFE 		.word	-27643952
 2628 04b4 72A150FF 		.word	-11493006
 2629 04b8 2174F800 		.word	16282657
 2630 04bc B39857FF 		.word	-11036493
 2631 04c0 4590B101 		.word	28414021
 2632 04c4 58EE1AFF 		.word	-15012264
 2633 04c8 3A207101 		.word	24191034
 2634 04cc 014D4500 		.word	4541697
 2635 04d0 3B7934FF 		.word	-13338309
 2636 04d4 98EE5300 		.word	5500568
 2637 04d8 3408C100 		.word	12650548
 2638 04dc E727E9FF 		.word	-1497113
 2639 04e0 C7228A00 		.word	9052871
 2640 04e4 DE44AD00 		.word	11355358
 2641 04e8 5B39F2FE 		.word	-17680037
 2642 04ec DCD27FFF 		.word	-8400164
 2643 04f0 C007F6FE 		.word	-17430592
 2644 04f4 9723BB00 		.word	12264343
 2645 04f8 C3ECA500 		.word	10874051
 2646 04fc 6F5DCE00 		.word	13524335
 2647 0500 D4F78501 		.word	25556948
 2648 0504 9A85D1FF 		.word	-3045990
 2649 0508 9BE70A00 		.word	714651
 2650 050c 404E2600 		.word	2510400
 2651 0510 7AF96401 		.word	23394682
 2652 0514 1E1361FF 		.word	-10415330
ARM GAS  C:\Users\NIGHDR~1\AppData\Local\Temp\ccrnUt9g.s 			page 59


 2653 0518 3E5BF901 		.word	33119038
 2654 051c F8854D00 		.word	5080568
 2655 0520 C53FA8FE 		.word	-22528059
 2656 0524 740A5200 		.word	5376628
 2657 0528 B8EC71FE 		.word	-26088264
 2658 052c D4CBC2FF 		.word	-4011052
 2659 0530 3D64FCFE 		.word	-17013699
 2660 0534 2405CAFF 		.word	-3537628
 2661 0538 775B99FF 		.word	-6726793
 2662 053c 814F1D00 		.word	1920897
 2663 0540 6767ABFE 		.word	-22321305
 2664 0544 EDD76FFF 		.word	-9447443
 2665 0548 D8354500 		.word	4535768
 2666 054c EFF01700 		.word	1569007
 2667 0550 C295DDFF 		.word	-2255422
 2668 0554 26E1DE00 		.word	14606630
 2669 0558 E8FFB4FE 		.word	-21692440
 2670 055c 765285FF 		.word	-8039818
 2671 0560 39D1B101 		.word	28430649
 2672 0564 8BE88500 		.word	8775819
 2673 0568 9EB02EFE 		.word	-30494562
 2674 056c C2732E00 		.word	3044290
 2675 0570 58F7E501 		.word	31848280
 2676 0574 1C67BF00 		.word	12543772
 2677 0578 DDDEAFFE 		.word	-22028579
 2678 057c 95EB2C00 		.word	2943893
 2679 0580 97E419FE 		.word	-31857513
 2680 0584 DA696700 		.word	6777306
 2681 0588 8E55D200 		.word	13784462
 2682 058c 9581BEFF 		.word	-4292203
 2683 0590 D5415EFE 		.word	-27377195
 2684 0594 7586E0FF 		.word	-2062731
 2685 0598 52C67500 		.word	7718482
 2686 059c 9DDDDC00 		.word	14474653
 2687 05a0 A3652400 		.word	2385315
 2688 05a4 C5722500 		.word	2454213
 2689 05a8 68ACA6FE 		.word	-22631320
 2690 05ac 0BB60000 		.word	46603
 2691 05b0 5148BCFF 		.word	-4437935
 2692 05b4 61BC10FF 		.word	-15680415
 2693 05b8 45060A00 		.word	656965
 2694 05bc C79391FF 		.word	-7236665
 2695 05c0 08097301 		.word	24316168
 2696 05c4 41D6AFFF 		.word	-5253567
 2697 05c8 D9ADD100 		.word	13741529
 2698 05cc 507FA600 		.word	10911568
 2699 05d0 F7E504FE 		.word	-33233417
 2700 05d4 A7B77CFF 		.word	-8603737
 2701 05d8 5A1CCCFE 		.word	-20177830
 2702 05dc AF3BF0FF 		.word	-1033297
 2703 05e0 0B29F801 		.word	33040651
 2704 05e4 6C2833FF 		.word	-13424532
 2705 05e8 90B1C3FE 		.word	-20729456
 2706 05ec 96FA7E00 		.word	8321686
 2707 05f0 8A5B4101 		.word	21060490
 2708 05f4 783CDEFF 		.word	-2212744
 2709 05f8 F5C1EF00 		.word	15712757
ARM GAS  C:\Users\NIGHDR~1\AppData\Local\Temp\ccrnUt9g.s 			page 60


 2710 05fc 1DD6BDFF 		.word	-4336099
 2711 0600 80021900 		.word	1639040
 2712 0604 509AA200 		.word	10656336
 2713 0608 4DDC6B01 		.word	23845965
 2714 060c EACD4AFF 		.word	-11874838
 2715 0610 36A667FF 		.word	-9984458
 2716 0614 74480900 		.word	608372
 2717 0618 E45E2FFF 		.word	-13672732
 2718 061c 1EC819FF 		.word	-15087586
 2719 0620 23D659FF 		.word	-10889693
 2720 0624 3DB08CFF 		.word	-7557059
 2721 0628 53E2A3FF 		.word	-6036909
 2722 062c 4B82AC00 		.word	11305547
 2723 0630 80261100 		.word	1123968
 2724 0634 5F8998FF 		.word	-6780577
 2725 0638 D77C9F01 		.word	27229399
 2726 063c 4F5D0000 		.word	23887
 2727 0640 94529DFE 		.word	-23244140
 2728 0644 C382FBFF 		.word	-294205
 2729 0648 28CA4CFF 		.word	-11744728
 2730 064c FB7EE000 		.word	14712571
 2731 0650 9D633EFE 		.word	-29465699
 2732 0654 CF07E1FF 		.word	-2029617
 2733 0658 6044C300 		.word	12797024
 2734 065c 8CBA9DFF 		.word	-6440308
 2735 0660 8313E7FF 		.word	-1633405
 2736 0664 2A80FE00 		.word	16678954
 2737 0668 34DB3DFE 		.word	-29500620
 2738 066c 66CB4800 		.word	4770662
 2739 0670 8D070BFF 		.word	-16054387
 2740 0674 BAA4D500 		.word	14001338
 2741 0678 1F7A7700 		.word	7830047
 2742 067c 85F29100 		.word	9564805
 2743 0680 D0FCE8FF 		.word	-1508144
 2744 0684 5BD5B6FF 		.word	-4795045
 2745 0688 8F04FAFE 		.word	-17169265
 2746 068c F9D74A00 		.word	4904953
 2747 0690 A51E6F01 		.word	24059557
 2748 0694 AB09DF00 		.word	14617003
 2749 0698 E57B2201 		.word	19037157
 2750 069c 5C821AFF 		.word	-15039908
 2751 06a0 4D9B2D01 		.word	19766093
 2752 06a4 C38B1CFF 		.word	-14906429
 2753 06a8 3BE04E00 		.word	5169211
 2754 06ac 8811F700 		.word	16191880
 2755 06b0 6C792000 		.word	2128236
 2756 06b4 4FFABDFF 		.word	-4326833
 2757 06b8 60E3FCFE 		.word	-16981152
 2758 06bc 26F13E00 		.word	4124966
 2759 06c0 3EAE7DFF 		.word	-8540610
 2760 06c4 9B6F5DFF 		.word	-10653797
 2761 06c8 0AE6CE01 		.word	30336522
 2762 06cc 61C528FF 		.word	-14105247
 2763 06d0 003139FE 		.word	-29806336
 2764 06d4 41FA0D00 		.word	916033
 2765 06d8 12FB96FF 		.word	-6882542
 2766 06dc DC6DD2FF 		.word	-2986532
ARM GAS  C:\Users\NIGHDR~1\AppData\Local\Temp\ccrnUt9g.s 			page 61


 2767 06e0 05AEA6FE 		.word	-22630907
 2768 06e4 2C81BD00 		.word	12419372
 2769 06e8 EB2393FF 		.word	-7134229
 2770 06ec 25F78DFF 		.word	-7473371
 2771 06f0 488D04FF 		.word	-16478904
 2772 06f4 676BFF00 		.word	16739175
 2773 06f8 F75A0400 		.word	285431
 2774 06fc 352C2A00 		.word	2763829
 2775 0700 021EF000 		.word	15736322
 2776 0704 043B3F00 		.word	4143876
 2777 0708 584E2400 		.word	2379352
 2778 070c 71A7B400 		.word	11839345
 2779 0710 BE47C1FF 		.word	-4110402
 2780 0714 C79EA4FF 		.word	-5988665
 2781 0718 3A08AC00 		.word	11274298
 2782 071c 4D210C00 		.word	794957
 2783 0720 413F0300 		.word	212801
 2784 0724 994D21FF 		.word	-14594663
 2785 0728 ACFE6601 		.word	23527084
 2786 072c E4DD04FF 		.word	-16458268
 2787 0730 571EFE01 		.word	33431127
 2788 0734 922956FF 		.word	-11130478
 2789 0738 8ACCEFFE 		.word	-17838966
 2790 073c 6C8D11FF 		.word	-15626900
 2791 0740 BBF28700 		.word	8909499
 2792 0744 D2D07F00 		.word	8376530
 2793 0748 442D0EFE 		.word	-32625340
 2794 074c 49603E00 		.word	4087881
 2795 0750 513C18FF 		.word	-15188911
 2796 0754 AA0624FF 		.word	-14416214
 2797 0758 03F91A00 		.word	1767683
 2798 075c 23D56D00 		.word	7197987
 2799 0760 168136FF 		.word	-13205226
 2800 0764 1523E1FF 		.word	-2022635
 2801 0768 EA3D38FF 		.word	-13091350
 2802 076c 3AD90600 		.word	448826
 2803 0770 8F7C5800 		.word	5799055
 2804 0774 EC7E4200 		.word	4357868
 2805 0778 D126B7FF 		.word	-4774191
 2806 077c 22EE06FF 		.word	-16323038
 2807 0780 AE916600 		.word	6721966
 2808 0784 5F16D300 		.word	13833823
 2809 0788 C40F99FE 		.word	-23523388
 2810 078c 2E54E8FF 		.word	-1551314
 2811 0790 75229201 		.word	26354293
 2812 0794 E7FA4AFF 		.word	-11863321
 2813 0798 1B866401 		.word	23365147
 2814 079c 5CBBC3FF 		.word	-3949732
 2815 07a0 AAC67000 		.word	7390890
 2816 07a4 781C2A00 		.word	2759800
 2817 07a8 D1464300 		.word	4409041
 2818 07ac 1D511F00 		.word	2052381
 2819 07b0 1DA86401 		.word	23373853
 2820 07b4 A9ADA000 		.word	10530217
 2821 07b8 6B237500 		.word	7676779
 2822 07bc 3E603BFF 		.word	-12885954
 2823 07c0 510C4501 		.word	21302353
ARM GAS  C:\Users\NIGHDR~1\AppData\Local\Temp\ccrnUt9g.s 			page 62


 2824 07c4 87EFBEFF 		.word	-4264057
 2825 07c8 DCFC1200 		.word	1244380
 2826 07cc A3DC3AFF 		.word	-12919645
 2827 07d0 8989BCFF 		.word	-4421239
 2828 07d4 53666D00 		.word	7169619
 2829 07d8 60064C00 		.word	4982368
 2830 07dc EADED2FF 		.word	-2957590
 2831 07e0 B9AECD01 		.word	30256825
 2832 07e4 3C9ED5FF 		.word	-2777540
 2833 07e8 0DF1D600 		.word	14086413
 2834 07ec AC818C00 		.word	9208236
 2835 07f0 5D68F200 		.word	15886429
 2836 07f4 C09CFB00 		.word	16489664
 2837 07f8 2B751E00 		.word	1996075
 2838 07fc E1519E00 		.word	10375649
 2839 0800 7FE8DA00 		.word	14346367
 2840 0804 E21CCB00 		.word	13311202
 2841 0808 E91B97FF 		.word	-6874135
 2842 080c 752B05FF 		.word	-16438411
 2843 0810 F20E2FFF 		.word	-13693198
 2844 0814 21140600 		.word	398369
 2845 0818 89FB2CFE 		.word	-30606455
 2846 081c 1B1FF5FF 		.word	-712933
 2847 0820 B7D67DFE 		.word	-25307465
 2848 0824 28799500 		.word	9795880
 2849 0828 BA9ED5FF 		.word	-2777414
 2850 082c 5908E300 		.word	14878809
 2851 0830 455800FE 		.word	-33531835
 2852 0834 CB87E100 		.word	14780363
 2853 0838 C9AECB00 		.word	13348553
 2854 083c 9347B800 		.word	12076947
 2855 0840 127929FE 		.word	-30836462
 2856 0844 5E054E00 		.word	5113182
 2857 0848 E0D6F0FE 		.word	-17770784
 2858 084c 2405B400 		.word	11797796
 2859 0850 FB87E701 		.word	31950843
 2860 0854 A38AD400 		.word	13929123
 2861 0858 D2F974FE 		.word	-25888302
 2862 085c 5881BB00 		.word	12288344
 2863 0860 130831FE 		.word	-30341101
 2864 0864 3E0E90FF 		.word	-7336386
 2865 0868 9F4CD300 		.word	13847711
 2866 086c D6335200 		.word	5387222
 2867 0870 6D75E4FE 		.word	-18582163
 2868 0874 67DFCBFF 		.word	-3416217
 2869 0878 4BFC0F01 		.word	17824843
 2870 087c 9A47DCFF 		.word	-2340966
 2871 0880 170D5B01 		.word	22744343
 2872 0884 8DA860FF 		.word	-10442611
 2873 0888 B5B68500 		.word	8763061
 2874 088c FA333700 		.word	3617786
 2875 0890 EAEAD4FE 		.word	-19600662
 2876 0894 AF3F9E00 		.word	10370991
 2877 0898 27F03401 		.word	20246567
 2878 089c 9EBD24FF 		.word	-14369378
 2879 08a0 D5285501 		.word	22358229
 2880 08a4 20B4F7FF 		.word	-543712
ARM GAS  C:\Users\NIGHDR~1\AppData\Local\Temp\ccrnUt9g.s 			page 63


 2881 08a8 13661A01 		.word	18507283
 2882 08ac 541861FF 		.word	-10413996
 2883 08b0 4515DE00 		.word	14554437
 2884 08b4 948B7AFF 		.word	-8746092
 2885 08b8 DCD5EB01 		.word	32232924
 2886 08bc E8CBFF00 		.word	16763880
 2887 08c0 79399300 		.word	9648505
 2888 08c4 E3079A00 		.word	10094563
 2889 08c8 35169301 		.word	26416693
 2890 08cc 4801E100 		.word	14745928
 2891 08d0 528630FE 		.word	-30374318
 2892 08d4 533C9DFF 		.word	-6472621
 2893 08d8 9148A900 		.word	11094161
 2894 08dc 2267EF00 		.word	15689506
 2895 08e0 C6E92F00 		.word	3140038
 2896 08e4 741304FF 		.word	-16510092
 2897 08e8 B86A09FF 		.word	-16160072
 2898 08ec B7815300 		.word	5472695
 2899 08f0 24B0E601 		.word	31895588
 2900 08f4 22674800 		.word	4744994
 2901 08f8 DBA28600 		.word	8823515
 2902 08fc F52A9E00 		.word	10365685
 2903 0900 209560FE 		.word	-27224800
 2904 0904 A52C9000 		.word	9448613
 2905 0908 CAEF48FE 		.word	-28774454
 2906 090c D7960500 		.word	366295
 2907 0910 2A422401 		.word	19153450
 2908 0914 84D7AF00 		.word	11523972
 2909 0918 56AE56FF 		.word	-11096490
 2910 091c 1AC59CFF 		.word	-6503142
 2911 0920 31E887FE 		.word	-24647631
 2912 0924 67B65200 		.word	5420647
 2913 0928 FD80B001 		.word	28344573
 2914 092c 99B27A00 		.word	8041113
 2915 0930 F5FA0A00 		.word	719605
 2916 0934 EC18B200 		.word	11671788
 2917 0938 896A8400 		.word	8678025
 2918 093c 281D2900 		.word	2694440
 2919 0940 321E98FF 		.word	-6808014
 2920 0944 7C692600 		.word	2517372
 2921 0948 E6BF4B00 		.word	4964326
 2922 094c 8F2BAA00 		.word	11152271
 2923 0950 2C8314FF 		.word	-15432916
 2924 0954 2C0D17FF 		.word	-15266516
 2925 0958 EDFF9B01 		.word	27000813
 2926 095c 9F6D64FF 		.word	-10195553
 2927 0960 70B518FF 		.word	-15157904
 2928 0964 68DC6C00 		.word	7134312
 2929 0968 37D38300 		.word	8639287
 2930 096c 630CD5FF 		.word	-2814877
 2931 0970 989791FF 		.word	-7235688
 2932 0974 EE059F00 		.word	10421742
 2933 0978 619B0800 		.word	564065
 2934 097c 216C5100 		.word	5336097
 2935 0980 01036700 		.word	6750977
 2936 0984 3E6D22FF 		.word	-14521026
 2937 0988 FA9BB400 		.word	11836410
ARM GAS  C:\Users\NIGHDR~1\AppData\Local\Temp\ccrnUt9g.s 			page 64


 2938 098c 2047C3FF 		.word	-3979488
 2939 0990 26469101 		.word	26297894
 2940 0994 9F5FF500 		.word	16080799
 2941 0998 45E56501 		.word	23455045
 2942 099c 881CF000 		.word	15735944
 2943 09a0 4FE01900 		.word	1695823
 2944 09a4 4E6E79FF 		.word	-8819122
 2945 09a8 F8A87C00 		.word	8169720
 2946 09ac BB80F700 		.word	16220347
 2947 09b0 0293EBFE 		.word	-18115838
 2948 09b4 4F0B8400 		.word	8653647
 2949 09b8 463A0C01 		.word	17578566
 2950 09bc B508A3FF 		.word	-6092619
 2951 09c0 4F8985FF 		.word	-8025777
 2952 09c4 25AA0BFF 		.word	-16012763
 2953 09c8 8DF355FF 		.word	-11144307
 2954 09cc B0E7D7FF 		.word	-2627664
 2955 09d0 CC96A4FF 		.word	-5990708
 2956 09d4 EFD727FF 		.word	-14166033
 2957 09d8 2E579CFE 		.word	-23308498
 2958 09dc 08A358FF 		.word	-10968312
 2959 09e0 AC22E800 		.word	15213228
 2960 09e4 422C66FF 		.word	-10081214
 2961 09e8 1B3629FE 		.word	-30853605
 2962 09ec EC6357FF 		.word	-11050004
 2963 09f0 297BA901 		.word	27884329
 2964 09f4 34722B00 		.word	2847284
 2965 09f8 75862800 		.word	2655861
 2966 09fc 9B861A00 		.word	1738395
 2967 0a00 E7CF5BFE 		.word	-27537433
 2968 0a04 238426FF 		.word	-14253021
 2969 0a08 13667DFE 		.word	-25336301
 2970 0a0c 24E385FF 		.word	-8002780
 2971 0a10 760371FF 		.word	-9370762
 2972 0a14 1D0D7C00 		.word	8129821
 2973 0a18 98604A01 		.word	21651608
 2974 0a1c 5892CEFF 		.word	-3239336
 2975 0a20 A7BFDCFE 		.word	-19087449
 2976 0a24 A21258FF 		.word	-11005278
 2977 0a28 B6641700 		.word	1533110
 2978 0a2c 1F753400 		.word	3437855
 2979 0a30 512E6A01 		.word	23735889
 2980 0a34 0C020700 		.word	459276
 2981 0a38 4550C901 		.word	29970501
 2982 0a3c D1F6AC00 		.word	11335377
 2983 0a40 0C308D01 		.word	26030092
 2984 0a44 E0D35800 		.word	5821408
 2985 0a48 74E29F00 		.word	10478196
 2986 0a4c 7A628200 		.word	8544890
 2987 0a50 41ECEA01 		.word	32173121
 2988 0a54 E1E209FF 		.word	-16129311
 2989 0a58 CFE27B01 		.word	24896207
 2990 0a5c 59D63B00 		.word	3921497
 2991 0a60 70875801 		.word	22579056
 2992 0a64 5AF4CBFF 		.word	-3410854
 2993 0a68 310B2601 		.word	19270449
 2994 0a6c 816CBA00 		.word	12217473
ARM GAS  C:\Users\NIGHDR~1\AppData\Local\Temp\ccrnUt9g.s 			page 65


 2995 0a70 59700F01 		.word	17789017
 2996 0a74 652ECCFF 		.word	-3395995
 2997 0a78 7FCC2DFE 		.word	-30552961
 2998 0a7c 4FFFDDFF 		.word	-2228401
 2999 0a80 334912FF 		.word	-15578829
 3000 0a84 7F2A65FF 		.word	-10147201
 3001 0a88 F115CA00 		.word	13243889
 3002 0a8c A0E30700 		.word	517024
 3003 0a90 6932EC00 		.word	15479401
 3004 0a94 4F34C5FF 		.word	-3853233
 3005 0a98 68CAD001 		.word	30460520
 3006 0a9c B40F1000 		.word	1052596
 3007 0aa0 65C54EFF 		.word	-11614875
 3008 0aa4 624DCB00 		.word	13323618
 3009 0aa8 29B9F101 		.word	32618793
 3010 0aac 23C17C00 		.word	8175907
 3011 0ab0 239B17FF 		.word	-15230173
 3012 0ab4 CF35C000 		.word	12596687
 3013 0ab8 0B7DA301 		.word	27491595
 3014 0abc F99EB9FF 		.word	-4612359
 3015 0ac0 04833000 		.word	3179268
 3016 0ac4 155D6FFF 		.word	-9478891
 3017 0ac8 3D79E701 		.word	31947069
 3018 0acc 45C824FF 		.word	-14366651
 3019 0ad0 B930B9FF 		.word	-4640583
 3020 0ad4 6FEE15FF 		.word	-15339921
 3021 0ad8 273219FF 		.word	-15125977
 3022 0adc 63D7A3FF 		.word	-6039709
 3023 0ae0 57D41EFF 		.word	-14756777
 3024 0ae4 A49305FF 		.word	-16411740
 3025 0ae8 80062301 		.word	19072640
 3026 0aec 6CDF6EFF 		.word	-9511060
 3027 0af0 C24CB200 		.word	11685058
 3028 0af4 4A65B400 		.word	11822410
 3029 0af8 F32F3000 		.word	3158003
 3030 0afc AE192BFF 		.word	-13952594
 3031 0b00 52ADFD01 		.word	33402194
 3032 0b04 3672C0FF 		.word	-4165066
 3033 0b08 28375B00 		.word	5977896
 3034 0b0c D76CB0FF 		.word	-5215017
 3035 0b10 0B380700 		.word	473099
 3036 0b14 E0E94C00 		.word	5040608
 3037 0b18 D162CAFE 		.word	-20290863
 3038 0b1c F2197D00 		.word	8198642
 3039 0b20 2CC15DFE 		.word	-27410132
 3040 0b24 CB08B100 		.word	11602123
 3041 0b28 87B01300 		.word	1290375
 3042 0b2c 7047D5FF 		.word	-2799760
 3043 0b30 CE3BB001 		.word	28326862
 3044 0b34 04431A00 		.word	1721092
 3045 0b38 0E8FD5FE 		.word	-19558642
 3046 0b3c 2A37D0FF 		.word	-3131606
 3047 0b40 3C437800 		.word	7881532
 3048 0b44 C115A300 		.word	10687937
 3049 0b48 63A47300 		.word	7578723
 3050 0b4c 0A147600 		.word	7738378
 3051 0b50 9CD4DEFE 		.word	-18951012
ARM GAS  C:\Users\NIGHDR~1\AppData\Local\Temp\ccrnUt9g.s 			page 66


 3052 0b54 A007D9FF 		.word	-2553952
 3053 0b58 72F54C01 		.word	21820786
 3054 0b5c 753B7B00 		.word	8076149
 3055 0b60 B0C256FE 		.word	-27868496
 3056 0b64 D50FB000 		.word	11538389
 3057 0b68 4ECECFFE 		.word	-19935666
 3058 0b6c D5813B00 		.word	3899861
 3059 0b70 E9FB1601 		.word	18283497
 3060 0b74 603798FF 		.word	-6801568
 3061 0b78 ECFF0FFF 		.word	-15728660
 3062 0b7c C55954FF 		.word	-11249211
 3063 0b80 5D958500 		.word	8754525
 3064 0b84 AEA07100 		.word	7446702
 3065 0b88 EA63A9FF 		.word	-5676054
 3066 0b8c 98745800 		.word	5797016
 3067 0b90 90A453FF 		.word	-11295600
 3068 0b94 5F1DC6FF 		.word	-3793569
 3069 0b98 222F0FFF 		.word	-15782110
 3070 0b9c 637886FF 		.word	-7964573
 3071 0ba0 05ECC100 		.word	12708869
 3072 0ba4 F9F77EFF 		.word	-8456199
 3073 0ba8 93BB1E00 		.word	2014099
 3074 0bac 32E675FF 		.word	-9050574
 3075 0bb0 6CD9DBFF 		.word	-2369172
 3076 0bb4 A351A6FF 		.word	-5877341
 3077 0bb8 4819A9FE 		.word	-22472376
 3078 0bbc 9B794FFF 		.word	-11568741
 3079 0bc0 1C9B59FE 		.word	-27682020
 3080 0bc4 077E1100 		.word	1146375
 3081 0bc8 93412101 		.word	18956691
 3082 0bcc 2FEAFD00 		.word	16640559
 3083 0bd0 1A331200 		.word	1192730
 3084 0bd4 6953C7FF 		.word	-3714199
 3085 0bd8 A3C4E600 		.word	15123619
 3086 0bdc 71F8A400 		.word	10811505
 3087 0be0 E2FEDA00 		.word	14352098
 3088 0be4 BDD1CBFF 		.word	-3419715
 3089 0be8 A4F7DEFE 		.word	-18942044
 3090 0bec FF23A500 		.word	10822655
 3091 0bf0 04BCF301 		.word	32750596
 3092 0bf4 7FB34700 		.word	4699007
 3093 0bf8 25EDFEFF 		.word	-70363
 3094 0bfc 64BAF000 		.word	15776356
 3095 0c00 053947FE 		.word	-28886779
 3096 0c04 674849FF 		.word	-11974553
 3097 0c08 F41251FE 		.word	-28241164
 3098 0c0c E5D284FF 		.word	-8072475
 3099 0c10 EE06B4FF 		.word	-4978962
 3100 0c14 0BE5AEFF 		.word	-5315317
 3101 0c18 E3DDC001 		.word	29416931
 3102 0c1c 11311C00 		.word	1847569
 3103 0c20 A3D7C4FE 		.word	-20654173
 3104 0c24 097604FF 		.word	-16484855
 3105 0c28 33F04700 		.word	4714547
 3106 0c2c 71816DFF 		.word	-9600655
 3107 0c30 4CF0E700 		.word	15200332
 3108 0c34 BCB17F00 		.word	8368572
ARM GAS  C:\Users\NIGHDR~1\AppData\Local\Temp\ccrnUt9g.s 			page 67


 3109 0c38 7D472C01 		.word	19679101
 3110 0c3c 1AAFF300 		.word	15970074
 3111 0c40 5EA919FE 		.word	-31872674
 3112 0c44 1BE61D00 		.word	1959451
 3113 0c48 0F8B7701 		.word	24611599
 3114 0c4c A8AABAFF 		.word	-4543832
 3115 0c50 ACC54CFF 		.word	-11745876
 3116 0c54 FC4BBC00 		.word	12340220
 3117 0c58 897CC400 		.word	12876937
 3118 0c5c 481660FF 		.word	-10480056
 3119 0c60 2D97F901 		.word	33134381
 3120 0c64 DC916400 		.word	6590940
 3121 0c68 40C09FFF 		.word	-6307776
 3122 0c6c 78EFE200 		.word	14872440
 3123 0c70 81B29200 		.word	9613953
 3124 0c74 00C07D00 		.word	8241152
 3125 0c78 EB8AEA00 		.word	15370987
 3126 0c7c B79D9200 		.word	9608631
 3127 0c80 53C7C0FF 		.word	-4143277
 3128 0c84 B8AC48FF 		.word	-12014408
 3129 0c88 49E18000 		.word	8446281
 3130 0c8c 4D06FAFF 		.word	-391603
 3131 0c90 BA414300 		.word	4407738
 3132 0c94 68F6CF00 		.word	13629032
 3133 0c98 BC208AFF 		.word	-7724868
 3134 0c9c DA18F200 		.word	15866074
 3135 0ca0 438A51FE 		.word	-28210621
 3136 0ca4 ED8179FF 		.word	-8814099
 3137 0ca8 14CF9601 		.word	26660628
 3138 0cac 29C710FF 		.word	-15677655
 3139 0cb0 06148000 		.word	8393734
 3140 0cb4 9F760500 		.word	358047
 3141 0cb8 B5108FFF 		.word	-7401291
 3142 0cbc DC260F00 		.word	992988
 3143 0cc0 174093FE 		.word	-23904233
 3144 0cc4 491A0D00 		.word	858697
 3145 0cc8 57E43901 		.word	20571223
 3146 0ccc CC7C8000 		.word	8420556
 3147 0cd0 2B18DF00 		.word	14620715
 3148 0cd4 DB63C700 		.word	13067227
 3149 0cd8 164B14FF 		.word	-15447274
 3150 0cdc 131B7E00 		.word	8264467
 3151 0ce0 9D3ED700 		.word	14106269
 3152 0ce4 6E1DE600 		.word	15080814
 3153 0ce8 B3A7FF01 		.word	33531827
 3154 0cec 36FCBE00 		.word	12516406
 3155 0cf0 DDCCB6FE 		.word	-21574435
 3156 0cf4 B39E41FF 		.word	-12476749
 3157 0cf8 519D0300 		.word	236881
 3158 0cfc C2DA9F00 		.word	10476226
 3159 0d00 AADF0000 		.word	57258
 3160 0d04 E00B20FF 		.word	-14677024
 3161 0d08 26C56200 		.word	6472998
 3162 0d0c A8A42500 		.word	2466984
 3163 0d10 17580701 		.word	17258519
 3164 0d14 A4BA6E00 		.word	7256740
 3165 0d18 60248600 		.word	8791136
ARM GAS  C:\Users\NIGHDR~1\AppData\Local\Temp\ccrnUt9g.s 			page 68


 3166 0d1c EAF2E500 		.word	15069930
 3167 0d20 FA791300 		.word	1276410
 3168 0d24 F2FE70FF 		.word	-9371918
 3169 0d28 032F5E01 		.word	22949635
 3170 0d2c 09EF06FF 		.word	-16322807
 3171 0d30 518699FE 		.word	-23493039
 3172 0d34 D6FDA8FF 		.word	-5702186
 3173 0d38 437CE000 		.word	14711875
 3174 0d3c F55F4A00 		.word	4874229
 3175 0d40 1C1E2CFE 		.word	-30663140
 3176 0d44 016DDCFF 		.word	-2331391
 3177 0d48 B2595900 		.word	5855666
 3178 0d4c FC244C00 		.word	4990204
 3179 0d50 18C62EFF 		.word	-13711848
 3180 0d54 4C4D6F00 		.word	7294284
 3181 0d58 86EA88FF 		.word	-7804282
 3182 0d5c 275E1D00 		.word	1924647
 3183 0d60 B948EAFF 		.word	-1423175
 3184 0d64 464487FF 		.word	-7912378
 3185 0d68 E76607FE 		.word	-33069337
 3186 0d6c 4DE78C00 		.word	9234253
 3187 0d70 A72F3A01 		.word	20590503
 3188 0d74 946176FF 		.word	-9018988
 3189 0d78 101BE101 		.word	31529744
 3190 0d7c A6CE8FFF 		.word	-7352666
 3191 0d80 6EB2D6FF 		.word	-2706834
 3192 0d84 B483A200 		.word	10650548
 3193 0d88 8F8DE101 		.word	31559055
 3194 0d8c 0DDA4EFF 		.word	-11609587
 3195 0d90 72992101 		.word	18979186
 3196 0d94 6268CC00 		.word	13396066
 3197 0d98 AF727501 		.word	24474287
 3198 0d9c A7CE4B00 		.word	4968103
 3199 0da0 CAC45301 		.word	22267082
 3200 0da4 3A404300 		.word	4407354
 3201 0da8 8A2F6F01 		.word	24063882
 3202 0dac C4F780FF 		.word	-8325180
 3203 0db0 89E0E0FE 		.word	-18816887
 3204 0db4 9E70CF00 		.word	13594782
 3205 0db8 9A64FF01 		.word	33514650
 3206 0dbc 86256B00 		.word	7021958
 3207 0dc0 C6804FFF 		.word	-11566906
 3208 0dc4 7FD19BFF 		.word	-6565505
 3209 0dc8 A3FEB9FE 		.word	-21365085
 3210 0dcc 3C0EF300 		.word	15928892
 3211 0dd0 1FDB70FE 		.word	-26158305
 3212 0dd4 1DD94100 		.word	4315421
 3213 0dd8 C80D74FE 		.word	-25948728
 3214 0ddc 7B3CC4FF 		.word	-3916677
 3215 0de0 E03BB8FE 		.word	-21480480
 3216 0de4 F259C400 		.word	12868082
 3217 0de8 7B104BFE 		.word	-28635013
 3218 0dec 9510CE00 		.word	13504661
 3219 0df0 45FE3001 		.word	19988037
 3220 0df4 E774DFFF 		.word	-2132761
 3221 0df8 D1A04101 		.word	21078225
 3222 0dfc C8506200 		.word	6443208
ARM GAS  C:\Users\NIGHDR~1\AppData\Local\Temp\ccrnUt9g.s 			page 69


 3223 0e00 25C2B8FE 		.word	-21446107
 3224 0e04 943F2200 		.word	2244500
 3225 0e08 8BF041FF 		.word	-12455797
 3226 0e0c D99084FF 		.word	-8089383
 3227 0e10 38262DFE 		.word	-30595528
 3228 0e14 C778D200 		.word	13793479
 3229 0e18 6CB1A6FF 		.word	-5852820
 3230 0e1c A0DE0400 		.word	319136
 3231 0e20 DC7E77FE 		.word	-25723172
 3232 0e24 A56BA0FF 		.word	-6263899
 3233 0e28 52DCF801 		.word	33086546
 3234 0e2c F1AF8800 		.word	8957937
 3235 0e30 908D17FF 		.word	-15233648
 3236 0e34 A98A5400 		.word	5540521
 3237 0e38 A0894EFF 		.word	-11630176
 3238 0e3c E27650FF 		.word	-11503902
 3239 0e40 341B84FF 		.word	-8119500
 3240 0e44 3F608BFF 		.word	-7643073
 3241 0e48 98FA2700 		.word	2620056
 3242 0e4c BC9B0F00 		.word	1022908
 3243 0e50 E83396FE 		.word	-23710744
 3244 0e54 280FE8FF 		.word	-1568984
 3245 0e58 F0E509FF 		.word	-16128528
 3246 0e5c 89AF1BFF 		.word	-14962807
 3247 0e60 4B496101 		.word	23152971
 3248 0e64 DAD40B00 		.word	775386
 3249 0e68 8705A201 		.word	27395463
 3250 0e6c 6BB9D500 		.word	14006635
 3251 0e70 02F96BFF 		.word	-9701118
 3252 0e74 28F24600 		.word	4649512
 3253 0e78 DBC81900 		.word	1689819
 3254 0e7c 199D0D00 		.word	892185
 3255 0e80 435250FF 		.word	-11513277
 3256 0e84 C4F917FF 		.word	-15205948
 3257 0e88 91149500 		.word	9770129
 3258 0e8c 32489200 		.word	9586738
 3259 0e90 5E4C9401 		.word	26496094
 3260 0e94 18FB4100 		.word	4324120
 3261 0e98 1FC01700 		.word	1556511
 3262 0e9c B8D4C9FF 		.word	-3550024
 3263 0ea0 7BE9A201 		.word	27453819
 3264 0ea4 F7AD4800 		.word	4763127
 3265 0ea8 A257DBFE 		.word	-19179614
 3266 0eac 7E865900 		.word	5867134
 3267 0eb0 9F0B0CFE 		.word	-32765025
 3268 0eb4 A6691D00 		.word	1927590
 3269 0eb8 491BE401 		.word	31726409
 3270 0ebc 7178B7FF 		.word	-4753295
 3271 0ec0 42A36D01 		.word	23962434
 3272 0ec4 D48F0BFF 		.word	-16019500
 3273 0ec8 9FE7A801 		.word	27846559
 3274 0ecc FF805A00 		.word	5931263
 3275 0ed0 390E3AFE 		.word	-29749703
 3276 0ed4 59340AFF 		.word	-16108455
 3277 0ed8 FD08A301 		.word	27461885
 3278 0edc 0091D2FF 		.word	-2977536
 3279 0ee0 0A815501 		.word	22380810
ARM GAS  C:\Users\NIGHDR~1\AppData\Local\Temp\ccrnUt9g.s 			page 70


 3280 0ee4 2EB51B00 		.word	1815854
 3281 0ee8 6788A0FE 		.word	-23033753
 3282 0eec 7EBCD1FF 		.word	-3031938
 3283 0ef0 22236F00 		.word	7283490
 3284 0ef4 D7DB18FF 		.word	-15148073
 3285 0ef8 D40BD6FE 		.word	-19526700
 3286 0efc 65057600 		.word	7734629
 3287 0f00 E8C585FF 		.word	-8010264
 3288 0f04 DFA76DFF 		.word	-9590817
 3289 0f08 ED5056FF 		.word	-11120403
 3290 0f0c 468B5E00 		.word	6196038
 3291 0f10 9EC1BF01 		.word	29344158
 3292 0f14 9B0F33FF 		.word	-13430885
 3293 0f18 0FBE7300 		.word	7585295
 3294 0f1c 4E87CFFF 		.word	-3176626
 3295 0f20 F90A1B01 		.word	18549497
 3296 0f24 B57DE900 		.word	15302069
 3297 0f28 5FAC0DFE 		.word	-32658337
 3298 0f2c AAD5A1FF 		.word	-6171222
 3299 0f30 27EC8AFF 		.word	-7672793
 3300 0f34 5F5D57FF 		.word	-11051681
 3301 0f38 BE805F00 		.word	6258878
 3302 0f3c 7D0FCE00 		.word	13504381
 3303 0f40 A6969F00 		.word	10458790
 3304 0f44 E30F9EFF 		.word	-6418461
 3305 0f48 CE9E78FF 		.word	-8872242
 3306 0f4c 2A8D8000 		.word	8424746
 3307 0f50 65B27801 		.word	24687205
 3308 0f54 9C6D8300 		.word	8613276
 3309 0f58 DA0E2CFE 		.word	-30667046
 3310 0f5c F7A8CEFF 		.word	-3233545
 3311 0f60 D4701C00 		.word	1863892
 3312 0f64 7011E4FF 		.word	-1830544
 3313 0f68 5A102501 		.word	19206234
 3314 0f6c C5DE6C00 		.word	7134917
 3315 0f70 FECF53FF 		.word	-11284482
 3316 0f74 095AF3FF 		.word	-828919
 3317 0f78 F3F4AC00 		.word	11334899
 3318 0f7c 1A5873FF 		.word	-9218022
 3319 0f80 CD747A00 		.word	8025293
 3320 0f84 BFE6C100 		.word	12707519
 3321 0f88 B4640B01 		.word	17523892
 3322 0f8c D92560FF 		.word	-10476071
 3323 0f90 9A4E9C00 		.word	10243738
 3324 0f94 EBEA1FFF 		.word	-14685461
 3325 0f98 CEB2B2FF 		.word	-5066034
 3326 0f9c 95C0FB00 		.word	16498837
 3327 0fa0 B6FA8700 		.word	8911542
 3328 0fa4 F6166900 		.word	6887158
 3329 0fa8 7CC16DFF 		.word	-9584260
 3330 0fac 02D295FF 		.word	-6958590
 3331 0fb0 A911AA00 		.word	11145641
 3332 0fb4 00606EFF 		.word	-9543680
 3333 0fb8 75090801 		.word	17303925
 3334 0fbc 327B28FF 		.word	-14124238
 3335 0fc0 C1BD6300 		.word	6536641
 3336 0fc4 22E3A000 		.word	10543906
ARM GAS  C:\Users\NIGHDR~1\AppData\Local\Temp\ccrnUt9g.s 			page 71


 3337 0fc8 305046FE 		.word	-28946384
 3338 0fcc D333EC00 		.word	15479763
 3339 0fd0 2D7AF5FE 		.word	-17466835
 3340 0fd4 2CAE0800 		.word	568876
 3341 0fd8 AD25E9FF 		.word	-1497683
 3342 0fdc 9E41AB00 		.word	11223454
 3343 0fe0 7A45D7FF 		.word	-2669190
 3344 0fe4 5A5002FF 		.word	-16625574
 3345 0fe8 836A60FE 		.word	-27235709
 3346 0fec E3728700 		.word	8876771
 3347 0ff0 CD3177FE 		.word	-25742899
 3348 0ff4 B03E40FF 		.word	-12566864
 3349 0ff8 523311FF 		.word	-15649966
 3350 0ffc F114F3FF 		.word	-846607
 3351 1000 820D08FE 		.word	-33026686
 3352 1004 80D9F3FF 		.word	-796288
 3353 1008 A21B01FE 		.word	-33481822
 3354 100c 5A76F100 		.word	15824474
 3355 1010 F6C6F6FF 		.word	-604426
 3356 1014 371076FF 		.word	-9039817
 3357 1018 C89F9D00 		.word	10330056
 3358 101c A3110100 		.word	70051
 3359 1020 8C6B7900 		.word	7957388
 3360 1024 55A176FF 		.word	-9002667
 3361 1028 26009500 		.word	9764902
 3362 102c 9C2FEE00 		.word	15609756
 3363 1030 09A6A601 		.word	27698697
 3364 1034 4B62B5FF 		.word	-4890037
 3365 1038 324A1900 		.word	1657394
 3366 103c 420F2F00 		.word	3084098
 3367 1040 8BE19F00 		.word	10477963
 3368 1044 4C038EFF 		.word	-7470260
 3369 1048 0EEEB800 		.word	12119566
 3370 104c 0BCF35FF 		.word	-13250805
 3371 1050 B7C0BA01 		.word	29016247
 3372 1054 AB20AEFF 		.word	-5365589
 3373 1058 BF4CDD01 		.word	31280319
 3374 105c F7AADB00 		.word	14396151
 3375 1060 19AC32FE 		.word	-30233575
 3376 1064 D909E900 		.word	15272409
 3377 1068 CB7E44FF 		.word	-12288309
 3378 106c B75C3000 		.word	3169463
 3379 1070 7FA7B701 		.word	28813183
 3380 1074 4131FE00 		.word	16658753
 3381 1078 103F7F01 		.word	25116432
 3382 107c FE15AAFF 		.word	-5630466
 3383 1080 3BE07FFE 		.word	-25173957
 3384 1084 16303FFF 		.word	-12636138
 3385 1088 1B4E82FE 		.word	-25014757
 3386 108c 28C31D00 		.word	1950504
 3387 1090 FA8470FE 		.word	-26180358
 3388 1094 23CB9000 		.word	9489187
 3389 1098 68A9A800 		.word	11053416
 3390 109c CFFD1EFF 		.word	-14746161
 3391 10a0 682826FE 		.word	-31053720
 3392 10a4 5EE45800 		.word	5825630
 3393 10a8 CE1080FF 		.word	-8384306
ARM GAS  C:\Users\NIGHDR~1\AppData\Local\Temp\ccrnUt9g.s 			page 72


 3394 10ac D4377AFF 		.word	-8767532
 3395 10b0 DF16EA00 		.word	15341279
 3396 10b4 DFC57F00 		.word	8373727
 3397 10b8 FDB5B501 		.word	28685821
 3398 10bc 91667600 		.word	7759505
 3399 10c0 EC9924FF 		.word	-14378516
 3400 10c4 D4D948FF 		.word	-12002860
 3401 10c8 142618FE 		.word	-31971820
 3402 10cc 8A3E3E00 		.word	4079242
 3403 10d0 988C0400 		.word	298136
 3404 10d4 E6DC63FF 		.word	-10232602
 3405 10d8 0115D4FF 		.word	-2878207
 3406 10dc 94C9E700 		.word	15190420
 3407 10e0 F47B09FE 		.word	-32932876
 3408 10e4 00ABD200 		.word	13806336
 3409 10e8 333A25FF 		.word	-14337485
 3410 10ec 01FF0EFF 		.word	-15794431
 3411 10f0 F4B791FE 		.word	-24004620
 3412 10f4 00F2A600 		.word	10940928
 3413 10f8 164A8400 		.word	8669718
 3414 10fc 79D82900 		.word	2742393
 3415 1100 5FC372FE 		.word	-26033313
 3416 1104 851897FF 		.word	-6875003
 3417 1108 9CE2E7FF 		.word	-1580388
 3418 110c F7054DFF 		.word	-11729417
 3419 1110 F69473FE 		.word	-25979658
 3420 1114 E15C51FF 		.word	-11445023
 3421 1118 DE50F6FE 		.word	-17411874
 3422 111c AA7B59FF 		.word	-10912854
 3423 1120 4AC78D00 		.word	9291594
 3424 1124 1D1408FF 		.word	-16247779
 3425 1128 8A8846FF 		.word	-12154742
 3426 112c 5D4B5C00 		.word	6048605
 3427 1130 DD9331FE 		.word	-30305315
 3428 1134 347EE200 		.word	14843444
 3429 1138 E57C1700 		.word	1539301
 3430 113c 2E09B500 		.word	11864366
 3431 1140 CD403401 		.word	20201677
 3432 1144 83FE1C00 		.word	1900163
 3433 1148 979ED400 		.word	13934231
 3434 114c 83404E00 		.word	5128323
 3435 1150 CE19AB00 		.word	11213262
 3436 1154 00E68B00 		.word	9168384
 3437 1158 BFFD6EFE 		.word	-26280513
 3438 115c 67F7A700 		.word	11007847
 3439 1160 40282801 		.word	19408960
 3440 1164 2AA5F1FF 		.word	-940758
 3441 1168 3B4BE4FE 		.word	-18592965
 3442 116c 7CF3BDFF 		.word	-4328580
 3443 1170 C45CB2FF 		.word	-5088060
 3444 1174 828C56FF 		.word	-11105150
 3445 1178 8D593801 		.word	20470157
 3446 117c 93C605FF 		.word	-16398701
 3447 1180 CBF89EFE 		.word	-23136053
 3448 1184 90A28D00 		.word	9282192
 3449 1188 0BACE200 		.word	14855179
 3450 118c 822A15FF 		.word	-15390078
ARM GAS  C:\Users\NIGHDR~1\AppData\Local\Temp\ccrnUt9g.s 			page 73


 3451 1190 01A78FFF 		.word	-7362815
 3452 1194 902424FF 		.word	-14408560
 3453 1198 3058A4FE 		.word	-22783952
 3454 119c A8AADC00 		.word	14461608
 3455 11a0 6247D600 		.word	14042978
 3456 11a4 5BD04F00 		.word	5230683
 3457 11a8 9F4CC901 		.word	29969567
 3458 11ac A62AD6FF 		.word	-2741594
 3459 11b0 45FF00FF 		.word	-16711867
 3460 11b4 06807DFF 		.word	-8552442
 3461 11b8 BE018C00 		.word	9175486
 3462 11bc 9253DAFF 		.word	-2468974
 3463 11c0 D7EE4801 		.word	21556951
 3464 11c4 7A7F3500 		.word	3506042
 3465 11c8 BD74A5FF 		.word	-5933891
 3466 11cc 540842FF 		.word	-12449708
 3467 11d0 D603D0FF 		.word	-3144746
 3468 11d4 D56E8500 		.word	8744661
 3469 11d8 C3A82C01 		.word	19704003
 3470 11dc 9EE74500 		.word	4581278
 3471 11e0 A240C8FE 		.word	-20430686
 3472 11e4 5B3A6800 		.word	6830683
 3473 11e8 B63ABBFE 		.word	-21284170
 3474 11ec F9E48800 		.word	8971513
 3475 11f0 CB864CFE 		.word	-28539189
 3476 11f4 63DDE900 		.word	15326563
 3477 11f8 4BFED6FE 		.word	-19464629
 3478 11fc 50459A00 		.word	10110288
 3479 1200 4098F8FE 		.word	-17262528
 3480 1204 EC88CAFF 		.word	-3503892
 3481 1208 9D6999FE 		.word	-23500387
 3482 120c 95AF1400 		.word	1355669
 3483 1210 162313FF 		.word	-15523050
 3484 1214 7C79E900 		.word	15300988
 3485 1218 BAFAC6FE 		.word	-20514118
 3486 121c 84E58B00 		.word	9168260
 3487 1220 8950AEFF 		.word	-5353335
 3488 1224 A57D4400 		.word	4488613
 3489 1228 90CA94FE 		.word	-23803248
 3490 122c EBEFF800 		.word	16314347
 3491 1230 87B87600 		.word	7780487
 3492 1234 655E11FF 		.word	-15638939
 3493 1238 7A4846FE 		.word	-28948358
 3494 123c 45829200 		.word	9601605
 3495 1240 7FDEF801 		.word	33087103
 3496 1244 457F76FF 		.word	-9011387
 3497 1248 1E52D7FE 		.word	-19443170
 3498 124c BC4A13FF 		.word	-15512900
 3499 1250 E5A7C2FE 		.word	-20797467
 3500 1254 751942FF 		.word	-12445323
 3501 1258 41EA38FE 		.word	-29824447
 3502 125c D5169C00 		.word	10229461
 3503 1260 973B5DFE 		.word	-27444329
 3504 1264 2D1C1BFF 		.word	-15000531
 3505 1268 BA7EA4FF 		.word	-5996870
 3506 126c 2006EF00 		.word	15664672
 3507 1270 7F726301 		.word	23294591
ARM GAS  C:\Users\NIGHDR~1\AppData\Local\Temp\ccrnUt9g.s 			page 74


 3508 1274 DB3402FF 		.word	-16632613
 3509 1278 6360A6FE 		.word	-22650781
 3510 127c 3EBE7EFF 		.word	-8470978
 3511 1280 6CDEA801 		.word	27844204
 3512 1284 4BE2AE00 		.word	11461195
 3513 1288 E6E2C700 		.word	13099750
 3514 128c 3C75DAFF 		.word	-2460356
 3515 1290 FCF81401 		.word	18151676
 3516 1294 D6BCCC00 		.word	13417686
 3517 1298 1FC286FE 		.word	-24722913
 3518 129c 7B45C0FF 		.word	-4176517
 3519 12a0 A9AD24FE 		.word	-31150679
 3520 12a4 37625B00 		.word	5988919
 3521 12a8 DF2A66FE 		.word	-26858785
 3522 12ac 89016600 		.word	6685065
 3523 12b0 9D5A1900 		.word	1661597
 3524 12b4 EF7A40FF 		.word	-12551441
 3525 12b8 FC06E900 		.word	15271676
 3526 12bc 073614FF 		.word	-15452665
 3527 12c0 5274AE00 		.word	11433042
 3528 12c4 872536FF 		.word	-13228665
 3529 12c8 0FBA7D00 		.word	8239631
 3530 12cc E370AFFF 		.word	-5279517
 3531 12d0 64B4E1FF 		.word	-1985436
 3532 12d4 2AEDF4FF 		.word	-725718
 3533 12d8 F4ADE2FE 		.word	-18698764
 3534 12dc F8122100 		.word	2167544
 3535 12e0 AB6396FF 		.word	-6921301
 3536 12e4 4AEB32FF 		.word	-13440182
 3537 12e8 755220FE 		.word	-31436171
 3538 12ec 6AA8ED00 		.word	15575146
 3539 12f0 CF6DD001 		.word	30436815
 3540 12f4 E409BA00 		.word	12192228
 3541 12f8 873CA9FE 		.word	-22463353
 3542 12fc B35C8F00 		.word	9395379
 3543 1300 F4AA68FF 		.word	-9917708
 3544 1304 EB2D7CFF 		.word	-8638997
 3545 1308 4663BA00 		.word	12215110
 3546 130c 7589B700 		.word	12028277
 3547 1310 E01FD700 		.word	14098400
 3548 1314 28096400 		.word	6555944
 3549 1318 1A105F01 		.word	23007258
 3550 131c 44D95700 		.word	5757252
 3551 1320 089714FF 		.word	-15427832
 3552 1324 1A643AFF 		.word	-12950502
 3553 1328 B0A5CB01 		.word	30123440
 3554 132c 34764600 		.word	4617780
 3555 1330 0720FEFE 		.word	-16900089
 3556 1334 F4FEF5FF 		.word	-655628
 3557 1338 A790C2FF 		.word	-4026201
 3558 133c 7D7117FF 		.word	-15240835
 3559 1340 B079B500 		.word	11893168
 3560 1344 8854D100 		.word	13718664
 3561 1348 8A061EFF 		.word	-14809462
 3562 134c 59301C00 		.word	1847385
 3563 1350 219B0EFF 		.word	-15819999
 3564 1354 19F09A00 		.word	10154009
ARM GAS  C:\Users\NIGHDR~1\AppData\Local\Temp\ccrnUt9g.s 			page 75


 3565 1358 8DCD6D01 		.word	23973261
 3566 135c 46733EFF 		.word	-12684474
 3567 1360 14286BFE 		.word	-26531820
 3568 1364 8A9AC7FF 		.word	-3695990
 3569 1368 5EDFE2FF 		.word	-1908898
 3570 136c 9DAB2600 		.word	2534301
 3571 1370 A3B119FE 		.word	-31870557
 3572 1374 2D7603FF 		.word	-16550355
 3573 1378 0EDE1701 		.word	18341390
 3574 137c D1BE51FF 		.word	-11419951
 3575 1380 767BE801 		.word	32013174
 3576 1384 0DD565FF 		.word	-10103539
 3577 1388 7B377BFE 		.word	-25479301
 3578 138c 1BF6A500 		.word	10876443
 3579 1390 32634CFF 		.word	-11771086
 3580 1394 8CD620FF 		.word	-14625140
 3581 1398 614143FF 		.word	-12369567
 3582 139c 180C1C00 		.word	1838104
 3583 13a0 AE564E01 		.word	21911214
 3584 13a4 40F76000 		.word	6354752
 3585 13a8 A0874300 		.word	4425632
 3586 13ac 4237F3FF 		.word	-837822
 3587 13b0 93CC60FF 		.word	-10433389
 3588 13b4 1A0621FF 		.word	-14612966
 3589 13b8 62335301 		.word	22229858
 3590 13bc 99D5D0FF 		.word	-3091047
 3591 13c0 02B836FF 		.word	-13191166
 3592 13c4 19DA0B00 		.word	776729
 3593 13c8 3143F6FE 		.word	-17415375
 3594 13cc 129548FF 		.word	-12020462
 3595 13d0 0D194800 		.word	4725005
 3596 13d4 2A4FD600 		.word	14044970
 3597 13d8 2A042601 		.word	19268650
 3598 13dc 1B8B90FF 		.word	-7304421
 3599 13e0 95BB1700 		.word	1555349
 3600 13e4 12A48400 		.word	8692754
 3601 13e8 F554B8FE 		.word	-21474059
 3602 13ec 78C668FF 		.word	-9910664
 3603 13f0 7EDA6000 		.word	6347390
 3604 13f4 3875EAFF 		.word	-1411784
 3605 13f8 0D1DD6FE 		.word	-19522291
 3606 13fc 442F0AFF 		.word	-16109756
 3607 1400 A79A84FE 		.word	-24864089
 3608 1404 9826C600 		.word	12986008
 3609 1408 42B259FF 		.word	-10898878
 3610 140c C82EABFF 		.word	-5558584
 3611 1410 0D6353FF 		.word	-11312371
 3612 1414 D2BBFDFF 		.word	-148526
 3613 1418 AA2D2A01 		.word	19541418
 3614 141c 8AD17C00 		.word	8180106
 3615 1420 D6A28D00 		.word	9282262
 3616 1424 0CE69C00 		.word	10282508
 3617 1428 662470FE 		.word	-26205082
 3618 142c 03934300 		.word	4428547
 3619 1430 34D77BFF 		.word	-8661196
 3620 1434 E9AB36FF 		.word	-13194263
 3621 1438 62893E00 		.word	4098402
ARM GAS  C:\Users\NIGHDR~1\AppData\Local\Temp\ccrnUt9g.s 			page 76


 3622 143c F7DA27FF 		.word	-14165257
 3623 1440 E7DAEC00 		.word	15522535
 3624 1444 F7BF7F00 		.word	8372215
 3625 1448 C3925400 		.word	5542595
 3626 144c A5B05CFF 		.word	-10702683
 3627 1450 13D45EFF 		.word	-10562541
 3628 1454 114AE300 		.word	14895633
 3629 1458 58289901 		.word	26814552
 3630 145c C69301FF 		.word	-16673850
 3631 1460 CE43F5FE 		.word	-17480754
 3632 1464 F003DAFF 		.word	-2489360
 3633 1468 3D8DD5FF 		.word	-2781891
 3634 146c 61B76A00 		.word	6993761
 3635 1470 C3E8EBFE 		.word	-18093885
 3636 1474 5F569A00 		.word	10114655
 3637 1478 D130CDFE 		.word	-20107055
 3638 147c 76D1F1FF 		.word	-929418
 3639 1480 F078DF01 		.word	31422704
 3640 1484 D51D9F00 		.word	10427861
 3641 1488 A37F93FF 		.word	-7110749
 3642 148c 0DDA5D00 		.word	6150669
 3643 1490 551844FE 		.word	-29091755
 3644 1494 461450FF 		.word	-11529146
 3645 1498 BD058C01 		.word	25953725
 3646 149c 5261FEFF 		.word	-106158
 3647 14a0 6363BFFF 		.word	-4234397
 3648 14a4 845485FF 		.word	-8039292
 3649 14a8 6BDA74FF 		.word	-9119125
 3650 14ac 707A2E00 		.word	3046000
 3651 14b0 69112000 		.word	2101609
 3652 14b4 C2A03FFF 		.word	-12607294
 3653 14b8 44DE2701 		.word	19390020
 3654 14bc D8FD5C00 		.word	6094296
 3655 14c0 B169CDFF 		.word	-3315279
 3656 14c4 95C9C300 		.word	12831125
 3657 14c8 2AE10BFF 		.word	-15998678
 3658 14cc 28A27300 		.word	7578152
 3659 14d0 09075100 		.word	5310217
 3660 14d4 A5DADB00 		.word	14408357
 3661 14d8 B41600FE 		.word	-33548620
 3662 14dc 1D92FCFF 		.word	-224739
 3663 14e0 92CFE101 		.word	31575954
 3664 14e4 B4876000 		.word	6326196
 3665 14e8 1FA37000 		.word	7381791
 3666 14ec B10BDBFF 		.word	-2421839
 3667 14f0 850CC1FE 		.word	-20902779
 3668 14f4 2B4E3200 		.word	3296811
 3669 14f8 41717901 		.word	24736065
 3670 14fc 3BD906FF 		.word	-16328389
 3671 1500 6E5E1801 		.word	18374254
 3672 1504 70AC6F00 		.word	7318640
 3673 1508 070F6000 		.word	6295303
 3674 150c 24557B00 		.word	8082724
 3675 1510 479615FF 		.word	-15362489
 3676 1514 D049BC00 		.word	12339664
 3677 1518 C00BA701 		.word	27724736
 3678 151c D5F52200 		.word	2291157
ARM GAS  C:\Users\NIGHDR~1\AppData\Local\Temp\ccrnUt9g.s 			page 77


 3679 1520 09E65C00 		.word	6088201
 3680 1524 A28E27FF 		.word	-14184798
 3681 1528 D75A1B00 		.word	1792727
 3682 152c 62615900 		.word	5857634
 3683 1530 5E4FD300 		.word	13848414
 3684 1534 5A9DF000 		.word	15768922
 3685 1538 5FDC7E01 		.word	25091167
 3686 153c 66B0E200 		.word	14856294
 3687 1540 241EE0FE 		.word	-18866652
 3688 1544 231F7F00 		.word	8331043
 3689 1548 E7E87301 		.word	24373479
 3690 154c 55538200 		.word	8541013
 3691 1550 D249F5FF 		.word	-701998
 3692 1554 2F8F72FF 		.word	-9269457
 3693 1558 4441C500 		.word	12927300
 3694 155c 3B483EFF 		.word	-12695493
 3695 1560 B785ADFE 		.word	-22182473
 3696 1564 5D7976FF 		.word	-9012899
 3697 1568 3BB151FF 		.word	-11423429
 3698 156c EA45ADFF 		.word	-5421590
 3699 1570 CD80B100 		.word	11632845
 3700 1574 DCF43300 		.word	3405020
 3701 1578 1AF4D101 		.word	30536730
 3702 157c 49DE4DFF 		.word	-11674039
 3703 1580 A30860FE 		.word	-27260765
 3704 1584 9695D300 		.word	13866390
 3705 1588 9EFECB01 		.word	30146206
 3706 158c 367F8B00 		.word	9142070
 3707 1590 A1E03B00 		.word	3924129
 3708 1594 046D16FF 		.word	-15307516
 3709 1598 DE2A2DFF 		.word	-13817122
 3710 159c D09266FF 		.word	-10054960
 3711 15a0 EC8EBB00 		.word	12291820
 3712 15a4 32CDF5FF 		.word	-668366
 3713 15a8 0A4A59FE 		.word	-27702774
 3714 15ac 304F8E00 		.word	9326384
 3715 15b0 DE4C82FF 		.word	-8237858
 3716 15b4 1EA63F00 		.word	4171294
 3717 15b8 EC0C0DFF 		.word	-15921940
 3718 15bc 31B8F400 		.word	16037937
 3719 15c0 BB716600 		.word	6713787
 3720 15c4 DA65FD00 		.word	16606682
 3721 15c8 9939B6FE 		.word	-21612135
 3722 15cc 20962A00 		.word	2790944
 3723 15d0 19C69201 		.word	26396185
 3724 15d4 EDF13800 		.word	3731949
 3725 15d8 8C440500 		.word	345228
 3726 15dc 5BA4ACFF 		.word	-5462949
 3727 15e0 4E91BAFE 		.word	-21327538
 3728 15e4 4334CD00 		.word	13448259
 3729 15e8 DBCF8101 		.word	25284571
 3730 15ec 6D731100 		.word	1143661
 3731 15f0 368F3A01 		.word	20614966
 3732 15f4 15F878FF 		.word	-8849387
 3733 15f8 B3FF1E00 		.word	2031539
 3734 15fc C1EC42FF 		.word	-12391231
 3735 1600 01FF07FF 		.word	-16253183
ARM GAS  C:\Users\NIGHDR~1\AppData\Local\Temp\ccrnUt9g.s 			page 78


 3736 1604 FDC030FF 		.word	-13582083
 3737 1608 1345D901 		.word	31016211
 3738 160c 03D600FF 		.word	-16722429
 3739 1610 40659201 		.word	26371392
 3740 1614 DF7D23FF 		.word	-14451233
 3741 1618 EB49B3FF 		.word	-5027349
 3742 161c F9A7E200 		.word	14854137
 3743 1620 E1AF0A01 		.word	17477601
 3744 1624 61A23A00 		.word	3842657
 3745 1628 6A70AB01 		.word	28012650
 3746 162c 54AC05FF 		.word	-16405420
 3747 1630 858CB2FF 		.word	-5075835
 3748 1634 86F58E00 		.word	9368966
 3749 1638 615A7DFF 		.word	-8562079
 3750 163c BACBB9FF 		.word	-4600902
 3751 1640 DF4D17FF 		.word	-15249953
 3752 1644 C05C6A00 		.word	6970560
 3753 1648 0FC673FF 		.word	-9189873
 3754 164c D998F800 		.word	16292057
 3755 1650 ABB278FF 		.word	-8867157
 3756 1654 E4863500 		.word	3507940
 3757 1658 B036C101 		.word	29439664
 3758 165c FAFB3500 		.word	3537914
 3759 1660 D50A6401 		.word	23333589
 3760 1664 22C76A00 		.word	6997794
 3761 1668 971FF4FE 		.word	-17555561
 3762 166c ACE057FF 		.word	-11018068
 3763 1670 0EED17FF 		.word	-15209202
 3764 1674 FD551AFF 		.word	-15051267
 3765 1678 7F2774FF 		.word	-9164929
 3766 167c AC686400 		.word	6580396
 3767 1680 FB0E46FF 		.word	-12185861
 3768 1684 D4D08AFF 		.word	-7679788
 3769 1688 FDD3FA00 		.word	16438269
 3770 168c B031A500 		.word	10826160
 3771 1690 0F4C7BFF 		.word	-8696817
 3772 1694 25DAA0FF 		.word	-6235611
 3773 1698 5C871001 		.word	17860444
 3774 169c 0A7E72FF 		.word	-9273846
 3775 16a0 4605E0FF 		.word	-2095802
 3776 16a4 F7F98D00 		.word	9304567
 3777 16a8 44143C01 		.word	20714564
 3778 16ac F1D2BDFF 		.word	-4336911
 3779 16b0 C3D9BB01 		.word	29088195
 3780 16b4 97037100 		.word	7406487
 3781 16b8 975CAE00 		.word	11426967
 3782 16bc E73EB2FF 		.word	-5095705
 3783 16c0 DBB7E100 		.word	14792667
 3784 16c4 171721FF 		.word	-14608617
 3785 16c8 CDB55000 		.word	5289421
 3786 16cc 39B8F8FF 		.word	-477127
 3787 16d0 43B401FF 		.word	-16665533
 3788 16d4 5A7B5DFF 		.word	-10650790
 3789 16d8 2700A2FF 		.word	-6160345
 3790 16dc 60F834FF 		.word	-13305760
 3791 16e0 54428C00 		.word	9192020
 3792 16e4 227FE4FF 		.word	-1802462
ARM GAS  C:\Users\NIGHDR~1\AppData\Local\Temp\ccrnUt9g.s 			page 79


 3793 16e8 C28A0701 		.word	17271490
 3794 16ec A66EBC00 		.word	12349094
 3795 16f0 15119B01 		.word	26939669
 3796 16f4 9ABEC6FF 		.word	-3752294
 3797 16f8 D6503BFF 		.word	-12889898
 3798 16fc 12078F00 		.word	9373458
 3799 1700 481DE201 		.word	31595848
 3800 1704 C7D9F900 		.word	16374215
 3801 1708 E8A14701 		.word	21471720
 3802 170c 95BEC900 		.word	13221525
 3803 1710 D9AF5FFE 		.word	-27283495
 3804 1714 719343FF 		.word	-12348559
 3805 1718 8A8FC7FF 		.word	-3698806
 3806 171c 7FCC0100 		.word	117887
 3807 1720 1DB65301 		.word	22263325
 3808 1724 CEE69BFF 		.word	-6560050
 3809 1728 BACC3C00 		.word	3984570
 3810 172c 0A7D55FF 		.word	-11174646
 3811 1730 E86019FF 		.word	-15114008
 3812 1734 FF59F7FF 		.word	-566785
 3813 1738 D5FEAF01 		.word	28311253
 3814 173c E8C15100 		.word	5358056
 3815 1740 1C2B9CFE 		.word	-23319780
 3816 1744 0C450800 		.word	541964
 3817 1748 9318F800 		.word	16259219
 3818 174c 12C63100 		.word	3261970
 3819 1750 863C2300 		.word	2309254
 3820 1754 76F612FF 		.word	-15534474
 3821 1758 3158FEFE 		.word	-16885711
 3822 175c E415BAFF 		.word	-4581916
 3823 1760 B6417001 		.word	24134070
 3824 1764 DB1601FF 		.word	-16705829
 3825 1768 167E34FF 		.word	-13337066
 3826 176c BD3531FF 		.word	-13552195
 3827 1770 70198F00 		.word	9378160
 3828 1774 267F37FF 		.word	-13140186
 3829 1778 E265A3FE 		.word	-22845982
 3830 177c D0853DFF 		.word	-12745264
 3831 1780 8945AE01 		.word	28198281
 3832 1784 BE7691FF 		.word	-7244098
 3833 1788 3C62DBFF 		.word	-2399684
 3834 178c D90DF5FF 		.word	-717351
 3835 1790 FA880A00 		.word	690426
 3836 1794 54FEE200 		.word	14876244
 3837 1798 C91F7D01 		.word	24977353
 3838 179c F033FBFF 		.word	-314384
 3839 17a0 1F8382FF 		.word	-8223969
 3840 17a4 028A32FF 		.word	-13465086
 3841 17a8 D7D7B101 		.word	28432343
 3842 17ac DF0CEEFF 		.word	-1176353
 3843 17b0 FC9538FF 		.word	-13068804
 3844 17b4 7C5B44FF 		.word	-12297348
 3845 17b8 487EAAFE 		.word	-22380984
 3846 17bc 77FF6400 		.word	6618999
 3847 17c0 8287E8FF 		.word	-1538174
 3848 17c4 0E4FB200 		.word	11685646
 3849 17c8 FA83C500 		.word	12944378
ARM GAS  C:\Users\NIGHDR~1\AppData\Local\Temp\ccrnUt9g.s 			page 80


 3850 17cc 8AC6D000 		.word	13682314
 3851 17d0 79D88BFE 		.word	-24389511
 3852 17d4 771224FF 		.word	-14413193
 3853 17d8 1DC17A00 		.word	8044829
 3854 17dc 102A2DFF 		.word	-13817328
 3855 17e0 D5F0EB01 		.word	32239829
 3856 17e4 E6BEA9FF 		.word	-5652762
 3857 17e8 C623E4FE 		.word	-18603066
 3858 17ec 6EAD4800 		.word	4762990
 3859 17f0 D6DDF1FF 		.word	-926250
 3860 17f4 38948700 		.word	8885304
 3861 17f8 C0754EFE 		.word	-28412480
 3862 17fc 8D5DCFFF 		.word	-3187315
 3863 1800 8F419500 		.word	9781647
 3864 1804 151262FF 		.word	-10350059
 3865 1808 5F2CF401 		.word	32779359
 3866 180c 6ABF4D00 		.word	5095274
 3867 1810 FE5508FE 		.word	-33008130
 3868 1814 D66EB0FF 		.word	-5214506
 3869 1818 49AD13FE 		.word	-32264887
 3870 181c A0C4C7FF 		.word	-3685216
 3871 1820 ED5A9000 		.word	9460461
 3872 1824 C1AC71FF 		.word	-9327423
 3873 1828 C89B88FE 		.word	-24601656
 3874 182c E45ADD00 		.word	14506724
 3875 1830 89314A01 		.word	21639561
 3876 1834 A4DDD7FF 		.word	-2630236
 3877 1838 D1BD05FF 		.word	-16400943
 3878 183c 69EC37FF 		.word	-13112215
 3879 1840 2A1F8101 		.word	25239338
 3880 1844 C1FFEC00 		.word	15531969
 3881 1848 2ED93C00 		.word	3987758
 3882 184c 8A58BBFF 		.word	-4499318
 3883 1850 E252ECFF 		.word	-1289502
 3884 1854 514597FF 		.word	-6863535
 3885 1858 8EBE1001 		.word	17874574
 3886 185c 0D860800 		.word	558605
 3887 1860 7F7A30FF 		.word	-13600129
 3888 1864 51409C00 		.word	10240081
 3889 1868 ABF38B00 		.word	9171883
 3890 186c ED23F600 		.word	16131053
 3891 1870 7A8FC1FE 		.word	-20869254
 3892 1874 D47A9200 		.word	9599700
 3893 1878 5F29FF01 		.word	33499487
 3894 187c 57844D00 		.word	5080151
 3895 1880 04D41F00 		.word	2085892
 3896 1884 111F4E00 		.word	5119761
 3897 1888 272DADFE 		.word	-22205145
 3898 188c 188ED9FF 		.word	-2519528
 3899 1890 5F0906FF 		.word	-16381601
 3900 1894 E3530600 		.word	414691
 3901 1898 623B82FE 		.word	-25019550
 3902 189c 3E1E2100 		.word	2170430
 3903 18a0 0873D301 		.word	30634760
 3904 18a4 A26180FF 		.word	-8363614
 3905 18a8 07B817FE 		.word	-31999993
 3906 18ac 741CA8FF 		.word	-5759884
ARM GAS  C:\Users\NIGHDR~1\AppData\Local\Temp\ccrnUt9g.s 			page 81


 3907 18b0 F88A97FF 		.word	-6845704
 3908 18b4 62F4F000 		.word	15791202
 3909 18b8 BA768200 		.word	8550074
 3910 18bc 72F8EBFF 		.word	-1312654
 3911 18c0 69ADC801 		.word	29928809
 3912 18c4 A07C47FF 		.word	-12092256
 3913 18c8 5E24A401 		.word	27534430
 3914 18cc AF4192FF 		.word	-7192145
 3915 18d0 EEF1AAFE 		.word	-22351378
 3916 18d4 CAC6C500 		.word	12961482
 3917 18d8 E4478AFE 		.word	-24492060
 3918 18dc 2DF66DFF 		.word	-9570771
 3919 18e0 C2349E00 		.word	10368194
 3920 18e4 85BBB000 		.word	11582341
 3921 18e8 53FC9AFE 		.word	-23397293
 3922 18ec 59BDDDFF 		.word	-2245287
 3923 18f0 AA49FC00 		.word	16533930
 3924 18f4 943A7D00 		.word	8206996
 3925 18f8 244433FE 		.word	-30194652
 3926 18fc 2A45B1FF 		.word	-5159638
 3927 1900 A84C56FF 		.word	-11121496
 3928 1904 2664CCFF 		.word	-3382234
 3929 1908 26352300 		.word	2307366
 3930 190c AF136100 		.word	6362031
 3931 1910 E1EEFDFF 		.word	-135455
 3932 1914 51518700 		.word	8868177
 3933 1918 D21BFFFE 		.word	-16835630
 3934 191c EB496B00 		.word	7031275
 3935 1920 08CF7300 		.word	7589640
 3936 1924 527F8800 		.word	8945490
 3937 1928 546315FE 		.word	-32152748
 3938 192c CF138800 		.word	8917967
 3939 1930 64A46500 		.word	6661220
 3940 1934 50D04DFF 		.word	-11677616
 3941 1938 84CFEDFF 		.word	-1192060
 3942 193c 0F030FFF 		.word	-15793393
 3943 1940 21A66E00 		.word	7251489
 3944 1944 9C5F55FF 		.word	-11182180
 3945 1948 25B96F01 		.word	24099109
 3946 194c 966A23FF 		.word	-14456170
 3947 1950 A6974C00 		.word	5019558
 3948 1954 725787FF 		.word	-7907470
 3949 1958 9FC24000 		.word	4244127
 3950 195c 0C7A1FFF 		.word	-14714356
 3951 1960 E80765FE 		.word	-26933272
 3952 1964 AD776200 		.word	6453165
 3953 1968 9A47DCFE 		.word	-19118182
 3954 196c BF3935FF 		.word	-13289025
 3955 1970 A8E8A0FF 		.word	-6231896
 3956 1974 E02063FF 		.word	-10280736
 3957 1978 DA9CA500 		.word	10853594
 3958 197c 9799A300 		.word	10721687
 3959 1980 D90D9401 		.word	26480089
 3960 1984 C5715900 		.word	5861829
 3961 1988 951CA1FE 		.word	-22995819
 3962 198c CF171E00 		.word	1972175
 3963 1990 6984E3FF 		.word	-1866647
ARM GAS  C:\Users\NIGHDR~1\AppData\Local\Temp\ccrnUt9g.s 			page 82


 3964 1994 36E65EFF 		.word	-10557898
 3965 1998 85ADCCFF 		.word	-3363451
 3966 199c 5CB79DFF 		.word	-6441124
 3967 19a0 5890FCFE 		.word	-17002408
 3968 19a4 66215A00 		.word	5906790
 3969 19a8 9F610300 		.word	221599
 3970 19ac B5DA9BFF 		.word	-6563147
 3971 19b0 F0727700 		.word	7828208
 3972 19b4 6AD635FF 		.word	-13248918
 3973 19b8 A5BE7301 		.word	24362661
 3974 19bc 985BE1FF 		.word	-2008168
 3975 19c0 586A2CFF 		.word	-13866408
 3976 19c4 D03D7100 		.word	7421392
 3977 19c8 97347C00 		.word	8139927
 3978 19cc BF1B9CFF 		.word	-6546497
 3979 19d0 6E36EC01 		.word	32257646
 3980 19d4 0E1EA6FF 		.word	-5890546
 3981 19d8 277FCF01 		.word	30375719
 3982 19dc E5C71C00 		.word	1886181
 3983 19e0 BCE4BCFE 		.word	-21175108
 3984 19e4 649DEB00 		.word	15441252
 3985 19e8 F6DAB701 		.word	28826358
 3986 19ec 6B16C1FF 		.word	-4123029
 3987 19f0 CEA05F00 		.word	6267086
 3988 19f4 4CEF9300 		.word	9695052
 3989 19f8 CFA17500 		.word	7709135
 3990 19fc 33A602FF 		.word	-16603597
 3991 1a00 34750AFE 		.word	-32869068
 3992 1a04 4938E3FF 		.word	-1886135
 3993 1a08 98C1E100 		.word	14795160
 3994 1a0c 845E88FF 		.word	-7840124
 3995 1a10 65BFD100 		.word	13746021
 3996 1a14 206BE5FF 		.word	-1742048
 3997 1a18 C62BB401 		.word	28584902
 3998 1a1c 64D27600 		.word	7787108
 3999 1a20 724399FF 		.word	-6732942
 4000 1a24 17581AFF 		.word	-15050729
 4001 1a28 599A5C01 		.word	22846041
 4002 1a2c DC788CFF 		.word	-7571236
 4003 1a30 9072CFFF 		.word	-3181936
 4004 1a34 FC73FAFF 		.word	-363524
 4005 1a38 22CE4800 		.word	4771362
 4006 1a3c 8A857FFF 		.word	-8419958
 4007 1a40 08B27C01 		.word	24949256
 4008 1a44 574B6100 		.word	6376279
 4009 1a48 0FE55CFE 		.word	-27466481
 4010 1a4c F04383FF 		.word	-8174608
 4011 1a50 767BE3FE 		.word	-18646154
 4012 1a54 927868FF 		.word	-9930606
 4013 1a58 91D5FF01 		.word	33543569
 4014 1a5c 81BB46FF 		.word	-12141695
 4015 1a60 DB773600 		.word	3569627
 4016 1a64 0113AD00 		.word	11342593
 4017 1a68 2D969401 		.word	26514989
 4018 1a6c F8534800 		.word	4740088
 4019 1a70 CBE9A901 		.word	27912651
 4020 1a74 8E6B3800 		.word	3697550
ARM GAS  C:\Users\NIGHDR~1\AppData\Local\Temp\ccrnUt9g.s 			page 83


 4021 1a78 F7F92601 		.word	19331575
 4022 1a7c 2DF250FF 		.word	-11472339
 4023 1a80 1EE96700 		.word	6809886
 4024 1a84 60524600 		.word	4608608
 4025 1a88 17C96F00 		.word	7325975
 4026 1a8c 51271EFF 		.word	-14801071
 4027 1a90 A1B74EFF 		.word	-11618399
 4028 1a94 C2EA21FF 		.word	-14554430
 4029 1a98 44E38CFE 		.word	-24321212
 4030 1a9c D8CE7400 		.word	7655128
 4031 1aa0 461BEBFF 		.word	-1369274
 4032 1aa4 68904F00 		.word	5214312
 4033 1aa8 A4E65DFE 		.word	-27400540
 4034 1aac D6879C00 		.word	10258390
 4035 1ab0 9ABBF2FE 		.word	-17646694
 4036 1ab4 BC1483FF 		.word	-8186692
 4037 1ab8 246DAE00 		.word	11431204
 4038 1abc 9F70F100 		.word	15823007
 4039 1ac0 056E9501 		.word	26570245
 4040 1ac4 24A5DA00 		.word	14329124
 4041 1ac8 A61D1301 		.word	18029990
 4042 1acc B22E4900 		.word	4796082
 4043 1ad0 5D2B20FE 		.word	-31446179
 4044 1ad4 F8BDED00 		.word	15580664
 4045 1ad8 669B8D00 		.word	9280358
 4046 1adc C95DC3FF 		.word	-3973687
 4047 1ae0 F18BFDFF 		.word	-160783
 4048 1ae4 0F6F62FF 		.word	-10326257
 4049 1ae8 6C41A3FE 		.word	-22855316
 4050 1aec 9B4FBEFF 		.word	-4304997
 4051 1af0 49AEC1FE 		.word	-20861367
 4052 1af4 F62830FF 		.word	-13621002
 4053 1af8 6B580BFE 		.word	-32810901
 4054 1afc CA6155FF 		.word	-11181622
 4055 1b00 FDCC12FF 		.word	-15545091
 4056 1b04 71F24200 		.word	4387441
 4057 1b08 6EA0C2FE 		.word	-20799378
 4058 1b0c D012BA00 		.word	12194512
 4059 1b10 51153C00 		.word	3937617
 4060 1b14 BC68A7FF 		.word	-5805892
 4061 1b18 7CA661FE 		.word	-27154820
 4062 1b1c D2858E00 		.word	9340370
 4063 1b20 38F289FE 		.word	-24513992
 4064 1b24 296F8200 		.word	8548137
 4065 1b28 6F973A01 		.word	20617071
 4066 1b2c 6FD58DFF 		.word	-7482001
 4067 1b30 B7ACF1FF 		.word	-938825
 4068 1b34 2606C4FF 		.word	-3930586
 4069 1b38 B9077BFF 		.word	-8714311
 4070 1b3c 2E0BF600 		.word	16124718
 4071 1b40 F5697701 		.word	24603125
 4072 1b44 0F02A1FF 		.word	-6225393
 4073 1b48 08CE2DFF 		.word	-13775352
 4074 1b4c 12CA4AFF 		.word	-11875822
 4075 1b50 537C7301 		.word	24345683
 4076 1b54 D48D9D00 		.word	10325460
 4077 1b58 5308D1FE 		.word	-19855277
ARM GAS  C:\Users\NIGHDR~1\AppData\Local\Temp\ccrnUt9g.s 			page 84


 4078 1b5c 8B0FE8FF 		.word	-1568885
 4079 1b60 AC36ADFE 		.word	-22202708
 4080 1b64 32F78400 		.word	8714034
 4081 1b68 D6BDD500 		.word	14007766
 4082 1b6c 90B86900 		.word	6928528
 4083 1b70 DFFEF800 		.word	16318175
 4084 1b74 FF93F0FF 		.word	-1010689
 4085 1b78 17BC4800 		.word	4766743
 4086 1b7c 07333600 		.word	3552007
 4087 1b80 BC19B4FE 		.word	-21751364
 4088 1b84 DCB400FF 		.word	-16730916
 4089 1b88 53A01400 		.word	1351763
 4090 1b8c A3BDF3FF 		.word	-803421
 4091 1b90 3AD1C2FF 		.word	-4009670
 4092 1b94 57493C00 		.word	3950935
 4093 1b98 6A183100 		.word	3217514
 4094 1b9c F5F9DC00 		.word	14481909
 4095 1ba0 16ADA700 		.word	10988822
 4096 1ba4 760BC3FF 		.word	-3994762
 4097 1ba8 137EED00 		.word	15564307
 4098 1bac 6E9F25FF 		.word	-14311570
 4099 1bb0 3B522F00 		.word	3101243
 4100 1bb4 B4BB5600 		.word	5684148
 4101 1bb8 BC94D001 		.word	30446780
 4102 1bbc 642585FF 		.word	-8051356
 4103 1bc0 0770C100 		.word	12677127
 4104 1bc4 81BC9CFF 		.word	-6505343
 4105 1bc8 546A81FF 		.word	-8295852
 4106 1bcc 85E1CA00 		.word	13296005
 4107 1bd0 0EEC6FFF 		.word	-9442290
 4108 1bd4 28146500 		.word	6624296
 4109 1bd8 ACAC31FE 		.word	-30298964
 4110 1bdc 33364AFF 		.word	-11913677
 4111 1be0 FBB9B8FF 		.word	-4670981
 4112 1be4 5D9BE0FF 		.word	-2057379
 4113 1be8 B4F9E001 		.word	31521204
 4114 1bec E6B29200 		.word	9614054
 4115 1bf0 483936FE 		.word	-30000824
 4116 1bf4 B23EB800 		.word	12074674
 4117 1bf8 77CD4800 		.word	4771191
 4118 1bfc B9EFFDFF 		.word	-135239
 4119 1c00 3D0FDA00 		.word	14290749
 4120 1c04 C44338FF 		.word	-13089852
 4121 1c08 EA20AB01 		.word	27992298
 4122 1c0c 2EDBE400 		.word	14998318
 4123 1c10 D06CEAFF 		.word	-1413936
 4124 1c14 143FE8FF 		.word	-1556716
 4125 1c18 A535C701 		.word	29832613
 4126 1c1c 85E405FF 		.word	-16391035
 4127 1c20 34CD6B00 		.word	7064884
 4128 1c24 4AEE8CFF 		.word	-7541174
 4129 1c28 969CDBFE 		.word	-19161962
 4130 1c2c EFACB2FF 		.word	-5067537
 4131 1c30 FBBDDFFE 		.word	-18891269
 4132 1c34 208ED3FF 		.word	-2912736
 4133 1c38 DA0F8A01 		.word	25825242
 4134 1c3c F1C45000 		.word	5293297
ARM GAS  C:\Users\NIGHDR~1\AppData\Local\Temp\ccrnUt9g.s 			page 85


 4135 1c40 1C2462FE 		.word	-27122660
 4136 1c44 16EAC700 		.word	13101590
 4137 1c48 3DEDDCFF 		.word	-2298563
 4138 1c4c F6392500 		.word	2439670
 4139 1c50 8E118EFF 		.word	-7466610
 4140 1c54 9D3E1A00 		.word	1719965
 4141 1c58 2BEE5FFE 		.word	-27267541
 4142 1c5c 03D906FF 		.word	-16328445
 4143 1c60 D519F001 		.word	32512469
 4144 1c64 27DCAEFF 		.word	-5317593
 4145 1c68 9ACD30FE 		.word	-30356070
 4146 1c6c 130DC0FF 		.word	-4190957
 4147 1c70 F42236FE 		.word	-30006540
 4148 1c74 8C109B00 		.word	10162316
 4149 1c78 F0B505FE 		.word	-33180176
 4150 1c7c 9BC13C00 		.word	3981723
 4151 1c80 A68004FF 		.word	-16482138
 4152 1c84 249138FF 		.word	-13070044
 4153 1c88 96F0DB00 		.word	14413974
 4154 1c8c 78339100 		.word	9515896
 4155 1c90 52992A01 		.word	19568978
 4156 1c94 8CEC9200 		.word	9628812
 4157 1c98 6B5CF801 		.word	33053803
 4158 1c9c BD0A0300 		.word	199357
 4159 1ca0 3F88F200 		.word	15894591
 4160 1ca4 D3271800 		.word	1583059
 4161 1ca8 13CAA101 		.word	27380243
 4162 1cac AD1BBAFF 		.word	-4580435
 4163 1cb0 D2CCEFFE 		.word	-17838894
 4164 1cb4 29D1A2FF 		.word	-6106839
 4165 1cb8 B6FE9FFF 		.word	-6291786
 4166 1cbc AC743400 		.word	3437740
 4167 1cc0 C367DEFE 		.word	-18978877
 4168 1cc4 CD453B00 		.word	3884493
 4169 1cc8 35162901 		.word	19469877
 4170 1ccc DA30C200 		.word	12726490
 4171 1cd0 50D2F200 		.word	15913552
 4172 1cd4 D2BCCF00 		.word	13614290
 4173 1cd8 BBA1A1FE 		.word	-22961733
 4174 1cdc D8110100 		.word	70104
 4175 1ce0 88E17100 		.word	7463304
 4176 1ce4 FAB83F00 		.word	4176122
 4177 1ce8 DF1E62FE 		.word	-27124001
 4178 1cec 4DA8A200 		.word	10659917
 4179 1cf0 3B35AF00 		.word	11482427
 4180 1cf4 13C90AFF 		.word	-16070381
 4181 1cf8 8BE0C200 		.word	12771467
 4182 1cfc 93C19AFF 		.word	-6635117
 4183 1d00 D4BD0CFE 		.word	-32719404
 4184 1d04 01C8AEFF 		.word	-5322751
 4185 1d08 32857101 		.word	24216882
 4186 1d0c 5EB35A00 		.word	5944158
 4187 1d10 ADB68700 		.word	8894125
 4188 1d14 5EB17100 		.word	7450974
 4189 1d18 2B59D7FF 		.word	-2664149
 4190 1d1c 88FC6AFF 		.word	-9765752
 4191 1d20 7B8653FE 		.word	-28080517
ARM GAS  C:\Users\NIGHDR~1\AppData\Local\Temp\ccrnUt9g.s 			page 86


 4192 1d24 05F542FF 		.word	-12389115
 4193 1d28 52312701 		.word	19345746
 4194 1d2c DC02E000 		.word	14680796
 4195 1d30 6181B100 		.word	11632993
 4196 1d34 4D3B5900 		.word	5847885
 4197 1d38 3D1D9B01 		.word	26942781
 4198 1d3c CBABDCFF 		.word	-2315317
 4199 1d40 5C4E8B00 		.word	9129564
 4200 1d44 9121B5FF 		.word	-4906607
 4201 1d48 A9188D01 		.word	26024105
 4202 1d4c 3796B300 		.word	11769399
 4203 1d50 8B3C50FF 		.word	-11518837
 4204 1d54 DA276100 		.word	6367194
 4205 1d58 02936BFF 		.word	-9727230
 4206 1d5c 3CF84800 		.word	4782140
 4207 1d60 ADE62F01 		.word	19916461
 4208 1d64 0653B6FF 		.word	-4828410
 4209 1d68 1069A2FE 		.word	-22910704
 4210 1d6c 89D451FF 		.word	-11414391
 4211 1d70 B4B88601 		.word	25606324
 4212 1d74 27DEA4FF 		.word	-5972441
 4213 1d78 DD69FB01 		.word	33253853
 4214 1d7c EF707D00 		.word	8220911
 4215 1d80 3F076100 		.word	6358847
 4216 1d84 3F68E3FF 		.word	-1873857
 4217 1d88 943A0C00 		.word	801428
 4218 1d8c 5A3CE0FF 		.word	-2081702
 4219 1d90 54D4FC00 		.word	16569428
 4220 1d94 4FD7A800 		.word	11065167
 4221 1d98 F8DDC701 		.word	29875704
 4222 1d9c 73790100 		.word	96627
 4223 1da0 24AC7800 		.word	7908388
 4224 1da4 20A2BBFF 		.word	-4480480
 4225 1da8 396B31FF 		.word	-13538503
 4226 1dac 932A1500 		.word	1387155
 4227 1db0 6AC62B01 		.word	19646058
 4228 1db4 394A5700 		.word	5720633
 4229 1db8 7ECB51FF 		.word	-11416706
 4230 1dbc 8187C300 		.word	12814209
 4231 1dc0 8C1FB100 		.word	11607948
 4232 1dc4 DD8BC200 		.word	12749789
 4233 1dc8 03DED700 		.word	14147075
 4234 1dcc 8344E700 		.word	15156355
 4235 1dd0 B156B2FE 		.word	-21866831
 4236 1dd4 7C97B400 		.word	11835260
 4237 1dd8 B87C2601 		.word	19299512
 4238 1ddc 46A31100 		.word	1155910
 4239 1de0 F9FBB501 		.word	28703737
 4240 1de4 2A37E300 		.word	14890794
 4241 1de8 E2A12C00 		.word	2925026
 4242 1dec 17EC6E00 		.word	7269399
 4243 1df0 33958E01 		.word	26121523
 4244 1df4 5D05EC00 		.word	15467869
 4245 1df8 DAB76AFE 		.word	-26560550
 4246 1dfc 43184D00 		.word	5052483
 4247 1e00 28F5D1FF 		.word	-3017432
 4248 1e04 DE799900 		.word	10058206
ARM GAS  C:\Users\NIGHDR~1\AppData\Local\Temp\ccrnUt9g.s 			page 87


 4249 1e08 A5391E00 		.word	1980837
 4250 1e0c 537D3C00 		.word	3964243
 4251 1e10 46265201 		.word	22160966
 4252 1e14 E506BC00 		.word	12322533
 4253 1e18 6DDE9DFF 		.word	-6431123
 4254 1e1c 37763FFF 		.word	-12618185
 4255 1e20 CD97BA00 		.word	12228557
 4256 1e24 E32195FF 		.word	-7003677
 4257 1e28 FEB0F601 		.word	32944382
 4258 1e2c E3B1E300 		.word	14922211
 4259 1e30 226AA3FE 		.word	-22844894
 4260 1e34 B02B4F00 		.word	5188528
 4261 1e38 6A5F4E01 		.word	21913450
 4262 1e3c B9F17AFF 		.word	-8719943
 4263 1e40 B90E3D00 		.word	4001465
 4264 1e44 2401CA00 		.word	13238564
 4265 1e48 0DB2A2FF 		.word	-6114803
 4266 1e4c F70B8400 		.word	8653815
 4267 1e50 A1E65C01 		.word	22865569
 4268 1e54 4101B9FF 		.word	-4652735
 4269 1e58 D432A501 		.word	27603668
 4270 1e5c 8D9240FF 		.word	-12545395
 4271 1e60 9EF2DA00 		.word	14348958
 4272 1e64 15A47D00 		.word	8234005
 4273 1e68 D58B7A01 		.word	24808405
 4274 1e6c 43475700 		.word	5719875
 4275 1e70 CB9EB201 		.word	28483275
 4276 1e74 975C2B00 		.word	2841751
 4277 1e78 986F05FF 		.word	-16420968
 4278 1e7c 2703EFFF 		.word	-1113305
 4279 1e80 D9FFFAFF 		.word	-327719
 4280 1e84 B03F47FF 		.word	-12107856
 4281 1e88 4AF54D01 		.word	21886282
 4282 1e8c FAAE12FF 		.word	-15552774
 4283 1e90 2231E3FF 		.word	-1887966
 4284 1e94 F62EFBFF 		.word	-315658
 4285 1e98 9A233001 		.word	19932058
 4286 1e9c 7D9D3DFF 		.word	-12739203
 4287 1ea0 6A244EFF 		.word	-11656086
 4288 1ea4 61EC9900 		.word	10087521
 4289 1ea8 88BB78FF 		.word	-8864888
 4290 1eac 7186ABFF 		.word	-5536143
 4291 1eb0 13D5D9FE 		.word	-19278573
 4292 1eb4 D85ED1FF 		.word	-3055912
 4293 1eb8 FC053D00 		.word	3999228
 4294 1ebc 5E03CA00 		.word	13239134
 4295 1ec0 031AB7FF 		.word	-4777469
 4296 1ec4 40BF2BFF 		.word	-13910208
 4297 1ec8 1E171500 		.word	1382174
 4298 1ecc 818D4DFF 		.word	-11694719
 4299 1ed0 66780701 		.word	17266790
 4300 1ed4 C24C8C00 		.word	9194690
 4301 1ed8 BCAF34FF 		.word	-13324356
 4302 1edc 11519400 		.word	9720081
 4303 1ee0 E8563701 		.word	20403944
 4304 1ee4 E130AC00 		.word	11284705
 4305 1ee8 862A2AFF 		.word	-14013818
ARM GAS  C:\Users\NIGHDR~1\AppData\Local\Temp\ccrnUt9g.s 			page 88


 4306 1eec EE322F00 		.word	3093230
 4307 1ef0 A912FE00 		.word	16650921
 4308 1ef4 149357FF 		.word	-11037932
 4309 1ef8 0EC3EFFF 		.word	-1064178
 4310 1efc 45F71700 		.word	1570629
 4311 1f00 EEE580FF 		.word	-8329746
 4312 1f04 B1317000 		.word	7352753
 4313 1f08 A862FBFF 		.word	-302424
 4314 1f0c 7947F800 		.word	16271225
 4315 1f10 F30891FE 		.word	-24049421
 4316 1f14 F6E399FF 		.word	-6691850
 4317 1f18 DBA9B1FE 		.word	-21911077
 4318 1f1c FB8BA5FF 		.word	-5927941
 4319 1f20 0CA3B9FF 		.word	-4611316
 4320 1f24 A428ABFF 		.word	-5560156
 4321 1f28 999F1BFE 		.word	-31744103
 4322 1f2c F36D5BFF 		.word	-10785293
 4323 1f30 DE187001 		.word	24123614
 4324 1f34 12D6E700 		.word	15193618
 4325 1f38 6B9DB5FE 		.word	-21652117
 4326 1f3c C39300FF 		.word	-16739389
 4327 1f40 C26368FF 		.word	-9935934
 4328 1f44 598CBEFF 		.word	-4289447
 4329 1f48 B1427EFE 		.word	-25279823
 4330 1f4c 6AB94200 		.word	4372842
 4331 1f50 31DA1F00 		.word	2087473
 4332 1f54 FCAE9E00 		.word	10399484
 4333 1f58 BC4FE601 		.word	31870908
 4334 1f5c EE29E000 		.word	14690798
 4335 1f60 D4EA0801 		.word	17361620
 4336 1f64 880BB500 		.word	11864968
 4337 1f68 A67553FF 		.word	-11307610
 4338 1f6c 44C35E00 		.word	6210372
 4339 1f70 2E84C900 		.word	13206574
 4340 1f74 F0985800 		.word	5806320
 4341 1f78 A43945FE 		.word	-29017692
 4342 1f7c A0E02AFF 		.word	-13967200
 4343 1f80 3BD743FF 		.word	-12331205
 4344 1f84 77C38DFF 		.word	-7486601
 4345 1f88 24B479FE 		.word	-25578460
 4346 1f8c CF2F08FF 		.word	-16240689
 4347 1f90 AED2DF00 		.word	14668462
 4348 1f94 65C544FF 		.word	-12270235
 4349 1f98 FF528D01 		.word	26039039
 4350 1f9c FA89E900 		.word	15305210
 4351 1fa0 61568501 		.word	25515617
 4352 1fa4 10504500 		.word	4542480
 4353 1fa8 84839F00 		.word	10453892
 4354 1fac 745D6400 		.word	6577524
 4355 1fb0 2D8D8B00 		.word	9145645
 4356 1fb4 98AC9DFF 		.word	-6443880
 4357 1fb8 5A2B5B00 		.word	5974874
 4358 1fbc 47992E00 		.word	3053895
 4359 1fc0 271070FF 		.word	-9433049
 4360 1fc4 D98861FF 		.word	-10385191
 4361 1fc8 DCC619FE 		.word	-31865124
 4362 1fcc B1353100 		.word	3225009
ARM GAS  C:\Users\NIGHDR~1\AppData\Local\Temp\ccrnUt9g.s 			page 89


 4363 1fd0 DE5886FF 		.word	-7972642
 4364 1fd4 800F3C00 		.word	3936128
 4365 1fd8 CFC0A9FF 		.word	-5652273
 4366 1fdc C074D1FF 		.word	-3050304
 4367 1fe0 6A4ED301 		.word	30625386
 4368 1fe4 C8D5B7FF 		.word	-4729400
 4369 1fe8 070C7AFE 		.word	-25555961
 4370 1fec DECB3CFF 		.word	-12792866
 4371 1ff0 216EC7FE 		.word	-20484575
 4372 1ff4 FB6A7500 		.word	7695099
 4373 1ff8 E4E10401 		.word	17097188
 4374 1ffc 783A07FF 		.word	-16303496
 4375 2000 DDC154FE 		.word	-27999779
 4376 2004 70851B00 		.word	1803632
 4377 2008 BDC8C9FF 		.word	-3553091
 4378 200c 8B879600 		.word	9865099
 4379 2010 EA37B0FF 		.word	-5228566
 4380 2014 3D324100 		.word	4272701
 4381 2018 986CA9FF 		.word	-5673832
 4382 201c DC5501FF 		.word	-16689700
 4383 2020 7087E300 		.word	14911344
 4384 2024 A21ABA00 		.word	12196514
 4385 2028 CF60B9FE 		.word	-21405489
 4386 202c F4886B00 		.word	7047412
 4387 2030 5D993201 		.word	20093277
 4388 2034 C6619700 		.word	9920966
 4389 2038 6E0B56FF 		.word	-11138194
 4390 203c 8F75AEFF 		.word	-5343857
 4391 2040 73D4C800 		.word	13161587
 4392 2044 05CAB700 		.word	12044805
 4393 2048 EDA40AFE 		.word	-32856851
 4394 204c B9EF3E00 		.word	4124601
 4395 2050 EC7812FE 		.word	-32343828
 4396 2054 627B63FF 		.word	-10257566
 4397 2058 A8C9C2FE 		.word	-20788824
 4398 205c 2EEAD600 		.word	14084654
 4399 2060 BF8531FF 		.word	-13531713
 4400 2064 63A97700 		.word	7842147
 4401 2068 BEBB2301 		.word	19119038
 4402 206c 73152DFF 		.word	-13822605
 4403 2070 F9834800 		.word	4752377
 4404 2074 70067BFF 		.word	-8714640
 4405 2078 D631B5FE 		.word	-21679658
 4406 207c A6E92200 		.word	2288038
 4407 2080 5CC566FE 		.word	-26819236
 4408 2084 FDE4CDFF 		.word	-3283715
 4409 2088 033BC901 		.word	29965059
 4410 208c 2A622E00 		.word	3039786
 4411 2090 DB2523FF 		.word	-14473765
 4412 2094 A9C32600 		.word	2540457
 4413 2098 5E7CC101 		.word	29457502
 4414 209c 9C2BDF00 		.word	14625692
 4415 20a0 5F4885FE 		.word	-24819617
 4416 20a4 78CEBF00 		.word	12570232
 4417 20a8 7AC5EFFF 		.word	-1063558
 4418 20ac B1BB4FFF 		.word	-11551823
 4419 20b0 FE2E0201 		.word	16920318
ARM GAS  C:\Users\NIGHDR~1\AppData\Local\Temp\ccrnUt9g.s 			page 90


 4420 20b4 FAA7BE00 		.word	12494842
 4421 20b8 54811300 		.word	1278292
 4422 20bc CB71A6FF 		.word	-5869109
 4423 20c0 F91FBDFE 		.word	-21159943
 4424 20c4 489DCAFF 		.word	-3498680
 4425 20c8 D04749FF 		.word	-11974704
 4426 20cc CF184800 		.word	4724943
 4427 20d0 0A101201 		.word	17960970
 4428 20d4 D2514CFF 		.word	-11775534
 4429 20d8 58D0C0FF 		.word	-4140968
 4430 20dc 7EF36BFF 		.word	-9702530
 4431 20e0 EE8D78FF 		.word	-8876562
 4432 20e4 C779EAFF 		.word	-1410617
 4433 20e8 890C3BFF 		.word	-12907383
 4434 20ec 24DC7BFF 		.word	-8659932
 4435 20f0 94B33CFE 		.word	-29576300
 4436 20f4 F00C1D00 		.word	1903856
 4437 20f8 42006101 		.word	23134274
 4438 20fc 241E26FF 		.word	-14279132
 4439 2100 73015DFF 		.word	-10681997
 4440 2104 6067E7FF 		.word	-1611936
 4441 2108 C59E3B01 		.word	20684485
 4442 210c C0A4F000 		.word	15770816
 4443 2110 CACA39FF 		.word	-12989750
 4444 2114 18AE3000 		.word	3190296
 4445 2118 594D9B01 		.word	26955097
 4446 211c 2A4CD700 		.word	14109738
 4447 2120 F497E900 		.word	15308788
 4448 2124 17305100 		.word	5320727
 4449 2128 EF7F34FE 		.word	-30113809
 4450 212c E38225FF 		.word	-14318877
 4451 2130 F8745D01 		.word	22902008
 4452 2134 7C847600 		.word	7767164
 4453 2138 ADFEC001 		.word	29425325
 4454 213c 06EB53FF 		.word	-11277562
 4455 2140 6EAFE701 		.word	31960942
 4456 2144 FB1CB600 		.word	11934971
 4457 2148 81F95DFE 		.word	-27395711
 4458 214c 54B88000 		.word	8435796
 4459 2150 4CB53E00 		.word	4109644
 4460 2154 AF80BA00 		.word	12222639
 4461 2158 643588FE 		.word	-24627868
 4462 215c 6D1DE200 		.word	14818669
 4463 2160 DDE93A01 		.word	20638173
 4464 2164 14634A00 		.word	4875028
 4465 2168 0016A000 		.word	10491392
 4466 216c 860D1500 		.word	1379718
 4467 2170 093437FF 		.word	-13159415
 4468 2174 11598C00 		.word	9197841
 4469 2178 AF223B00 		.word	3875503
 4470 217c 54A577FF 		.word	-8936108
 4471 2180 E0E2EAFF 		.word	-1383712
 4472 2184 0748A6FF 		.word	-5879801
 4473 2188 7B73FF01 		.word	33518459
 4474 218c 12D6F600 		.word	16176658
 4475 2190 FA074701 		.word	21432314
 4476 2194 D9DCB900 		.word	12180697
ARM GAS  C:\Users\NIGHDR~1\AppData\Local\Temp\ccrnUt9g.s 			page 91


 4477 2198 D4234CFF 		.word	-11787308
 4478 219c 267DAF00 		.word	11500838
 4479 21a0 BD61D200 		.word	13787581
 4480 21a4 72EE2CFF 		.word	-13832590
 4481 21a8 29BCA9FE 		.word	-22430679
 4482 21ac 2DBA9A00 		.word	10140205
 4483 21b0 515C1600 		.word	1465425
 4484 21b4 84A0C100 		.word	12689540
 4485 21b8 79D062FF 		.word	-10301319
 4486 21bc 0D512CFF 		.word	-13872883
 4487 21c0 CB9C5200 		.word	5414091
 4488 21c4 473A15FF 		.word	-15386041
 4489 21c8 D072BFFE 		.word	-21007664
 4490 21cc 32269300 		.word	9643570
 4491 21d0 9AD8C300 		.word	12834970
 4492 21d4 65191200 		.word	1186149
 4493 21d8 3CFAD7FF 		.word	-2622916
 4494 21dc E984EBFF 		.word	-1342231
 4495 21e0 67AF8E01 		.word	26128231
 4496 21e4 100E5C00 		.word	6032912
 4497 21e8 8D1F6EFE 		.word	-26337395
 4498 21ec EEF12DFF 		.word	-13766162
 4499 21f0 99D9EF01 		.word	32496025
 4500 21f4 61A82FFF 		.word	-13653919
 4501 21f8 F9551001 		.word	17847801
 4502 21fc 1CAF3EFF 		.word	-12669156
 4503 2200 39FE3600 		.word	3604025
 4504 2204 DEE77E00 		.word	8316894
 4505 2208 A62D75FE 		.word	-25875034
 4506 220c 12BD60FF 		.word	-10437358
 4507 2210 E44C3200 		.word	3296484
 4508 2214 C8F45E00 		.word	6223048
 4509 2218 C6987801 		.word	24680646
 4510 221c 442245FF 		.word	-12246460
 4511 2220 0C41A0FE 		.word	-23052020
 4512 2224 65135A00 		.word	5903205
 4513 2228 A7C578FF 		.word	-8862297
 4514 222c 4436B9FF 		.word	-4639164
 4515 2230 29DABC00 		.word	12376617
 4516 2234 71A83000 		.word	3188849
 4517 2238 5869BD01 		.word	29190488
 4518 223c 1A5220FF 		.word	-14659046
 4519 2240 B95DA401 		.word	27549113
 4520 2244 E4F0EDFF 		.word	-1183516
 4521 2248 42B63500 		.word	3520066
 4522 224c ABC55CFF 		.word	-10697301
 4523 2250 6B09E901 		.word	32049515
 4524 2254 C77890FF 		.word	-7309113
 4525 2258 4E310AFF 		.word	-16109234
 4526 225c 6DAA69FF 		.word	-9852307
 4527 2260 5A041FFF 		.word	-14744486
 4528 2264 1CF471FF 		.word	-9309156
 4529 2268 4A3A0B00 		.word	735818
 4530 226c 3EDCF6FF 		.word	-598978
 4531 2270 799AC8FE 		.word	-20407687
 4532 2274 90D2B2FF 		.word	-5057904
 4533 2278 7E398101 		.word	25246078
ARM GAS  C:\Users\NIGHDR~1\AppData\Local\Temp\ccrnUt9g.s 			page 92


 4534 227c 2BFA0EFF 		.word	-15795669
 4535 2280 656F1C01 		.word	18640741
 4536 2284 2F56F1FF 		.word	-960977
 4537 2288 3D4696FF 		.word	-6928835
 4538 228c 354905FF 		.word	-16430795
 4539 2290 1E1A9E00 		.word	10361374
 4540 2294 D11A5600 		.word	5642961
 4541 2298 8AED4A00 		.word	4910474
 4542 229c A45FBC00 		.word	12345252
 4543 22a0 8E3C1DFE 		.word	-31638386
 4544 22a4 A274F8FF 		.word	-494430
 4545 22a8 BBAFA000 		.word	10530747
 4546 22ac 97121000 		.word	1053335
 4547 22b0 D16F41FE 		.word	-29265967
 4548 22b4 CB8627FF 		.word	-14186805
 4549 22b8 586C31FF 		.word	-13538216
 4550 22bc 831A47FF 		.word	-12117373
 4551 22c0 DD1BD7FE 		.word	-19457059
 4552 22c4 68695DFF 		.word	-10655384
 4553 22c8 1FEC1FFE 		.word	-31462369
 4554 22cc 8700D3FF 		.word	-2948985
 4555 22d0 8F7F6E01 		.word	24018831
 4556 22d4 D449E500 		.word	15026644
 4557 22d8 E943A7FE 		.word	-22592535
 4558 22dc C301D0FF 		.word	-3145277
 4559 22e0 8411DDFF 		.word	-2289276
 4560 22e4 33D95A00 		.word	5953843
 4561 22e8 43EB32FF 		.word	-13440189
 4562 22ec DFD28F00 		.word	9425631
 4563 22f0 B3358201 		.word	25310643
 4564 22f4 E96AC600 		.word	13003497
 4565 22f8 D9ADDCFF 		.word	-2314791
 4566 22fc 70E518FF 		.word	-15145616
 4567 2300 AF9A5DFE 		.word	-27419985
 4568 2304 47CBF6FF 		.word	-603321
 4569 2308 304285FF 		.word	-8043984
 4570 230c 0388E6FF 		.word	-1669117
 4571 2310 17DD71FE 		.word	-26092265
 4572 2314 EB6FD500 		.word	13987819
 4573 2318 AA785FFE 		.word	-27297622
 4574 231c FBDD0200 		.word	187899
 4575 2320 2D829EFE 		.word	-23166419
 4576 2324 695ED9FF 		.word	-2531735
 4577 2328 F234B4FE 		.word	-21744398
 4578 232c D5442DFF 		.word	-13810475
 4579 2330 68261C00 		.word	1844840
 4580 2334 F49E4C00 		.word	5021428
 4581 2338 A1C860FF 		.word	-10434399
 4582 233c CF350DFF 		.word	-15911473
 4583 2340 BB439400 		.word	9716667
 4584 2344 AA36F800 		.word	16266922
 4585 2348 77A2B2FF 		.word	-5070217
 4586 234c 53140B00 		.word	726099
 4587 2350 2A2AC001 		.word	29370922
 4588 2354 929FA3FF 		.word	-6053998
 4589 2358 B7E86F00 		.word	7334071
 4590 235c 4DE515FF 		.word	-15342259
ARM GAS  C:\Users\NIGHDR~1\AppData\Local\Temp\ccrnUt9g.s 			page 93


 4591 2360 47358F00 		.word	9385287
 4592 2364 1B4C2200 		.word	2247707
 4593 2368 F6882FFF 		.word	-13661962
 4594 236c DB27B6FF 		.word	-4839461
 4595 2370 5CE0C901 		.word	30007388
 4596 2374 138E0EFF 		.word	-15823341
 4597 2378 45B6F1FF 		.word	-936379
 4598 237c A376F500 		.word	16086691
 4599 2380 096D6A01 		.word	23751945
 4600 2384 AAB5F7FF 		.word	-543318
 4601 2388 4E2FEEFF 		.word	-1167538
 4602 238c 54D2B0FF 		.word	-5189036
 4603 2390 D56B8B00 		.word	9137109
 4604 2394 27260B00 		.word	730663
 4605 2398 48159600 		.word	9835848
 4606 239c 48824500 		.word	4555336
 4607 23a0 CD4D9BFE 		.word	-23376435
 4608 23a4 8E851500 		.word	1410446
 4609 23a8 476FACFE 		.word	-22253753
 4610 23ac E22A3BFF 		.word	-12899614
 4611 23b0 B300D701 		.word	30867635
 4612 23b4 2180F100 		.word	15826977
 4613 23b8 EAFC0D01 		.word	17693930
 4614 23bc B84F0800 		.word	544696
 4615 23c0 6E1E49FF 		.word	-11985298
 4616 23c4 F68DBD00 		.word	12422646
 4617 23c8 AACFDA01 		.word	31117226
 4618 23cc 4A9A45FF 		.word	-12215734
 4619 23d0 8AF631FF 		.word	-13502838
 4620 23d4 9B206400 		.word	6561947
 4621 23d8 7D4A69FF 		.word	-9876867
 4622 23dc 5A553DFF 		.word	-12757670
 4623 23e0 23E5B1FF 		.word	-5118685
 4624 23e4 3E7DC1FF 		.word	-4096706
 4625 23e8 9956BC01 		.word	29120153
 4626 23ec 4978D400 		.word	13924425
 4627 23f0 D17BF6FE 		.word	-17400879
 4628 23f4 87D126FF 		.word	-14233209
 4629 23f8 973A2C01 		.word	19675799
 4630 23fc 5C45D6FF 		.word	-2734756
 4631 2400 0E0C58FF 		.word	-11006962
 4632 2404 FC99A6FF 		.word	-5858820
 4633 2408 FDCF70FF 		.word	-9383939
 4634 240c 3C4E53FF 		.word	-11317700
 4635 2410 E37C6E00 		.word	7240931
 4636 2414 B460FCFF 		.word	-237388
 4637 2418 357521FE 		.word	-31361739
 4638 241c A4DC52FF 		.word	-11346780
 4639 2420 29011BFF 		.word	-15007447
 4640 2424 26A4A6FF 		.word	-5856218
 4641 2428 A463A9FE 		.word	-22453340
 4642 242c 3D9046FF 		.word	-12152771
 4643 2430 C0A61200 		.word	1222336
 4644 2434 6BFA4200 		.word	4389483
 4645 2438 C5413200 		.word	3293637
 4646 243c 01B312FF 		.word	-15551743
 4647 2440 FF6801FF 		.word	-16684801
ARM GAS  C:\Users\NIGHDR~1\AppData\Local\Temp\ccrnUt9g.s 			page 94


 4648 2444 2B9923FF 		.word	-14444245
 4649 2448 506FA800 		.word	11038544
 4650 244c 6EAFA800 		.word	11054958
 4651 2450 29692DFF 		.word	-13801175
 4652 2454 DB0ECDFF 		.word	-3338533
 4653 2458 A4E98CFE 		.word	-24319580
 4654 245c 2B017600 		.word	7733547
 4655 2460 E943C300 		.word	12796905
 4656 2464 B2529FFF 		.word	-6335822
 4657 2468 8A577AFF 		.word	-8759414
 4658 246c D4EE5AFF 		.word	-10817836
 4659 2470 90237CFE 		.word	-25418864
 4660 2474 198CA400 		.word	10783769
 4661 2478 FBD72CFE 		.word	-30615557
 4662 247c 85466BFF 		.word	-9746811
 4663 2480 65E350FE 		.word	-28253339
 4664 2484 5CA93700 		.word	3647836
 4665 2488 D72A3100 		.word	3222231
 4666 248c 72B455FF 		.word	-11160462
 4667 2490 21E81B01 		.word	18606113
 4668 2494 ACD51900 		.word	1693100
 4669 2498 3EB07BFE 		.word	-25448386
 4670 249c 208518FF 		.word	-15170272
 4671 24a0 E1BF3E00 		.word	4112353
 4672 24a4 5D469900 		.word	10045021
 4673 24a8 B52A6801 		.word	23603893
 4674 24ac 16BFE0FF 		.word	-2048234
 4675 24b0 C8C88CFF 		.word	-7550776
 4676 24b4 F9EA2500 		.word	2484985
 4677 24b8 95398D00 		.word	9255317
 4678 24bc C338D0FF 		.word	-3131197
 4679 24c0 FE8246FF 		.word	-12156162
 4680 24c4 20ADF0FF 		.word	-1004256
 4681 24c8 1DDCC700 		.word	13098013
 4682 24cc 6E6473FF 		.word	-9214866
 4683 24d0 84E5F900 		.word	16377220
 4684 24d4 E4E9DFFF 		.word	-2102812
 4685 24d8 25D8D1FE 		.word	-19802075
 4686 24dc B2B1D1FF 		.word	-3034702
 4687 24e0 B72DA5FE 		.word	-22729289
 4688 24e4 E0617200 		.word	7496160
 4689 24e8 8961A8FF 		.word	-5742199
 4690 24ec E1DEAC00 		.word	11329249
 4691 24f0 A50D3101 		.word	19991973
 4692 24f4 D2EBCCFF 		.word	-3347502
 4693 24f8 FC041CFE 		.word	-31718148
 4694 24fc 46A09700 		.word	9936966
 4695 2500 E8BE34FE 		.word	-30097688
 4696 2504 53F85DFF 		.word	-10618797
 4697 2508 3ED74D01 		.word	21878590
 4698 250c AFAFB3FF 		.word	-5001297
 4699 2510 A0324200 		.word	4338336
 4700 2514 7930D000 		.word	13643897
 4701 2518 3FA9D1FF 		.word	-3036865
 4702 251c 00D2C800 		.word	13160960
 4703 2520 E0BB2C01 		.word	19708896
 4704 2524 49A25200 		.word	5415497
ARM GAS  C:\Users\NIGHDR~1\AppData\Local\Temp\ccrnUt9g.s 			page 95


 4705 2528 09B08FFF 		.word	-7360503
 4706 252c 134CC1FF 		.word	-4109293
 4707 2530 1D3BA701 		.word	27736861
 4708 2534 182B9A00 		.word	10103576
 4709 2538 1CBEBE00 		.word	12500508
 4710 253c 8DBC8100 		.word	8502413
 4711 2540 E8EBCBFF 		.word	-3413016
 4712 2544 EA006DFF 		.word	-9633558
 4713 2548 36419F00 		.word	10436918
 4714 254c 3C58E8FF 		.word	-1550276
 4715 2550 79FD96FE 		.word	-23659143
 4716 2554 FCE983FF 		.word	-8132100
 4717 2558 C66E2901 		.word	19492550
 4718 255c 534D47FF 		.word	-12104365
 4719 2560 C8163BFE 		.word	-29681976
 4720 2564 6AFDF2FF 		.word	-852630
 4721 2568 150CCFFF 		.word	-3208171
 4722 256c ED42BD00 		.word	12403437
 4723 2570 5AC6CA01 		.word	30066266
 4724 2574 E1AC7F00 		.word	8367329
 4725 2578 3516CA00 		.word	13243957
 4726 257c 38E68400 		.word	8709688
 4727 2580 0156B700 		.word	12015105
 4728 2584 6DBE2A00 		.word	2801261
 4729 2588 F344AE01 		.word	28198131
 4730 258c 6DE49A00 		.word	10151021
 4731 2590 C8B17A01 		.word	24818120
 4732 2594 23A0B7FF 		.word	-4743133
 4733 2598 B13055FF 		.word	-11194191
 4734 259c 5ADAA9FF 		.word	-5645734
 4735 25a0 F8984E00 		.word	5150968
 4736 25a4 CAFE6E00 		.word	7274186
 4737 25a8 06342B00 		.word	2831366
 4738 25ac 8E6241FF 		.word	-12492146
 4739 25b0 3F911600 		.word	1478975
 4740 25b4 466A5D00 		.word	6122054
 4741 25b8 E88A6B01 		.word	23825128
 4742 25bc 6EB33DFF 		.word	-12733586
 4743 25c0 D381DA01 		.word	31097299
 4744 25c4 F2D15C00 		.word	6083058
 4745 25c8 235AD901 		.word	31021603
 4746 25cc B68F6AFF 		.word	-9793610
 4747 25d0 7465D9FF 		.word	-2529932
 4748 25d4 72FADDFF 		.word	-2229646
 4749 25d8 ADCC0600 		.word	445613
 4750 25dc 3C96A300 		.word	10720828
 4751 25e0 49AC2CFF 		.word	-13849527
 4752 25e4 EF6E50FF 		.word	-11505937
 4753 25e8 ED4C99FE 		.word	-23507731
 4754 25ec A18CF900 		.word	16354465
 4755 25f0 95E8E500 		.word	15067285
 4756 25f4 851F28FF 		.word	-14147707
 4757 25f8 AEA47700 		.word	7840942
 4758 25fc 7133D600 		.word	14037873
 4759 2600 81E402FE 		.word	-33364863
 4760 2604 4022F300 		.word	15934016
 4761 2608 6BE3F4FF 		.word	-728213
ARM GAS  C:\Users\NIGHDR~1\AppData\Local\Temp\ccrnUt9g.s 			page 96


 4762 260c AE6AC8FF 		.word	-3642706
 4763 2610 54994601 		.word	21403988
 4764 2614 32231000 		.word	1057586
 4765 2618 FA4AD8FE 		.word	-19379462
 4766 261c ECBD42FF 		.word	-12403220
 4767 2620 99F90D00 		.word	915865
 4768 2624 E6B204FF 		.word	-16469274
 4769 2628 DD29EE00 		.word	15608285
 4770 262c 76E379FF 		.word	-8789130
 4771 2630 5E578CFE 		.word	-24357026
 4772 2634 FE775C00 		.word	6060030
 4773 2638 49EFF6FE 		.word	-17371319
 4774 263c 75578000 		.word	8410997
 4775 2640 13D391FF 		.word	-7220461
 4776 2644 B12EFC00 		.word	16527025
 4777 2648 E55BF601 		.word	32922597
 4778 264c 4580F7FF 		.word	-556987
 4779 2650 CA4D3601 		.word	20336074
 4780 2654 080B09FF 		.word	-16184568
 4781 2658 9960A600 		.word	10903705
 4782 265c D9D6ADFF 		.word	-5384487
 4783 2660 86C00201 		.word	16957574
 4784 2664 00CF0000 		.word	52992
 4785 2668 BDAE6B01 		.word	23834301
 4786 266c 8C866400 		.word	6588044
 4787 2670 9EC1F301 		.word	32752030
 4788 2674 B666AB00 		.word	11232950
 4789 2678 EB9A3300 		.word	3381995
 4790 267c 8E057BFF 		.word	-8714866
 4791 2680 3CA85901 		.word	22652988
 4792 2684 D90E5CFF 		.word	-10744103
 4793 2688 13D60501 		.word	17159699
 4794 268c D3A7FE00 		.word	16689107
 4795 2690 2C06CAFE 		.word	-20314580
 4796 2694 7812ECFF 		.word	-1305992
 4797 2698 0F71B8FF 		.word	-4689649
 4798 269c B8DF8B00 		.word	9166776
 4799 26a0 28B177FE 		.word	-25710296
 4800 26a4 B67B5AFF 		.word	-10847306
 4801 26a8 B0A5B000 		.word	11576752
 4802 26ac F74DC200 		.word	12733943
 4803 26b0 1BEA7800 		.word	7924251
 4804 26b4 E700D6FF 		.word	-2752281
 4805 26b8 3B271E00 		.word	1976123
 4806 26bc 7D6391FF 		.word	-7249027
 4807 26c0 96444401 		.word	21251222
 4808 26c4 8DDEF800 		.word	16309901
 4809 26c8 997BD2FF 		.word	-2983015
 4810 26cc 6E7F98FF 		.word	-6783122
 4811 26d0 E521D601 		.word	30810597
 4812 26d4 87DDC500 		.word	12967303
 4813 26d8 89610200 		.word	156041
 4814 26dc 0C8FCCFF 		.word	-3371252
 4815 26e0 5129BC00 		.word	12331345
 4816 26e4 734F82FF 		.word	-8237197
 4817 26e8 5E038400 		.word	8651614
 4818 26ec 98AFBBFF 		.word	-4477032
ARM GAS  C:\Users\NIGHDR~1\AppData\Local\Temp\ccrnUt9g.s 			page 97


 4819 26f0 7C8D0AFF 		.word	-16085636
 4820 26f4 7EC0B3FF 		.word	-4996994
 4821 26f8 0B67C600 		.word	13002507
 4822 26fc 95062D00 		.word	2950805
 4823 2700 DB55BB01 		.word	29054427
 4824 2704 E612B2FF 		.word	-5106970
 4825 2708 48B69800 		.word	10008136
 4826 270c 03C6B8FF 		.word	-4667901
 4827 2710 8070E001 		.word	31486080
 4828 2714 61A1E600 		.word	15114593
 4829 2718 FE6326FF 		.word	-14261250
 4830 271c 3A9FC500 		.word	12951354
 4831 2720 9742DB00 		.word	14369431
 4832 2724 3B458FFF 		.word	-7387845
 4833 2728 B970F900 		.word	16347321
 4834 272c 77882FFF 		.word	-13662089
 4835 2730 7B828400 		.word	8684155
 4836 2734 A8475FFF 		.word	-10532952
 4837 2738 71B02801 		.word	19443825
 4838 273c E8B9AD00 		.word	11385320
 4839 2740 CF5D7501 		.word	24468943
 4840 2744 449D6CFF 		.word	-9659068
 4841 2748 660593FE 		.word	-23919258
 4842 274c 31612100 		.word	2187569
 4843 2750 59416FFE 		.word	-26263207
 4844 2754 F71EA3FF 		.word	-6086921
 4845 2758 7CD9DD01 		.word	31316348
 4846 275c 66FAD800 		.word	14219878
 4847 2760 C6AE4BFE 		.word	-28594490
 4848 2764 39371200 		.word	1193785
 4849 2768 E305EC01 		.word	32245219
 4850 276c E5D5AD00 		.word	11392485
 4851 2770 C96DDA01 		.word	31092169
 4852 2774 31E9EF00 		.word	15722801
 4853 2778 1E379E01 		.word	27146014
 4854 277c 19B26A00 		.word	6992409
 4855 2780 9B6FBC01 		.word	29126555
 4856 2784 5E7E8C00 		.word	9207390
 4857 2788 D71FEE01 		.word	32382935
 4858 278c 4DF01000 		.word	1110093
 4859 2790 D5F21901 		.word	18477781
 4860 2794 2647A800 		.word	11028262
 4861 2798 CDBA5DFE 		.word	-27411763
 4862 279c 31D38CFF 		.word	-7548111
 4863 27a0 DB00B4FF 		.word	-4980517
 4864 27a4 8676A500 		.word	10843782
 4865 27a8 A09386FF 		.word	-7957600
 4866 27ac 6EBA23FF 		.word	-14435730
 4867 27b0 C6F32A00 		.word	2814918
 4868 27b4 F3927700 		.word	7836403
 4869 27b8 86EBA301 		.word	27519878
 4870 27bc 04F187FF 		.word	-7868156
 4871 27c0 C12EC1FE 		.word	-20894015
 4872 27c4 67B44FFF 		.word	-11553689
 4873 27c8 E104B8FE 		.word	-21494559
 4874 27cc F2768200 		.word	8550130
 4875 27d0 9287B001 		.word	28346258
ARM GAS  C:\Users\NIGHDR~1\AppData\Local\Temp\ccrnUt9g.s 			page 98


 4876 27d4 EA6F1E00 		.word	1994730
 4877 27d8 4542D5FE 		.word	-19578299
 4878 27dc 29607B00 		.word	8085545
 4879 27e0 795E2AFF 		.word	-14000519
 4880 27e4 B2BFC3FF 		.word	-3948622
 4881 27e8 2E822A00 		.word	2785838
 4882 27ec 755408FF 		.word	-16231307
 4883 27f0 E931D6FE 		.word	-19516951
 4884 27f4 EE7A6D00 		.word	7174894
 4885 27f8 06475901 		.word	22628102
 4886 27fc ECD37B00 		.word	8115180
 4887 2800 F40D30FE 		.word	-30405132
 4888 2804 77940E00 		.word	955511
 4889 2808 721C56FF 		.word	-11133838
 4890 280c 4BED19FF 		.word	-15078069
 4891 2810 91E510FE 		.word	-32447087
 4892 2814 816435FF 		.word	-13278079
 4893 2818 869678FE 		.word	-25651578
 4894 281c A89D3200 		.word	3317160
 4895 2820 174868FF 		.word	-9943017
 4896 2824 E0310E00 		.word	930272
 4897 2828 FF7B16FF 		.word	-15303681
 4898 282c 97B997FF 		.word	-6833769
 4899 2830 AA50B801 		.word	28856490
 4900 2834 86B61400 		.word	1357446
 4901 2838 29646501 		.word	23421993
 4902 283c 99211000 		.word	1057177
 4903 2840 4C9A6F01 		.word	24091212
 4904 2844 56CEEAFF 		.word	-1388970
 4905 2848 C0A0A4FE 		.word	-22765376
 4906 284c A57B5DFF 		.word	-10650715
 4907 2850 01D8A4FE 		.word	-22751231
 4908 2854 4311AFFF 		.word	-5303997
 4909 2858 A90B3BFF 		.word	-12907607
 4910 285c 9E293DFF 		.word	-12768866
 4911 2860 49BC0EFF 		.word	-15811511
 4912 2864 C30689FF 		.word	-7797053
 4913 2868 16931DFF 		.word	-14839018
 4914 286c 146703FF 		.word	-16554220
 4915 2870 F682E3FF 		.word	-1867018
 4916 2874 7A288000 		.word	8398970
 4917 2878 E22F18FE 		.word	-31969310
 4918 287c 23242000 		.word	2106403
 4919 2880 98BAB7FF 		.word	-4736360
 4920 2884 45CA1400 		.word	1362501
 4921 2888 C385C300 		.word	12813763
 4922 288c DE33F700 		.word	16200670
 4923 2890 A9AB5E01 		.word	22981545
 4924 2894 B700A0FF 		.word	-6291273
 4925 2898 40CD1201 		.word	18009408
 4926 289c 9C530FFF 		.word	-15772772
 4927 28a0 C53AF9FE 		.word	-17220923
 4928 28a4 FB596EFF 		.word	-9545221
 4929 28a8 320A58FE 		.word	-27784654
 4930 28ac 332BD800 		.word	14166835
 4931 28b0 62F2C601 		.word	29815394
 4932 28b4 F5977100 		.word	7444469
ARM GAS  C:\Users\NIGHDR~1\AppData\Local\Temp\ccrnUt9g.s 			page 99


 4933 28b8 ABECC201 		.word	29551787
 4934 28bc C51FC7FF 		.word	-3727419
 4935 28c0 E5512601 		.word	19288549
 4936 28c4 293B1400 		.word	1325865
 4937 28c8 FD68E600 		.word	15100157
 4938 28cc 985D0EFF 		.word	-15835752
 4939 28d0 F6F292FE 		.word	-23923978
 4940 28d4 D6A9F0FF 		.word	-1005098
 4941 28d8 F0666CFE 		.word	-26450192
 4942 28dc A0A7EC00 		.word	15509408
 4943 28e0 9ADABC00 		.word	12376730
 4944 28e4 96E9CAFF 		.word	-3479146
 4945 28e8 1B13FA01 		.word	33166107
 4946 28ec 024785FF 		.word	-8042750
 4947 28f0 AF0C3F01 		.word	20909231
 4948 28f4 91B7C600 		.word	13023121
 4949 28f8 687873FF 		.word	-9209752
 4950 28fc 82FBF700 		.word	16251778
 4951 2900 11D4A7FF 		.word	-5778415
 4952 2904 3E7B84FF 		.word	-8094914
 4953 2908 F764BD00 		.word	12412151
 4954 290c 9BDF9800 		.word	10018715
 4955 2910 8FC52100 		.word	2213263
 4956 2914 9B3B2CFF 		.word	-13878373
 4957 2918 965DF001 		.word	32529814
 4958 291c 7F0357FF 		.word	-11074689
 4959 2920 5F47CF01 		.word	30361439
 4960 2924 A75501FF 		.word	-16689753
 4961 2928 BC9874FF 		.word	-9135940
 4962 292c 0A171700 		.word	1513226
 4963 2930 89C35D01 		.word	22922121
 4964 2934 36626100 		.word	6382134
 4965 2938 F000A8FF 		.word	-5766928
 4966 293c 94BC7F00 		.word	8371348
 4967 2940 866B9700 		.word	9923462
 4968 2944 4CFDAB00 		.word	11271500
 4969 2948 5A84C000 		.word	12616794
 4970 294c 92163600 		.word	3544722
 4971 2950 E04236FE 		.word	-29998368
 4972 2954 E6BAE5FF 		.word	-1721626
 4973 2958 27B6C400 		.word	12891687
 4974 295c 94FB82FF 		.word	-8193132
 4975 2960 41836CFE 		.word	-26442943
 4976 2964 8001A000 		.word	10486144
 4977 2968 A931A7FE 		.word	-22597207
 4978 296c C7FE94FF 		.word	-7012665
 4979 2970 FB068300 		.word	8587003
 4980 2974 BBFE81FF 		.word	-8257861
 4981 2978 55523E00 		.word	4084309
 4982 297c B2173AFF 		.word	-12970062
 4983 2980 FE840500 		.word	361726
 4984 2984 A4D52700 		.word	2610596
 4985 2988 86FC92FE 		.word	-23921530
 4986 298c 253551FF 		.word	-11455195
 4987 2990 9B865200 		.word	5408411
 4988 2994 CDA7EEFF 		.word	-1136691
 4989 2998 5E2DB4FF 		.word	-4969122
ARM GAS  C:\Users\NIGHDR~1\AppData\Local\Temp\ccrnUt9g.s 			page 100


 4990 299c 8428A100 		.word	10561668
 4991 29a0 FE6F7001 		.word	24145918
 4992 29a4 364BD900 		.word	14240566
 4993 29a8 B3E6DD01 		.word	31319731
 4994 29ac EB5EBFFF 		.word	-4235541
 4995 29b0 17F33001 		.word	19985175
 4996 29b4 CA91CBFF 		.word	-3436086
 4997 29b8 27762AFF 		.word	-13994457
 4998 29bc 758DFD00 		.word	16616821
 4999 29c0 FE00DE00 		.word	14549246
 5000 29c4 2BFB3200 		.word	3341099
 5001 29c8 36A9EA01 		.word	32155958
 5002 29cc 5044D000 		.word	13648976
 5003 29d0 94CBF3FE 		.word	-17577068
 5004 29d4 91078700 		.word	8849297
 5005 29d8 06FE0000 		.word	65030
 5006 29dc FCB97F00 		.word	8370684
 5007 29e0 620881FF 		.word	-8320926
 5008 29e4 262348FF 		.word	-12049626
 5009 29e8 D324DC01 		.word	31204563
 5010 29ec 281A5900 		.word	5839400
 5011 29f0 A840C5FE 		.word	-20627288
 5012 29f4 03DEEFFF 		.word	-1057277
 5013 29f8 0253D7FE 		.word	-19442942
 5014 29fc B49F6900 		.word	6922164
 5015 2a00 3A73C200 		.word	12743482
 5016 2a04 BA746AFF 		.word	-9800518
 5017 2a08 E5F7DBFF 		.word	-2361371
 5018 2a0c 8176C100 		.word	12678785
 5019 2a10 CAAEB701 		.word	28815050
 5020 2a14 A6A14800 		.word	4759974
 5021 2a18 C96B93FE 		.word	-23893047
 5022 2a1c ED884A00 		.word	4884717
 5023 2a20 E9E66A01 		.word	23783145
 5024 2a24 696FA800 		.word	11038569
 5025 2a28 40E01E01 		.word	18800704
 5026 2a2c 01E50300 		.word	255233
 5027 2a30 6697AFFF 		.word	-5269658
 5028 2a34 C2EEE4FF 		.word	-1773886
 5029 2a38 FEFAD400 		.word	13957886
 5030 2a3c BBED7900 		.word	7990715
 5031 2a40 43FB6001 		.word	23132995
 5032 2a44 C51E0B00 		.word	728773
 5033 2a48 B75FCC00 		.word	13393847
 5034 2a4c CD598A00 		.word	9066957
 5035 2a50 40DD2501 		.word	19258688
 5036 2a54 FFDF1EFF 		.word	-14753793
 5037 2a58 B230D3FF 		.word	-2936654
 5038 2a5c F1C85AFF 		.word	-10827535
 5039 2a60 A7D160FF 		.word	-10432089
 5040 2a64 3982DD00 		.word	14516793
 5041 2a68 2E72C8FF 		.word	-3640786
 5042 2a6c 3DB84200 		.word	4372541
 5043 2a70 37B618FE 		.word	-31934921
 5044 2a74 6EB62100 		.word	2209390
 5045 2a78 ABBEE8FF 		.word	-1524053
 5046 2a7c 725E1F00 		.word	2055794
ARM GAS  C:\Users\NIGHDR~1\AppData\Local\Temp\ccrnUt9g.s 			page 101


 5047 2a80 12DD0800 		.word	580882
 5048 2a84 2FE7FE00 		.word	16705327
 5049 2a88 FF705300 		.word	5468415
 5050 2a8c 760FD7FF 		.word	-2683018
 5051 2a90 AD1928FE 		.word	-30926419
 5052 2a94 C0C11FFF 		.word	-14696000
 5053 2a98 EE1592FF 		.word	-7203346
 5054 2a9c ABC176FF 		.word	-8994389
 5055 2aa0 65EA35FE 		.word	-30021019
 5056 2aa4 83D47000 		.word	7394435
 5057 2aa8 59C06B01 		.word	23838809
 5058 2aac 08D01B00 		.word	1822728
 5059 2ab0 B5D90FFF 		.word	-15738443
 5060 2ab4 E795E800 		.word	15242727
 5061 2ab8 8CEC7E00 		.word	8318092
 5062 2abc 9009C7FF 		.word	-3733104
 5063 2ac0 0C4FB5FE 		.word	-21672180
 5064 2ac4 93B6CAFF 		.word	-3492205
 5065 2ac8 136DB6FF 		.word	-4821741
 5066 2acc 31D4E100 		.word	14799921
 5067 2ad0 4AA3CB00 		.word	13345610
 5068 2ad4 AFE99400 		.word	9759151
 5069 2ad8 1A703300 		.word	3371034
 5070 2adc C1C109FF 		.word	-16137791
 5071 2ae0 0F87F900 		.word	16353039
 5072 2ae4 96E38200 		.word	8577942
 5073 2ae8 CC00DB01 		.word	31129804
 5074 2aec 18F2CD00 		.word	13496856
 5075 2af0 EED075FF 		.word	-9056018
 5076 2af4 16F47000 		.word	7402518
 5077 2af8 1AE52200 		.word	2286874
 5078 2afc 2550BCFF 		.word	-4435931
 5079 2b00 262DCEFE 		.word	-20042458
 5080 2b04 F05AE1FF 		.word	-2008336
 5081 2b08 1D032FFF 		.word	-13696227
 5082 2b0c 2AE04C00 		.word	5038122
 5083 2b10 BAF3A700 		.word	11006906
 5084 2b14 20840FFF 		.word	-15760352
 5085 2b18 05337D00 		.word	8205061
 5086 2b1c 8B871800 		.word	1607563
 5087 2b20 06F1DB00 		.word	14414086
 5088 2b24 ACE585FF 		.word	-8002132
 5089 2b28 F6D63200 		.word	3331830
 5090 2b2c E70BCFFF 		.word	-3208217
 5091 2b30 BF7E5301 		.word	22249151
 5092 2b34 B4A3AAFF 		.word	-5594188
 5093 2b38 F5381801 		.word	18364661
 5094 2b3c B2A4D3FF 		.word	-2906958
 5095 2b40 0310CA01 		.word	30019587
 5096 2b44 623976FF 		.word	-9029278
 5097 2b48 8D8359FE 		.word	-27688051
 5098 2b4c 21331800 		.word	1585953
 5099 2b50 F3955BFF 		.word	-10775053
 5100 2b54 FD340E00 		.word	931069
 5101 2b58 23A943FE 		.word	-29120221
 5102 2b5c 311E58FF 		.word	-11002319
 5103 2b60 B31B24FF 		.word	-14410829
ARM GAS  C:\Users\NIGHDR~1\AppData\Local\Temp\ccrnUt9g.s 			page 102


 5104 2b64 A58CB700 		.word	12029093
 5105 2b68 3ABD9700 		.word	9944378
 5106 2b6c 581F0000 		.word	8024
 5107 2b70 4BA94200 		.word	4368715
 5108 2b74 4265C7FF 		.word	-3709630
 5109 2b78 18D8C701 		.word	29874200
 5110 2b7c 79C41AFF 		.word	-15022983
 5111 2b80 0E4FCBFE 		.word	-20230386
 5112 2b84 F0E251FF 		.word	-11410704
 5113 2b88 5E1C0AFF 		.word	-16114594
 5114 2b8c 53C1F0FF 		.word	-999085
 5115 2b90 CCC183FF 		.word	-8142388
 5116 2b94 5E0F5600 		.word	5640030
 5117 2b98 DA289D00 		.word	10299610
 5118 2b9c 33C1D100 		.word	13746483
 5119 2ba0 00F2B100 		.word	11661824
 5120 2ba4 66B9F700 		.word	16234854
 5121 2ba8 9E6D7400 		.word	7630238
 5122 2bac 26875B00 		.word	5998374
 5123 2bb0 DFAF9500 		.word	9809887
 5124 2bb4 DC4201FF 		.word	-16694564
 5125 2bb8 563CE800 		.word	15219798
 5126 2bbc 196025FF 		.word	-14327783
 5127 2bc0 E17AA201 		.word	27425505
 5128 2bc4 D7BBA8FF 		.word	-5719081
 5129 2bc8 9E9D2E00 		.word	3055006
 5130 2bcc 38ABA200 		.word	10660664
 5131 2bd0 E8F06501 		.word	23458024
 5132 2bd4 7A160900 		.word	595578
 5133 2bd8 330915FF 		.word	-15398605
 5134 2bdc 3519EEFF 		.word	-1173195
 5135 2be0 D91EE8FE 		.word	-18342183
 5136 2be4 7DA99400 		.word	9742717
 5137 2be8 0DE86600 		.word	6744077
 5138 2bec 94092500 		.word	2427284
 5139 2bf0 A5618D01 		.word	26042789
 5140 2bf4 E4832900 		.word	2720740
 5141 2bf8 DE0FF3FF 		.word	-847906
 5142 2bfc FE121100 		.word	1118974
 5143 2c00 063CED01 		.word	32324614
 5144 2c04 6A037100 		.word	7406442
 5145 2c08 3B84BD00 		.word	12420155
 5146 2c0c 5C701E00 		.word	1994844
 5147 2c10 69D0D500 		.word	14012521
 5148 2c14 3054B3FF 		.word	-5024720
 5149 2c18 BB79E7FE 		.word	-18384453
 5150 2c1c 1BD86DFF 		.word	-9578469
 5151 2c20 A2DD6BFE 		.word	-26485342
 5152 2c24 49EFC3FF 		.word	-3936439
 5153 2c28 FA1F39FF 		.word	-13033478
 5154 2c2c 958759FF 		.word	-10909803
 5155 2c30 B9177301 		.word	24319929
 5156 2c34 03A39DFF 		.word	-6446333
 5157 2c38 1270FA00 		.word	16412690
 5158 2c3c 1939BBFF 		.word	-4507367
 5159 2c40 A160A400 		.word	10772641
 5160 2c44 2F10F300 		.word	15929391
ARM GAS  C:\Users\NIGHDR~1\AppData\Local\Temp\ccrnUt9g.s 			page 103


 5161 2c48 0C8DFBFE 		.word	-17068788
 5162 2c4c 43EAB8FF 		.word	-4658621
 5163 2c50 2912A100 		.word	10555945
 5164 2c54 AF0660FF 		.word	-10484049
 5165 2c58 A0AC34FE 		.word	-30102368
 5166 2c5c 18B0B7FF 		.word	-4739048
 5167 2c60 C6C15501 		.word	22397382
 5168 2c64 7C7989FF 		.word	-7767684
 5169 2c68 973272FF 		.word	-9293161
 5170 2c6c DCCB3CFF 		.word	-12792868
 5171 2c70 CFEF0501 		.word	17166287
 5172 2c74 00266BFF 		.word	-9755136
 5173 2c78 37EE5EFE 		.word	-27333065
 5174 2c7c 46985E00 		.word	6199366
 5175 2c80 D5DC4D01 		.word	21880021
 5176 2c84 781145FF 		.word	-12250760
 5177 2c88 55A4BEFF 		.word	-4283307
 5178 2c8c CBEA5100 		.word	5368523
 5179 2c90 263125FE 		.word	-31117018
 5180 2c94 3D907C00 		.word	8163389
 5181 2c98 894E31FE 		.word	-30323063
 5182 2c9c A8F73000 		.word	3209128
 5183 2ca0 5FA4FC00 		.word	16557151
 5184 2ca4 69A98700 		.word	8890729
 5185 2ca8 FDE48600 		.word	8840445
 5186 2cac 40A64B00 		.word	4957760
 5187 2cb0 514914FF 		.word	-15447727
 5188 2cb4 CFD20A00 		.word	709327
 5189 2cb8 EA6A96FF 		.word	-6919446
 5190 2cbc 5E225AFF 		.word	-10870178
 5191 2cc0 FE9F39FE 		.word	-29777922
 5192 2cc4 DC856300 		.word	6522332
 5193 2cc8 8B93B4FE 		.word	-21720181
 5194 2ccc 1817B900 		.word	12130072
 5195 2cd0 29391EFF 		.word	-14796503
 5196 2cd4 BD614C00 		.word	5005757
 5197 2cd8 41BBDFFF 		.word	-2114751
 5198 2cdc E0AC25FF 		.word	-14308128
 5199 2ce0 223E5F01 		.word	23019042
 5200 2ce4 E790F000 		.word	15765735
 5201 2ce8 4D6A7EFE 		.word	-25269683
 5202 2cec 40985B00 		.word	6002752
 5203 2cf0 1D629B00 		.word	10183197
 5204 2cf4 E2FB35FF 		.word	-13239326
 5205 2cf8 EAD305FF 		.word	-16395286
 5206 2cfc 90CBDEFF 		.word	-2176112
 5207 2d00 A4B0DDFE 		.word	-19025756
 5208 2d04 05E71800 		.word	1632005
 5209 2d08 B37ACD00 		.word	13466291
 5210 2d0c 240186FF 		.word	-7995100
 5211 2d10 7D4697FE 		.word	-23640451
 5212 2d14 61E4FC00 		.word	16573537
 5213 2d18 AC8117FE 		.word	-32013908
 5214 2d1c 305AD1FF 		.word	-3057104
 5215 2d20 96E05201 		.word	22208662
 5216 2d24 54861E00 		.word	2000468
 5217 2d28 F1C42E00 		.word	3065073
ARM GAS  C:\Users\NIGHDR~1\AppData\Local\Temp\ccrnUt9g.s 			page 104


 5218 2d2c 6771EAFF 		.word	-1412761
 5219 2d30 2E6579FE 		.word	-25598674
 5220 2d34 287CFAFF 		.word	-361432
 5221 2d38 872DF2FE 		.word	-17683065
 5222 2d3c 09F9A8FF 		.word	-5703415
 5223 2d40 8C6C83FF 		.word	-8164212
 5224 2d44 8FA3AB00 		.word	11248527
 5225 2d48 32ADC7FF 		.word	-3691214
 5226 2d4c 58DE8EFF 		.word	-7414184
 5227 2d50 C85F9E00 		.word	10379208
 5228 2d54 8EC0A3FF 		.word	-6045554
 5229 2d58 07758700 		.word	8877319
 5230 2d5c 6F7C1600 		.word	1473647
 5231 2d60 EC0C41FE 		.word	-29291284
 5232 2d64 442641FF 		.word	-12507580
 5233 2d68 E3AEFE00 		.word	16690915
 5234 2d6c F4F52600 		.word	2553332
 5235 2d70 F032D0FF 		.word	-3132688
 5236 2d74 A13FFA00 		.word	16400289
 5237 2d78 3CD1EF00 		.word	15716668
 5238 2d7c 7A231300 		.word	1254266
 5239 2d80 0E21E6FE 		.word	-18472690
 5240 2d84 029F7100 		.word	7446274
 5241 2d88 6A147FFF 		.word	-8448918
 5242 2d8c E4CD6000 		.word	6344164
 5243 2d90 89D2AEFE 		.word	-22097271
 5244 2d94 B4D490FF 		.word	-7285580
 5245 2d98 59629A01 		.word	26894937
 5246 2d9c 22588B00 		.word	9132066
 5247 2da0 A7A27001 		.word	24158887
 5248 2da4 416EC500 		.word	12938817
 5249 2da8 F125A900 		.word	11085297
 5250 2dac 423883FF 		.word	-8177598
 5251 2db0 0AC953FE 		.word	-28063478
 5252 2db4 85FDBBFF 		.word	-4457083
 5253 2db8 B1702DFE 		.word	-30576463
 5254 2dbc C4FB0000 		.word	64452
 5255 2dc0 C4FA97FF 		.word	-6817084
 5256 2dc4 EEE8D6FF 		.word	-2692882
 5257 2dc8 96D1CD00 		.word	13488534
 5258 2dcc 1CF07600 		.word	7794716
 5259 2dd0 474C5301 		.word	22236231
 5260 2dd4 EC635B00 		.word	5989356
 5261 2dd8 2AFA8301 		.word	25426474
 5262 2ddc 601240FF 		.word	-12578208
 5263 2de0 76DE2300 		.word	2350710
 5264 2de4 71D6CBFF 		.word	-3418511
 5265 2de8 7A77B8FF 		.word	-4688006
 5266 2dec 42132400 		.word	2364226
 5267 2df0 CC40F900 		.word	16335052
 5268 2df4 92598B00 		.word	9132434
 5269 2df8 863E8701 		.word	25640582
 5270 2dfc 68E96500 		.word	6678888
 5271 2e00 BC541A00 		.word	1725628
 5272 2e04 31F98100 		.word	8517937
 5273 2e08 D0D64BFF 		.word	-11807024
 5274 2e0c CF824DFF 		.word	-11697457
ARM GAS  C:\Users\NIGHDR~1\AppData\Local\Temp\ccrnUt9g.s 			page 105


 5275 2e10 73AFEB00 		.word	15445875
 5276 2e14 AB0289FF 		.word	-7798101
 5277 2e18 AF91BA01 		.word	29004207
 5278 2e1c 37F587FF 		.word	-7867081
 5279 2e20 9A56B501 		.word	28661402
 5280 2e24 643AF6FF 		.word	-640412
 5281 2e28 6DC73CFF 		.word	-12794003
 5282 2e2c 52CC86FF 		.word	-7943086
 5283 2e30 D731E601 		.word	31863255
 5284 2e34 8CE5C0FF 		.word	-4135540
 5285 2e38 DEC1FBFF 		.word	-278050
 5286 2e3c 51880FFF 		.word	-15759279
 5287 2e40 B395A2FF 		.word	-6122061
 5288 2e44 17271DFF 		.word	-14866665
 5289 2e48 075F4BFE 		.word	-28614905
 5290 2e4c BF51DE00 		.word	14569919
 5291 2e50 F1515AFF 		.word	-10857999
 5292 2e54 6B31C9FF 		.word	-3591829
 5293 2e58 F4D39D00 		.word	10343412
 5294 2e5c DE8C95FF 		.word	-6976290
 5295 2e60 41DB38FE 		.word	-29828287
 5296 2e64 BDF65AFF 		.word	-10815811
 5297 2e68 B23B9D01 		.word	27081650
 5298 2e6c 30DB3400 		.word	3463984
 5299 2e70 6222D700 		.word	14099042
 5300 2e74 1C11BBFF 		.word	-4517604
 5301 2e78 AFA91800 		.word	1616303
 5302 2e7c 5C4FA1FF 		.word	-6205604
 5303 2e80 ECC8C201 		.word	29542636
 5304 2e84 938FEA00 		.word	15372179
 5305 2e88 E5E10701 		.word	17293797
 5306 2e8c C5A80E00 		.word	960709
 5307 2e90 EB333501 		.word	20263915
 5308 2e94 FD78AE00 		.word	11434237
 5309 2e98 C506A8FF 		.word	-5765435
 5310 2e9c CA75AB00 		.word	11236810
 5311 2ea0 A315CE00 		.word	13505955
 5312 2ea4 72555AFF 		.word	-10857102
 5313 2ea8 0F290AFF 		.word	-16111345
 5314 2eac C2136300 		.word	6493122
 5315 2eb0 4137D8FE 		.word	-19384511
 5316 2eb4 A2927400 		.word	7639714
 5317 2eb8 32CED4FF 		.word	-2830798
 5318 2ebc 40921DFF 		.word	-14839232
 5319 2ec0 9E9E8301 		.word	25403038
 5320 2ec4 64A582FF 		.word	-8215196
 5321 2ec8 AC1781FF 		.word	-8317012
 5322 2ecc 7D3509FF 		.word	-16173699
 5323 2ed0 0FC11201 		.word	18006287
 5324 2ed4 1A310BFF 		.word	-16043750
 5325 2ed8 B5AEC901 		.word	29994677
 5326 2edc 87C90EFF 		.word	-15808121
 5327 2ee0 64139500 		.word	9769828
 5328 2ee4 DB624F00 		.word	5202651
 5329 2ee8 2A638FFE 		.word	-24157398
 5330 2eec 600030FF 		.word	-13631392
 5331 2ef0 C5F953FE 		.word	-28051003
ARM GAS  C:\Users\NIGHDR~1\AppData\Local\Temp\ccrnUt9g.s 			page 106


 5332 2ef4 68954FFF 		.word	-11561624
 5333 2ef8 EB6E88FE 		.word	-24613141
 5334 2efc 52802CFF 		.word	-13860782
 5335 2f00 412924FE 		.word	-31184575
 5336 2f04 58D30A00 		.word	709464
 5337 2f08 BB79BB00 		.word	12286395
 5338 2f0c 6286C700 		.word	13076066
 5339 2f10 ABBCB3FE 		.word	-21775189
 5340 2f14 D20BEEFF 		.word	-1176622
 5341 2f18 427B82FE 		.word	-25003198
 5342 2f1c 34EA3D00 		.word	4057652
 5343 2f20 307117FE 		.word	-32018128
 5344 2f24 065678FF 		.word	-8890874
 5345 2f28 77B2F500 		.word	16102007
 5346 2f2c 5781C900 		.word	13205847
 5347 2f30 F28DD100 		.word	13733362
 5348 2f34 CA725500 		.word	5599946
 5349 2f38 9416A100 		.word	10557076
 5350 2f3c 67C33000 		.word	3195751
 5351 2f40 1931ABFF 		.word	-5557991
 5352 2f44 8A438200 		.word	8536970
 5353 2f48 B6497AFE 		.word	-25540170
 5354 2f4c 94188200 		.word	8525972
 5355 2f50 D3E59A00 		.word	10151379
 5356 2f54 209B9E00 		.word	10394400
 5357 2f58 54693D00 		.word	4024660
 5358 2f5c B1C209FF 		.word	-16137551
 5359 2f60 A6595601 		.word	22436262
 5360 2f64 3653BB00 		.word	12276534
 5361 2f68 F92875FF 		.word	-9099015
 5362 2f6c 6D03D7FF 		.word	-2686099
 5363 2f70 35922C01 		.word	19698229
 5364 2f74 3F2FB300 		.word	11743039
 5365 2f78 C2D803FE 		.word	-33302334
 5366 2f7c 0E548800 		.word	8934414
 5367 2f80 88B10DFF 		.word	-15879800
 5368 2f84 48F3BAFF 		.word	-4525240
 5369 2f88 75117DFF 		.word	-8580747
 5370 2f8c D33AD3FF 		.word	-2934061
 5371 2f90 5D4FDF00 		.word	14634845
 5372 2f94 5A58F5FF 		.word	-698278
 5373 2f98 8BD16FFF 		.word	-9449077
 5374 2f9c 46DE2F00 		.word	3137094
 5375 2fa0 0AF64FFF 		.word	-11536886
 5376 2fa4 C6D9B200 		.word	11721158
 5377 2fa8 E3E10B01 		.word	17555939
 5378 2fac 4E7EB3FF 		.word	-5013938
 5379 2fb0 3E2B7E00 		.word	8268606
 5380 2fb4 67942300 		.word	2331751
 5381 2fb8 8108A5FE 		.word	-22738815
 5382 2fbc F5F09400 		.word	9761013
 5383 2fc0 3D338E00 		.word	9319229
 5384 2fc4 51D08600 		.word	8835153
 5385 2fc8 0F8973FF 		.word	-9205489
 5386 2fcc D377ECFF 		.word	-1280045
 5387 2fd0 9FF5F8FF 		.word	-461409
 5388 2fd4 028688FF 		.word	-7830014
ARM GAS  C:\Users\NIGHDR~1\AppData\Local\Temp\ccrnUt9g.s 			page 107


 5389 2fd8 E68B3A01 		.word	20614118
 5390 2fdc A0A4FE00 		.word	16688288
 5391 2fe0 72558DFF 		.word	-7514766
 5392 2fe4 31A6B6FF 		.word	-4807119
 5393 2fe8 90465401 		.word	22300304
 5394 2fec 55B60700 		.word	505429
 5395 2ff0 2E355D00 		.word	6108462
 5396 2ff4 09A6A1FF 		.word	-6183415
 5397 2ff8 37A2B2FF 		.word	-5070281
 5398 2ffc 2DB8BC00 		.word	12367917
 5399 3000 921C2CFE 		.word	-30663534
 5400 3004 A95A3100 		.word	3234473
 5401 3008 78B2F101 		.word	32617080
 5402 300c 0E7B7FFF 		.word	-8422642
 5403 3010 07F1C701 		.word	29880583
 5404 3014 BD4232FF 		.word	-13483331
 5405 3018 C68F65FE 		.word	-26898490
 5406 301c BDF387FF 		.word	-7867459
 5407 3020 8D1818FE 		.word	-31975283
 5408 3024 4B615700 		.word	5726539
 5409 3028 76FB9A01 		.word	26934134
 5410 302c ED369C00 		.word	10237677
 5411 3030 AB92CFFF 		.word	-3173717
 5412 3034 83C4F6FF 		.word	-605053
 5413 3038 88407101 		.word	24199304
 5414 303c 97E83900 		.word	3795095
 5415 3040 F0DA7300 		.word	7592688
 5416 3044 313D1BFF 		.word	-14992079
 5417 3048 40814901 		.word	21594432
 5418 304c FCA91BFF 		.word	-14964228
 5419 3050 28840A01 		.word	17466408
 5420 3054 5AC9C1FF 		.word	-4077222
 5421 3058 FC79F001 		.word	32537084
 5422 305c BACE2900 		.word	2739898
 5423 3060 2BC66100 		.word	6407723
 5424 3064 9164B700 		.word	12018833
 5425 3068 CCD850FE 		.word	-28256052
 5426 306c AC964100 		.word	4298412
 5427 3070 F9E5C4FE 		.word	-20650503
 5428 3074 687B49FF 		.word	-11961496
 5429 3078 4D6860FE 		.word	-27236275
 5430 307c 82B40800 		.word	570498
 5431 3080 687B3900 		.word	3767144
 5432 3084 DCCAE5FF 		.word	-1717540
 5433 3088 66F9D300 		.word	13891942
 5434 308c 560EE8FF 		.word	-1569194
 5435 3090 B64ED100 		.word	13717174
 5436 3094 EFE1A400 		.word	10805743
 5437 3098 6A0D20FF 		.word	-14676630
 5438 309c 784911FF 		.word	-15644296
 5439 30a0 8643E900 		.word	15287174
 5440 30a4 53FEB500 		.word	11927123
 5441 30a8 B7EC7001 		.word	24177847
 5442 30ac 304083FF 		.word	-8175568
 5443 30b0 F1D8F3FF 		.word	-796431
 5444 30b4 41C1E200 		.word	14860609
 5445 30b8 CEF164FE 		.word	-26938930
ARM GAS  C:\Users\NIGHDR~1\AppData\Local\Temp\ccrnUt9g.s 			page 108


 5446 30bc 6486A6FF 		.word	-5863836
 5447 30c0 EDCAC500 		.word	12962541
 5448 30c4 370D5100 		.word	5311799
 5449 30c8 207C66FF 		.word	-10060768
 5450 30cc 28E4B100 		.word	11658280
 5451 30d0 76B51F01 		.word	18855286
 5452 30d4 E7A086FF 		.word	-7954201
 5453 30d8 77BBCA00 		.word	13286263
 5454 30dc 008E3CFF 		.word	-12808704
 5455 30e0 8026BDFF 		.word	-4381056
 5456 30e4 A6C99600 		.word	9882022
 5457 30e8 CF781A01 		.word	18512079
 5458 30ec 36B8AC00 		.word	11319350
 5459 30f0 0CF2CCFE 		.word	-20123124
 5460 30f4 8542E600 		.word	15090309
 5461 30f8 22261F01 		.word	18818594
 5462 30fc B8705000 		.word	5271736
 5463 3100 2033A5FE 		.word	-22727904
 5464 3104 BFF33700 		.word	3666879
 5465 3108 3A4992FE 		.word	-23967430
 5466 310c 9BA7CDFF 		.word	-3299429
 5467 3110 646898FF 		.word	-6789020
 5468 3114 C5FECFFF 		.word	-3146043
 5469 3118 AD13F700 		.word	16192429
 5470 311c EE0ACA00 		.word	13241070
 5471 3120 EF97F200 		.word	15898607
 5472 3124 5E3B27FF 		.word	-14206114
 5473 3128 F01D66FF 		.word	-10084880
 5474 312c 0A5C9AFF 		.word	-6661110
 5475 3130 E554DBFF 		.word	-2403099
 5476 3134 A1815000 		.word	5276065
 5477 3138 D05ACC01 		.word	30169808
 5478 313c F0DBAEFF 		.word	-5317648
 5479 3140 9E669101 		.word	26306206
 5480 3144 35B24CFF 		.word	-11750859
 5481 3148 346CA801 		.word	27814964
 5482 314c 53DE6B00 		.word	7069267
 5483 3150 D3246D00 		.word	7152851
 5484 3154 763A3800 		.word	3684982
 5485 3158 081D1600 		.word	1449224
 5486 315c EDA0C700 		.word	13082861
 5487 3160 AAD19D00 		.word	10342826
 5488 3164 89472F00 		.word	3098505
 5489 3168 8F562000 		.word	2119311
 5490 316c C6F20200 		.word	193222
 5491 3170 D4308801 		.word	25702612
 5492 3174 5CACBA00 		.word	12233820
 5493 3178 E6976901 		.word	23697382
 5494 317c 60BFE500 		.word	15056736
 5495 3180 8A50BFFE 		.word	-21016438
 5496 3184 F0D882FF 		.word	-8202000
 5497 3188 622B06FE 		.word	-33150110
 5498 318c A8C43100 		.word	3261608
 5499 3190 FD125B01 		.word	22745853
 5500 3194 90497900 		.word	7948688
 5501 3198 3D922701 		.word	19370557
 5502 319c 3F6818FF 		.word	-15177665
ARM GAS  C:\Users\NIGHDR~1\AppData\Local\Temp\ccrnUt9g.s 			page 109


 5503 31a0 B8A570FE 		.word	-26171976
 5504 31a4 7EEB6200 		.word	6482814
 5505 31a8 50D562FF 		.word	-10300080
 5506 31ac 7B3C57FF 		.word	-11060101
 5507 31b0 528CF501 		.word	32869458
 5508 31b4 DF78ADFF 		.word	-5408545
 5509 31b8 0FC68601 		.word	25609743
 5510 31bc CE3CEF00 		.word	15678670
 5511 31c0 E7EA5CFF 		.word	-10687769
 5512 31c4 21EE13FF 		.word	-15471071
 5513 31c8 A5718E01 		.word	26112421
 5514 31cc B0772600 		.word	2521008
 5515 31d0 A02BA6FE 		.word	-22664288
 5516 31d4 EF5B6900 		.word	6904815
 5517 31d8 6B3DC201 		.word	29506923
 5518 31dc 19044400 		.word	4457497
 5519 31e0 0F8B3300 		.word	3377935
 5520 31e4 A4846AFF 		.word	-9796444
 5521 31e8 22742EFE 		.word	-30510046
 5522 31ec A85FC500 		.word	12935080
 5523 31f0 89D41700 		.word	1561737
 5524 31f4 489C3A00 		.word	3841096
 5525 31f8 897045FE 		.word	-29003639
 5526 31fc 96699AFF 		.word	-6657642
 5527 3200 ECC99D00 		.word	10340844
 5528 3204 17D49AFF 		.word	-6630377
 5529 3208 8852E3FE 		.word	-18656632
 5530 320c E23BDDFF 		.word	-2278430
 5531 3210 5F95C000 		.word	12621151
 5532 3214 517634FF 		.word	-13339055
 5533 3218 212BD701 		.word	30878497
 5534 321c 0E934BFF 		.word	-11824370
 5535 3220 599C79FE 		.word	-25584551
 5536 3224 0E124F00 		.word	5181966
 5537 3228 93D08B01 		.word	25940115
 5538 322c 97DA3EFF 		.word	-12658025
 5539 3230 9C580801 		.word	17324188
 5540 3234 D2B862FF 		.word	-10307374
 5541 3238 14AF7BFF 		.word	-8671468
 5542 323c 6653E500 		.word	15029094
 5543 3240 DC417401 		.word	24396252
 5544 3244 96FA04FF 		.word	-16450922
 5545 3248 5C8EDCFF 		.word	-2322852
 5546 324c 22F742FF 		.word	-12388574
 5547 3250 CCE1B3FE 		.word	-21765684
 5548 3254 97519700 		.word	9916823
 5549 3258 4728ECFF 		.word	-1300409
 5550 325c 8A3F3E00 		.word	4079498
 5551 3260 064FF0FF 		.word	-1028346
 5552 3264 B7B9B500 		.word	11909559
 5553 3268 76321B00 		.word	1782390
 5554 326c 3FE3C000 		.word	12641087
 5555 3270 7B633A01 		.word	20603771
 5556 3274 32E09BFF 		.word	-6561742
 5557 3278 11E1DFFE 		.word	-18882287
 5558 327c DCE04DFF 		.word	-11673380
 5559 3280 0E2C7B01 		.word	24849422
ARM GAS  C:\Users\NIGHDR~1\AppData\Local\Temp\ccrnUt9g.s 			page 110


 5560 3284 8D80AF00 		.word	11501709
 5561 3288 F8D4C800 		.word	13161720
 5562 328c 963BB7FF 		.word	-4768874
 5563 3290 93611D00 		.word	1925523
 5564 3294 96CCB500 		.word	11914390
 5565 3298 FD254700 		.word	4662781
 5566 329c 91557700 		.word	7820689
 5567 32a0 9AC8BA00 		.word	12241050
 5568 32a4 0280F9FF 		.word	-425982
 5569 32a8 53187C00 		.word	8132691
 5570 32ac 0E578F00 		.word	9393934
 5571 32b0 A833F501 		.word	32846760
 5572 32b4 7C97E7FF 		.word	-1599620
 5573 32b8 D0F0C501 		.word	29749456
 5574 32bc 7CBEB900 		.word	12172924
 5575 32c0 303AF600 		.word	16136752
 5576 32c4 14E9E800 		.word	15264020
 5577 32c8 7D1262FF 		.word	-10349955
 5578 32cc 0DFE1FFF 		.word	-14680563
 5579 32d0 F5B182FF 		.word	-8211979
 5580 32d4 6C8E2300 		.word	2330220
 5581 32d8 AB7DF2FE 		.word	-17662549
 5582 32dc 8C0C22FF 		.word	-14545780
 5583 32e0 A5A1A200 		.word	10658213
 5584 32e4 CECD6500 		.word	6671822
 5585 32e8 F7192201 		.word	19012087
 5586 32ec 64913900 		.word	3772772
 5587 32f0 27463900 		.word	3753511
 5588 32f4 76CCCBFF 		.word	-3421066
 5589 32f8 F200A200 		.word	10617074
 5590 32fc A5F41E00 		.word	2028709
 5591 3300 C674E200 		.word	14841030
 5592 3304 806F99FF 		.word	-6721664
 5593 3308 8C36B601 		.word	28718732
 5594 330c 3C7A0FFF 		.word	-15762884
 5595 3310 9B3A3901 		.word	20527771
 5596 3314 3632C600 		.word	12988982
 5597 3318 ABD31DFF 		.word	-14822485
 5598 331c 6B8AA7FF 		.word	-5797269
 5599 3320 AD6BC7FF 		.word	-3707987
 5600 3324 6DA1C100 		.word	12689773
 5601 3328 5948F2FF 		.word	-898983
 5602 332c CE7359FF 		.word	-10914866
 5603 3330 FAFE8EFE 		.word	-24183046
 5604 3334 B1CA5EFF 		.word	-10564943
 5605 3338 51593200 		.word	3299665
 5606 333c 076942FF 		.word	-12424953
 5607 3340 19FEFFFE 		.word	-16777703
 5608 3344 CB4017FF 		.word	-15253301
 5609 3348 4FDE6CFF 		.word	-9642417
 5610 334c 27F94B00 		.word	4978983
 5611 3350 F17C3200 		.word	3308785
 5612 3354 EF988500 		.word	8755439
 5613 3358 DDF16900 		.word	6943197
 5614 335c 93976200 		.word	6461331
 5615 3360 D5A179FE 		.word	-25583147
 5616 3364 F2318900 		.word	8991218
ARM GAS  C:\Users\NIGHDR~1\AppData\Local\Temp\ccrnUt9g.s 			page 111


 5617 3368 E925F9FE 		.word	-17226263
 5618 336c 2AB71B00 		.word	1816362
 5619 3370 B877E6FF 		.word	-1673288
 5620 3374 D920A3FF 		.word	-6086439
 5621 3378 D0FBE401 		.word	31783888
 5622 337c 893E83FF 		.word	-8175991
 5623 3380 4F4009FE 		.word	-32948145
 5624 3384 5E307100 		.word	7417950
 5625 3388 118A32FE 		.word	-30242287
 5626 338c C1FF1600 		.word	1507265
 5627 3390 F712C501 		.word	29692663
 5628 3394 43376800 		.word	6829891
 5629 3398 10CD5FFF 		.word	-10498800
 5630 339c 30254200 		.word	4334896
 5631 33a0 379C3F01 		.word	20945975
 5632 33a4 40524AFF 		.word	-11906496
 5633 33a8 C83547FE 		.word	-28887608
 5634 33ac EF437D00 		.word	8209391
 5635 33b0 1AE0DE00 		.word	14606362
 5636 33b4 DF895DFF 		.word	-10647073
 5637 33b8 1EE0CAFF 		.word	-3481570
 5638 33bc 09DC8400 		.word	8707081
 5639 33c0 C626EB01 		.word	32188102
 5640 33c4 668D5600 		.word	5672294
 5641 33c8 3C2B5101 		.word	22096700
 5642 33cc 881C1A00 		.word	1711240
 5643 33d0 E92408FE 		.word	-33020695
 5644 33d4 CFF29400 		.word	9761487
 5645 33d8 A4A23F00 		.word	4170404
 5646 33dc 332EE0FF 		.word	-2085325
 5647 33e0 72304FFF 		.word	-11587470
 5648 33e4 09AFE200 		.word	14855945
 5649 33e8 DE03C1FF 		.word	-4127778
 5650 33ec 2FA0E8FF 		.word	-1531857
 5651 33f0 FF5D69FE 		.word	-26649089
 5652 33f4 0E2AE600 		.word	15084046
 5653 33f8 1A8A5201 		.word	22186522
 5654 33fc D02BF400 		.word	16002000
 5655 3400 1B2726FF 		.word	-14276837
 5656 3404 62D07FFF 		.word	-8400798
 5657 3408 4095B6FF 		.word	-4811456
 5658 340c 05FAD100 		.word	13761029
 5659 3410 BB3C1CFE 		.word	-31703877
 5660 3414 3119DAFF 		.word	-2483919
 5661 3418 A974CDFF 		.word	-3312471
 5662 341c 77127800 		.word	7869047
 5663 3420 9C7493FF 		.word	-7113572
 5664 3424 84356DFF 		.word	-9620092
 5665 3428 0D0ACA00 		.word	13240845
 5666 342c 6E53A700 		.word	10965870
 5667 3430 9DDB89FF 		.word	-7742563
 5668 3434 060382FF 		.word	-8256762
 5669 3438 32A71EFF 		.word	-14768334
 5670 343c 3C9F2FFF 		.word	-13656260
 5671 3440 81809DFE 		.word	-23232383
 5672 3444 5E03BD00 		.word	12387166
 5673 3448 03A64400 		.word	4498947
ARM GAS  C:\Users\NIGHDR~1\AppData\Local\Temp\ccrnUt9g.s 			page 112


 5674 344c 53DFD700 		.word	14147411
 5675 3450 965AC201 		.word	29514390
 5676 3454 0FA84100 		.word	4302863
 5677 3458 E35333FF 		.word	-13413405
 5678 345c CDAB42FF 		.word	-12407859
 5679 3460 36BB3C01 		.word	20757302
 5680 3464 98662DFF 		.word	-13801832
 5681 3468 779AE100 		.word	14785143
 5682 346c F0F78800 		.word	8976368
 5683 3470 64C5B2FF 		.word	-5061276
 5684 3474 8B47DFFF 		.word	-2144373
 5685 3478 CC521001 		.word	17846988
 5686 347c 29CE2AFF 		.word	-13971927
 5687 3480 9CC0DDFF 		.word	-2244452
 5688 3484 D87BF4FF 		.word	-754728
 5689 3488 DADAB9FF 		.word	-4597030
 5690 348c BBBAEFFF 		.word	-1066309
 5691 3490 FCACA0FF 		.word	-6247172
 5692 3494 C3341600 		.word	1455299
 5693 3498 90AEB5FE 		.word	-21647728
 5694 349c BB6473FF 		.word	-9214789
 5695 34a0 D34EB0FF 		.word	-5222701
 5696 34a4 1B07C100 		.word	12650267
 5697 34a8 93D568FF 		.word	-9906797
 5698 34ac 5AC90AFF 		.word	-16070310
 5699 34b0 507B4201 		.word	21134160
 5700 34b4 1621BA00 		.word	12198166
 5701 34b8 010763FE 		.word	-27064575
 5702 34bc 1ECE0A00 		.word	708126
 5703 34c0 E5EA0500 		.word	387813
 5704 34c4 351ED200 		.word	13770293
 5705 34c8 8A08DCFE 		.word	-19134326
 5706 34cc 4737A700 		.word	10958663
 5707 34d0 48E15601 		.word	22470984
 5708 34d4 76BEBC00 		.word	12369526
 5709 34d8 FEC16501 		.word	23446014
 5710 34dc ABF9ACFF 		.word	-5441109
 5711 34e0 5E9EB7FE 		.word	-21520802
 5712 34e4 5D026CFF 		.word	-9698723
 5713 34e8 B05D4CFF 		.word	-11772496
 5714 34ec 49634FFF 		.word	-11574455
 5715 34f0 4A4081FE 		.word	-25083830
 5716 34f4 F62E4100 		.word	4271862
 5717 34f8 63F17FFE 		.word	-25169565
 5718 34fc F69766FF 		.word	-10053642
 5719 3500 2C35D0FE 		.word	-19909332
 5720 3504 3B66EA00 		.word	15361595
 5721 3508 9AAFA4FF 		.word	-5984358
 5722 350c 58F22000 		.word	2159192
 5723 3510 6F260100 		.word	75375
 5724 3514 FFB6BEFF 		.word	-4278529
 5725 3518 73B00FFE 		.word	-32526221
 5726 351c A93C8100 		.word	8469673
 5727 3520 7AEDF100 		.word	15854970
 5728 3524 5A4C3F00 		.word	4148314
 5729 3528 3E4A78FF 		.word	-8893890
 5730 352c 7AC36E00 		.word	7259002
ARM GAS  C:\Users\NIGHDR~1\AppData\Local\Temp\ccrnUt9g.s 			page 113


 5731 3530 7704B200 		.word	11666551
 5732 3534 DEF2D200 		.word	13824734
 5733 3538 82212EFE 		.word	-30531198
 5734 353c 9C282900 		.word	2697372
 5735 3540 A7927001 		.word	24154791
 5736 3544 31A36FFF 		.word	-9460943
 5737 3548 79B0EB00 		.word	15446137
 5738 354c 4CCF0EFF 		.word	-15806644
 5739 3550 0319C601 		.word	29759747
 5740 3554 29EBD500 		.word	14019369
 5741 3558 5524D601 		.word	30811221
 5742 355c 315C6DFF 		.word	-9610191
 5743 3560 C8181EFE 		.word	-31582008
 5744 3564 A8ECC300 		.word	12840104
 5745 3568 91277C01 		.word	24913809
 5746 356c ECC39500 		.word	9815020
 5747 3570 5A24B8FF 		.word	-4709286
 5748 3574 4355AAFF 		.word	-5614269
 5749 3578 26231AFE 		.word	-31841498
 5750 357c 837C44FF 		.word	-12288893
 5751 3580 EF9B23FF 		.word	-14443537
 5752 3584 36C9A400 		.word	10799414
 5753 3588 C41675FF 		.word	-9103676
 5754 358c 310FCD00 		.word	13438769
 5755 3590 18E01D01 		.word	18735128
 5756 3594 7E719000 		.word	9466238
 5757 3598 7515B600 		.word	11933045
 5758 359c CB9F8D00 		.word	9281483
 5759 35a0 DF874D00 		.word	5081055
 5760 35a4 B0E6B0FF 		.word	-5183824
 5761 35a8 BEE5D7FF 		.word	-2628162
 5762 35ac 6325B5FF 		.word	-4905629
 5763 35b0 33158AFF 		.word	-7727821
 5764 35b4 19BD59FF 		.word	-10896103
 5765 35b8 3130A5FE 		.word	-22728655
 5766 35bc 982DF700 		.word	16199064
 5767 35c0 AA6CDE00 		.word	14576810
 5768 35c4 50CA0500 		.word	379472
 5769 35c8 1B4567FE 		.word	-26786533
 5770 35cc CC1681FF 		.word	-8317236
 5771 35d0 B4FC3EFE 		.word	-29426508
 5772 35d4 D2015BFF 		.word	-10812974
 5773 35d8 926EFEFF 		.word	-102766
 5774 35dc DBA21C00 		.word	1876699
 5775 35e0 DFFCD501 		.word	30801119
 5776 35e4 3B082100 		.word	2164795
 5777 35e8 CE10F400 		.word	15995086
 5778 35ec 81D33000 		.word	3199873
 5779 35f0 6BA0D000 		.word	13672555
 5780 35f4 703BD100 		.word	13712240
 5781 35f8 6D4DD8FE 		.word	-19378835
 5782 35fc 2215B9FF 		.word	-4647646
 5783 3600 F66338FF 		.word	-13081610
 5784 3604 B38B13FF 		.word	-15496269
 5785 3608 B91D32FF 		.word	-13492807
 5786 360c 54591300 		.word	1268052
 5787 3610 4AFA62FF 		.word	-10290614
ARM GAS  C:\Users\NIGHDR~1\AppData\Local\Temp\ccrnUt9g.s 			page 114


 5788 3614 E12AC8FF 		.word	-3659039
 5789 3618 C0D9CDFF 		.word	-3286592
 5790 361c D210A700 		.word	10948818
 5791 3620 63845F01 		.word	23037027
 5792 3624 2BE63900 		.word	3794475
 5793 3628 FE0BCBFF 		.word	-3470338
 5794 362c 63BC3FFF 		.word	-12600221
 5795 3630 77C1FBFE 		.word	-17055369
 5796 3634 50693600 		.word	3565904
 5797 3638 E8B5BD01 		.word	29210088
 5798 363c B74570FF 		.word	-9419337
 5799 3640 D0ABA5FF 		.word	-5919792
 5800 3644 2F6DB4FF 		.word	-4952785
 5801 3648 7B53A500 		.word	10834811
 5802 364c 92A234FF 		.word	-13327726
 5803 3650 9A0B04FF 		.word	-16512102
 5804 3654 97E35AFF 		.word	-10820713
 5805 3658 928961FE 		.word	-27162222
 5806 365c 3DE929FF 		.word	-14030531
 5807 3660 5E2A37FF 		.word	-13161890
 5808 3664 6CA4EC00 		.word	15508588
 5809 3668 9844FE00 		.word	16663704
 5810 366c 0A8C83FF 		.word	-8156150
 5811 3670 0A6A4FFE 		.word	-28349942
 5812 3674 F39E8900 		.word	9019123
 5813 3678 43B242FE 		.word	-29183421
 5814 367c B17BC6FF 		.word	-3769423
 5815 3680 0F3E2200 		.word	2244111
 5816 3684 C5582AFF 		.word	-14001979
 5817 3688 955FB1FF 		.word	-5152875
 5818 368c 9800C6FF 		.word	-3800936
 5819 3690 95FE71FF 		.word	-9306475
 5820 3694 E15AA3FF 		.word	-6071583
 5821 3698 7DD9F700 		.word	16243069
 5822 369c 1211E000 		.word	14684434
 5823 36a0 804278FE 		.word	-25673088
 5824 36a4 C01909FF 		.word	-16180800
 5825 36a8 32DDCD00 		.word	13491506
 5826 36ac 31D44600 		.word	4641841
 5827 36b0 E9FFA400 		.word	10813417
 5828 36b4 02D10900 		.word	643330
 5829 36b8 DD34DBFE 		.word	-19188515
 5830 36bc ACE0F4FF 		.word	-728916
 5831 36c0 5E38CE01 		.word	30292062
 5832 36c4 F2B302FF 		.word	-16600078
 5833 36c8 1F5BA401 		.word	27548447
 5834 36cc E62E8AFF 		.word	-7721242
 5835 36d0 BDE6DC00 		.word	14476989
 5836 36d4 392F3DFF 		.word	-12767431
 5837 36d8 6F0B9D00 		.word	10292079
 5838 36dc B15B9800 		.word	9984945
 5839 36e0 1CE66200 		.word	6481436
 5840 36e4 61577E00 		.word	8279905
 5841 36e8 C65991FF 		.word	-7251514
 5842 36ec A74F6B00 		.word	7032743
 5843 36f0 F94DA001 		.word	27282937
 5844 36f4 1DE9E6FF 		.word	-1644259
ARM GAS  C:\Users\NIGHDR~1\AppData\Local\Temp\ccrnUt9g.s 			page 115


 5845 36f8 961556FE 		.word	-27912810
 5846 36fc 3C0BC100 		.word	12651324
 5847 3700 972524FE 		.word	-31185513
 5848 3704 B996F3FF 		.word	-813383
 5849 3708 E4D45301 		.word	22271204
 5850 370c AC97B400 		.word	11835308
 5851 3710 C9A99B00 		.word	10201545
 5852 3714 F43CEA00 		.word	15351028
 5853 3718 8EEB0401 		.word	17099662
 5854 371c 43DA3C00 		.word	3988035
 5855 3720 C0714B01 		.word	21721536
 5856 3724 74F3CFFF 		.word	-3148940
 5857 3728 41AC9B00 		.word	10202177
 5858 372c 511E9CFF 		.word	-6545839
 5859 3730 504821FE 		.word	-31373232
 5860 3734 12E76DFF 		.word	-9574638
 5861 3738 8E6B15FE 		.word	-32150642
 5862 373c 7D1A84FF 		.word	-8119683
 5863 3740 B0103BFF 		.word	-12906320
 5864 3744 96C93A00 		.word	3852694
 5865 3748 CEA9C900 		.word	13216206
 5866 374c D079E200 		.word	14842320
 5867 3750 28AC0EFF 		.word	-15815640
 5868 3754 963D5EFF 		.word	-10601066
 5869 3758 38399CFF 		.word	-6538952
 5870 375c 8D3C91FF 		.word	-7258995
 5871 3760 2D6C95FF 		.word	-6984659
 5872 3764 EE919BFF 		.word	-6581778
 5873 3768 D1551FFE 		.word	-31500847
 5874 376c C00CD200 		.word	13765824
 5875 3770 63625DFE 		.word	-27434397
 5876 3774 98109700 		.word	9900184
 5877 3778 E1B9DC00 		.word	14465505
 5878 377c 8DEB2CFF 		.word	-13833331
 5879 3780 A0AC15FE 		.word	-32133984
 5880 3784 471A1FFF 		.word	-14738873
 5881 3788 0D405DFE 		.word	-27443187
 5882 378c 1C38C600 		.word	12990492
 5883 3790 B13EF801 		.word	33046193
 5884 3794 B608F100 		.word	15796406
 5885 3798 A66594FF 		.word	-7051866
 5886 379c 4E5185FF 		.word	-8040114
 5887 37a0 81DED701 		.word	30924417
 5888 37a4 BCA981FF 		.word	-8279620
 5889 37a8 E8076100 		.word	6359016
 5890 37ac 31703CFF 		.word	-12816335
 5891 37b0 D9E5FB00 		.word	16508377
 5892 37b4 776C8A00 		.word	9071735
 5893 37b8 27137BFE 		.word	-25488601
 5894 37bc 8331EB00 		.word	15413635
 5895 37c0 84549100 		.word	9524356
 5896 37c4 82E694FF 		.word	-7018878
 5897 37c8 194ABB00 		.word	12274201
 5898 37cc 05F536FF 		.word	-13175547
 5899 37d0 B9DBF101 		.word	32627641
 5900 37d4 12C2E4FF 		.word	-1785326
 5901 37d8 F1CA6600 		.word	6736625
ARM GAS  C:\Users\NIGHDR~1\AppData\Local\Temp\ccrnUt9g.s 			page 116


 5902 37dc 6971CA00 		.word	13267305
 5903 37e0 9BEB4F00 		.word	5237659
 5904 37e4 1509B2FF 		.word	-5109483
 5905 37e8 9C01EF00 		.word	15663516
 5906 37ec C8943D00 		.word	4035784
 5907 37f0 73F7D2FF 		.word	-2951309
 5908 37f4 31DD8700 		.word	8903985
 5909 37f8 3ABD0801 		.word	17349946
 5910 37fc 232E0900 		.word	601635
 5911 3800 514105FF 		.word	-16432815
 5912 3804 349EB9FF 		.word	-4612556
 5913 3808 7D742EFF 		.word	-13732739
 5914 380c 4A8C0DFF 		.word	-15889334
 5915 3810 D25CACFE 		.word	-22258478
 5916 3814 93174700 		.word	4659091
 5917 3818 D9E0FDFE 		.word	-16916263
 5918 381c 736CB4FF 		.word	-4952973
 5919 3820 913A30FE 		.word	-30393711
 5920 3824 DBB118FF 		.word	-15158821
 5921 3828 9CFF3C01 		.word	20774812
 5922 382c 9A93F200 		.word	15897498
 5923 3830 FD865700 		.word	5736189
 5924 3834 354BE500 		.word	15026997
 5925 3838 30C3DEFF 		.word	-2178256
 5926 383c 1FAF32FF 		.word	-13455585
 5927 3840 9CD278FF 		.word	-8858980
 5928 3844 D023DEFF 		.word	-2219056
 5929 3848 12F8B301 		.word	28571666
 5930 384c 020A65FF 		.word	-10155518
 5931 3850 9DC2F8FF 		.word	-474467
 5932 3854 9ECC65FF 		.word	-10105698
 5933 3858 68FEC5FF 		.word	-3801496
 5934 385c 4F3E0400 		.word	278095
 5935 3860 B2AC6501 		.word	23440562
 5936 3864 6092FBFF 		.word	-290208
 5937 3868 410A9C00 		.word	10226241
 5938 386c 0289A5FF 		.word	-5928702
 5939 3870 7404E700 		.word	15139956
 5940 3874 F2D70100 		.word	120818
 5941 3878 13231DFF 		.word	-14867693
 5942 387c 2BA14F00 		.word	5218603
 5943 3880 3B95F601 		.word	32937275
 5944 3884 FB42B000 		.word	11551483
 5945 3888 C82103FF 		.word	-16571960
 5946 388c 506E8EFF 		.word	-7442864
 5947 3890 C3A11101 		.word	17932739
 5948 3894 E43842FF 		.word	-12437276
 5949 3898 7B2F91FE 		.word	-24039557
 5950 389c 8404A400 		.word	10749060
 5951 38a0 43AEAC00 		.word	11316803
 5952 38a4 19FD7200 		.word	7535897
 5953 38a8 57615701 		.word	22503767
 5954 38ac FADC5400 		.word	5561594
 5955 38b0 605BC8FF 		.word	-3646624
 5956 38b4 257D3B00 		.word	3898661
 5957 38b8 13417600 		.word	7749907
 5958 38bc A134F1FF 		.word	-969567
ARM GAS  C:\Users\NIGHDR~1\AppData\Local\Temp\ccrnUt9g.s 			page 117


 5959 38c0 EDAC06FF 		.word	-16339731
 5960 38c4 B0BFFFFF 		.word	-16464
 5961 38c8 014182FE 		.word	-25018111
 5962 38cc DFBEE600 		.word	15122143
 5963 38d0 65FDE7FF 		.word	-1573531
 5964 38d4 92236D00 		.word	7152530
 5965 38d8 FA1D4D01 		.word	21831162
 5966 38dc 31001300 		.word	1245233
 5967 38e0 7B5A9B01 		.word	26958459
 5968 38e4 165620FF 		.word	-14658026
 5969 38e8 DAD54100 		.word	4314586
 5970 38ec 6F5D7F00 		.word	8346991
 5971 38f0 3C5DA9FF 		.word	-5677764
 5972 38f4 087FB600 		.word	11960072
 5973 38f8 11BA0EFE 		.word	-32589295
 5974 38fc FD89F6FF 		.word	-620035
 5975 3900 D51930FE 		.word	-30402091
 5976 3904 4CEE00FF 		.word	-16716212
 5977 3908 F85C46FF 		.word	-12165896
 5978 390c 63E08B00 		.word	9166947
 5979 3910 B809FF01 		.word	33491384
 5980 3914 07A4D000 		.word	13673479
 5981 3918 CD83C601 		.word	29787085
 5982 391c 57D6C700 		.word	13096535
 5983 3920 82D65F00 		.word	6280834
 5984 3924 DD95DE00 		.word	14587357
 5985 3928 1726ABFE 		.word	-22338025
 5986 392c C56ED500 		.word	13987525
 5987 3930 2B738CFE 		.word	-24349909
 5988 3934 D7B17600 		.word	7778775
 5989 3938 60344201 		.word	21116000
 5990 393c 759EED00 		.word	15572597
 5991 3940 0E40B6FF 		.word	-4833266
 5992 3944 2E3FAEFF 		.word	-5357778
 5993 3948 9E5FBEFF 		.word	-4300898
 5994 394c E1CDB1FF 		.word	-5124639
 5995 3950 2B058EFF 		.word	-7469781
 5996 3954 AC63D4FF 		.word	-2858068
 5997 3958 F4BB9300 		.word	9681908
 5998 395c 1D3399FF 		.word	-6737123
 5999 3960 E47418FE 		.word	-31951644
 6000 3964 1E65CF00 		.word	13591838
 6001 3968 13F696FF 		.word	-6883821
 6002 396c 86E70500 		.word	386950
 6003 3970 7D86E201 		.word	31622781
 6004 3974 4D416200 		.word	6439245
 6005 3978 EC8221FF 		.word	-14581012
 6006 397c 056E3E00 		.word	4091397
 6007 3980 456C7FFF 		.word	-8426427
 6008 3984 07711600 		.word	1470727
 6009 3988 911453FE 		.word	-28109679
 6010 398c C2A1E7FF 		.word	-1596990
 6011 3990 83B53C00 		.word	3978627
 6012 3994 D9D1B1FF 		.word	-5123623
 6013 3998 E594D4FE 		.word	-19622683
 6014 399c 0383B800 		.word	12092163
 6015 39a0 75B1BB01 		.word	29077877
ARM GAS  C:\Users\NIGHDR~1\AppData\Local\Temp\ccrnUt9g.s 			page 118


 6016 39a4 1C0E1FFF 		.word	-14741988
 6017 39a8 B0665000 		.word	5269168
 6018 39ac 325497FF 		.word	-6859726
 6019 39b0 7D1F36FF 		.word	-13230211
 6020 39b4 159D85FF 		.word	-8020715
 6021 39b8 13B38B01 		.word	25932563
 6022 39bc E0E81A00 		.word	1763552
 6023 39c0 2275AAFF 		.word	-5606110
 6024 39c4 A7FCABFF 		.word	-5505881
 6025 39c8 498DCEFE 		.word	-20017847
 6026 39cc 81FA2300 		.word	2357889
 6027 39d0 484FEC01 		.word	32264008
 6028 39d4 DCE514FF 		.word	-15407652
 6029 39d8 29CAADFF 		.word	-5387735
 6030 39dc 634CEEFF 		.word	-1160093
 6031 39e0 C616E0FF 		.word	-2091322
 6032 39e4 6CC6C3FF 		.word	-3946900
 6033 39e8 248D6001 		.word	23104804
 6034 39ec EC9E3BFF 		.word	-12869908
 6035 39f0 6A645700 		.word	5727338
 6036 39f4 6EE20200 		.word	189038
 6037 39f8 E3EADE00 		.word	14609123
 6038 39fc 9A5D77FF 		.word	-8954470
 6039 3a00 4A70A4FF 		.word	-6000566
 6040 3a04 435B02FF 		.word	-16622781
 6041 3a08 159121FF 		.word	-14577387
 6042 3a0c 66D689FF 		.word	-7743898
 6043 3a10 AFE667FE 		.word	-26745169
 6044 3a14 A3F6A600 		.word	10942115
 6045 3a18 5DF774FE 		.word	-25888931
 6046 3a1c A7E01CFF 		.word	-14884697
 6047 3a20 DC023901 		.word	20513500
 6048 3a24 ABCE5400 		.word	5557931
 6049 3a28 7BE411FF 		.word	-15604613
 6050 3a2c 1B787700 		.word	7829531
 6051 3a30 770B9301 		.word	26413943
 6052 3a34 B42FE1FF 		.word	-2019404
 6053 3a38 68C8B9FE 		.word	-21378968
 6054 3a3c A5027200 		.word	7471781
 6055 3a40 4D4ED400 		.word	13913677
 6056 3a44 2D9AB1FF 		.word	-5137875
 6057 3a48 18C479FE 		.word	-25574376
 6058 3a4c 529DB600 		.word	11967826
 6059 3a50 5A10BE01 		.word	29233242
 6060 3a54 0C93C500 		.word	12948236
 6061 3a58 5FEF98FF 		.word	-6754465
 6062 3a5c 0BEB4700 		.word	4713227
 6063 3a60 569277FF 		.word	-8940970
 6064 3a64 AC86D600 		.word	14059180
 6065 3a68 3C83C400 		.word	12878652
 6066 3a6c A1E18100 		.word	8511905
 6067 3a70 1F8278FE 		.word	-25656801
 6068 3a74 5FC83300 		.word	3393631
 6069 3a78 69E7D2FF 		.word	-2955415
 6070 3a7c 3A0994FF 		.word	-7075526
 6071 3a80 2BA8DDFF 		.word	-2250709
 6072 3a84 7CED8E00 		.word	9366908
ARM GAS  C:\Users\NIGHDR~1\AppData\Local\Temp\ccrnUt9g.s 			page 119


 6073 3a88 C6D332FE 		.word	-30223418
 6074 3a8c 2EF56700 		.word	6812974
 6075 3a90 A4F85400 		.word	5568676
 6076 3a94 9846D0FF 		.word	-3127656
 6077 3a98 B475B100 		.word	11630004
 6078 3a9c 464FB900 		.word	12144454
 6079 3aa0 F34A2000 		.word	2116339
 6080 3aa4 959CCF00 		.word	13606037
 6081 3aa8 C5C4A101 		.word	27378885
 6082 3aac F535EF00 		.word	15676917
 6083 3ab0 0F5DF6FE 		.word	-17408753
 6084 3ab4 8BF031FF 		.word	-13504373
 6085 3ab8 C45824FF 		.word	-14395196
 6086 3abc A2267B00 		.word	8070818
 6087 3ac0 80C89D01 		.word	27117696
 6088 3ac4 AE4C67FF 		.word	-10007378
 6089 3ac8 ADA922FE 		.word	-31282771
 6090 3acc D801ABFF 		.word	-5570088
 6091 3ad0 72331100 		.word	1127282
 6092 3ad4 88E4C200 		.word	12772488
 6093 3ad8 6E9638FE 		.word	-29845906
 6094 3adc 6AF69F00 		.word	10483306
 6095 3ae0 13B84FFF 		.word	-11552749
 6096 3ae4 964DF0FF 		.word	-1028714
 6097 3ae8 9B50A200 		.word	10637467
 6098 3aec 0035A9FF 		.word	-5688064
 6099 3af0 1D975600 		.word	5674781
 6100 3af4 445E1000 		.word	1072708
 6101 3af8 5C076EFE 		.word	-26343588
 6102 3afc 627595FF 		.word	-6982302
 6103 3b00 F94DE6FF 		.word	-1683975
 6104 3b04 FD0A8C00 		.word	9177853
 6105 3b08 D67C5CFE 		.word	-27493162
 6106 3b0c 2376EB00 		.word	15431203
 6107 3b10 59303901 		.word	20525145
 6108 3b14 1635A600 		.word	10892566
 6109 3b18 B8903DFF 		.word	-12742472
 6110 3b1c B3FFC200 		.word	12779443
 6111 3b20 D6F83DFE 		.word	-29493034
 6112 3b24 3B6EF600 		.word	16150075
 6113 3b28 791551FE 		.word	-28240519
 6114 3b2c A603E400 		.word	14943142
 6115 3b30 6A401AFF 		.word	-15056790
 6116 3b34 45E886FF 		.word	-7935931
 6117 3b38 F2DC35FE 		.word	-30024462
 6118 3b3c 2EDC5500 		.word	5626926
 6119 3b40 7195F7FF 		.word	-551567
 6120 3b44 61B367FF 		.word	-9981087
 6121 3b48 BE7F0B00 		.word	753598
 6122 3b4c 87D1B600 		.word	11981191
 6123 3b50 5F348101 		.word	25244767
 6124 3b54 AA90CEFF 		.word	-3239766
 6125 3b58 7AC8CCFF 		.word	-3356550
 6126 3b5c A8649200 		.word	9594024
 6127 3b60 3C9095FE 		.word	-23752644
 6128 3b64 463C2800 		.word	2636870
 6129 3b68 7A34B1FF 		.word	-5163910
ARM GAS  C:\Users\NIGHDR~1\AppData\Local\Temp\ccrnUt9g.s 			page 120


 6130 3b6c F6D365FF 		.word	-10103818
 6131 3b70 AEED0800 		.word	585134
 6132 3b74 07337800 		.word	7877383
 6133 3b78 131FAD00 		.word	11345683
 6134 3b7c 7EEF9CFF 		.word	-6492290
 6135 3b80 8FBDCB00 		.word	13352335
 6136 3b84 C48058FF 		.word	-10977084
 6137 3b88 E985E2FF 		.word	-1931799
 6138 3b8c 1E7DADFF 		.word	-5407458
 6139 3b90 C96C3200 		.word	3304649
 6140 3b94 7B643BFF 		.word	-12884869
 6141 3b98 FEA30301 		.word	17015806
 6142 3b9c DD94B5FF 		.word	-4877091
 6143 3ba0 D68839FE 		.word	-29783850
 6144 3ba4 DEB489FF 		.word	-7752482
 6145 3ba8 CF5836FF 		.word	-13215537
 6146 3bac 1C21FBFF 		.word	-319204
 6147 3bb0 43D63401 		.word	20239939
 6148 3bb4 D2D06400 		.word	6607058
 6149 3bb8 51AA5E00 		.word	6203985
 6150 3bbc 91283500 		.word	3483793
 6151 3bc0 E06FE7FE 		.word	-18386976
 6152 3bc4 231CF4FF 		.word	-779229
 6153 3bc8 E2C7C3FE 		.word	-20723742
 6154 3bcc EE11E600 		.word	15077870
 6155 3bd0 D9D9A4FE 		.word	-22750759
 6156 3bd4 A99DDD00 		.word	14523817
 6157 3bd8 DA2EA201 		.word	27406042
 6158 3bdc C7CFA3FF 		.word	-6041657
 6159 3be0 6C73A201 		.word	27423596
 6160 3be4 0E60BBFF 		.word	-4497394
 6161 3be8 763C4C00 		.word	4996214
 6162 3bec B89F9800 		.word	10002360
 6163 3bf0 D1E747FE 		.word	-28842031
 6164 3bf4 2AA4BAFF 		.word	-4545494
 6165 3bf8 BA9933FE 		.word	-30172742
 6166 3bfc DDABB6FF 		.word	-4805667
 6167 3c00 A28EAD00 		.word	11374242
 6168 3c04 EB2FC100 		.word	12660715
 6169 3c08 078B1001 		.word	17861383
 6170 3c0c 5FA440FF 		.word	-12540833
 6171 3c10 10DDA600 		.word	10935568
 6172 3c14 DBC51000 		.word	1099227
 6173 3c18 841D2CFF 		.word	-13886076
 6174 3c1c 644575FF 		.word	-9091740
 6175 3c20 3CEB58FE 		.word	-27727044
 6176 3c24 2851AD00 		.word	11358504
 6177 3c28 47BE3DFF 		.word	-12730809
 6178 3c2c BB589D00 		.word	10311867
 6179 3c30 E70B1700 		.word	1510375
 6180 3c34 ED75A400 		.word	10778093
 6181 3c38 E1A8DFFF 		.word	-2119455
 6182 3c3c 9A7274FF 		.word	-9145702
 6183 3c40 A398F201 		.word	32676003
 6184 3c44 1820AA00 		.word	11149336
 6185 3c48 7D6271FE 		.word	-26123651
 6186 3c4c A8134C00 		.word	4985768
ARM GAS  C:\Users\NIGHDR~1\AppData\Local\Temp\ccrnUt9g.s 			page 121


 6187 3c50 119DDCFE 		.word	-19096303
 6188 3c54 9B340500 		.word	341147
 6189 3c58 136FA1FF 		.word	-6197485
 6190 3c5c 475AFCFF 		.word	-239033
 6191 3c60 AD6EF000 		.word	15756973
 6192 3c64 0AC679FF 		.word	-8796662
 6193 3c68 FDFFF0FF 		.word	-983043
 6194 3c6c 427BD200 		.word	13794114
 6195 3c70 DDC2D7FE 		.word	-19414307
 6196 3c74 79A311FF 		.word	-15621255
 6197 3c78 E1076300 		.word	6490081
 6198 3c7c BE31B600 		.word	11940286
 6199 3c80 73098501 		.word	25495923
 6200 3c84 E81A8AFF 		.word	-7726360
 6201 3c88 D5448400 		.word	8668373
 6202 3c8c 2C777AFF 		.word	-8751316
 6203 3c90 B3623300 		.word	3367603
 6204 3c94 955A6A00 		.word	6970005
 6205 3c98 4732E6FF 		.word	-1691065
 6206 3c9c 0A9976FF 		.word	-9004790
 6207 3ca0 B1461900 		.word	1656497
 6208 3ca4 A557CD00 		.word	13457317
 6209 3ca8 378AEA00 		.word	15370807
 6210 3cac EE1E6100 		.word	6364910
 6211 3cb0 719BCF00 		.word	13605745
 6212 3cb4 62997F00 		.word	8362338
 6213 3cb8 226BDBFE 		.word	-19174622
 6214 3cbc 7572ACFF 		.word	-5475723
 6215 3cc0 4CB4FFFE 		.word	-16796596
 6216 3cc4 F239B3FF 		.word	-5031438
 6217 3cc8 DD22ACFE 		.word	-22273315
 6218 3ccc 38A231FF 		.word	-13524424
 6219 3cd0 5303FFFF 		.word	-64685
 6220 3cd4 71DDBDFF 		.word	-4334223
 6221 3cd8 BC19E4FE 		.word	-18605636
 6222 3cdc 105859FF 		.word	-10921968
 6223 3ce0 471CC6FE 		.word	-20571065
 6224 3ce4 161195FF 		.word	-7007978
 6225 3ce8 F379FEFF 		.word	-99853
 6226 3cec 6BCA63FF 		.word	-10237333
 6227 3cf0 09CE0E01 		.word	17747465
 6228 3cf4 DC2F9900 		.word	10039260
 6229 3cf8 6B892701 		.word	19368299
 6230 3cfc 6131C2FF 		.word	-4050591
 6231 3d00 9533C5FE 		.word	-20630635
 6232 3d04 BA3A0BFF 		.word	-16041286
 6233 3d08 6B2BE801 		.word	31992683
 6234 3d0c C8060EFF 		.word	-15857976
 6235 3d10 B58541FE 		.word	-29260363
 6236 3d14 DDE4ABFF 		.word	-5511971
 6237 3d18 7B3EE701 		.word	31932027
 6238 3d1c E3EAB3FF 		.word	-4986141
 6239 3d20 22BDD4FE 		.word	-19612382
 6240 3d24 F4BBF900 		.word	16366580
 6241 3d28 BE0D5001 		.word	22023614
 6242 3d2c 82590100 		.word	88450
 6243 3d30 DF85AD00 		.word	11371999
ARM GAS  C:\Users\NIGHDR~1\AppData\Local\Temp\ccrnUt9g.s 			page 122


 6244 3d34 09DEC6FF 		.word	-3744247
 6245 3d38 427F4A00 		.word	4882242
 6246 3d3c A7D85DFF 		.word	-10626905
 6247 3d40 9BA8C601 		.word	29796507
 6248 3d44 42910000 		.word	37186
 6249 3d48 44662E01 		.word	19818052
 6250 3d4c AC5A9A00 		.word	10115756
 6251 3d50 D8804BFF 		.word	-11829032
 6252 3d54 A0283300 		.word	3352736
 6253 3d58 9E111B01 		.word	18551198
 6254 3d5c 7CF03100 		.word	3272828
 6255 3d60 ECCAB0FF 		.word	-5190932
 6256 3d64 977CC0FF 		.word	-4162409
 6257 3d68 26C1BE00 		.word	12501286
 6258 3d6c 5FB63D00 		.word	4044383
 6259 3d70 A3937CFF 		.word	-8612957
 6260 3d74 FFA533FF 		.word	-13392385
 6261 3d78 1C2811FE 		.word	-32430052
 6262 3d7c D7604E00 		.word	5136599
 6263 3d80 5691DAFE 		.word	-19230378
 6264 3d84 1F24CAFF 		.word	-3529697
 6265 3d88 56090500 		.word	330070
 6266 3d8c 6F29C8FF 		.word	-3659409
 6267 3d90 ED6C6100 		.word	6384877
 6268 3d94 393E2C00 		.word	2899513
 6269 3d98 75B80F01 		.word	17807477
 6270 3d9c 2DF17400 		.word	7663917
 6271 3da0 9801DCFF 		.word	-2358888
 6272 3da4 9DA5BC00 		.word	12363165
 6273 3da8 FA0F8301 		.word	25366522
 6274 3dac 3C2C7DFF 		.word	-8573892
 6275 3db0 41DCFBFF 		.word	-271295
 6276 3db4 4B32B800 		.word	12071499
 6277 3db8 355A80FF 		.word	-8365515
 6278 3dbc E750C2FF 		.word	-4042521
 6279 3dc0 88817F01 		.word	25133448
 6280 3dc4 1512BBFF 		.word	-4517355
 6281 3dc8 2D3AA1FF 		.word	-6211027
 6282 3dcc 47932200 		.word	2265927
 6283 3dd0 AEF90BFE 		.word	-32769618
 6284 3dd4 238D1D00 		.word	1936675
 6285 3dd8 EF44B1FF 		.word	-5159697
 6286 3ddc 736E3A00 		.word	3829363
 6287 3de0 EEBEB101 		.word	28425966
 6288 3de4 57F5A6FF 		.word	-5835433
 6289 3de8 BE31F7FF 		.word	-577090
 6290 3dec 9253B8FF 		.word	-4697198
 6291 3df0 AD0E27FF 		.word	-14217555
 6292 3df4 92D76800 		.word	6870930
 6293 3df8 8EDF7800 		.word	7921550
 6294 3dfc 95C89BFF 		.word	-6567787
 6295 3e00 D4CF9101 		.word	26333140
 6296 3e04 10B5D900 		.word	14267664
 6297 3e08 AD2057FF 		.word	-11067219
 6298 3e0c FF23B500 		.word	11871231
 6299 3e10 77DFA101 		.word	27385719
 6300 3e14 C8DF5EFF 		.word	-10559544
ARM GAS  C:\Users\NIGHDR~1\AppData\Local\Temp\ccrnUt9g.s 			page 123


 6301 3e18 4606BAFF 		.word	-4585914
 6302 3e1c C04355FF 		.word	-11189312
 6303 3e20 32A99800 		.word	10004786
 6304 3e24 901A7BFF 		.word	-8709488
 6305 3e28 38F3B3FE 		.word	-21761224
 6306 3e2c 14448800 		.word	8930324
 6307 3e30 278CBCFE 		.word	-21197785
 6308 3e34 FDD005FF 		.word	-16396035
 6309 3e38 C8738701 		.word	25654216
 6310 3e3c 2BACE5FF 		.word	-1725397
 6311 3e40 9C68BB00 		.word	12282012
 6312 3e44 97FBA700 		.word	11008919
 6313 3e48 34871700 		.word	1541940
 6314 3e4c 97994800 		.word	4757911
 6315 3e50 93C56BFE 		.word	-26491501
 6316 3e54 949E05FF 		.word	-16408940
 6317 3e58 EE8FCE00 		.word	13537262
 6318 3e5c 7E9989FF 		.word	-7759490
 6319 3e60 5898C5FE 		.word	-20604840
 6320 3e64 0744A700 		.word	10961927
 6321 3e68 FC9FA5FF 		.word	-5922820
 6322 3e6c EF4E36FF 		.word	-13218065
 6323 3e70 183F37FF 		.word	-13156584
 6324 3e74 26DE5E00 		.word	6217254
 6325 3e78 EDB70CFF 		.word	-15943699
 6326 3e7c CECCD200 		.word	13814990
 6327 3e80 1327F6FE 		.word	-17422573
 6328 3e84 1E4AE700 		.word	15157790
 6329 3e88 876C1D01 		.word	18705543
 6330 3e8c B3730000 		.word	29619
 6331 3e90 75767401 		.word	24409717
 6332 3e94 8406FCFF 		.word	-260476
 6333 3e98 9181A101 		.word	27361681
 6334 3e9c 69438D00 		.word	9257833
 6335 3ea0 5225E2FF 		.word	-1956526
 6336 3ea4 EEE2E4FF 		.word	-1776914
 6337 3ea8 CCD681FE 		.word	-25045300
 6338 3eac A27B64FF 		.word	-10191966
 6339 3eb0 B979EA00 		.word	15366585
 6340 3eb4 2D6CE700 		.word	15166509
 6341 3eb8 420838FF 		.word	-13105086
 6342 3ebc 84888000 		.word	8423556
 6343 3ec0 ACE042FE 		.word	-29171540
 6344 3ec4 AF9DBC00 		.word	12361135
 6345 3ec8 E6DFE2FE 		.word	-18685978
 6346 3ecc F2DB4500 		.word	4578290
 6347 3ed0 B80E7701 		.word	24579768
 6348 3ed4 52A23800 		.word	3711570
 6349 3ed8 727B1400 		.word	1342322
 6350 3edc A26755FF 		.word	-11180126
 6351 3ee0 31EF63FE 		.word	-27005135
 6352 3ee4 9C87D700 		.word	14124956
 6353 3ee8 6FFFA7FE 		.word	-22544529
 6354 3eec 27C4D600 		.word	14074919
 6355 3ef0 90264F01 		.word	21964432
 6356 3ef4 F9A87D00 		.word	8235257
 6357 3ef8 9B619CFF 		.word	-6528613
ARM GAS  C:\Users\NIGHDR~1\AppData\Local\Temp\ccrnUt9g.s 			page 124


 6358 3efc 1734DBFF 		.word	-2411497
 6359 3f00 96169000 		.word	9442966
 6360 3f04 2C95A5FF 		.word	-5925588
 6361 3f08 287FB700 		.word	12025640
 6362 3f0c C44DE9FF 		.word	-1487420
 6363 3f10 7681D2FF 		.word	-2981514
 6364 3f14 AA87E6FF 		.word	-1669206
 6365 3f18 D677C600 		.word	13006806
 6366 3f1c E9F02300 		.word	2355433
 6367 3f20 FD3407FF 		.word	-16304899
 6368 3f24 756630FF 		.word	-13605259
 6369 3f28 15CC9AFF 		.word	-6632427
 6370 3f2c B388B1FF 		.word	-5142349
 6371 3f30 17020301 		.word	16974359
 6372 3f34 958259FF 		.word	-10911083
 6373 3f38 FC119F01 		.word	27202044
 6374 3f3c 463C1A00 		.word	1719366
 6375 3f40 906B1100 		.word	1141648
 6376 3f44 B4BE3CFF 		.word	-12796236
 6377 3f48 38B63BFF 		.word	-12863944
 6378 3f4c 6E4736FF 		.word	-13219986
 6379 3f50 C61281FF 		.word	-8318266
 6380 3f54 95E057FF 		.word	-11018091
 6381 3f58 DF1598FF 		.word	-6810145
 6382 3f5c 8A16B6FF 		.word	-4843894
 6383 3f60 FA9CCD00 		.word	13475066
 6384 3f64 EC2DD0FF 		.word	-3133972
 6385 3f68 4F94F201 		.word	32674895
 6386 3f6c 6546D100 		.word	13715045
 6387 3f70 674EAE00 		.word	11423335
 6388 3f74 6590ACFF 		.word	-5468059
 6389 3f78 9888ED01 		.word	32344216
 6390 3f7c BFC28800 		.word	8962751
 6391 3f80 71507D01 		.word	24989809
 6392 3f84 98048D00 		.word	9241752
 6393 3f88 9B9635FF 		.word	-13265253
 6394 3f8c C474F500 		.word	16086212
 6395 3f90 EF7249FE 		.word	-28740881
 6396 3f94 135211FF 		.word	-15642093
 6397 3f98 7C7DEAFF 		.word	-1409668
 6398 3f9c 2834BF00 		.word	12530728
 6399 3fa0 2AD29EFF 		.word	-6368726
 6400 3fa4 9B84A500 		.word	10847387
 6401 3fa8 B2052A01 		.word	19531186
 6402 3fac 405C28FF 		.word	-14132160
 6403 3fb0 24554DFF 		.word	-11709148
 6404 3fb4 B2E47600 		.word	7791794
 6405 3fb8 894260FE 		.word	-27245943
 6406 3fbc 73E24200 		.word	4383347
 6407 3fc0 6EF045FE 		.word	-28970898
 6408 3fc4 976F5000 		.word	5271447
 6409 3fc8 A7AEECFF 		.word	-1266009
 6410 3fcc E36C6BFF 		.word	-9736989
 6411 3fd0 BCF241FF 		.word	-12455236
 6412 3fd4 B751FF00 		.word	16732599
 6413 3fd8 39CEB5FF 		.word	-4862407
 6414 3fdc 2F22B5FF 		.word	-4906449
ARM GAS  C:\Users\NIGHDR~1\AppData\Local\Temp\ccrnUt9g.s 			page 125


 6415 3fe0 D5F09E01 		.word	27193557
 6416 3fe4 474B5F00 		.word	6245191
 6417 3fe8 9C2818FF 		.word	-15193956
 6418 3fec 66D25100 		.word	5362278
 6419 3ff0 ABC7E4FF 		.word	-1783893
 6420 3ff4 9A222900 		.word	2695834
 6421 3ff8 E3AF4B00 		.word	4960227
 6422 3ffc 15EFC300 		.word	12840725
 6423 4000 8AE55F01 		.word	23061898
 6424 4004 4CC03100 		.word	3260492
 6425 4008 757B5701 		.word	22510453
 6426 400c E3E18200 		.word	8577507
 6427 4010 7D3E3FFF 		.word	-12632451
 6428 4014 02C6AB00 		.word	11257346
 6429 4018 FE240DFE 		.word	-32692994
 6430 401c 91BACE00 		.word	13548177
 6431 4020 94FFF4FF 		.word	-721004
 6432 4024 2300A600 		.word	10879011
 6433 4028 1E96DB01 		.word	31168030
 6434 402c 5CE4D400 		.word	13952092
 6435 4030 5CC63CFE 		.word	-29571492
 6436 4034 3E85C8FF 		.word	-3635906
 6437 4038 C9293B00 		.word	3877321
 6438 403c 7DEE6DFF 		.word	-9572739
 6439 4040 B4A3EE01 		.word	32416692
 6440 4044 8C7A5200 		.word	5405324
 6441 4048 091658FF 		.word	-11004407
 6442 404c C59D2FFF 		.word	-13656635
 6443 4050 995E3900 		.word	3759769
 6444 4054 581EB600 		.word	11935320
 6445 4058 54A15500 		.word	5611860
 6446 405c B2927C00 		.word	8164018
 6447 4060 A6A607FF 		.word	-16275802
 6448 4064 15D0DF00 		.word	14667797
 6449 4068 9CB6F200 		.word	15906460
 6450 406c 9B79B900 		.word	12155291
 6451 4070 539CAEFE 		.word	-22111149
 6452 4074 9A1076FF 		.word	-9039718
 6453 4078 BA53E801 		.word	32003002
 6454 407c DF3A79FF 		.word	-8832289
 6455 4080 1D175800 		.word	5773085
 6456 4084 237D7FFF 		.word	-8422109
 6457 4088 AA0595FE 		.word	-23788118
 6458 408c A40C82FF 		.word	-8254300
 6459 4090 9BC41D00 		.word	1950875
 6460 4094 A1608800 		.word	8937633
 6461 4098 07231D01 		.word	18686727
 6462 409c A225FB00 		.word	16459170
 6463 40a0 032EF2FF 		.word	-905725
 6464 40a4 00D9BC00 		.word	12376320
 6465 40a8 39AEE201 		.word	31632953
 6466 40ac CEE90200 		.word	190926
 6467 40b0 39BB88FE 		.word	-24593607
 6468 40b4 7BBD09FF 		.word	-16138885
 6469 40b8 C9757FFF 		.word	-8423991
 6470 40bc BA24CC00 		.word	13378746
 6471 40c0 E719D800 		.word	14162407
ARM GAS  C:\Users\NIGHDR~1\AppData\Local\Temp\ccrnUt9g.s 			page 126


 6472 40c4 504E6900 		.word	6901328
 6473 40c8 138681FF 		.word	-8288749
 6474 40cc 94CB4400 		.word	4508564
 6475 40d0 8D517DFE 		.word	-25341555
 6476 40d4 F8A5C8FF 		.word	-3627528
 6477 40d8 D6908700 		.word	8884438
 6478 40dc 9737A6FF 		.word	-5884009
 6479 40e0 26EB5B00 		.word	6023974
 6480 40e4 152E9A00 		.word	10104341
 6481 40e8 DFFE96FF 		.word	-6881569
 6482 40ec 2399B4FF 		.word	-4941533
 6483 40f0 7DB01D01 		.word	18722941
 6484 40f4 2B621EFF 		.word	-14786005
 6485 40f8 D87AE6FF 		.word	-1672488
 6486 40fc E9A00C00 		.word	827625
 6487 4100 39B90CFE 		.word	-32720583
 6488 4104 F07107FF 		.word	-16289296
 6489 4108 050910FE 		.word	-32503547
 6490 410c 1A5B6C00 		.word	7101210
 6491 4110 6DC6CB00 		.word	13354605
 6492 4114 08932800 		.word	2659080
 6493 4118 8186E4FF 		.word	-1800575
 6494 411c 7CBA28FF 		.word	-14108036
 6495 4120 726284FE 		.word	-24878478
 6496 4124 A6841700 		.word	1541286
 6497 4128 63452C00 		.word	2901347
 6498 412c 09F2EEFF 		.word	-1117687
 6499 4130 B8353B00 		.word	3880376
 6500 4134 848166FF 		.word	-10059388
 6501 4138 3420F3FE 		.word	-17620940
 6502 413c 93DFC8FF 		.word	-3612781
 6503 4140 7B53B3FE 		.word	-21802117
 6504 4144 8790C9FF 		.word	-3567481
 6505 4148 8D253801 		.word	20456845
 6506 414c 973CE3FF 		.word	-1885033
 6507 4150 5A499C01 		.word	27019610
 6508 4154 CBACBB00 		.word	12299467
 6509 4158 50972FFF 		.word	-13658288
 6510 415c 5E89E7FF 		.word	-1603234
 6511 4160 24BF3BFF 		.word	-12861660
 6512 4164 E1D1B5FF 		.word	-4861471
 6513 4168 4AD7D5FE 		.word	-19540150
 6514 416c 0676B3FF 		.word	-5016058
 6515 4170 9936C101 		.word	29439641
 6516 4174 3200E700 		.word	15138866
 6517 4178 689D4801 		.word	21536104
 6518 417c 8CE39AFF 		.word	-6626420
 6519 4180 B6E210FE 		.word	-32447818
 6520 4184 60E15CFF 		.word	-10690208
 6521 4188 7314AAFE 		.word	-22408077
 6522 418c 06FA4E00 		.word	5175814
 6523 4190 F84BADFF 		.word	-5420040
 6524 4194 355906FF 		.word	-16361163
 6525 4198 00B47600 		.word	7779328
 6526 419c 48AD0100 		.word	109896
 6527 41a0 4008CE01 		.word	30279744
 6528 41a4 AE85DF00 		.word	14648750
ARM GAS  C:\Users\NIGHDR~1\AppData\Local\Temp\ccrnUt9g.s 			page 127


 6529 41a8 B93E85FF 		.word	-8044871
 6530 41ac D60B6200 		.word	6425558
 6531 41b0 C51FD000 		.word	13639621
 6532 41b4 ABA7F4FF 		.word	-743509
 6533 41b8 16E7B501 		.word	28698390
 6534 41bc 96DAB900 		.word	12180118
 6535 41c0 F7A96101 		.word	23177719
 6536 41c4 A58BF7FF 		.word	-554075
 6537 41c8 2F789501 		.word	26572847
 6538 41cc 67F83300 		.word	3405927
 6539 41d0 3C451CFE 		.word	-31701700
 6540 41d4 19B3C400 		.word	12890905
 6541 41d8 7C07DAFE 		.word	-19265668
 6542 41dc 3A6B5100 		.word	5335866
 6543 41e0 B8E99CFF 		.word	-6493768
 6544 41e4 FC4A2400 		.word	2378492
 6545 41e8 76BC4300 		.word	4439158
 6546 41ec 8D5F35FF 		.word	-13279347
 6547 41f0 DE5EA5FE 		.word	-22716706
 6548 41f4 2E3D3500 		.word	3489070
 6549 41f8 CE3B73FF 		.word	-9225266
 6550 41fc 2FECFAFF 		.word	-332753
 6551 4200 4A052001 		.word	18875722
 6552 4204 819AEEFF 		.word	-1140095
 6553 4208 6A20E200 		.word	14819434
 6554 420c 79BB3DFF 		.word	-12731527
 6555 4210 03A6F1FE 		.word	-17717757
 6556 4214 43AAACFF 		.word	-5461437
 6557 4218 1DD8B2FF 		.word	-5056483
 6558 421c 17C9FC00 		.word	16566551
 6559 4220 FD6EF300 		.word	15953661
 6560 4224 C87D3900 		.word	3767752
 6561 4228 6DC060FF 		.word	-10436499
 6562 422c 3473EE00 		.word	15627060
 6563 4230 2679F3FF 		.word	-820954
 6564 4234 C9382100 		.word	2177225
 6565 4238 C2768200 		.word	8550082
 6566 423c 4B6019FF 		.word	-15114165
 6567 4240 AA1EE6FE 		.word	-18473302
 6568 4244 273FFD00 		.word	16596775
 6569 4248 242DFAFF 		.word	-381660
 6570 424c FB01EF00 		.word	15663611
 6571 4250 A0D45C01 		.word	22860960
 6572 4254 2DD1ED00 		.word	15585581
 6573 4258 F32157FE 		.word	-27844109
 6574 425c ED54C9FF 		.word	-3582739
 6575 4260 D4129DFE 		.word	-23260460
 6576 4264 D4637FFF 		.word	-8428588
 6577 4268 D96210FE 		.word	-32480551
 6578 426c 8BACEF00 		.word	15707275
 6579 4270 A8C982FF 		.word	-8205912
 6580 4274 8FC1A9FF 		.word	-5652081
 6581 4278 EE97C101 		.word	29464558
 6582 427c D7682900 		.word	2713815
 6583 4280 EF3DA5FE 		.word	-22725137
 6584 4284 0203F200 		.word	15860482
 6585 4288 16CBB1FE 		.word	-21902570
ARM GAS  C:\Users\NIGHDR~1\AppData\Local\Temp\ccrnUt9g.s 			page 128


 6586 428c B1CC1600 		.word	1494193
 6587 4290 9581D5FE 		.word	-19562091
 6588 4294 1F0B29FF 		.word	-14087393
 6589 4298 009F79FE 		.word	-25583872
 6590 429c A01972FF 		.word	-9299552
 6591 42a0 A250C800 		.word	13127842
 6592 42a4 9D970B00 		.word	759709
 6593 42a8 9A864E01 		.word	21923482
 6594 42ac D836FC00 		.word	16529112
 6595 42b0 30678500 		.word	8742704
 6596 42b4 69DCC500 		.word	12967017
 6597 42b8 FDA84DFE 		.word	-28464899
 6598 42bc 35B31700 		.word	1553205
 6599 42c0 1879F001 		.word	32536856
 6600 42c4 FF2E60FF 		.word	-10473729
 6601 42c8 6B3C87FE 		.word	-24691605
 6602 42cc 62CDF9FF 		.word	-406174
 6603 42d0 3FF977FF 		.word	-8914625
 6604 42d4 783BD3FF 		.word	-2933896
 6605 42d8 72B437FE 		.word	-29903758
 6606 42dc 5B55ED00 		.word	15553883
 6607 42e0 95D44D01 		.word	21877909
 6608 42e4 38493100 		.word	3230008
 6609 42e8 56C69600 		.word	9881174
 6610 42ec 5DD1A000 		.word	10539357
 6611 42f0 45CDB6FF 		.word	-4797115
 6612 42f4 F45A2B00 		.word	2841332
 6613 42f8 1424B000 		.word	11543572
 6614 42fc 7A74DD00 		.word	14513274
 6615 4300 33A72701 		.word	19375923
 6616 4304 E7013FFF 		.word	-12647961
 6617 4308 0DC58600 		.word	8832269
 6618 430c 03D122FF 		.word	-14495485
 6619 4310 873BCA00 		.word	13253511
 6620 4314 A7644E00 		.word	5137575
 6621 4318 2FDF4C00 		.word	5037871
 6622 431c B93C3E00 		.word	4078777
 6623 4320 B2A67B01 		.word	24880818
 6624 4324 840CA1FF 		.word	-6222716
 6625 4328 3DAE2B00 		.word	2862653
 6626 432c C3459000 		.word	9455043
 6627 4330 7F2FBF01 		.word	29306751
 6628 4334 222C4E00 		.word	5123106
 6629 4338 39EA3401 		.word	20245049
 6630 433c FF1628FF 		.word	-14149889
 6631 4340 F65E9200 		.word	9592566
 6632 4344 53E48000 		.word	8447059
 6633 4348 3C4EE0FF 		.word	-2077124
 6634 434c 0060D2FF 		.word	-2990080
 6635 4350 99AFEC00 		.word	15511449
 6636 4354 9F154900 		.word	4789663
 6637 4358 B473C4FE 		.word	-20679756
 6638 435c 83E16A00 		.word	7004547
 6639 4360 FFA78600 		.word	8824831
 6640 4364 9F0870FF 		.word	-9434977
 6641 4368 7844C2FF 		.word	-4045704
 6642 436c B0C4C6FF 		.word	-3750736
ARM GAS  C:\Users\NIGHDR~1\AppData\Local\Temp\ccrnUt9g.s 			page 129


 6643 4370 7630A8FF 		.word	-5754762
 6644 4374 5DA90100 		.word	108893
 6645 4378 70C86601 		.word	23513200
 6646 437c 4A18FE00 		.word	16652362
 6647 4380 138D04FE 		.word	-33256173
 6648 4384 8E3E3F00 		.word	4144782
 6649 4388 83B3BBFF 		.word	-4476029
 6650 438c 4D9C9BFF 		.word	-6579123
 6651 4390 7756A400 		.word	10770039
 6652 4394 AAD092FF 		.word	-7155542
 6653 4398 D0859AFF 		.word	-6650416
 6654 439c 949B3AFF 		.word	-12936300
 6655 43a0 A278E8FE 		.word	-18319198
 6656 43a4 FCD59B00 		.word	10212860
 6657 43a8 F10D2A00 		.word	2756081
 6658 43ac 5E328300 		.word	8598110
 6659 43b0 B3AA7000 		.word	7383731
 6660 43b4 8C5397FF 		.word	-6859892
 6661 43b8 37775401 		.word	22312759
 6662 43bc 8C23EFFF 		.word	-1105012
 6663 43c0 992D4301 		.word	21179801
 6664 43c4 ECAF2700 		.word	2600940
 6665 43c8 369767FF 		.word	-9988298
 6666 43cc 9E2A41FF 		.word	-12506466
 6667 43d0 C4EF87FE 		.word	-24645692
 6668 43d4 5635CB00 		.word	13317462
 6669 43d8 95612FFE 		.word	-30449259
 6670 43dc D82311FF 		.word	-15653928
 6671 43e0 46034601 		.word	21365574
 6672 43e4 67245AFF 		.word	-10869657
 6673 43e8 281AAD00 		.word	11344424
 6674 43ec B8300D00 		.word	864440
 6675 43f0 A3DBD9FF 		.word	-2499677
 6676 43f4 510601FF 		.word	-16710063
 6677 43f8 DDAA6CFE 		.word	-26432803
 6678 43fc E9D05D00 		.word	6148329
 6679 4400 64C9F9FE 		.word	-17184412
 6680 4404 562423FF 		.word	-14474154
 6681 4408 D19A1E01 		.word	18782929
 6682 440c E3C9FBFF 		.word	-275997
 6683 4410 02BDA7FE 		.word	-22561534
 6684 4414 64390300 		.word	211300
 6685 4418 0D802900 		.word	2719757
 6686 441c C5644B00 		.word	4940997
 6687 4420 96CCEBFF 		.word	-1323882
 6688 4424 91AE3B00 		.word	3911313
 6689 4428 78F895FF 		.word	-6948744
 6690 442c 5537E100 		.word	14759765
 6691 4430 72D235FE 		.word	-30027150
 6692 4434 C7CC7700 		.word	7851207
 6693 4438 0EF74A01 		.word	21690126
 6694 443c 3FFB8100 		.word	8518463
 6695 4440 43689701 		.word	26699843
 6696 4444 87825000 		.word	5276295
 6697 4448 4F5937FF 		.word	-13149873
 6698 444c 75E69DFF 		.word	-6429067
 6699 4450 19608F00 		.word	9396249
ARM GAS  C:\Users\NIGHDR~1\AppData\Local\Temp\ccrnUt9g.s 			page 130


 6700 4454 D5910500 		.word	365013
 6701 4458 45F17801 		.word	24703301
 6702 445c 95F35FFF 		.word	-10488939
 6703 4460 722A1400 		.word	1321586
 6704 4464 83480200 		.word	149635
 6705 4468 9A3514FF 		.word	-15452774
 6706 446c 493E6D00 		.word	7159369
 6707 4470 C4669800 		.word	9987780
 6708 4474 290CCCFF 		.word	-3404759
 6709 4478 7A260B01 		.word	17507962
 6710 447c FA0A9100 		.word	9505530
 6711 4480 CF7D9400 		.word	9731535
 6712 4484 F6F4DEFF 		.word	-2165514
 6713 4488 29205501 		.word	22356009
 6714 448c 70D57E00 		.word	8312176
 6715 4490 A2F95601 		.word	22477218
 6716 4494 47C67FFF 		.word	-8403385
 6717 4498 51091501 		.word	18155857
 6718 449c 622704FF 		.word	-16504990
 6719 44a0 CC472D01 		.word	19744716
 6720 44a4 4B6F8900 		.word	9006923
 6721 44a8 EA3BE700 		.word	15154154
 6722 44ac 20305FFF 		.word	-10538976
 6723 44b0 CC1F7201 		.word	24256460
 6724 44b4 1DC4B5FF 		.word	-4864995
 6725 44b8 33F1A7FE 		.word	-22548173
 6726 44bc 5D6D8E00 		.word	9334109
 6727 44c0 68902D00 		.word	2986088
 6728 44c4 EB0CB5FF 		.word	-4911893
 6729 44c8 3470A400 		.word	10776628
 6730 44cc 4CFECAFF 		.word	-3473844
 6731 44d0 AE0EA200 		.word	10620590
 6732 44d4 3DEB93FF 		.word	-7083203
 6733 44d8 2B40B9FE 		.word	-21413845
 6734 44dc E97DD900 		.word	14253545
 6735 44e0 F358A7FE 		.word	-22587149
 6736 44e4 4A310800 		.word	536906
 6737 44e8 9CCC4200 		.word	4377756
 6738 44ec 7CD67B00 		.word	8115836
 6739 44f0 26DD7601 		.word	24567078
 6740 44f4 9270EC00 		.word	15495314
 6741 44f8 7262B100 		.word	11625074
 6742 44fc 9759C700 		.word	13064599
 6743 4500 57C57000 		.word	7390551
 6744 4504 B995A100 		.word	10589625
 6745 4508 2C60A500 		.word	10838060
 6746 450c F8B314FF 		.word	-15420424
 6747 4510 BCDBD8FE 		.word	-19342404
 6748 4514 283E0D00 		.word	867880
 6749 4518 F38E8D00 		.word	9277171
 6750 451c E5E3CEFF 		.word	-3218459
 6751 4520 ACCA23FF 		.word	-14431572
 6752 4524 75B0E1FF 		.word	-1986443
 6753 4528 526E2601 		.word	19295826
 6754 452c 2AF50EFF 		.word	-15796950
 6755 4530 14536100 		.word	6378260
 6756 4534 31AB0A00 		.word	699185
ARM GAS  C:\Users\NIGHDR~1\AppData\Local\Temp\ccrnUt9g.s 			page 131


 6757 4538 F2777800 		.word	7895026
 6758 453c 19E83D00 		.word	4057113
 6759 4540 D4F093FF 		.word	-7081772
 6760 4544 047338FF 		.word	-13077756
 6761 4548 9111EFFE 		.word	-17886831
 6762 454c CA11FBFF 		.word	-323126
 6763 4550 F912F5FF 		.word	-716039
 6764 4554 6375EF00 		.word	15693155
 6765 4558 B804B3FF 		.word	-5045064
 6766 455c F6ED33FF 		.word	-13373962
 6767 4560 25EF89FF 		.word	-7737563
 6768 4564 A670A6FF 		.word	-5869402
 6769 4568 51BC21FF 		.word	-14566319
 6770 456c B9FA8EFF 		.word	-7406919
 6771 4570 36BBAD00 		.word	11385654
 6772 4574 D070C900 		.word	13201616
 6773 4578 F62BE401 		.word	31730678
 6774 457c 68B858FF 		.word	-10962840
 6775 4580 D434C4FF 		.word	-3918636
 6776 4584 33756CFF 		.word	-9669325
 6777 4588 FE759B00 		.word	10188286
 6778 458c 2E5B0FFF 		.word	-15770834
 6779 4590 570E90FF 		.word	-7336361
 6780 4594 57E3CC00 		.word	13427543
 6781 4598 531A5301 		.word	22223443
 6782 459c 9F4CE300 		.word	14896287
 6783 45a0 9F1BD501 		.word	30743455
 6784 45a4 18976C00 		.word	7116568
 6785 45a8 7590B3FE 		.word	-21786507
 6786 45ac 89D15200 		.word	5427593
 6787 45b0 269F0A00 		.word	696102
 6788 45b4 7385C900 		.word	13206899
 6789 45b8 DFB69C01 		.word	27047647
 6790 45bc 6EC45DFF 		.word	-10632082
 6791 45c0 393CE900 		.word	15285305
 6792 45c4 05A769FF 		.word	-9853179
 6793 45c8 9AC5A400 		.word	10798490
 6794 45cc 6022BAFF 		.word	-4578720
 6795 45d0 93852501 		.word	19236243
 6796 45d4 DC63BE00 		.word	12477404
 6797 45d8 01A754FF 		.word	-11229439
 6798 45dc 1491AB00 		.word	11243796
 6799 45e0 C2C5FBFE 		.word	-17054270
 6800 45e4 5F4E85FF 		.word	-8040865
 6801 45e8 FCF8F3FF 		.word	-788228
 6802 45ec E15D83FF 		.word	-8167967
 6803 45f0 BB86C4FF 		.word	-3897669
 6804 45f4 D899AA00 		.word	11180504
 6805 45f8 14769EFE 		.word	-23169516
 6806 45fc 8C017600 		.word	7733644
 6807 4600 569E0F01 		.word	17800790
 6808 4604 2DD329FF 		.word	-14036179
 6809 4608 930164FE 		.word	-27000429
 6810 460c 71744CFF 		.word	-11766671
 6811 4610 D37F6C01 		.word	23887827
 6812 4614 670F3000 		.word	3149671
 6813 4618 C1106601 		.word	23466177
ARM GAS  C:\Users\NIGHDR~1\AppData\Local\Temp\ccrnUt9g.s 			page 132


 6814 461c 45335FFF 		.word	-10538171
 6815 4620 6B809D00 		.word	10322027
 6816 4624 89ABE900 		.word	15313801
 6817 4628 5A7C9001 		.word	26246234
 6818 462c 6AA1B600 		.word	11968874
 6819 4630 AF4CEC01 		.word	32263343
 6820 4634 C88DACFF 		.word	-5468728
 6821 4638 A33A6800 		.word	6830755
 6822 463c E9B434FF 		.word	-13323031
 6823 4640 F0FD0EFF 		.word	-15794704
 6824 4644 A271FEFF 		.word	-101982
 6825 4648 26EF8AFE 		.word	-24449242
 6826 464c 342EA600 		.word	10890804
 6827 4650 F16521FE 		.word	-31365647
 6828 4654 83BA9C00 		.word	10271363
 6829 4658 6FD03EFF 		.word	-12660625
 6830 465c 7C5EA0FF 		.word	-6267268
 6831 4660 1FACFE00 		.word	16690207
 6832 4664 70AE38FF 		.word	-13062544
 6833 4668 BC631BFF 		.word	-14982212
 6834 466c 438AFB00 		.word	16484931
 6835 4670 7D3A8001 		.word	25180797
 6836 4674 9C98AEFF 		.word	-5334884
 6837 4678 B20CF7FF 		.word	-586574
 6838 467c FC549E00 		.word	10376444
 6839 4680 52C50EFE 		.word	-32586414
 6840 4684 ACC853FF 		.word	-11286356
 6841 4688 25272E01 		.word	19801893
 6842 468c 6ACFA700 		.word	10997610
 6843 4690 18BD2200 		.word	2276632
 6844 4694 83B29000 		.word	9482883
 6845 4698 CED50400 		.word	316878
 6846 469c A1E2D200 		.word	13820577
 6847 46a0 483369FF 		.word	-9882808
 6848 46a4 612DBBFF 		.word	-4510367
 6849 46a8 4EB8DFFF 		.word	-2115506
 6850 46ac B01DFB00 		.word	16457136
 6851 46b0 4FA056FF 		.word	-11100081
 6852 46b4 7425B200 		.word	11674996
 6853 46b8 524DD501 		.word	30756178
 6854 46bc 52548DFF 		.word	-7515054
 6855 46c0 E265D401 		.word	30696930
 6856 46c4 AF58C7FF 		.word	-3712849
 6857 46c8 F55EF701 		.word	32988917
 6858 46cc AC766DFF 		.word	-9603412
 6859 46d0 A6B9BE00 		.word	12499366
 6860 46d4 83B57800 		.word	7910787
 6861 46d8 57FE5DFF 		.word	-10617257
 6862 46dc 86F049FF 		.word	-11931514
 6863 46e0 20F58FFF 		.word	-7342816
 6864 46e4 8BA267FF 		.word	-9985397
 6865 46e8 B36212FE 		.word	-32349517
 6866 46ec D9CC7000 		.word	7392473
 6867 46f0 93DF78FF 		.word	-8855661
 6868 46f4 350AF300 		.word	15927861
 6869 46f8 A68C9600 		.word	9866406
 6870 46fc 7D50C8FF 		.word	-3649411
ARM GAS  C:\Users\NIGHDR~1\AppData\Local\Temp\ccrnUt9g.s 			page 133


 6871 4700 0E6DDBFF 		.word	-2396914
 6872 4704 5BDA01FF 		.word	-16655781
 6873 4708 FCFC2FFE 		.word	-30409476
 6874 470c 6D9C74FF 		.word	-9134995
 6875 4710 73317F01 		.word	25112947
 6876 4714 CC57D3FF 		.word	-2926644
 6877 4718 94CAD9FF 		.word	-2504044
 6878 471c 1A55F9FF 		.word	-436966
 6879 4720 0EF58601 		.word	25621774
 6880 4724 4C59A9FF 		.word	-5678772
 6881 4728 F22DE600 		.word	15085042
 6882 472c 3B62ACFF 		.word	-5479877
 6883 4730 724984FE 		.word	-24884878
 6884 4734 4E9B31FF 		.word	-13526194
 6885 4738 9E7E5400 		.word	5537438
 6886 473c 31AF2BFF 		.word	-13914319
 6887 4740 10B654FF 		.word	-11225584
 6888 4744 9D672300 		.word	2320285
 6889 4748 68C16DFF 		.word	-9584280
 6890 474c 43DD9A00 		.word	10149187
 6891 4750 C9AC01FE 		.word	-33444663
 6892 4754 08A25800 		.word	5808648
 6893 4758 A5011DFF 		.word	-14876251
 6894 475c 7D9BE5FF 		.word	-1729667
 6895 4760 1E9ADC01 		.word	31234590
 6896 4764 67EF5C00 		.word	6090599
 6897 4768 DC016DFF 		.word	-9633316
 6898 476c CAC60100 		.word	116426
 6899 4770 5E028E01 		.word	26083934
 6900 4774 24362C00 		.word	2897444
 6901 4778 EBE29EFF 		.word	-6364437
 6902 477c AAFBD6FF 		.word	-2688086
 6903 4780 B94D0900 		.word	609721
 6904 4784 614AF200 		.word	15878753
 6905 4788 DBA395FF 		.word	-6970405
 6906 478c F02376FF 		.word	-9034768
 6907 4790 DF7258FE 		.word	-27757857
 6908 4794 C0C70300 		.word	247744
 6909 4798 6A2518FF 		.word	-15194774
 6910 479c C9A176FF 		.word	-9002551
 6911 47a0 61596301 		.word	23288161
 6912 47a4 E03A67FF 		.word	-10011936
 6913 47a8 65C793FE 		.word	-23869595
 6914 47ac DE3C6300 		.word	6503646
 6915 47b0 EA193B01 		.word	20650474
 6916 47b4 34871B00 		.word	1804084
 6917 47b8 66035BFE 		.word	-27589786
 6918 47bc A8D8EB00 		.word	15456424
 6919 47c0 E5E88800 		.word	8972517
 6920 47c4 683C8100 		.word	8469608
 6921 47c8 2EA8EE00 		.word	15640622
 6922 47cc 27BF4300 		.word	4439847
 6923 47d0 4BA32F00 		.word	3121995
 6924 47d4 8F6162FF 		.word	-10329713
 6925 47d8 38D8A801 		.word	27842616
 6926 47dc A8E9FCFF 		.word	-202328
 6927 47e0 236F16FF 		.word	-15306973
ARM GAS  C:\Users\NIGHDR~1\AppData\Local\Temp\ccrnUt9g.s 			page 134


 6928 47e4 5C542B00 		.word	2839644
 6929 47e8 1AC85701 		.word	22530074
 6930 47ec 5BFD9800 		.word	10026331
 6931 47f0 CA384600 		.word	4602058
 6932 47f4 8E084D00 		.word	5048462
 6933 47f8 500AAF01 		.word	28248656
 6934 47fc FCC74C00 		.word	5031932
 6935 4800 166E52FF 		.word	-11375082
 6936 4804 8101C200 		.word	12714369
 6937 4808 0B803D01 		.word	20807691
 6938 480c 570E91FF 		.word	-7270825
 6939 4810 FDDEBE01 		.word	29286141
 6940 4814 0F48AE00 		.word	11421711
 6941 4818 55A356FE 		.word	-27876523
 6942 481c 3A632CFF 		.word	-13868230
 6943 4820 2D18BCFE 		.word	-21227475
 6944 4824 1ACD0F00 		.word	1035546
 6945 4828 13E5D2FE 		.word	-19733229
 6946 482c F843C300 		.word	12796920
 6947 4830 6347B800 		.word	12076899
 6948 4834 9AC725FF 		.word	-14301286
 6949 4838 97F379FF 		.word	-8785001
 6950 483c 26334BFF 		.word	-11848922
 6951 4840 C95582FE 		.word	-25012791
 6952 4844 2C41FA00 		.word	16400684
 6953 4848 3993F3FE 		.word	-17591495
 6954 484c 922B3BFF 		.word	-12899438
 6955 4850 591C3500 		.word	3480665
 6956 4854 215418FF 		.word	-15182815
 6957 4858 B33312FE 		.word	-32361549
 6958 485c BD465300 		.word	5457597
 6959 4860 0B9CB301 		.word	28548107
 6960 4864 62867700 		.word	7833186
 6961 4868 9E6F6F00 		.word	7303070
 6962 486c 779A49FF 		.word	-11953545
 6963 4870 C83F8CFE 		.word	-24363064
 6964 4874 2D0D0DFF 		.word	-15921875
 6965 4878 9AC002FE 		.word	-33374054
 6966 487c 51482A00 		.word	2771025
 6967 4880 2EA0B9FE 		.word	-21389266
 6968 4884 2C700600 		.word	421932
 6969 4888 92D79501 		.word	26597266
 6970 488c 1AB06800 		.word	6860826
 6971 4890 441C5701 		.word	22486084
 6972 4894 EC3299FF 		.word	-6737172
 6973 4898 B380FAFE 		.word	-17137485
 6974 489c CEC1BFFF 		.word	-4210226
 6975 48a0 A65C89FE 		.word	-24552282
 6976 48a4 3528EF00 		.word	15673397
 6977 48a8 D201CCFE 		.word	-20184622
 6978 48ac A8AD2300 		.word	2338216
 6979 48b0 8DF32D01 		.word	19788685
 6980 48b4 24326DFF 		.word	-9620956
 6981 48b8 0FF2C2FF 		.word	-4001265
 6982 48bc E39F7AFF 		.word	-8740893
 6983 48c0 B0AFCAFE 		.word	-20271184
 6984 48c4 46394800 		.word	4733254
ARM GAS  C:\Users\NIGHDR~1\AppData\Local\Temp\ccrnUt9g.s 			page 135


 6985 48c8 28DF3800 		.word	3727144
 6986 48cc D0A23AFF 		.word	-12934448
 6987 48d0 B7625D00 		.word	6120119
 6988 48d4 0F6F0C00 		.word	814863
 6989 48d8 1E084CFF 		.word	-11794402
 6990 48dc 847FF6FF 		.word	-622716
 6991 48e0 2DF26700 		.word	6812205
 6992 48e4 45B50FFF 		.word	-15747771
 6993 48e8 0AD11E00 		.word	2019594
 6994 48ec 03B37900 		.word	7975683
 6995 48f0 F1E8DA01 		.word	31123697
 6996 48f4 7BC758FF 		.word	-10958981
 6997 48f8 02D2CA01 		.word	30069250
 6998 48fc BC8251FF 		.word	-11435332
 6999 4900 5E65D001 		.word	30434654
 7000 4904 67242D00 		.word	2958439
 7001 4908 4CC11801 		.word	18399564
 7002 490c 5F1AF1FF 		.word	-976289
 7003 4910 A5A2BB00 		.word	12296869
 7004 4914 24728C00 		.word	9204260
 7005 4918 CA4205FF 		.word	-16432438
 7006 491c 25389300 		.word	9648165
 7007 4920 980BF301 		.word	32705432
 7008 4924 7F55E8FF 		.word	-1550977
 7009 4928 FA87D401 		.word	30705658
 7010 492c B9B17100 		.word	7451065
 7011 4930 5ADC4BFF 		.word	-11805606
 7012 4934 45F89200 		.word	9631813
 7013 4938 326F3200 		.word	3305266
 7014 493c 5C165000 		.word	5248604
 7015 4940 F42473FE 		.word	-26008332
 7016 4944 A36452FF 		.word	-11377501
 7017 4948 19C10601 		.word	17219865
 7018 494c 7F3D2400 		.word	2375039
 7019 4950 FD431EFE 		.word	-31570947
 7020 4954 41ECAAFF 		.word	-5575615
 7021 4958 A111D7FE 		.word	-19459679
 7022 495c 3FAF8C00 		.word	9219903
 7023 4960 377F0400 		.word	294711
 7024 4964 4F70E900 		.word	15298639
 7025 4968 6DA02800 		.word	2662509
 7026 496c 8F5307FF 		.word	-16297073
 7027 4970 411AEEFF 		.word	-1172927
 7028 4974 D9A98CFF 		.word	-7558695
 7029 4978 4E5EBDFF 		.word	-4366770
 7030 497c 0093BEFF 		.word	-4287744
 7031 4980 9347BAFE 		.word	-21346413
 7032 4984 6A4D7FFF 		.word	-8434326
 7033 4988 E99DE901 		.word	32087529
 7034 498c 8757EDFF 		.word	-1222777
 7035 4990 D00DEC01 		.word	32247248
 7036 4994 9B6D24FF 		.word	-14389861
 7037 4998 B464DA00 		.word	14312628
 7038 499c B4A31200 		.word	1221556
 7039 49a0 BE6E0901 		.word	17395390
 7040 49a4 113F7BFF 		.word	-8700143
 7041 49a8 B388B4FF 		.word	-4945741
ARM GAS  C:\Users\NIGHDR~1\AppData\Local\Temp\ccrnUt9g.s 			page 136


 7042 49ac A57B7BFF 		.word	-8684635
 7043 49b0 90BC51FE 		.word	-28197744
 7044 49b4 47F06CFF 		.word	-9637817
 7045 49b8 19700BFF 		.word	-16027623
 7046 49bc E3DA33FF 		.word	-13378845
 7047 49c0 A732EAFF 		.word	-1428825
 7048 49c4 724F6CFF 		.word	-9678990
 7049 49c8 1F1373FF 		.word	-9235681
 7050 49cc B7F06300 		.word	6549687
 7051 49d0 E3578FFF 		.word	-7383069
 7052 49d4 48D9F8FF 		.word	-468664
 7053 49d8 66A95F01 		.word	23046502
 7054 49dc 81959500 		.word	9803137
 7055 49e0 EE850C01 		.word	17597934
 7056 49e4 E3CC2300 		.word	2346211
 7057 49e8 D0731A01 		.word	18510800
 7058 49ec 6608EA00 		.word	15337574
 7059 49f0 70588F01 		.word	26171504
 7060 49f4 90F90E00 		.word	981392
 7061 49f8 F09EACFE 		.word	-22241552
 7062 49fc 64707700 		.word	7827556
 7063 4a00 C28D99FE 		.word	-23491134
 7064 4a04 283853FF 		.word	-11323352
 7065 4a08 79B02E00 		.word	3059833
 7066 4a0c 2A354CFF 		.word	-11782870
 7067 4a10 9EBF9A00 		.word	10141598
 7068 4a14 5BD15C00 		.word	6082907
 7069 4a18 AD0D1001 		.word	17829293
 7070 4a1c 0548E2FF 		.word	-1947643
 7071 4a20 CCFE9500 		.word	9830092
 7072 4a24 50B8CF00 		.word	13613136
 7073 4a28 64097AFE 		.word	-25556636
 7074 4a2c 7665ABFF 		.word	-5544586
 7075 4a30 FCCB00FE 		.word	-33502212
 7076 4a34 A0CF3600 		.word	3592096
 7077 4a38 3848F901 		.word	33114168
 7078 4a3c 388C0DFF 		.word	-15889352
 7079 4a40 0A406BFE 		.word	-26525686
 7080 4a44 5B6534FF 		.word	-13343397
 7081 4a48 E1B5F801 		.word	33076705
 7082 4a4c 8BFF8400 		.word	8716171
 7083 4a50 E6911100 		.word	1151462
 7084 4a54 E9381700 		.word	1521897
 7085 4a58 7701F1FF 		.word	-982665
 7086 4a5c D5A997FF 		.word	-6837803
 7087 4a60 636309FE 		.word	-32939165
 7088 4a64 B90FBFFF 		.word	-4255815
 7089 4a68 AD676D01 		.word	23947181
 7090 4a6c AE0DFBFF 		.word	-324178
 7091 4a70 B25807FE 		.word	-33072974
 7092 4a74 1B3B44FF 		.word	-12305637
 7093 4a78 0A2102FF 		.word	-16637686
 7094 4a7c F8613B00 		.word	3891704
 7095 4a80 1A1E9201 		.word	26353178
 7096 4a84 B0930A00 		.word	693168
 7097 4a88 5F79CF01 		.word	30374239
 7098 4a8c BC581800 		.word	1595580
ARM GAS  C:\Users\NIGHDR~1\AppData\Local\Temp\ccrnUt9g.s 			page 137


 7099 4a90 B95EFEFE 		.word	-16884039
 7100 4a94 7337C900 		.word	13186931
 7101 4a98 18324600 		.word	4600344
 7102 4a9c 78350600 		.word	406904
 7103 4aa0 8E429200 		.word	9585294
 7104 4aa4 E4E2F9FF 		.word	-400668
 7105 4aa8 68C0DE01 		.word	31375464
 7106 4aac AD44DB00 		.word	14369965
 7107 4ab0 A2B824FF 		.word	-14370654
 7108 4ab4 8F6689FF 		.word	-7772529
 7109 4ab8 9D0B1700 		.word	1510301
 7110 4abc 7D2D6200 		.word	6434173
 7111 4ac0 EB5DE1FE 		.word	-18784789
 7112 4ac4 3870A0FF 		.word	-6262728
 7113 4ac8 4674F301 		.word	32732230
 7114 4acc 99F937FF 		.word	-13108839
 7115 4ad0 81271101 		.word	17901441
 7116 4ad4 F150F400 		.word	16011505
 7117 4ad8 57451501 		.word	18171223
 7118 4adc 5EE449FF 		.word	-11934626
 7119 4ae0 4E4241FF 		.word	-12500402
 7120 4ae4 C2E3E700 		.word	15197122
 7121 4ae8 3D9257FF 		.word	-11038147
 7122 4aec AD9B17FF 		.word	-15230035
 7123 4af0 7074DBFE 		.word	-19172240
 7124 4af4 D8260BFF 		.word	-16046376
 7125 4af8 83BA8500 		.word	8764035
 7126 4afc 5ED4BB00 		.word	12309598
 7127 4b00 642F5B00 		.word	5975908
 7128 4b04 CCFEAFFF 		.word	-5243188
 7129 4b08 DE12D7FE 		.word	-19459362
 7130 4b0c AD446CFF 		.word	-9681747
 7131 4b10 E3E44FFF 		.word	-11541277
 7132 4b14 26DDD500 		.word	14015782
 7133 4b18 A3E396FE 		.word	-23665757
 7134 4b1c 1FBE1200 		.word	1228319
 7135 4b20 A0B30B01 		.word	17544096
 7136 4b24 0A5A5EFF 		.word	-10593782
 7137 4b28 DCAE5800 		.word	5811932
 7138 4b2c A3D3E5FF 		.word	-1715293
 7139 4b30 C7883400 		.word	3442887
 7140 4b34 825FDDFF 		.word	-2269310
 7141 4b38 8CBCE7FE 		.word	-18367348
 7142 4b3c 8B7180FF 		.word	-8359541
 7143 4b40 75ABECFE 		.word	-18044043
 7144 4b44 31DC14FF 		.word	-15410127
 7145 4b48 3B14ABFF 		.word	-5565381
 7146 4b4c E46DBC00 		.word	12348900
 7147 4b50 14E120FE 		.word	-31399660
 7148 4b54 C310AE00 		.word	11407555
 7149 4b58 E3FE8801 		.word	25755363
 7150 4b5c 87276900 		.word	6891399
 7151 4b60 964DCEFF 		.word	-3256938
 7152 4b64 D2EEE200 		.word	14872274
 7153 4b68 37D484FE 		.word	-24849353
 7154 4b6c EF397C00 		.word	8141295
 7155 4b70 AAC25DFF 		.word	-10632534
ARM GAS  C:\Users\NIGHDR~1\AppData\Local\Temp\ccrnUt9g.s 			page 138


 7156 4b74 F910F7FF 		.word	-585479
 7157 4b78 18973EFF 		.word	-12675304
 7158 4b7c 0A970A00 		.word	694026
 7159 4b80 4F8BB2FF 		.word	-5076145
 7160 4b84 78F2CA00 		.word	13300344
 7161 4b88 1ADBD500 		.word	14015258
 7162 4b8c 3E7D23FF 		.word	-14451394
 7163 4b90 90026CFF 		.word	-9698672
 7164 4b94 E62153FF 		.word	-11329050
 7165 4b98 512DD801 		.word	30944593
 7166 4b9c E03E1100 		.word	1130208
 7167 4ba0 D6D97D00 		.word	8247766
 7168 4ba4 629999FF 		.word	-6710942
 7169 4ba8 B3B06AFE 		.word	-26562381
 7170 4bac 835D8AFF 		.word	-7709309
 7171 4bb0 6D3E24FF 		.word	-14401939
 7172 4bb4 B27920FF 		.word	-14648910
 7173 4bb8 78FC4600 		.word	4652152
 7174 4bbc DCF82500 		.word	2488540
 7175 4bc0 CC586701 		.word	23550156
 7176 4bc4 80DCFBFF 		.word	-271232
 7177 4bc8 ECE30701 		.word	17294316
 7178 4bcc 6A31C6FF 		.word	-3788438
 7179 4bd0 3C386B00 		.word	7026748
 7180 4bd4 6372EE00 		.word	15626851
 7181 4bd8 DCCC5E01 		.word	22990044
 7182 4bdc 49BB0100 		.word	113481
 7183 4be0 599A2200 		.word	2267737
 7184 4be4 4ED9A5FF 		.word	-5908146
 7185 4be8 0EC3F9FF 		.word	-408818
 7186 4bec 09E6FDFF 		.word	-137719
 7187 4bf0 CD87F500 		.word	16091085
 7188 4bf4 1AFC07FF 		.word	-16253926
 7189 4bf8 54CD1B01 		.word	18599252
 7190 4bfc 86027000 		.word	7340678
 7191 4c00 259E2000 		.word	2137637
 7192 4c04 E75BEDFF 		.word	-1221657
 7193 4c08 BFAACCFF 		.word	-3364161
 7194 4c0c 9807DE00 		.word	14550936
 7195 4c10 6DC03100 		.word	3260525
 7196 4c14 C1A692FF 		.word	-7166271
 7197 4c18 E813B5FF 		.word	-4910104
 7198 4c1c 698E34FF 		.word	-13332887
 7199 4c20 67101B01 		.word	18550887
 7200 4c24 FDC8A500 		.word	10864893
 7201 4c28 C3D904FF 		.word	-16459325
 7202 4c2c 34BD90FF 		.word	-7291596
 7203 4c30 7B9BA0FE 		.word	-23028869
 7204 4c34 578236FF 		.word	-13204905
 7205 4c38 4E783DFF 		.word	-12748722
 7206 4c3c 0E382900 		.word	2701326
 7207 4c40 19297DFF 		.word	-8574695
 7208 4c44 57A8F500 		.word	16099415
 7209 4c48 D6A54600 		.word	4629974
 7210 4c4c D4A906FF 		.word	-16340524
 7211 4c50 DBD3C2FE 		.word	-20786213
 7212 4c54 485DA4FF 		.word	-6005432
ARM GAS  C:\Users\NIGHDR~1\AppData\Local\Temp\ccrnUt9g.s 			page 139


 7213 4c58 C52167FF 		.word	-10018363
 7214 4c5c 2B8E8D00 		.word	9276971
 7215 4c60 83E1AC00 		.word	11329923
 7216 4c64 F4691C00 		.word	1862132
 7217 4c68 4444E100 		.word	14763076
 7218 4c6c 88540DFF 		.word	-15903608
 7219 4c70 823928FE 		.word	-30918270
 7220 4c74 8B4D3800 		.word	3689867
 7221 4c78 54963500 		.word	3511892
 7222 4c7c 365F9D00 		.word	10313526
 7223 4c80 900DB1FE 		.word	-21951088
 7224 4c84 5F73BA00 		.word	12219231
 7225 4c88 751776FF 		.word	-9037963
 7226 4c8c F4A6F1FF 		.word	-940300
 7227 4c90 0BBA8700 		.word	8894987
 7228 4c94 B26ACBFF 		.word	-3446094
 7229 4c98 61DA5D00 		.word	6150753
 7230 4c9c 2BFD2D00 		.word	3013931
 7231 4ca0 A4980400 		.word	301220
 7232 4ca4 8B76EF00 		.word	15693451
 7233 4ca8 600118FE 		.word	-31981216
 7234 4cac EB99D3FF 		.word	-2909717
 7235 4cb0 A86E14FF 		.word	-15438168
 7236 4cb4 32EFB000 		.word	11595570
 7237 4cb8 7229E800 		.word	15214962
 7238 4cbc C1FA3500 		.word	3537601
 7239 4cc0 FEA06FFE 		.word	-26238722
 7240 4cc4 887A29FF 		.word	-14058872
 7241 4cc8 616C4300 		.word	4418657
 7242 4ccc D79817FF 		.word	-15230761
 7243 4cd0 8CD1D400 		.word	13947276
 7244 4cd4 2ABDA300 		.word	10730794
 7245 4cd8 CA2A32FF 		.word	-13489462
 7246 4cdc 6A6ABDFF 		.word	-4363670
 7247 4ce0 BE44D9FF 		.word	-2538306
 7248 4ce4 E93A7500 		.word	7682793
 7249 4ce8 E5DCF301 		.word	32759013
 7250 4cec C5030400 		.word	263109
 7251 4cf0 257836FE 		.word	-29984731
 7252 4cf4 049C86FF 		.word	-7955452
 7253 4cf8 243DABFE 		.word	-22332124
 7254 4cfc A58864FF 		.word	-10188635
 7255 4d00 D4E80E00 		.word	977108
 7256 4d04 5AAE0A00 		.word	699994
 7257 4d08 D8C641FF 		.word	-12466472
 7258 4d0c 0C034000 		.word	4195084
 7259 4d10 747173FF 		.word	-9211532
 7260 4d14 F8670800 		.word	550904
 7261 4d18 E77D12FF 		.word	-15565337
 7262 4d1c A01CC500 		.word	12917920
 7263 4d20 1EB82301 		.word	19118110
 7264 4d24 DF49F9FF 		.word	-439841
 7265 4d28 7B142EFE 		.word	-30534533
 7266 4d2c 873825FF 		.word	-14337913
 7267 4d30 AD0DE501 		.word	31788461
 7268 4d34 77A122FF 		.word	-14507657
 7269 4d38 F53D4900 		.word	4799989
ARM GAS  C:\Users\NIGHDR~1\AppData\Local\Temp\ccrnUt9g.s 			page 140


 7270 4d3c CD7D7000 		.word	7372237
 7271 4d40 89688600 		.word	8808585
 7272 4d44 D9F61EFF 		.word	-14747943
 7273 4d48 ED8E8F00 		.word	9408237
 7274 4d4c 419F66FF 		.word	-10051775
 7275 4d50 6CA4BE00 		.word	12493932
 7276 4d54 DB75ADFF 		.word	-5409317
 7277 4d58 222578FE 		.word	-25680606
 7278 4d5c C8455000 		.word	5260744
 7279 4d60 1F7CDAFE 		.word	-19235809
 7280 4d64 4A1BA0FF 		.word	-6284470
 7281 4d68 BA9AC7FF 		.word	-3695942
 7282 4d6c 47C7FC00 		.word	16566087
 7283 4d70 68519F01 		.word	27218280
 7284 4d74 11C82700 		.word	2607121
 7285 4d78 D33DC001 		.word	29375955
 7286 4d7c 1AEE5B00 		.word	6024730
 7287 4d80 94D90C00 		.word	842132
 7288 4d84 3B5BD5FF 		.word	-2794693
 7289 4d88 0B51B7FF 		.word	-4763381
 7290 4d8c 81E67AFF 		.word	-8722815
 7291 4d90 72CB9101 		.word	26332018
 7292 4d94 77B442FF 		.word	-12405641
 7293 4d98 488AB400 		.word	11831880
 7294 4d9c E0956A00 		.word	6985184
 7295 4da0 775268FF 		.word	-9940361
 7296 4da4 D08C2B00 		.word	2854096
 7297 4da8 6209B6FF 		.word	-4847262
 7298 4dac CD6586FF 		.word	-7969331
 7299 4db0 12652600 		.word	2516242
 7300 4db4 5FC5A6FF 		.word	-5847713
 7301 4db8 CBF19300 		.word	9695691
 7302 4dbc 3ED091FF 		.word	-7221186
 7303 4dc0 85F6FB00 		.word	16512645
 7304 4dc4 02A90E00 		.word	960770
 7305 4dc8 0DF7B800 		.word	12121869
 7306 4dcc 8E07FE00 		.word	16648078
 7307 4dd0 24C817FF 		.word	-15218652
 7308 4dd4 58CDDF00 		.word	14667096
 7309 4dd8 5B8134FF 		.word	-13336229
 7310 4ddc 15BA1E00 		.word	2013717
 7311 4de0 8FE4D201 		.word	30598287
 7312 4de4 F7EAF8FF 		.word	-464137
 7313 4de8 E6451FFE 		.word	-31504922
 7314 4dec B0BA87FF 		.word	-7882064
 7315 4df0 EECD3401 		.word	20237806
 7316 4df4 8B4F2B00 		.word	2838411
 7317 4df8 11B0D9FE 		.word	-19288047
 7318 4dfc 20F34300 		.word	4453152
 7319 4e00 F26FE900 		.word	15298546
 7320 4e04 2C2309FF 		.word	-16178388
 7321 4e08 E3725101 		.word	22115043
 7322 4e0c 04470CFF 		.word	-15972604
 7323 4e10 2669BF00 		.word	12544294
 7324 4e14 077532FF 		.word	-13470457
 7325 4e18 514F1000 		.word	1068881
 7326 4e1c 3F4441FF 		.word	-12499905
ARM GAS  C:\Users\NIGHDR~1\AppData\Local\Temp\ccrnUt9g.s 			page 141


 7327 4e20 9D246EFF 		.word	-9558883
 7328 4e24 4DF103FF 		.word	-16518835
 7329 4e28 E22DFB01 		.word	33238498
 7330 4e2c 8E19CE00 		.word	13506958
 7331 4e30 787BD101 		.word	30505848
 7332 4e34 1CFEEEFF 		.word	-1114596
 7333 4e38 05807EFF 		.word	-8486907
 7334 4e3c 5BDED7FF 		.word	-2630053
 7335 4e40 A20FBF00 		.word	12521378
 7336 4e44 56F04900 		.word	4845654
 7337 4e48 87B951FE 		.word	-28198521
 7338 4e4c 2CF1A300 		.word	10744108
 7339 4e50 D4DBD2FF 		.word	-2958380
 7340 4e54 70A29B00 		.word	10199664
 7341 4e58 CF657600 		.word	7759311
 7342 4e5c A84838FF 		.word	-13088600
 7343 4e60 C4053400 		.word	3409348
 7344 4e64 48ACF2FF 		.word	-873400
 7345 4e68 7E169DFF 		.word	-6482306
 7346 4e6c 92603BFF 		.word	-12885870
 7347 4e70 A27998FE 		.word	-23561822
 7348 4e74 8C105F00 		.word	6230156
 7349 4e78 C3FEC8FE 		.word	-20382013
 7350 4e7c 5296A200 		.word	10655314
 7351 4e80 772B91FE 		.word	-24040585
 7352 4e84 CCAC4EFF 		.word	-11621172
 7353 4e88 A6E09F00 		.word	10477734
 7354 4e8c 6813EDFF 		.word	-1240216
 7355 4e90 F57ED0FF 		.word	-3113227
 7356 4e94 E23BD500 		.word	13974498
 7357 4e98 75D9C500 		.word	12966261
 7358 4e9c 9848ED00 		.word	15550616
 7359 4ea0 DC1F17FE 		.word	-32038948
 7360 4ea4 0E5AE7FF 		.word	-1615346
 7361 4ea8 BCD44001 		.word	21025980
 7362 4eac 3C65F6FF 		.word	-629444
 7363 4eb0 55185600 		.word	5642325
 7364 4eb4 01B16D00 		.word	7188737
 7365 4eb8 92532001 		.word	18895762
 7366 4ebc 4BB6C000 		.word	12629579
 7367 4ec0 77F1E000 		.word	14741879
 7368 4ec4 B9ED1BFF 		.word	-14946887
 7369 4ec8 B8655201 		.word	22177208
 7370 4ecc EB254DFF 		.word	-11721237
 7371 4ed0 FD861300 		.word	1279741
 7372 4ed4 E8F67A00 		.word	8058600
 7373 4ed8 3C6AB300 		.word	11758140
 7374 4edc C30B0C00 		.word	789443
 7375 4ee0 6D42EB01 		.word	32195181
 7376 4ee4 7D713B00 		.word	3895677
 7377 4ee8 3D28A400 		.word	10758205
 7378 4eec AF68F000 		.word	15755439
 7379 4ef0 022FBBFF 		.word	-4509950
 7380 4ef4 320C8D00 		.word	9243698
 7381 4ef8 C28BB5FF 		.word	-4879422
 7382 4efc 87FA6800 		.word	6879879
 7383 4f00 615CDEFF 		.word	-2204575
ARM GAS  C:\Users\NIGHDR~1\AppData\Local\Temp\ccrnUt9g.s 			page 142


 7384 4f04 D995C9FF 		.word	-3566119
 7385 4f08 CBF176FF 		.word	-8982069
 7386 4f0c 4F974300 		.word	4429647
 7387 4f10 7A8EDAFF 		.word	-2453894
 7388 4f14 95F5EF00 		.word	15725973
 7389 4f18 8A2AC8FE 		.word	-20436342
 7390 4f1c 502561FF 		.word	-10410672
 7391 4f20 7C70A7FF 		.word	-5803908
 7392 4f24 248A57FF 		.word	-11040220
 7393 4f28 821D93FF 		.word	-7135870
 7394 4f2c F1574EFF 		.word	-11642895
 7395 4f30 CC611301 		.word	18047436
 7396 4f34 B1D116FF 		.word	-15281743
 7397 4f38 F7E37FFE 		.word	-25173001
 7398 4f3c 637753FF 		.word	-11307165
 7399 4f40 D419C601 		.word	29759956
 7400 4f44 10B3B300 		.word	11776784
 7401 4f48 914DACFE 		.word	-22262383
 7402 4f4c 59990EFF 		.word	-15820455
 7403 4f50 DABDA700 		.word	10993114
 7404 4f54 6BE93BFF 		.word	-12850837
 7405 4f58 2321F3FE 		.word	-17620701
 7406 4f5c 2C7070FF 		.word	-9408468
 7407 4f60 A17F4F01 		.word	21987233
 7408 4f64 CCAF0A00 		.word	700364
 7409 4f68 28158AFE 		.word	-24505048
 7410 4f6c 6874E400 		.word	14972008
 7411 4f70 C75F89FF 		.word	-7774265
 7412 4f74 85BEA8FF 		.word	-5718395
 7413 4f78 92A5EA01 		.word	32155026
 7414 4f7c B7632700 		.word	2581431
 7415 4f80 B7DC36FE 		.word	-29958985
 7416 4f84 FFDE8500 		.word	8773375
 7417 4f88 A2DB79FE 		.word	-25568350
 7418 4f8c 3FEF0600 		.word	454463
 7419 4f90 E16636FF 		.word	-13211935
 7420 4f94 FB12F600 		.word	16126715
 7421 4f98 04228101 		.word	25240068
 7422 4f9c 87248300 		.word	8594567
 7423 4fa0 CE323B01 		.word	20656846
 7424 4fa4 0F61B700 		.word	12017935
 7425 4fa8 ABD887FF 		.word	-7874389
 7426 4fac 65982BFF 		.word	-13920155
 7427 4fb0 96FB5B00 		.word	6028182
 7428 4fb4 26915F00 		.word	6263078
 7429 4fb8 22CC26FE 		.word	-31011806
 7430 4fbc B28C53FF 		.word	-11301710
 7431 4fc0 1981F3FF 		.word	-818919
 7432 4fc4 4C902500 		.word	2461772
 7433 4fc8 6A241AFE 		.word	-31841174
 7434 4fcc 7690ACFF 		.word	-5468042
 7435 4fd0 44BAE5FF 		.word	-1721788
 7436 4fd4 6BA1D5FF 		.word	-2776725
 7437 4fd8 2EA344FF 		.word	-12278994
 7438 4fdc 95AAFD00 		.word	16624277
 7439 4fe0 BB110F00 		.word	987579
 7440 4fe4 DAA0A5FF 		.word	-5922598
ARM GAS  C:\Users\NIGHDR~1\AppData\Local\Temp\ccrnUt9g.s 			page 143


 7441 4fe8 AB23F601 		.word	32908203
 7442 4fec 600D1300 		.word	1248608
 7443 4ff0 A5CB7500 		.word	7719845
 7444 4ff4 D66BC0FF 		.word	-4166698
 7445 4ff8 F47BB101 		.word	28408820
 7446 4ffc 64036800 		.word	6816612
 7447 5000 B2F261FF 		.word	-10358094
 7448 5004 FB4C82FF 		.word	-8237829
 7449 5008 D34D2A01 		.word	19549651
 7450 500c FA4F46FF 		.word	-12169222
 7451 5010 3FF45001 		.word	22082623
 7452 5014 6965F600 		.word	16147817
 7453 5018 3D883A01 		.word	20613181
 7454 501c EE5BD500 		.word	13982702
 7455 5020 0E3B62FF 		.word	-10339570
 7456 5024 A7544D00 		.word	5067943
 7457 5028 11842EFE 		.word	-30505967
 7458 502c 39AFC5FF 		.word	-3821767
 7459 5030 B93EB800 		.word	12074681
 7460 5034 4C40CF00 		.word	13582412
 7461 5038 ACAFD0FE 		.word	-19877972
 7462 503c AF4A2500 		.word	2443951
 7463 5040 8A1BD3FE 		.word	-19719286
 7464 5044 947DC200 		.word	12746132
 7465 5048 0A595100 		.word	5331210
 7466 504c A8CB65FF 		.word	-10105944
 7467 5050 2BD5D101 		.word	30528811
 7468 5054 EBF53600 		.word	3601899
 7469 5058 1E23E2FF 		.word	-1957090
 7470 505c 097E4600 		.word	4619785
 7471 5060 E27D5EFE 		.word	-27361822
 7472 5064 9C7514FF 		.word	-15436388
 7473 5068 39F87001 		.word	24180793
 7474 506c E63040FF 		.word	-12570394
 7475 5070 A45CA601 		.word	27679908
 7476 5074 E0D6E6FF 		.word	-1648928
 7477 5078 24788F00 		.word	9402404
 7478 507c 37082BFF 		.word	-13957065
 7479 5080 FB01F501 		.word	32834043
 7480 5084 6A62A500 		.word	10838634
 7481 5088 4A6B6AFE 		.word	-26580150
 7482 508c 350436FF 		.word	-13237195
 7483 5090 5AB29601 		.word	26653274
 7484 5094 03787BFF 		.word	-8685565
 7485 5098 F4055901 		.word	22611444
 7486 509c 72FA3DFF 		.word	-12715406
 7487 50a0 FE995201 		.word	22190590
 7488 50a4 4D0F1100 		.word	1118029
 7489 50a8 39EE5A01 		.word	22736441
 7490 50ac 5FDFE600 		.word	15130463
 7491 50b0 EC342FFE 		.word	-30460692
 7492 50b4 6794A4FF 		.word	-5991321
 7493 50b8 79CF2401 		.word	19189625
 7494 50bc 1210B9FF 		.word	-4648942
 7495 50c0 4B144A00 		.word	4854859
 7496 50c4 BB0B6500 		.word	6622139
 7497 50c8 2E3081FF 		.word	-8310738
ARM GAS  C:\Users\NIGHDR~1\AppData\Local\Temp\ccrnUt9g.s 			page 144


 7498 50cc 16EFD2FF 		.word	-2953450
 7499 50d0 4DEC81FF 		.word	-8262579
 7500 50d4 6F4DCCFF 		.word	-3388049
 7501 50d8 3D4861FF 		.word	-10401731
 7502 50dc C7D9FBFF 		.word	-271929
 7503 50e0 2AD7CC00 		.word	13424426
 7504 50e4 8591C9FF 		.word	-3567227
 7505 50e8 39E69201 		.word	26404409
 7506 50ec EB64C600 		.word	13001963
 7507 50f0 924923FE 		.word	-31241838
 7508 50f4 6CC614FF 		.word	-15415700
 7509 50f8 B64FD2FF 		.word	-2994250
 7510 50fc 52678800 		.word	8939346
 7511 5100 F66CB000 		.word	11562230
 7512 5104 22113CFF 		.word	-12840670
 7513 5108 134A72FE 		.word	-26064365
 7514 510c A8AA4EFF 		.word	-11621720
 7515 5110 9DEF14FF 		.word	-15405155
 7516 5114 9529A800 		.word	11020693
 7517 5118 3A791C00 		.word	1866042
 7518 511c 4FB386FF 		.word	-7949489
 7519 5120 E77987FF 		.word	-7898649
 7520 5124 AED162FF 		.word	-10301010
 7521 5128 F37ABE00 		.word	12483315
 7522 512c ABA6CD00 		.word	13477547
 7523 5130 D4743000 		.word	3175636
 7524 5134 1D6C42FF 		.word	-12424163
 7525 5138 A2DEB601 		.word	28761762
 7526 513c 0E771500 		.word	1406734
 7527 5140 D527F9FF 		.word	-448555
 7528 5144 FEDFE4FF 		.word	-1777666
 7529 5148 B7A5C600 		.word	13018551
 7530 514c 85BE3000 		.word	3194501
 7531 5150 7CD06DFF 		.word	-9580420
 7532 5154 77AF55FF 		.word	-11161737
 7533 5158 09D17901 		.word	24760585
 7534 515c 30ABBDFF 		.word	-4347088
 7535 5160 C3478601 		.word	25577411
 7536 5164 88DB33FF 		.word	-13378680
 7537 5168 B65B8DFE 		.word	-24290378
 7538 516c 319F4800 		.word	4759345
 7539 5170 2376F5FF 		.word	-690653
 7540 5174 70BAE3FF 		.word	-1852816
 7541 5178 3B891F00 		.word	2066747
 7542 517c 892CA300 		.word	10693769
 7543 5180 72673CFE 		.word	-29595790
 7544 5184 08D59600 		.word	9884936
 7545 5188 A20A71FF 		.word	-9368926
 7546 518c C2684800 		.word	4745410
 7547 5190 DC8374FF 		.word	-9141284
 7548 5194 B24F5C00 		.word	6049714
 7549 5198 CBFAD5FE 		.word	-19531061
 7550 519c 5DC1BDFF 		.word	-4341411
 7551 51a0 82FF22FE 		.word	-31260798
 7552 51a4 D4BC9700 		.word	9944276
 7553 51a8 881114FF 		.word	-15462008
 7554 51ac 146553FF 		.word	-11311852
ARM GAS  C:\Users\NIGHDR~1\AppData\Local\Temp\ccrnUt9g.s 			page 145


 7555 51b0 D4CEA600 		.word	10931924
 7556 51b4 E5EE49FF 		.word	-11931931
 7557 51b8 974A03FF 		.word	-16561513
 7558 51bc A857D700 		.word	14112680
 7559 51c0 9BBC85FF 		.word	-8012645
 7560 51c4 A6814900 		.word	4817318
 7561 51c8 F04F85FF 		.word	-8040464
 7562 51cc B2D351FF 		.word	-11414606
 7563 51d0 CB48A3FE 		.word	-22853429
 7564 51d4 C1A8A500 		.word	10856641
 7565 51d8 0EA4C7FE 		.word	-20470770
 7566 51dc 1EFFCC00 		.word	13434654
 7567 51e0 41485B01 		.word	22759489
 7568 51e4 A64A66FF 		.word	-10073434
 7569 51e8 C82A00FF 		.word	-16766264
 7570 51ec C271E3FF 		.word	-1871422
 7571 51f0 4217D000 		.word	13637442
 7572 51f4 E5D864FF 		.word	-10168091
 7573 51f8 18EF1A00 		.word	1765144
 7574 51fc 0AE93EFF 		.word	-12654326
 7575 5200 7B0AB201 		.word	28445307
 7576 5204 1A24AEFF 		.word	-5364710
 7577 5208 77DBC701 		.word	29875063
 7578 520c 2DA3BE00 		.word	12493613
 7579 5210 10A82A00 		.word	2795536
 7580 5214 A639C6FF 		.word	-3786330
 7581 5218 1C1A1A00 		.word	1710620
 7582 521c 7EA5E700 		.word	15181182
 7583 5220 FB6C64FF 		.word	-10195717
 7584 5224 3DE579FF 		.word	-8788675
 7585 5228 3A768A00 		.word	9074234
 7586 522c 4CCF1100 		.word	1167180
 7587 5230 0D2270FE 		.word	-26205683
 7588 5234 5910A800 		.word	11014233
 7589 5238 25D069FF 		.word	-9842651
 7590 523c 23C9D7FF 		.word	-2635485
 7591 5240 286A65FE 		.word	-26908120
 7592 5244 06EF7200 		.word	7532294
 7593 5248 2867E2FE 		.word	-18716888
 7594 524c F67F6EFF 		.word	-9535498
 7595 5250 3FA73A00 		.word	3843903
 7596 5254 84F08E00 		.word	9367684
 7597 5258 059E58FF 		.word	-10969595
 7598 525c 81499EFF 		.word	-6403711
 7599 5260 5E599200 		.word	9591134
 7600 5264 E6369200 		.word	9582310
 7601 5268 082DAD00 		.word	11349256
 7602 526c 4FA90100 		.word	108879
 7603 5270 73BAF700 		.word	16235123
 7604 5274 54408300 		.word	8601684
 7605 5278 43E0FDFF 		.word	-139197
 7606 527c CFBD4000 		.word	4242895
 7607 5280 9A1C5101 		.word	22092954
 7608 5284 2DB836FF 		.word	-13191123
 7609 5288 57D4E0FF 		.word	-2042793
 7610 528c 006049FF 		.word	-11968512
 7611 5290 8121EB01 		.word	32186753
ARM GAS  C:\Users\NIGHDR~1\AppData\Local\Temp\ccrnUt9g.s 			page 146


 7612 5294 344250FF 		.word	-11517388
 7613 5298 FBAE9BFF 		.word	-6574341
 7614 529c 04B32500 		.word	2470660
 7615 52a0 EAA45DFE 		.word	-27417366
 7616 52a4 5DAFFD00 		.word	16625501
 7617 52a8 C64557FF 		.word	-11057722
 7618 52ac E06A2E00 		.word	3042016
 7619 52b0 631DD200 		.word	13770083
 7620 52b4 3EBC72FF 		.word	-9257922
 7621 52b8 2CEA0800 		.word	584236
 7622 52bc A9AFF7FF 		.word	-544855
 7623 52c0 176D89FF 		.word	-7770857
 7624 52c4 E5B62700 		.word	2602725
 7625 52c8 C0A55EFE 		.word	-27351616
 7626 52cc F565D900 		.word	14247413
 7627 52d0 BF586000 		.word	6314175
 7628 52d4 C45E63FF 		.word	-10264892
 7629 52d8 6AEE0BFE 		.word	-32772502
 7630 52dc 357EF300 		.word	15957557
 7631 52e0 5E0165FF 		.word	-10157730
 7632 52e4 2E930200 		.word	168750
 7633 52e8 C97C7CFF 		.word	-8618807
 7634 52ec 8D0CDA00 		.word	14290061
 7635 52f0 0DA69D01 		.word	27108877
 7636 52f4 30FBEDFF 		.word	-1180880
 7637 52f8 9BFA7CFF 		.word	-8586597
 7638 52fc 6A9492FF 		.word	-7170966
 7639 5300 B60DCA00 		.word	13241782
 7640 5304 1C3DA700 		.word	10960156
 7641 5308 D99808FE 		.word	-32991015
 7642 530c DC822DFF 		.word	-13794596
 7643 5310 C8E6FF01 		.word	33547976
 7644 5314 374157FF 		.word	-11058889
 7645 5318 5DBF61FE 		.word	-27148451
 7646 531c 72FB0E00 		.word	981874
 7647 5320 20695C01 		.word	22833440
 7648 5324 1ACF8D00 		.word	9293594
 7649 5328 18CF0DFE 		.word	-32649448
 7650 532c 153230FF 		.word	-13618667
 7651 5330 BA9474FF 		.word	-9136966
 7652 5334 D32BE100 		.word	14756819
 7653 5338 2522A2FE 		.word	-22928859
 7654 533c A4D22AFF 		.word	-13970780
 7655 5340 441760FF 		.word	-10479804
 7656 5344 B6D608FF 		.word	-16197962
 7657 5348 F57589FF 		.word	-7768587
 7658 534c 42C33200 		.word	3326786
 7659 5350 4B0C53FE 		.word	-28111797
 7660 5354 508CA400 		.word	10783824
 7661 5358 09A52401 		.word	19178761
 7662 535c E46EE300 		.word	14905060
 7663 5360 F1115A01 		.word	22680049
 7664 5364 1934D400 		.word	13906969
 7665 5368 06DF0CFF 		.word	-15933690
 7666 536c 8BF33900 		.word	3797899
 7667 5370 0C714B01 		.word	21721356
 7668 5374 F6B7BFFF 		.word	-4212746
ARM GAS  C:\Users\NIGHDR~1\AppData\Local\Temp\ccrnUt9g.s 			page 147


 7669 5378 D5BF45FF 		.word	-12206123
 7670 537c E60F8E00 		.word	9310182
 7671 5380 01C3C4FF 		.word	-3882239
 7672 5384 8AAB2FFF 		.word	-13653110
 7673 5388 403F6A01 		.word	23740224
 7674 538c 10A9D6FF 		.word	-2709232
 7675 5390 CFAE3801 		.word	20491983
 7676 5394 584985FF 		.word	-8042152
 7677 5398 B6858C00 		.word	9209270
 7678 539c B10E19FF 		.word	-15135055
 7679 53a0 93B835FF 		.word	-13256557
 7680 53a4 0AE3A1FF 		.word	-6167798
 7681 53a8 78D8F4FF 		.word	-731016
 7682 53ac 494DE900 		.word	15289673
 7683 53b0 9DEE8B01 		.word	25947805
 7684 53b4 3B41E900 		.word	15286587
 7685 53b8 46FBD801 		.word	30997318
 7686 53bc 29B899FF 		.word	-6703063
 7687 53c0 20CB7000 		.word	7392032
 7688 53c4 9293FD00 		.word	16618386
 7689 53c8 57656D01 		.word	23946583
 7690 53cc 2C5285FF 		.word	-8039892
 7691 53d0 F49635FF 		.word	-13265164
 7692 53d4 5E98E8FF 		.word	-1533858
 7693 53d8 3B5D27FF 		.word	-14197445
 7694 53dc 5893DCFF 		.word	-2321576
 7695 53e0 4E510D01 		.word	17649998
 7696 53e4 202FFCFF 		.word	-250080
 7697 53e8 A01372FF 		.word	-9301088
 7698 53ec 5D6B27FF 		.word	-14193827
 7699 53f0 7610D301 		.word	30609526
 7700 53f4 B977D1FF 		.word	-3049543
 7701 53f8 E3DB7FFE 		.word	-25175069
 7702 53fc 5869ECFF 		.word	-1283752
 7703 5400 A26E17FF 		.word	-15241566
 7704 5404 24A66EFF 		.word	-9525724
 7705 5408 5BECDDFF 		.word	-2233253
 7706 540c 42EA7400 		.word	7662146
 7707 5410 6F13F4FE 		.word	-17558673
 7708 5414 0AE91A00 		.word	1763594
 7709 5418 20B706FE 		.word	-33114336
 7710 541c 02BFF200 		.word	15908610
 7711 5420 DA9C35FE 		.word	-30040870
 7712 5424 293C46FF 		.word	-12174295
 7713 5428 A8EC6F00 		.word	7335080
 7714 542c 79B97EFF 		.word	-8472199
 7715 5430 EE8ECFFF 		.word	-3174674
 7716 5434 377E3400 		.word	3440183
 7717 5438 DC81D0FE 		.word	-19889700
 7718 543c 50CCA4FF 		.word	-5977008
 7719 5440 431790FE 		.word	-24111293
 7720 5444 DA286CFF 		.word	-9688870
 7721 5448 7FCAA400 		.word	10799743
 7722 544c CB2103FF 		.word	-16571957
 7723 5450 029E0000 		.word	40450
 7724 5454 2560BCFF 		.word	-4431835
 7725 5458 C0314A00 		.word	4862400
ARM GAS  C:\Users\NIGHDR~1\AppData\Local\Temp\ccrnUt9g.s 			page 148


 7726 545c 6D040000 		.word	1133
 7727 5460 6FA70AFE 		.word	-32856209
 7728 5464 5BDA87FF 		.word	-7873957
 7729 5468 CB42ADFF 		.word	-5422389
 7730 546c 96C2E200 		.word	14860950
 7731 5470 C9FD06FF 		.word	-16319031
 7732 5474 AE667900 		.word	7956142
 7733 5478 CDBF6E00 		.word	7258061
 7734 547c 35C20400 		.word	311861
 7735 5480 51282DFE 		.word	-30594991
 7736 5484 23668FFF 		.word	-7379421
 7737 5488 0C6CC6FF 		.word	-3773428
 7738 548c 101BE8FF 		.word	-1565936
 7739 5490 FC47BA01 		.word	28985340
 7740 5494 B06E7200 		.word	7499440
 7741 5498 8E037501 		.word	24445838
 7742 549c 714D8E00 		.word	9325937
 7743 54a0 139CC501 		.word	29727763
 7744 54a4 5C2FFC00 		.word	16527196
 7745 54a8 35E81601 		.word	18278453
 7746 54ac 3612EB00 		.word	15405622
 7747 54b0 2E23BDFF 		.word	-4381906
 7748 54b4 ECD48100 		.word	8508652
 7749 54b8 0260D0FE 		.word	-19898366
 7750 54bc C8EEC7FF 		.word	-3674424
 7751 54c0 3BAFA4FF 		.word	-5984453
 7752 54c4 922BE700 		.word	15149970
 7753 54c8 C2D934FF 		.word	-13313598
 7754 54cc 03DF0C00 		.word	843523
 7755 54d0 8A36B2FE 		.word	-21875062
 7756 54d4 55EBCF00 		.word	13626197
 7757 54d8 E8CF2200 		.word	2281448
 7758 54dc 313432FF 		.word	-13487055
 7759 54e0 A67159FF 		.word	-10915418
 7760 54e4 0A2DD8FF 		.word	-2609910
 7761 54e8 3EAD1C00 		.word	1879358
 7762 54ec 6FA5F600 		.word	16164207
 7763 54f0 76735BFF 		.word	-10783882
 7764 54f4 80543C00 		.word	3953792
 7765 54f8 A790CB00 		.word	13340839
 7766 54fc 570DF300 		.word	15928663
 7767 5500 161EE401 		.word	31727126
 7768 5504 B17192FF 		.word	-7179855
 7769 5508 81AAE6FE 		.word	-18437503
 7770 550c FC9981FF 		.word	-8283652
 7771 5510 91E12B00 		.word	2875793
 7772 5514 46E705FF 		.word	-16390330
 7773 5518 7A697EFE 		.word	-25269894
 7774 551c 56F694FF 		.word	-7014826
 7775 5520 6E259AFE 		.word	-23452306
 7776 5524 D1035B00 		.word	5964753
 7777 5528 44913E00 		.word	4100420
 7778 552c E410A5FF 		.word	-5959452
 7779 5530 37DDF9FE 		.word	-17179337
 7780 5534 B2D25B00 		.word	6017714
 7781 5538 5392E2FE 		.word	-18705837
 7782 553c 4592BA00 		.word	12227141
ARM GAS  C:\Users\NIGHDR~1\AppData\Local\Temp\ccrnUt9g.s 			page 149


 7783 5540 5DD268FE 		.word	-26684835
 7784 5544 1019AD00 		.word	11344144
 7785 5548 E7BA2600 		.word	2538215
 7786 554c BD7A8CFF 		.word	-7570755
 7787 5550 FB0D70FF 		.word	-9433605
 7788 5554 696E5D00 		.word	6123113
 7789 5558 FB48AA00 		.word	11159803
 7790 555c C017DFFF 		.word	-2156608
 7791 5560 1803CA01 		.word	30016280
 7792 5564 E15DE400 		.word	14966241
 7793 5568 9993C7FE 		.word	-20474983
 7794 556c 6DAA1600 		.word	1485421
 7795 5570 F865F6FF 		.word	-629256
 7796 5574 B27C0CFF 		.word	-15958862
 7797 5578 B2FE66FE 		.word	-26804558
 7798 557c 37044100 		.word	4260919
 7799 5580 7DD6B400 		.word	11851389
 7800 5584 B7609300 		.word	9658551
 7801 5588 2D7517FE 		.word	-32017107
 7802 558c 84BFF900 		.word	16367492
 7803 5590 8FB0CBFE 		.word	-20205425
 7804 5594 88B736FF 		.word	-13191288
 7805 5598 92EAB100 		.word	11659922
 7806 559c 926556FF 		.word	-11115118
 7807 55a0 2C7B8F01 		.word	26180396
 7808 55a4 21D19800 		.word	10015009
 7809 55a8 C05A29FE 		.word	-30844224
 7810 55ac 530F7DFF 		.word	-8581293
 7811 55b0 D5AC5200 		.word	5418197
 7812 55b4 D7A99000 		.word	9480663
 7813 55b8 100D2200 		.word	2231568
 7814 55bc 20D164FF 		.word	-10170080
 7815 55c0 5412F901 		.word	33100372
 7816 55c4 C511ECFF 		.word	-1306171
 7817 55c8 D9BAE600 		.word	15121113
 7818 55cc 31A0B0FF 		.word	-5201871
 7819 55d0 6F7661FF 		.word	-10389905
 7820 55d4 ED68EB00 		.word	15427821
 7821 55d8 4F3B5CFE 		.word	-27509937
 7822 55dc 45F90BFF 		.word	-15992507
 7823 55e0 23AC4A01 		.word	21670947
 7824 55e4 13764400 		.word	4486675
 7825 55e8 DE7CA5FF 		.word	-5931810
 7826 55ec B44223FF 		.word	-14466380
 7827 55f0 56AEF600 		.word	16166486
 7828 55f4 2B4A6FFF 		.word	-9483733
 7829 55f8 7E9056FF 		.word	-11104130
 7830 55fc E4EA5B00 		.word	6023908
 7831 5600 F2D518FE 		.word	-31926798
 7832 5604 452CEBFF 		.word	-1364923
 7833 5608 DCB42300 		.word	2340060
 7834 560c 08F807FF 		.word	-16254968
 7835 5610 662F5CFF 		.word	-10735770
 7836 5614 F0CD66FF 		.word	-10039824
 7837 5618 71E6AB01 		.word	28042865
 7838 561c 1FB9C9FF 		.word	-3557089
 7839 5620 C2F646FF 		.word	-12126526
ARM GAS  C:\Users\NIGHDR~1\AppData\Local\Temp\ccrnUt9g.s 			page 150


 7840 5624 7A11BB00 		.word	12259706
 7841 5628 8646C7FF 		.word	-3717498
 7842 562c 950396FF 		.word	-6945899
 7843 5630 753F6700 		.word	6766453
 7844 5634 41687BFF 		.word	-8689599
 7845 5638 D4361301 		.word	18036436
 7846 563c 068D5800 		.word	5803270
 7847 5640 5386F3FF 		.word	-817581
 7848 5644 88356700 		.word	6763912
 7849 5648 A91BB400 		.word	11803561
 7850 564c B1311800 		.word	1585585
 7851 5650 6F36A700 		.word	10958447
 7852 5654 C33DD7FF 		.word	-2671165
 7853 5658 1F016C01 		.word	23855391
 7854 565c 3C2A4600 		.word	4598332
 7855 5660 B903A2FF 		.word	-6159431
 7856 5664 C29528FF 		.word	-14117438
 7857 5668 F67F26FE 		.word	-31031306
 7858 566c BE7726FF 		.word	-14256194
 7859 5670 3D770801 		.word	17332029
 7860 5674 60A1DBFF 		.word	-2383520
 7861 5678 2ACBDD01 		.word	31312682
 7862 567c B1F2A4FF 		.word	-5967183
 7863 5680 F59F0A00 		.word	696309
 7864 5684 74C40000 		.word	50292
 7865 5688 055DCDFE 		.word	-20095739
 7866 568c 807FB300 		.word	11763584
 7867 5690 7DEDF6FF 		.word	-594563
 7868 5694 95A2D9FF 		.word	-2514283
 7869 5698 572514FE 		.word	-32234153
 7870 569c 8CEEC000 		.word	12643980
 7871 56a0 0909C100 		.word	12650761
 7872 56a4 6101E200 		.word	14811489
 7873 56a8 1D260A00 		.word	665117
 7874 56ac 00883FFF 		.word	-12613632
 7875 56b0 E548D2FE 		.word	-19773211
 7876 56b4 26865CFF 		.word	-10713562
 7877 56b8 4EDAD001 		.word	30464590
 7878 56bc 682454FF 		.word	-11262872
 7879 56c0 0C05C1FF 		.word	-4127476
 7880 56c4 F2AF3DFF 		.word	-12734478
 7881 56c8 BFA92E01 		.word	19835327
 7882 56cc B39393FF 		.word	-7105613
 7883 56d0 71BE8BFE 		.word	-24396175
 7884 56d4 7DAC1F00 		.word	2075773
 7885 56d8 034BFCFE 		.word	-17020157
 7886 56dc D7240F00 		.word	992471
 7887 56e0 C11B1801 		.word	18357185
 7888 56e4 FF4595FF 		.word	-6994433
 7889 56e8 6E817600 		.word	7766382
 7890 56ec CB5DF900 		.word	16342475
 7891 56f0 8A8940FE 		.word	-29324918
 7892 56f4 26460600 		.word	411174
 7893 56f8 9974DE00 		.word	14578841
 7894 56fc A14A7B00 		.word	8080033
 7895 5700 C1634FFF 		.word	-11574335
 7896 5704 763B5EFF 		.word	-10601610
ARM GAS  C:\Users\NIGHDR~1\AppData\Local\Temp\ccrnUt9g.s 			page 151


 7897 5708 3D0C2B01 		.word	19598397
 7898 570c 92B19D00 		.word	10334610
 7899 5710 2E93BF00 		.word	12555054
 7900 5714 10FF2600 		.word	2555664
 7901 5718 0B331F01 		.word	18821899
 7902 571c 3C3A62FF 		.word	-10339780
 7903 5720 6FC24D01 		.word	21873263
 7904 5724 9A5BF400 		.word	16014234
 7905 5728 8C289001 		.word	26224780
 7906 572c AD0AFB00 		.word	16452269
 7907 5730 CBD132FE 		.word	-30223925
 7908 5734 6C824E00 		.word	5145196
 7909 5738 E4B45A00 		.word	5944548
 7910 573c AE07FA00 		.word	16385966
 7911 5740 1FAE3C00 		.word	3976735
 7912 5744 29AB1E00 		.word	2009897
 7913 5748 746352FF 		.word	-11377804
 7914 574c 76C18BFF 		.word	-7618186
 7915 5750 BBADC6FE 		.word	-20533829
 7916 5754 DA6F3800 		.word	3698650
 7917 5758 B97BD800 		.word	14187449
 7918 575c F99E3400 		.word	3448569
 7919 5760 34B45DFF 		.word	-10636236
 7920 5764 C9095BFF 		.word	-10810935
 7921 5768 382DA6FE 		.word	-22663880
 7922 576c 849BCBFF 		.word	-3433596
 7923 5770 3AE86E00 		.word	7268410
 7924 5774 34D359FF 		.word	-10890444
 7925 5778 FD00A201 		.word	27394301
 7926 577c 0957B700 		.word	12015369
 7927 5780 91882C01 		.word	19695761
 7928 5784 5E7AF500 		.word	16087646
 7929 5788 55BCAB01 		.word	28032085
 7930 578c 935CC600 		.word	12999827
 7931 5790 00086800 		.word	6817792
 7932 5794 1E5FAE00 		.word	11427614
 7933 5798 DDE63401 		.word	20244189
 7934 579c F7F7EBFF 		.word	-1312777
 7935 57a0 89AE35FF 		.word	-13259127
 7936 57a4 2315CCFF 		.word	-3402461
 7937 57a8 47E3D601 		.word	30860103
 7938 57ac E852C200 		.word	12735208
 7939 57b0 0B30E3FF 		.word	-1888245
 7940 57b4 AA49B8FF 		.word	-4699734
 7941 57b8 C6FBFCFE 		.word	-16974906
 7942 57bc 2C702200 		.word	2256940
 7943 57c0 836583FF 		.word	-8166013
 7944 57c4 48A8BB00 		.word	12298312
 7945 57c8 84877DFF 		.word	-8550524
 7946 57cc 8A6861FF 		.word	-10393462
 7947 57d0 EEB8A8FF 		.word	-5719826
 7948 57d4 F36854FF 		.word	-11245325
 7949 57d8 87D8E2FF 		.word	-1910649
 7950 57dc 8B90ED00 		.word	15569035
 7951 57e0 BC899601 		.word	26642876
 7952 57e4 50388CFF 		.word	-7587760
 7953 57e8 56A9A7FF 		.word	-5789354
ARM GAS  C:\Users\NIGHDR~1\AppData\Local\Temp\ccrnUt9g.s 			page 152


 7954 57ec C24E19FF 		.word	-15118654
 7955 57f0 DC11B4FF 		.word	-4976164
 7956 57f4 110DC100 		.word	12651793
 7957 57f8 7589D4FF 		.word	-2848395
 7958 57fc 8DE09700 		.word	9953421
 7959 5800 31F4AF00 		.word	11531313
 7960 5804 C163AFFF 		.word	-5282879
 7961 5808 13639A01 		.word	26895123
 7962 580c FF413EFF 		.word	-12697089
 7963 5810 9CD237FF 		.word	-13118820
 7964 5814 F2F403FF 		.word	-16517902
 7965 5818 FA0E9500 		.word	9768698
 7966 581c 9E58D9FF 		.word	-2533218
 7967 5820 9DCF86FE 		.word	-24719459
 7968 5824 FBE81C00 		.word	1894651
 7969 5828 2E9CFBFF 		.word	-287698
 7970 582c AB38B8FF 		.word	-4704085
 7971 5830 EF33EA00 		.word	15348719
 7972 5834 8E8A83FF 		.word	-8156530
 7973 5838 19FEF301 		.word	32767513
 7974 583c 0AC9C200 		.word	12765450
 7975 5840 3F614B00 		.word	4940095
 7976 5844 D2EFA200 		.word	10678226
 7977 5848 C0C81F01 		.word	18860224
 7978 584c 75D6F300 		.word	15980149
 7979 5850 1847DEFE 		.word	-18987240
 7980 5854 3628E8FF 		.word	-1562570
 7981 5858 4CB76FFE 		.word	-26233012
 7982 585c 900E57FF 		.word	-11071856
 7983 5860 D64F88FF 		.word	-7843882
 7984 5864 D8C4D400 		.word	13944024
 7985 5868 841B8CFE 		.word	-24372348
 7986 586c 8305FD00 		.word	16582019
 7987 5870 7C6C13FF 		.word	-15504260
 7988 5874 1CD74B00 		.word	4970268
 7989 5878 4CDE37FE 		.word	-29893044
 7990 587c E9B63F00 		.word	4175593
 7991 5880 44ABBFFE 		.word	-20993212
 7992 5884 346FDEFF 		.word	-2199756
 7993 5888 0A694DFF 		.word	-11704054
 7994 588c 50AAEB00 		.word	15444560
 7995 5890 8F1858FF 		.word	-11003761
 7996 5894 2DE77900 		.word	7989037
 7997 5898 9481E001 		.word	31490452
 7998 589c 3DF65400 		.word	5568061
 7999 58a0 FD2EDBFF 		.word	-2412803
 8000 58a4 EF4C2100 		.word	2182383
 8001 58a8 319412FE 		.word	-32336847
 8002 58ac E6254500 		.word	4531686
 8003 58b0 438616FE 		.word	-32078269
 8004 58b4 8E9B5E00 		.word	6200206
 8005 58b8 1F9DD3FE 		.word	-19686113
 8006 58bc D52A1EFF 		.word	-14800171
 8007 58c0 04E4F7FE 		.word	-17308668
 8008 58c4 FCB00DFF 		.word	-15879940
 8009 58c8 27001FFE 		.word	-31522777
 8010 58cc F1F4FFFF 		.word	-2831
ARM GAS  C:\Users\NIGHDR~1\AppData\Local\Temp\ccrnUt9g.s 			page 153


 8011 58d0 AA2D0AFE 		.word	-32887382
 8012 58d4 FDDEF900 		.word	16375549
 8013 58d8 DE728400 		.word	8680158
 8014 58dc FF2F06FF 		.word	-16371713
 8015 58e0 B4A3B301 		.word	28550068
 8016 58e4 545E97FF 		.word	-6857132
 8017 58e8 59D152FE 		.word	-28126887
 8018 58ec E534A9FF 		.word	-5688091
 8019 58f0 D5EC0001 		.word	16837845
 8020 58f4 D638E4FF 		.word	-1820458
 8021 58f8 877797FF 		.word	-6850681
 8022 58fc 70C9C100 		.word	12700016
 8023 5900 53A035FE 		.word	-30039981
 8024 5904 06974200 		.word	4364038
 8025 5908 12A21100 		.word	1155602
 8026 590c E9615B00 		.word	5988841
 8027 5910 83054E01 		.word	21890435
 8028 5914 B57835FF 		.word	-13272907
 8029 5918 755F3FFF 		.word	-12624011
 8030 591c ED75B900 		.word	12154349
 8031 5920 BF7E88FF 		.word	-7831873
 8032 5924 9077E900 		.word	15300496
 8033 5928 B7396101 		.word	23148983
 8034 592c 2FC9BBFF 		.word	-4470481
 8035 5930 A7A57701 		.word	24618407
 8036 5934 2D647E00 		.word	8283181
 8037 5938 156206FE 		.word	-33136107
 8038 593c 91965FFF 		.word	-10512751
 8039 5940 78369800 		.word	9975416
 8040 5944 D1626800 		.word	6841041
 8041 5948 8F6F1EFE 		.word	-31559793
 8042 594c B894F900 		.word	16356536
 8043 5950 EBD82E00 		.word	3070187
 8044 5954 F8CA94FF 		.word	-7025928
 8045 5958 395F1600 		.word	1466169
 8046 595c F2E1A300 		.word	10740210
 8047 5960 E9F7E8FF 		.word	-1509399
 8048 5964 47AB13FF 		.word	-15488185
 8049 5968 67F431FF 		.word	-13503385
 8050 596c 54675DFF 		.word	-10655916
 8051 5970 4479F401 		.word	32799044
 8052 5974 52E00D00 		.word	909394
 8053 5978 294F2BFF 		.word	-13938903
 8054 597c F9CEA7FF 		.word	-5779719
 8055 5980 D73415FE 		.word	-32164649
 8056 5984 C02016FF 		.word	-15327040
 8057 5988 F76F3C00 		.word	3960823
 8058 598c 654A26FF 		.word	-14267803
 8059 5990 165B54FE 		.word	-28026090
 8060 5994 1D1C0DFF 		.word	-15918051
 8061 5998 C6E7D7FE 		.word	-19404858
 8062 599c F49AC800 		.word	13146868
 8063 59a0 DF89ED00 		.word	15567327
 8064 59a4 D3840E00 		.word	951507
 8065 59a8 5F40CEFF 		.word	-3260321
 8066 59ac 113EF7FF 		.word	-573935
 8067 59b0 E9837901 		.word	24740841
ARM GAS  C:\Users\NIGHDR~1\AppData\Local\Temp\ccrnUt9g.s 			page 154


 8068 59b4 5D174D00 		.word	5052253
 8069 59b8 CDCC34FE 		.word	-30094131
 8070 59bc 51BD8800 		.word	8961361
 8071 59c0 B4DB8A01 		.word	25877428
 8072 59c4 8F125E00 		.word	6165135
 8073 59c8 CC2B8CFE 		.word	-24368180
 8074 59cc BCAFDB00 		.word	14397372
 8075 59d0 6F628FFF 		.word	-7380369
 8076 59d4 973FA2FF 		.word	-6144105
 8077 59d8 D33247FE 		.word	-28888365
 8078 59dc 13923500 		.word	3510803
 8079 59e0 922D53FE 		.word	-28103278
 8080 59e4 B252EEFF 		.word	-1158478
 8081 59e8 108554FF 		.word	-11238128
 8082 59ec E2C65DFF 		.word	-10631454
 8083 59f0 C96114FF 		.word	-15441463
 8084 59f4 787623FF 		.word	-14453128
 8085 59f8 7232E7FF 		.word	-1625486
 8086 59fc A2E59CFF 		.word	-6494814
 8087 5a00 D31A0C00 		.word	793299
 8088 5a04 722773FF 		.word	-9230478
 8089 5a08 CED48600 		.word	8836302
 8090 5a0c C5D9A0FF 		.word	-6235707
 8091 5a10 74815EFE 		.word	-27360908
 8092 5a14 C7D7DBFF 		.word	-2369593
 8093 5a18 4BDFF901 		.word	33152843
 8094 5a1c FD74B5FF 		.word	-4885251
 8095 5a20 E8D768FF 		.word	-9906200
 8096 5a24 E482F6FF 		.word	-621852
 8097 5a28 B9755600 		.word	5666233
 8098 5a2c 0E050800 		.word	525582
 8099 5a30 EF1D3D01 		.word	20782575
 8100 5a34 ED5785FF 		.word	-8038419
 8101 5a38 7D9289FE 		.word	-24538499
 8102 5a3c CCA8DF00 		.word	14657740
 8103 5a40 2EA8F500 		.word	16099374
 8104 5a44 9A691600 		.word	1468826
 8105 5a48 DCD4A1FF 		.word	-6171428
 8106 5a4c 6B4518FF 		.word	-15186581
 8107 5a50 89DAB5FF 		.word	-4859255
 8108 5a54 F154C6FF 		.word	-3779343
 8109 5a58 827AD3FF 		.word	-2917758
 8110 5a5c 8D0899FF 		.word	-6748019
 8111 5a60 BEB17600 		.word	7778750
 8112 5a64 6059B200 		.word	11688288
 8113 5a68 FF1030FE 		.word	-30404353
 8114 5a6c 7A6069FF 		.word	-9871238
 8115 5a70 7536E8FF 		.word	-1558923
 8116 5a74 227E69FF 		.word	-9863646
 8117 5a78 CC43A600 		.word	10896332
 8118 5a7c E8348AFF 		.word	-7719704
 8119 5a80 D3930C00 		.word	824275
 8120 5a84 19360700 		.word	472601
 8121 5a88 2C0FD7FE 		.word	-19460308
 8122 5a8c 33EC2D00 		.word	3009587
 8123 5a90 BE448101 		.word	25248958
 8124 5a94 6A93E100 		.word	14783338
ARM GAS  C:\Users\NIGHDR~1\AppData\Local\Temp\ccrnUt9g.s 			page 155


 8125 5a98 1C5D2DFE 		.word	-30581476
 8126 5a9c EC8D0FFF 		.word	-15757844
 8127 5aa0 113DA100 		.word	10566929
 8128 5aa4 DC73C000 		.word	12612572
 8129 5aa8 EC9118FE 		.word	-31944212
 8130 5aac 6FA8A900 		.word	11118703
 8131 5ab0 E03A3FFF 		.word	-12633376
 8132 5ab4 7FA4BC00 		.word	12362879
 8133 5ab8 52EA4B01 		.word	21752402
 8134 5abc E09E8600 		.word	8822496
 8135 5ac0 D1446E01 		.word	24003793
 8136 5ac4 D9A6D900 		.word	14264025
 8137 5ac8 46E1A601 		.word	27713862
 8138 5acc BBC18FFF 		.word	-7355973
 8139 5ad0 100758FF 		.word	-11008240
 8140 5ad4 0ACD8C00 		.word	9227530
 8141 5ad8 75C09C01 		.word	27050101
 8142 5adc 11382600 		.word	2504721
 8143 5ae0 1B7C6C01 		.word	23886875
 8144 5ae4 ABD737FF 		.word	-13117525
 8145 5ae8 5FFDD400 		.word	13958495
 8146 5aec 9B87A8FF 		.word	-5732453
 8147 5af0 F6B299FE 		.word	-23481610
 8148 5af4 9A444A00 		.word	4867226
 8149 5af8 E83D60FE 		.word	-27247128
 8150 5afc 69843B00 		.word	3900521
 8151 5b00 214CC701 		.word	29838369
 8152 5b04 BDB082FF 		.word	-8212291
 8153 5b08 096819FE 		.word	-31889399
 8154 5b0c 4BC666FF 		.word	-10041781
 8155 5b10 E9017000 		.word	7340521
 8156 5b14 6CDC14FF 		.word	-15410068
 8157 5b18 72E64600 		.word	4646514
 8158 5b1c 8CC285FF 		.word	-8011124
 8159 5b20 399EA4FE 		.word	-22766023
 8160 5b24 920650FF 		.word	-11532654
 8161 5b28 A9C46101 		.word	23184553
 8162 5b2c 55B78200 		.word	8566613
 8163 5b30 469EDE01 		.word	31366726
 8164 5b34 3BEDEAFF 		.word	-1381061
 8165 5b38 60191AFF 		.word	-15066784
 8166 5b3c E8AF61FF 		.word	-10375192
 8167 5b40 0B79F8FE 		.word	-17270517
 8168 5b44 5823C200 		.word	12723032
 8169 5b48 DBB4FCFE 		.word	-16993061
 8170 5b4c 4A08E300 		.word	14878794
 8171 5b50 C3E34901 		.word	21619651
 8172 5b54 B86EA1FF 		.word	-6197576
 8173 5b58 31E9A401 		.word	27584817
 8174 5b5c 80352F00 		.word	3093888
 8175 5b60 520E79FF 		.word	-8843694
 8176 5b64 C1BE3A00 		.word	3849921
 8177 5b68 30AE75FF 		.word	-9064912
 8178 5b6c 84172000 		.word	2103172
 8179 5b70 280A8601 		.word	25561640
 8180 5b74 163319FF 		.word	-15125738
 8181 5b78 F00BB0FF 		.word	-5239824
ARM GAS  C:\Users\NIGHDR~1\AppData\Local\Temp\ccrnUt9g.s 			page 156


 8182 5b7c 6E399200 		.word	9582958
 8183 5b80 758FEF01 		.word	32477045
 8184 5b84 9D6576FF 		.word	-9017955
 8185 5b88 36544C00 		.word	5002294
 8186 5b8c CDB812FF 		.word	-15550259
 8187 5b90 2F0448FF 		.word	-12057553
 8188 5b94 4E7055FF 		.word	-11177906
 8189 5b98 C1324201 		.word	21115585
 8190 5b9c 5D1034FF 		.word	-13365155
 8191 5ba0 08698600 		.word	8808712
 8192 5ba4 0C6D48FF 		.word	-12030708
 8193 5ba8 3A9CFB00 		.word	16489530
 8194 5bac 9023CC00 		.word	13378448
 8195 5bb0 2CA075FE 		.word	-25845716
 8196 5bb4 326BC200 		.word	12741426
 8197 5bb8 0144A5FF 		.word	-5946367
 8198 5bbc 6F6EA200 		.word	10645103
 8199 5bc0 9E5328FE 		.word	-30911586
 8200 5bc4 4CD6EA00 		.word	15390284
 8201 5bc8 3AD8CDFF 		.word	-3286982
 8202 5bcc AB6093FF 		.word	-7118677
 8203 5bd0 28E37201 		.word	24306472
 8204 5bd4 B0E3F100 		.word	15852464
 8205 5bd8 46F9B701 		.word	28834118
 8206 5bdc 88548BFF 		.word	-7646072
 8207 5be0 3C7AF7FE 		.word	-17335748
 8208 5be4 8F0975FF 		.word	-9107057
 8209 5be8 B1AE89FE 		.word	-24531279
 8210 5bec 49F78F00 		.word	9434953
 8211 5bf0 ECB97EFF 		.word	-8472084
 8212 5bf4 3E19F7FF 		.word	-583362
 8213 5bf8 2D4038FF 		.word	-13090771
 8214 5bfc A1F40600 		.word	455841
 8215 5c00 22393801 		.word	20461858
 8216 5c04 69CA5300 		.word	5491305
 8217 5c08 8093D000 		.word	13669248
 8218 5c0c 06670AFF 		.word	-16095482
 8219 5c10 4A8A41FF 		.word	-12481974
 8220 5c14 615064FF 		.word	-10203039
 8221 5c18 D6AE21FF 		.word	-14569770
 8222 5c1c 32864AFF 		.word	-11893198
 8223 5c20 6E9782FE 		.word	-24995986
 8224 5c24 6F54AC00 		.word	11293807
 8225 5c28 54C74BFE 		.word	-28588204
 8226 5c2c F83B70FF 		.word	-9421832
 8227 5c30 08D8B201 		.word	28497928
 8228 5c34 09B75F00 		.word	6272777
 8229 5c38 EE1B08FE 		.word	-33022994
 8230 5c3c AACDDC00 		.word	14470570
 8231 5c40 C3E58700 		.word	8906179
 8232 5c44 624CEDFF 		.word	-1225630
 8233 5c48 E25B1A01 		.word	18504674
 8234 5c4c 52DB27FF 		.word	-14165166
 8235 5c50 E1BEC701 		.word	29867745
 8236 5c54 D9C879FF 		.word	-8795943
 8237 5c58 51B308FF 		.word	-16207023
 8238 5c5c 8C41CE00 		.word	13517196
ARM GAS  C:\Users\NIGHDR~1\AppData\Local\Temp\ccrnUt9g.s 			page 157


 8239 5c60 B2CF57FE 		.word	-27799630
 8240 5c64 FAFC2EFF 		.word	-13697798
 8241 5c68 68596E01 		.word	24009064
 8242 5c6c FDBD9EFF 		.word	-6373891
 8243 5c70 90D69EFF 		.word	-6367600
 8244 5c74 A0F536FF 		.word	-13175392
 8245 5c78 35B75C01 		.word	22853429
 8246 5c7c 15C8C2FF 		.word	-4012011
 8247 5c80 92217101 		.word	24191378
 8248 5c84 D101FF00 		.word	16712145
 8249 5c88 EB6A2BFF 		.word	-13931797
 8250 5c8c A734E800 		.word	15217831
 8251 5c90 9DE5DD00 		.word	14542237
 8252 5c94 331E1900 		.word	1646131
 8253 5c98 FADD1B01 		.word	18603514
 8254 5c9c 419357FF 		.word	-11037887
 8255 5ca0 4F7BC400 		.word	12876623
 8256 5ca4 41C4DFFF 		.word	-2112447
 8257 5ca8 4C2C1101 		.word	17902668
 8258 5cac 55F14400 		.word	4518229
 8259 5cb0 CAB7F9FF 		.word	-411702
 8260 5cb4 41D4D4FF 		.word	-2829247
 8261 5cb8 09219A01 		.word	26878217
 8262 5cbc 473B5000 		.word	5258055
 8263 5cc0 AFC23BFF 		.word	-12860753
 8264 5cc4 8D480900 		.word	608397
 8265 5cc8 64A0F400 		.word	16031844
 8266 5ccc E6D03800 		.word	3723494
 8267 5cd0 3B194BFE 		.word	-28632773
 8268 5cd4 50C2C200 		.word	12763728
 8269 5cd8 1203C8FE 		.word	-20446446
 8270 5cdc A09F7300 		.word	7577504
 8271 5ce0 848FF701 		.word	33001348
 8272 5ce4 6F5D39FF 		.word	-13017745
 8273 5ce8 3AED0B01 		.word	17558842
 8274 5cec 86DE87FF 		.word	-7872890
 8275 5cf0 7AA36C01 		.word	23896954
 8276 5cf4 7B2BBEFF 		.word	-4314245
 8277 5cf8 FBBDCEFE 		.word	-20005381
 8278 5cfc 50B648FF 		.word	-12011952
 8279 5d00 D0F6E001 		.word	31520464
 8280 5d04 113C0900 		.word	605201
 8281 5d08 A1CF2600 		.word	2543521
 8282 5d0c 8D6D5B00 		.word	5991821
 8283 5d10 D80FD3FF 		.word	-2945064
 8284 5d14 884E6E00 		.word	7229064
 8285 5d18 62A368FF 		.word	-9919646
 8286 5d1c 155079FF 		.word	-8826859
 8287 5d20 ADB2B701 		.word	28816045
 8288 5d24 7F8F0400 		.word	298879
 8289 5d28 683C52FE 		.word	-28165016
 8290 5d2c D6100DFF 		.word	-15920938
 8291 5d30 60EE2101 		.word	19000928
 8292 5d34 9E94E6FF 		.word	-1665890
 8293 5d38 7F813EFF 		.word	-12680833
 8294 5d3c 33FFD2FF 		.word	-2949325
 8295 5d40 3E8DECFE 		.word	-18051778
ARM GAS  C:\Users\NIGHDR~1\AppData\Local\Temp\ccrnUt9g.s 			page 158


 8296 5d44 9D37E0FF 		.word	-2082915
 8297 5d48 7227F400 		.word	16000882
 8298 5d4c C0BCFAFF 		.word	-344896
 8299 5d50 E44C3500 		.word	3493092
 8300 5d54 625451FF 		.word	-11447198
 8301 5d58 ADCB3DFE 		.word	-29504595
 8302 5d5c 933237FF 		.word	-13159789
 8303 5d60 CCEBBF00 		.word	12577740
 8304 5d64 34C5F400 		.word	16041268
 8305 5d68 582BD3FE 		.word	-19715240
 8306 5d6c 1BBF7700 		.word	7847707
 8307 5d70 BCE79A00 		.word	10151868
 8308 5d74 4251A100 		.word	10572098
 8309 5d78 5CC1A001 		.word	27312476
 8310 5d7c FAE37800 		.word	7922682
 8311 5d80 7B37E200 		.word	14825339
 8312 5d84 B8114800 		.word	4723128
 8313 5d88 85A80AFE 		.word	-32855931
 8314 5d8c 16879CFF 		.word	-6519018
 8315 5d90 291967FF 		.word	-10020567
 8316 5d94 30CA3A00 		.word	3852848
 8317 5d98 BA9551FF 		.word	-11430470
 8318 5d9c BC86EF00 		.word	15697596
 8319 5da0 EBB5BDFE 		.word	-21121557
 8320 5da4 D98BBCFF 		.word	-4420647
 8321 5da8 4A305200 		.word	5386314
 8322 5dac 2EDAE500 		.word	15063598
 8323 5db0 BDFDFB00 		.word	16514493
 8324 5db4 32E50CFF 		.word	-15932110
 8325 5db8 D38DBF01 		.word	29330899
 8326 5dbc 80F419FF 		.word	-15076224
 8327 5dc0 A9E77AFE 		.word	-25499735
 8328 5dc4 562FBDFF 		.word	-4378794
 8329 5dc8 84B717FF 		.word	-15222908
 8330 5dcc 25B296FF 		.word	-6901211
 8331 5dd0 3389FD00 		.word	16615731
 8332 5dd4 C84E1F00 		.word	2051784
 8333 5dd8 16693200 		.word	3303702
 8334 5ddc 823C0000 		.word	15490
 8335 5de0 84A35BFE 		.word	-27548796
 8336 5de4 17E7BB00 		.word	12314391
 8337 5de8 C04FEF00 		.word	15683520
 8338 5dec 9D66A4FF 		.word	-6003043
 8339 5df0 C0521401 		.word	18109120
 8340 5df4 18B567FF 		.word	-9980648
 8341 5df8 F009EA00 		.word	15337968
 8342 5dfc 017BA4FF 		.word	-5997823
 8343 5e00 85E900FF 		.word	-16717435
 8344 5e04 CAF2F200 		.word	15921866
 8345 5e08 3CBAF500 		.word	16103996
 8346 5e0c F110C7FF 		.word	-3731215
 8347 5e10 E0749EFE 		.word	-23169824
 8348 5e14 BF7D5BFF 		.word	-10781249
 8349 5e18 E056CF00 		.word	13588192
 8350 5e1c 7925E7FF 		.word	-1628807
 8351 5e20 E309C6FF 		.word	-3798557
 8352 5e24 0F99EFFF 		.word	-1074929
ARM GAS  C:\Users\NIGHDR~1\AppData\Local\Temp\ccrnUt9g.s 			page 159


 8353 5e28 79E8D9FE 		.word	-19273607
 8354 5e2c 4B705200 		.word	5402699
 8355 5e30 5F0C39FE 		.word	-29815713
 8356 5e34 33D669FF 		.word	-9841101
 8357 5e38 94DC6101 		.word	23190676
 8358 5e3c C7622400 		.word	2384583
 8359 5e40 9CD10CFE 		.word	-32714340
 8360 5e44 0AD43400 		.word	3462154
 8361 5e48 D9B437FE 		.word	-29903655
 8362 5e4c D4AAE8FF 		.word	-1529132
 8363 5e50 D81454FF 		.word	-11266856
 8364 5e54 9DFA8700 		.word	8911517
 8365 5e58 9D637FFE 		.word	-25205859
 8366 5e5c 01CE2900 		.word	2739713
 8367 5e60 95244601 		.word	21374101
 8368 5e64 36C4C9FF 		.word	-3554250
 8369 5e68 577400FE 		.word	-33524649
 8370 5e6c EBAB9600 		.word	9874411
 8371 5e70 1BA3EA00 		.word	15377179
 8372 5e74 CA87B400 		.word	11831242
 8373 5e78 D05F00FE 		.word	-33529904
 8374 5e7c 7B9C5D00 		.word	6134907
 8375 5e80 B73E4B00 		.word	4931255
 8376 5e84 89EBB600 		.word	11987849
 8377 5e88 CCE1FFFF 		.word	-7732
 8378 5e8c D68BD2FF 		.word	-2978858
 8379 5e90 027308FF 		.word	-16223486
 8380 5e94 1D0C6F00 		.word	7277597
 8381 5e98 349C0100 		.word	105524
 8382 5e9c FD15FBFF 		.word	-322051
 8383 5ea0 25A51FFE 		.word	-31480539
 8384 5ea4 0C82D300 		.word	13861388
 8385 5ea8 6A1235FE 		.word	-30076310
 8386 5eac 2A639A00 		.word	10117930
 8387 5eb0 0ED93DFE 		.word	-29501170
 8388 5eb4 D80B5CFF 		.word	-10744872
 8389 5eb8 C8C570FE 		.word	-26163768
 8390 5ebc 9326C700 		.word	13051539
 8391 5ec0 24FC78FE 		.word	-25625564
 8392 5ec4 6BA94D00 		.word	5089643
 8393 5ec8 017B9FFF 		.word	-6325503
 8394 5ecc CF4B6600 		.word	6704079
 8395 5ed0 A3AFC400 		.word	12890019
 8396 5ed4 2C01F000 		.word	15728940
 8397 5ed8 78BAB0FE 		.word	-21972360
 8398 5edc 0D624CFF 		.word	-11771379
 8399 5ee0 ED7CF1FF 		.word	-951059
 8400 5ee4 E892BCFF 		.word	-4418840
 8401 5ee8 C860E000 		.word	14704840
 8402 5eec CC1F2900 		.word	2695116
 8403 5ef0 D0C80D00 		.word	903376
 8404 5ef4 15E160FF 		.word	-10428139
 8405 5ef8 AF9CC400 		.word	12885167
 8406 5efc F7D07E00 		.word	8311031
 8407 5f00 3EB8F4FE 		.word	-17516482
 8408 5f04 02AB5100 		.word	5352194
 8409 5f08 55739E00 		.word	10384213
ARM GAS  C:\Users\NIGHDR~1\AppData\Local\Temp\ccrnUt9g.s 			page 160


 8410 5f0c 36402DFF 		.word	-13811658
 8411 5f10 138A7200 		.word	7506451
 8412 5f14 8747CD00 		.word	13453191
 8413 5f18 E32F9301 		.word	26423267
 8414 5f1c DAE74200 		.word	4384730
 8415 5f20 FDD11C00 		.word	1888765
 8416 5f24 F40FADFF 		.word	-5435404
 8417 5f28 060F76FE 		.word	-25817338
 8418 5f2c 1096D0FF 		.word	-3107312
 8419 5f30 B91632FF 		.word	-13494599
 8420 5f34 5670CFFF 		.word	-3182506
 8421 5f38 4B71D701 		.word	30896459
 8422 5f3c 3F922BFF 		.word	-13921729
 8423 5f40 04E113FE 		.word	-32251644
 8424 5f44 E3173EFF 		.word	-12707869
 8425 5f48 0EFFD6FE 		.word	-19464434
 8426 5f4c 2D08CDFF 		.word	-3340243
 8427 5f50 57C597FE 		.word	-23607977
 8428 5f54 D252D7FF 		.word	-2665774
 8429 5f58 F5F8F7FF 		.word	-526091
 8430 5f5c 80F84600 		.word	4651136
 8431 5f60 E1F75700 		.word	5765089
 8432 5f64 5A784600 		.word	4618330
 8433 5f68 D5F55C00 		.word	6092245
 8434 5f6c 0D85E200 		.word	14845197
 8435 5f70 2FB50501 		.word	17151279
 8436 5f74 5CA369FF 		.word	-9854116
 8437 5f78 061E85FE 		.word	-24830458
 8438 5f7c E8B23DFF 		.word	-12733720
 8439 5f80 E69518FF 		.word	-15165978
 8440 5f84 12319E00 		.word	10367250
 8441 5f88 E4643DFE 		.word	-29530908
 8442 5f8c 74F3FBFF 		.word	-265356
 8443 5f90 4D4B5C01 		.word	22825805
 8444 5f94 51DB93FF 		.word	-7087279
 8445 5f98 4CA3FEFE 		.word	-16866484
 8446 5f9c 8DD5F600 		.word	16176525
 8447 5fa0 E82598FE 		.word	-23583256
 8448 5fa4 612C6400 		.word	6564961
 8449 5fa8 C9253201 		.word	20063689
 8450 5fac D4F43900 		.word	3798228
 8451 5fb0 AEABB7FF 		.word	-4740178
 8452 5fb4 F94A7000 		.word	7359225
 8453 5fb8 A69C1E00 		.word	2006182
 8454 5fbc DEDD61FF 		.word	-10363426
 8455 5fc0 F35D49FE 		.word	-28746253
 8456 5fc4 FB6564FF 		.word	-10197509
 8457 5fc8 D8D95DFF 		.word	-10626600
 8458 5fcc FE8ABBFF 		.word	-4486402
 8459 5fd0 8EBE34FF 		.word	-13320562
 8460 5fd4 3BCBB1FF 		.word	-5125317
 8461 5fd8 C85E3400 		.word	3432136
 8462 5fdc 73729EFF 		.word	-6393229
 8463 5fe0 A5986801 		.word	23632037
 8464 5fe4 7E63E2FF 		.word	-1940610
 8465 5fe8 769DF401 		.word	32808310
 8466 5fec 6BC81000 		.word	1099883
ARM GAS  C:\Users\NIGHDR~1\AppData\Local\Temp\ccrnUt9g.s 			page 161


 8467 5ff0 C15AE500 		.word	15030977
 8468 5ff4 79065800 		.word	5768825
 8469 5ff8 9C205DFE 		.word	-27451236
 8470 5ffc 7DF1D3FF 		.word	-2887299
 8471 6000 0EED9DFF 		.word	-6427378
 8472 6004 A59A15FF 		.word	-15361371
 8473 6008 B8E016FF 		.word	-15277896
 8474 600c FA1898FF 		.word	-6809350
 8475 6010 714D1F00 		.word	2051441
 8476 6014 F7AB17FF 		.word	-15225865
 8477 6018 EDB1CCFF 		.word	-3362323
 8478 601c 348991FF 		.word	-7239372
 8479 6020 C2B67200 		.word	7517890
 8480 6024 E0EA9500 		.word	9824992
 8481 6028 0A6F6701 		.word	23555850
 8482 602c C9810400 		.word	295369
 8483 6030 EE8E4E00 		.word	5148398
 8484 6034 340628FF 		.word	-14154188
 8485 6038 6ED5A5FE 		.word	-22686354
 8486 603c 3CCFFD00 		.word	16633660
 8487 6040 3ED74500 		.word	4577086
 8488 6044 606100FF 		.word	-16752288
 8489 6048 312DCA00 		.word	13249841
 8490 604c 787916FF 		.word	-15304328
 8491 6050 EB8B3001 		.word	19958763
 8492 6054 C62D22FF 		.word	-14537274
 8493 6058 B6321B01 		.word	18559670
 8494 605c 83D25BFF 		.word	-10759549
 8495 6060 2E368000 		.word	8402478
 8496 6064 AF7B69FF 		.word	-9864273
 8497 6068 C68D4EFE 		.word	-28406330
 8498 606c 43F4EFFF 		.word	-1051581
 8499 6070 F53667FE 		.word	-26790155
 8500 6074 4E26F2FF 		.word	-907698
 8501 6078 025CF9FE 		.word	-17212414
 8502 607c FBAE57FF 		.word	-11030789
 8503 6080 8B3F9000 		.word	9453451
 8504 6084 186C1BFF 		.word	-14980072
 8505 6088 22661201 		.word	17983010
 8506 608c 22169800 		.word	9967138
 8507 6090 42E576FE 		.word	-25762494
 8508 6094 328F6300 		.word	6524722
 8509 6098 90A99501 		.word	26585488
 8510 609c 761E9800 		.word	9969270
 8511 60a0 B2087901 		.word	24709298
 8512 60a4 089F1200 		.word	1220360
 8513 60a8 5A65E6FF 		.word	-1677990
 8514 60ac 811D7700 		.word	7806337
 8515 60b0 44240B01 		.word	17507396
 8516 60b4 E8B73700 		.word	3651560
 8517 60b8 17FF60FF 		.word	-10420457
 8518 60bc A129C1FF 		.word	-4118111
 8519 60c0 3F8BDE00 		.word	14584639
 8520 60c4 0FB3F300 		.word	15971087
 8521 60c8 FF640FFF 		.word	-15768321
 8522 60cc 52358700 		.word	8861010
 8523 60d0 89399501 		.word	26556809
ARM GAS  C:\Users\NIGHDR~1\AppData\Local\Temp\ccrnUt9g.s 			page 162


 8524 60d4 63F0AAFF 		.word	-5574557
 8525 60d8 16E6E4FE 		.word	-18553322
 8526 60dc 31B452FF 		.word	-11357135
 8527 60e0 3D522B00 		.word	2839101
 8528 60e4 6EF5D900 		.word	14284142
 8529 60e8 C77D3D00 		.word	4029895
 8530 60ec 2EFD3400 		.word	3472686
 8531 60f0 8DC5DB00 		.word	14402957
 8532 60f4 D39FC100 		.word	12689363
 8533 60f8 377969FE 		.word	-26642121
 8534 60fc B7148100 		.word	8459447
 8535 6100 A977AAFF 		.word	-5605463
 8536 6104 CBB28BFF 		.word	-7621941
 8537 6108 8728B6FF 		.word	-4839289
 8538 610c AC0DCAFF 		.word	-3535444
 8539 6110 41B29400 		.word	9744961
 8540 6114 08CF2B00 		.word	2871048
 8541 6118 7A357F01 		.word	25113978
 8542 611c 4AA13000 		.word	3187018
 8543 6120 E3D680FE 		.word	-25110813
 8544 6124 560BF3FF 		.word	-849066
 8545 6128 64560701 		.word	17258084
 8546 612c F54486FF 		.word	-7977739
 8547 6130 3D2B1501 		.word	18164541
 8548 6134 98545EFF 		.word	-10595176
 8549 6138 BE3CFAFE 		.word	-17154882
 8550 613c EF76E8FF 		.word	-1542417
 8551 6140 D6882501 		.word	19237078
 8552 6144 714C6BFF 		.word	-9745295
 8553 6148 5D686401 		.word	23357533
 8554 614c 90CE17FF 		.word	-15217008
 8555 6150 6E969A01 		.word	26908270
 8556 6154 E467B900 		.word	12150756
 8557 6158 DA3132FE 		.word	-30264870
 8558 615c 874D8BFF 		.word	-7647865
 8559 6160 B9014E00 		.word	5112249
 8560 6164 00A194FF 		.word	-7036672
 8561 6168 611DE9FF 		.word	-1499807
 8562 616c CF9495FF 		.word	-6974257
 8563 6170 A0A80000 		.word	43168
 8564 6174 5B80ABFF 		.word	-5537701
 8565 6178 061C13FE 		.word	-32302074
 8566 617c 0B6FF700 		.word	16215819
 8567 6180 27BB96FF 		.word	-6898905
 8568 6184 8AE89500 		.word	9824394
 8569 6188 753E44FF 		.word	-12304779
 8570 618c 3FD8BCFF 		.word	-4401089
 8571 6190 EBEA20FE 		.word	-31397141
 8572 6194 1D39A0FF 		.word	-6276835
 8573 6198 190CF101 		.word	32574489
 8574 619c A93CBF00 		.word	12532905
 8575 61a0 20838DFF 		.word	-7503072
 8576 61a4 ED9F7BFF 		.word	-8675347
 8577 61a8 5EC55EFE 		.word	-27343522
 8578 61ac 74FE03FF 		.word	-16515468
 8579 61b0 5CB361FE 		.word	-27151524
 8580 61b4 79615CFF 		.word	-10722951
ARM GAS  C:\Users\NIGHDR~1\AppData\Local\Temp\ccrnUt9g.s 			page 163


 8581 61b8 AA700E00 		.word	946346
 8582 61bc 1595F800 		.word	16291093
 8583 61c0 F8E30300 		.word	254968
 8584 61c4 50606D00 		.word	7168080
 8585 61c8 4BC04A01 		.word	21676107
 8586 61cc 0C5AE2FF 		.word	-1943028
 8587 61d0 A16A4401 		.word	21260961
 8588 61d4 D0727FFF 		.word	-8424752
 8589 61d8 722AFFFE 		.word	-16831886
 8590 61dc 4A1A4AFF 		.word	-11920822
 8591 61e0 F7B396FE 		.word	-23677961
 8592 61e4 798C3C00 		.word	3968121
 8593 61e8 9346C8FF 		.word	-3651949
 8594 61ec D628A1FF 		.word	-6215466
 8595 61f0 A1BCC9FF 		.word	-3556191
 8596 61f4 8D4187FF 		.word	-7913075
 8597 61f8 F273FC00 		.word	16544754
 8598 61fc 3E2FCA00 		.word	13250366
 8599 6200 B495FFFE 		.word	-16804428
 8600 6204 8237ED00 		.word	15546242
 8601 6208 A511BAFF 		.word	-4583003
 8602 620c 0AA9C200 		.word	12757258
 8603 6210 9C6DDAFF 		.word	-2462308
 8604 6214 708C7BFF 		.word	-8680336
 8605 6218 6880DFFE 		.word	-18907032
 8606 621c B18E6CFF 		.word	-9662799
 8607 6220 7925DBFF 		.word	-2415239
 8608 6224 804D12FF 		.word	-15577728
 8609 6228 6F6C1701 		.word	18312303
 8610 622c 5BC04B00 		.word	4964443
 8611 6230 AEF516FF 		.word	-15272530
 8612 6234 04EC3EFF 		.word	-12653564
 8613 6238 2B409901 		.word	26820651
 8614 623c E3ADFE00 		.word	16690659
 8615 6240 ED7A8401 		.word	25459437
 8616 6244 7F59BAFF 		.word	-4564609
 8617 6248 8E5280FE 		.word	-25144690
 8618 624c FC54AE00 		.word	11425020
 8619 6250 5AB3B101 		.word	28423002
 8620 6254 F3D657FF 		.word	-11020557
 8621 6258 673CA2FF 		.word	-6144921
 8622 625c D0820EFF 		.word	-15826224
 8623 6260 0B828B00 		.word	9142795
 8624 6264 CE81DBFF 		.word	-2391602
 8625 6268 5ED99DFF 		.word	-6432418
 8626 626c EFE6E6FF 		.word	-1644817
 8627 6270 74739FFE 		.word	-23104652
 8628 6274 A46B5F00 		.word	6253476
 8629 6278 33DA0201 		.word	16964147
 8630 627c D87DC6FF 		.word	-3768872
 8631 6280 8CCA80FE 		.word	-25113972
 8632 6284 0B5F44FF 		.word	-12296437
 8633 6288 37095DFE 		.word	-27457225
 8634 628c AE9906FF 		.word	-16344658
 8635 6290 CCAC6000 		.word	6335692
 8636 6294 45A06E00 		.word	7249989
 8637 6298 D52631FE 		.word	-30333227
ARM GAS  C:\Users\NIGHDR~1\AppData\Local\Temp\ccrnUt9g.s 			page 164


 8638 629c 1B50D500 		.word	13979675
 8639 62a0 767D7200 		.word	7503222
 8640 62a4 464643FF 		.word	-12368314
 8641 62a8 0F8E49FF 		.word	-11956721
 8642 62ac 837AB9FF 		.word	-4621693
 8643 62b0 F31432FE 		.word	-30272269
 8644 62b4 82ED2800 		.word	2682242
 8645 62b8 D29F8C01 		.word	25993170
 8646 62bc C59741FF 		.word	-12478523
 8647 62c0 54994200 		.word	4364628
 8648 62c4 C37E5A00 		.word	5930691
 8649 62c8 10EEEC01 		.word	32304656
 8650 62cc 76BB66FF 		.word	-10044554
 8651 62d0 031885FF 		.word	-8054781
 8652 62d4 BB45E600 		.word	15091131
 8653 62d8 38C55C01 		.word	22857016
 8654 62dc D5455EFF 		.word	-10598955
 8655 62e0 508AE501 		.word	31820368
 8656 62e4 CE07E600 		.word	15075278
 8657 62e8 DE6FE601 		.word	31879134
 8658 62ec 5BE977FF 		.word	-8918693
 8659 62f0 09590701 		.word	17258761
 8660 62f4 02620100 		.word	90626
 8661 62f8 944A85FF 		.word	-8041836
 8662 62fc 33F6B4FF 		.word	-4917709
 8663 6300 E4B17001 		.word	24162788
 8664 6304 3ABD6CFF 		.word	-9650886
 8665 6308 C2CBEDFE 		.word	-17970238
 8666 630c 15D1C300 		.word	12833045
 8667 6310 930A2301 		.word	19073683
 8668 6314 569DE200 		.word	14851414
 8669 6318 1FA38BFE 		.word	-24403169
 8670 631c 38074BFF 		.word	-11860168
 8671 6320 3E5A7400 		.word	7625278
 8672 6324 B53CA900 		.word	11091125
 8673 6328 8AA2D4FE 		.word	-19619190
 8674 632c 51A71F00 		.word	2074449
 8675 6330 CD5A70FF 		.word	-9413939
 8676 6334 2170E300 		.word	14905377
 8677 6338 53977501 		.word	24483667
 8678 633c B1E049FF 		.word	-11935567
 8679 6340 AE90D9FF 		.word	-2518866
 8680 6344 E6CC4FFF 		.word	-11547418
 8681 6348 164DE8FF 		.word	-1553130
 8682 634c 724EEA00 		.word	15355506
 8683 6350 E0397EFE 		.word	-25282080
 8684 6354 09318D00 		.word	9253129
 8685 6358 F293A501 		.word	27628530
 8686 635c 68B68CFF 		.word	-7555480
 8687 6360 A7840C01 		.word	17597607
 8688 6364 7B447F00 		.word	8340603
 8689 6368 E1572701 		.word	19355617
 8690 636c FB6C0800 		.word	552187
 8691 6370 C6C18F01 		.word	26198470
 8692 6374 7987CFFF 		.word	-3176583
 8693 6378 AC164600 		.word	4593324
 8694 637c 324474FF 		.word	-9157582
ARM GAS  C:\Users\NIGHDR~1\AppData\Local\Temp\ccrnUt9g.s 			page 165


 8695 6380 65AF28FF 		.word	-14110875
 8696 6384 F869E900 		.word	15297016
 8697 6388 A6CB0700 		.word	510886
 8698 638c 6EC5DA00 		.word	14337390
 8699 6390 D7FE1AFE 		.word	-31785257
 8700 6394 A8E2FD00 		.word	16638632
 8701 6398 1F8F6000 		.word	6328095
 8702 639c 0B672900 		.word	2713355
 8703 63a0 B781CBFE 		.word	-20217417
 8704 63a4 64F74AFF 		.word	-11864220
 8705 63a8 D57E8400 		.word	8683221
 8706 63ac D2932C00 		.word	2921426
 8707 63b0 C7EA1B01 		.word	18606791
 8708 63b4 942FB500 		.word	11874196
 8709 63b8 9B5B9E01 		.word	27155355
 8710 63bc 3669AFFF 		.word	-5281482
 8711 63c0 024E91FE 		.word	-24031742
 8712 63c4 669A5F00 		.word	6265446
 8713 63c8 80CF7FFE 		.word	-25178240
 8714 63cc 347CECFF 		.word	-1278924
 8715 63d0 82544700 		.word	4674690
 8716 63d4 DDF3D300 		.word	13890525
 8717 63d8 98AACF00 		.word	13609624
 8718 63dc DE6AC700 		.word	13069022
 8719 63e0 B7545EFE 		.word	-27372361
 8720 63e4 5CC838FF 		.word	-13055908
 8721 63e8 8AB67301 		.word	24360586
 8722 63ec 8E609200 		.word	9592974
 8723 63f0 8588E400 		.word	14977157
 8724 63f4 61129600 		.word	9835105
 8725 63f8 37FB4200 		.word	4389687
 8726 63fc 8C660400 		.word	288396
 8727 6400 CA679700 		.word	9922506
 8728 6404 1E13F8FF 		.word	-519394
 8729 6408 33B8CF00 		.word	13613107
 8730 640c CAC65900 		.word	5883594
 8731 6410 37C5E1FE 		.word	-18758345
 8732 6414 A95FF9FF 		.word	-434263
 8733 6418 424144FF 		.word	-12304062
 8734 641c BCEA7E00 		.word	8317628
 8735 6420 A6DF6401 		.word	23388070
 8736 6424 70EFF400 		.word	16052080
 8737 6428 9017C200 		.word	12720016
 8738 642c 3A27B600 		.word	11937594
 8739 6430 F42C18FE 		.word	-31970060
 8740 6434 AF44B3FF 		.word	-5028689
 8741 6438 98769A01 		.word	26900120
 8742 643c B0A28200 		.word	8561328
 8743 6440 D972CCFE 		.word	-20155687
 8744 6444 AD7E4EFF 		.word	-11632979
 8745 6448 21DE1EFF 		.word	-14754271
 8746 644c 24025BFF 		.word	-10812892
 8747 6450 028FF300 		.word	15961858
 8748 6454 09EBD700 		.word	14150409
 8749 6458 03AB9701 		.word	26716931
 8750 645c 18D7F5FF 		.word	-665832
 8751 6460 A82FA4FE 		.word	-22794328
ARM GAS  C:\Users\NIGHDR~1\AppData\Local\Temp\ccrnUt9g.s 			page 166


 8752 6464 F192CF00 		.word	13603569
 8753 6468 4581B400 		.word	11829573
 8754 646c 44F37100 		.word	7467844
 8755 6470 903548FE 		.word	-28822128
 8756 6474 FB2D0E00 		.word	929275
 8757 6478 176EA800 		.word	11038231
 8758 647c 44444FFF 		.word	-11582396
 8759 6480 6E465FFE 		.word	-27310482
 8760 6484 AE5B90FF 		.word	-7316562
 8761 6488 21CE5FFF 		.word	-10498527
 8762 648c 892907FF 		.word	-16307831
 8763 6490 13BB99FE 		.word	-23479533
 8764 6494 23FF70FF 		.word	-9371869
 8765 6498 0991B9FE 		.word	-21393143
 8766 649c 329D2500 		.word	2465074
 8767 64a0 0B703101 		.word	20017163
 8768 64a4 6608BEFF 		.word	-4323226
 8769 64a8 EAF3A901 		.word	27915242
 8770 64ac 3C551700 		.word	1529148
 8771 64b0 4A27BD00 		.word	12396362
 8772 64b4 7431EF00 		.word	15675764
 8773 64b8 ADD5D200 		.word	13817261
 8774 64bc 2EA16CFF 		.word	-9658066
 8775 64c0 9F962500 		.word	2463391
 8776 64c4 C478B9FF 		.word	-4622140
 8777 64c8 226206FF 		.word	-16358878
 8778 64cc 99C33EFF 		.word	-12663911
 8779 64d0 61E647FF 		.word	-12065183
 8780 64d4 663D4C00 		.word	4996454
 8781 64d8 1AD4ECFF 		.word	-1256422
 8782 64dc A4611000 		.word	1073572
 8783 64e0 C63B9200 		.word	9583558
 8784 64e4 A317C400 		.word	12851107
 8785 64e8 38183D00 		.word	4003896
 8786 64ec B562C100 		.word	12673717
 8787 64f0 FB93E5FF 		.word	-1731589
 8788 64f4 62BD18FF 		.word	-15155870
 8789 64f8 2E36CEFF 		.word	-3262930
 8790 64fc EA52F600 		.word	16143082
 8791 6500 B7672601 		.word	19294135
 8792 6504 6D3ECC00 		.word	13385325
 8793 6508 0AF0E000 		.word	14741514
 8794 650c 921675FF 		.word	-9103726
 8795 6510 8E9A7800 		.word	7903886
 8796 6514 45D42300 		.word	2348101
 8797 6518 D0637601 		.word	24536016
 8798 651c 79FF03FF 		.word	-16515207
 8799 6520 4806C200 		.word	12715592
 8800 6524 7511C5FF 		.word	-3862155
 8801 6528 7D0F1700 		.word	1511293
 8802 652c 9A4F9900 		.word	10047386
 8803 6530 D65EC5FF 		.word	-3842346
 8804 6534 B93793FF 		.word	-7129159
 8805 6538 3EFE4EFE 		.word	-28377538
 8806 653c 7F529900 		.word	10048127
 8807 6540 6E663FFF 		.word	-12622226
 8808 6544 6C52A1FF 		.word	-6204820
ARM GAS  C:\Users\NIGHDR~1\AppData\Local\Temp\ccrnUt9g.s 			page 167


 8809 6548 69BBD401 		.word	30718825
 8810 654c 508A2700 		.word	2591312
 8811 6550 3CFF5DFF 		.word	-10617028
 8812 6554 480CBA00 		.word	12192840
 8813 6558 D2FB1F01 		.word	18873298
 8814 655c BEA790FF 		.word	-7297090
 8815 6560 E42C13FE 		.word	-32297756
 8816 6564 8043E800 		.word	15221632
 8817 6568 D6F96BFE 		.word	-26478122
 8818 656c 889156FF 		.word	-11103864
 8819 6570 842EB000 		.word	11546244
 8820 6574 BDBBE3FF 		.word	-1852483
 8821 6578 D0168C00 		.word	9180880
 8822 657c D9D37400 		.word	7656409
 8823 6580 3251BAFE 		.word	-21343950
 8824 6584 8BFA1F00 		.word	2095755
 8825 6588 1E40C601 		.word	29769758
 8826 658c 879B6400 		.word	6593415
 8827 6590 A0CE17FE 		.word	-31994208
 8828 6594 BBA2D3FF 		.word	-2907461
 8829 6598 10BC3F00 		.word	4176912
 8830 659c FED03100 		.word	3264766
 8831 65a0 5554BF00 		.word	12538965
 8832 65a4 F1C0F2FF 		.word	-868111
 8833 65a8 997E9101 		.word	26312345
 8834 65ac EAA2A2FF 		.word	-6118678
 8835 65b0 E661D801 		.word	30958054
 8836 65b4 40877E00 		.word	8292160
 8837 65b8 BE94DF01 		.word	31429822
 8838 65bc 34002BFF 		.word	-13959116
 8839 65c0 1C27BD01 		.word	29173532
 8840 65c4 4088EE00 		.word	15632448
 8841 65c8 AFC4B900 		.word	12174511
 8842 65cc 62E2D5FF 		.word	-2760094
 8843 65d0 7F9FF401 		.word	32808831
 8844 65d4 E2AF3C00 		.word	3977186
 8845 65d8 A0E98E01 		.word	26143136
 8846 65dc B4F3CFFF 		.word	-3148876
 8847 65e0 45985901 		.word	22648901
 8848 65e4 1F651500 		.word	1402143
 8849 65e8 9019A4FE 		.word	-22799984
 8850 65ec 8BBFD100 		.word	13746059
 8851 65f0 5B197900 		.word	7936347
 8852 65f4 20930500 		.word	365344
 8853 65f8 27BA7BFF 		.word	-8668633
 8854 65fc 3F73E6FF 		.word	-1674433
 8855 6600 5DA7C6FF 		.word	-3758243
 8856 6604 8FD5DCFF 		.word	-2304625
 8857 6608 B39C13FF 		.word	-15491917
 8858 660c 19427A00 		.word	8012313
 8859 6610 D6A0D9FF 		.word	-2514730
 8860 6614 022D3EFF 		.word	-12702462
 8861 6618 6A4F92FE 		.word	-23965846
 8862 661c 338963FF 		.word	-10254029
 8863 6620 5764E7FF 		.word	-1612713
 8864 6624 AF91E8FF 		.word	-1535569
 8865 6628 65B801FF 		.word	-16664475
ARM GAS  C:\Users\NIGHDR~1\AppData\Local\Temp\ccrnUt9g.s 			page 168


 8866 662c AE097D00 		.word	8194478
 8867 6630 5225A101 		.word	27338066
 8868 6634 24728DFF 		.word	-7507420
 8869 6638 30DE8EFF 		.word	-7414224
 8870 663c F5BA9A00 		.word	10140405
 8871 6640 05AEDDFE 		.word	-19026427
 8872 6644 3F729BFF 		.word	-6589889
 8873 6648 8737A001 		.word	27277191
 8874 664c 501F8700 		.word	8855376
 8875 6650 7EFAB301 		.word	28572286
 8876 6654 ECDA2D00 		.word	3005164
 8877 6658 141C9101 		.word	26287124
 8878 665c 10934900 		.word	4821776
 8879 6660 F9BD8401 		.word	25476601
 8880 6664 11BDC0FF 		.word	-4145903
 8881 6668 DF8EC6FF 		.word	-3764513
 8882 666c 48140FFF 		.word	-15788984
 8883 6670 FA35EDFE 		.word	-18008582
 8884 6674 0F0B1200 		.word	1182479
 8885 6678 1BD371FE 		.word	-26094821
 8886 667c D56B38FF 		.word	-13079595
 8887 6680 AE9392FF 		.word	-7171154
 8888 6684 607E3000 		.word	3178080
 8889 6688 17C16D01 		.word	23970071
 8890 668c 25A25E00 		.word	6201893
 8891 6690 C79DF9FE 		.word	-17195577
 8892 6694 1880BBFF 		.word	-4489192
 8893 6698 CD31B2FE 		.word	-21876275
 8894 669c 5DA42AFF 		.word	-13982627
 8895 66a0 2B77EB01 		.word	32208683
 8896 66a4 58B7EDFF 		.word	-1198248
 8897 66a8 DAD201FF 		.word	-16657702
 8898 66ac 6BFE2A00 		.word	2817643
 8899 66b0 E60A63FF 		.word	-10286362
 8900 66b4 A200E200 		.word	14811298
 8901 66b8 DBED5B00 		.word	6024667
 8902 66bc 81B2CB00 		.word	13349505
 8903 66c0 D0325FFE 		.word	-27315504
 8904 66c4 CED05FFF 		.word	-10497842
 8905 66c8 F7BF59FE 		.word	-27672585
 8906 66cc 6EEA4FFF 		.word	-11539858
 8907 66d0 A53DF300 		.word	15941029
 8908 66d4 147A70FF 		.word	-9405932
 8909 66d8 F6F6B9FE 		.word	-21367050
 8910 66dc 67047B00 		.word	8062055
 8911 66e0 E963E601 		.word	31876073
 8912 66e4 DB5BFCFF 		.word	-238629
 8913 66e8 C7DE16FF 		.word	-15278393
 8914 66ec B3F5E9FF 		.word	-1444429
 8915 66f0 D3F1EA00 		.word	15397331
 8916 66f4 6FFAC0FF 		.word	-4130193
 8917 66f8 55548800 		.word	8934485
 8918 66fc 653A32FF 		.word	-13485467
 8919 6700 83AD9CFE 		.word	-23286397
 8920 6704 772D33FF 		.word	-13423241
 8921 6708 76E910FE 		.word	-32446090
 8922 670c F25AD600 		.word	14047986
ARM GAS  C:\Users\NIGHDR~1\AppData\Local\Temp\ccrnUt9g.s 			page 169


 8923 6710 5E9FDB01 		.word	31170398
 8924 6714 0303EAFF 		.word	-1441021
 8925 6718 624C5CFE 		.word	-27505566
 8926 671c 5036E600 		.word	15087184
 8927 6720 05E4E7FE 		.word	-18357243
 8928 6724 3518DFFF 		.word	-2156491
 8929 6728 71387601 		.word	24524913
 8930 672c 148401FF 		.word	-16677868
 8931 6730 ABD2EC00 		.word	15520427
 8932 6734 38F19EFF 		.word	-6360776
 8933 6738 BA7313FF 		.word	-15502406
 8934 673c 08E5AE00 		.word	11461896
 8935 6740 302C0001 		.word	16788528
 8936 6744 7272A6FF 		.word	-5868942
 8937 6748 0649E2FF 		.word	-1947386
 8938 674c CD59F400 		.word	16013773
 8939 6750 89E34B01 		.word	21750665
 8940 6754 F8AD3800 		.word	3714552
 8941 6758 4A78F6FE 		.word	-17401782
 8942 675c 77030BFF 		.word	-16055433
 8943 6760 5178C6FF 		.word	-3770287
 8944 6764 887A62FF 		.word	-10323320
 8945 6768 92F1DD01 		.word	31322514
 8946 676c 6DC24EFF 		.word	-11615635
 8947 6770 DFF14601 		.word	21426655
 8948 6774 D6C8A9FF 		.word	-5650218
 8949 6778 61BE2FFF 		.word	-13648287
 8950 677c 2F67AEFF 		.word	-5347537
 8951 6780 635C48FE 		.word	-28812189
 8952 6784 76E9B4FF 		.word	-4920970
 8953 6788 C123E9FE 		.word	-18275391
 8954 678c 1AE520FF 		.word	-14621414
 8955 6790 DEFCC600 		.word	13040862
 8956 6794 CC2B47FF 		.word	-12112948
 8957 6798 C754AC00 		.word	11293895
 8958 679c 8666BE00 		.word	12478086
 8959 67a0 6FEE61FE 		.word	-27136401
 8960 67a4 E628E600 		.word	15083750
 8961 67a8 E3CD40FE 		.word	-29307421
 8962 67ac C80CE100 		.word	14748872
 8963 67b0 A619DE00 		.word	14555558
 8964 67b4 714533FF 		.word	-13417103
 8965 67b8 8F9F1800 		.word	1613711
 8966 67bc A7B84A00 		.word	4896935
 8967 67c0 1DE074FE 		.word	-25894883
 8968 67c4 9ED0E900 		.word	15323294
 8969 67c8 C1747EFF 		.word	-8489791
 8970 67cc D40B85FF 		.word	-8057900
 8971 67d0 163A8C01 		.word	25967126
 8972 67d4 CC2433FF 		.word	-13425460
 8973 67d8 E81E2B00 		.word	2825960
 8974 67dc EB46B5FF 		.word	-4897045
 8975 67e0 403892FE 		.word	-23971776
 8976 67e4 A91254FF 		.word	-11267415
 8977 67e8 E2010DFF 		.word	-15924766
 8978 67ec C832B0FF 		.word	-5229880
 8979 67f0 34D5F5FE 		.word	-17443532
ARM GAS  C:\Users\NIGHDR~1\AppData\Local\Temp\ccrnUt9g.s 			page 170


 8980 67f4 A8D16100 		.word	6410664
 8981 67f8 BF473700 		.word	3622847
 8982 67fc 224E9C00 		.word	10243618
 8983 6800 E8903A01 		.word	20615400
 8984 6804 B94ABD00 		.word	12405433
 8985 6808 BA8E95FE 		.word	-23753030
 8986 680c 40457FFF 		.word	-8436416
 8987 6810 A1CB93FF 		.word	-7091295
 8988 6814 B097BF00 		.word	12556208
 8989 6818 88E7CBFE 		.word	-20191352
 8990 681c A3B68900 		.word	9025187
 8991 6820 A17EFBFE 		.word	-17072479
 8992 6824 E9204200 		.word	4333801
 8993 6828 44CF4200 		.word	4378436
 8994 682c 1E1C2500 		.word	2432030
 8995 6830 5D726001 		.word	23097949
 8996 6834 FE5CF7FF 		.word	-566018
 8997 6838 2CAB4500 		.word	4565804
 8998 683c CA770BFF 		.word	-16025654
 8999 6840 BC763201 		.word	20084412
 9000 6844 FF5388FF 		.word	-7842817
 9001 6848 47521A00 		.word	1724999
 9002 684c 46E30200 		.word	189254
 9003 6850 20EB7901 		.word	24767264
 9004 6854 B5299A00 		.word	10103221
 9005 6858 4786E5FE 		.word	-18512313
 9006 685c CAFF2400 		.word	2424778
 9007 6860 29980500 		.word	366633
 9008 6864 9A3F49FF 		.word	-11976806
 9009 6868 22B67C00 		.word	8173090
 9010 686c 79DD96FF 		.word	-6890119
 9011 6870 1ACCD501 		.word	30788634
 9012 6874 29AC5700 		.word	5745705
 9013 6878 5A9D92FF 		.word	-7168678
 9014 687c 6D821400 		.word	1344109
 9015 6880 476BC8FF 		.word	-3642553
 9016 6884 F366BD00 		.word	12412659
 9017 6888 01C391FE 		.word	-24001791
 9018 688c 2E587500 		.word	7690286
 9019 6890 08CEE300 		.word	14929416
 9020 6894 BF6EFDFF 		.word	-168257
 9021 6898 6D8014FE 		.word	-32210835
 9022 689c 865533FF 		.word	-13412986
 9023 68a0 89B17001 		.word	24162697
 9024 68a4 D82216FF 		.word	-15326504
 9025 68a8 8310D0FF 		.word	-3141501
 9026 68ac 7995AA00 		.word	11179385
 9027 68b0 72131701 		.word	18289522
 9028 68b4 A6501FFF 		.word	-14724954
 9029 68b8 71F07A00 		.word	8056945
 9030 68bc E8B3FA00 		.word	16430056
 9031 68c0 446EB4FE 		.word	-21729724
 9032 68c4 D2AA7700 		.word	7842514
 9033 68c8 DF6CA4FF 		.word	-6001441
 9034 68cc CF4FE9FF 		.word	-1486897
 9035 68d0 1BE5E2FE 		.word	-18684645
 9036 68d4 D16251FF 		.word	-11443503
ARM GAS  C:\Users\NIGHDR~1\AppData\Local\Temp\ccrnUt9g.s 			page 171


 9037 68d8 4F440700 		.word	476239
 9038 68dc 83B96400 		.word	6601091
 9039 68e0 AA1DA2FF 		.word	-6152790
 9040 68e4 11A26BFF 		.word	-9723375
 9041 68e8 39150B01 		.word	17503545
 9042 68ec 64C8B5FF 		.word	-4863900
 9043 68f0 7F41A601 		.word	27672959
 9044 68f4 A586CC00 		.word	13403813
 9045 68f8 68A7A800 		.word	11052904
 9046 68fc 01A44F00 		.word	5219329
 9047 6900 92873B01 		.word	20678546
 9048 6904 463280FF 		.word	-8375738
 9049 6908 66770DFE 		.word	-32671898
 9050 690c E3068700 		.word	8849123
 9051 6910 A28EB3FF 		.word	-5009758
 9052 6914 A064DE00 		.word	14574752
 9053 6918 1BE0DB01 		.word	31186971
 9054 691c 9E5DC3FF 		.word	-3973730
 9055 6920 EA8D8900 		.word	9014762
 9056 6924 10187DFF 		.word	-8579056
 9057 6928 EECE2FFF 		.word	-13644050
 9058 692c 611162FF 		.word	-10350239
 9059 6930 746E0CFF 		.word	-15962508
 9060 6934 60734D00 		.word	5075808
 9061 6938 5BE3E8FF 		.word	-1514661
 9062 693c F8FE4FFF 		.word	-11534600
 9063 6940 5CE506FE 		.word	-33102500
 9064 6944 58C68B00 		.word	9160280
 9065 6948 CE4B8100 		.word	8473550
 9066 694c FA4DCEFF 		.word	-3256838
 9067 6950 8DF47B01 		.word	24900749
 9068 6954 8A45DC00 		.word	14435722
 9069 6958 20970601 		.word	17209120
 9070 695c 83A716FF 		.word	-15292541
 9071 6960 ED44A7FE 		.word	-22592275
 9072 6964 C7BD9600 		.word	9878983
 9073 6968 A3AB8AFF 		.word	-7689309
 9074 696c 33BC06FF 		.word	-16335821
 9075 6970 5F1D89FE 		.word	-24568481
 9076 6974 94E2B300 		.word	11788948
 9077 6978 B56BD0FF 		.word	-3118155
 9078 697c 861F52FF 		.word	-11395194
 9079 6980 97652DFF 		.word	-13802089
 9080 6984 81CAE100 		.word	14797441
 9081 6988 E0489300 		.word	9652448
 9082 698c 308A97FF 		.word	-6845904
 9083 6990 C340CEFE 		.word	-20037437
 9084 6994 EDDA9E00 		.word	10410733
 9085 6998 6A1D89FE 		.word	-24568470
 9086 699c FDBDE9FF 		.word	-1458691
 9087 69a0 670F11FF 		.word	-15659161
 9088 69a4 C261FF00 		.word	16736706
 9089 69a8 B22DA9FE 		.word	-22467150
 9090 69ac C6E19B00 		.word	10215878
 9091 69b0 273075FF 		.word	-9097177
 9092 69b4 876A7300 		.word	7563911
 9093 69b8 6126B500 		.word	11871841
ARM GAS  C:\Users\NIGHDR~1\AppData\Local\Temp\ccrnUt9g.s 			page 172


 9094 69bc 962F41FF 		.word	-12505194
 9095 69c0 5382E5FE 		.word	-18513325
 9096 69c4 F6268100 		.word	8464118
 9097 69c8 5CEF9AFE 		.word	-23400612
 9098 69cc 5B637F00 		.word	8348507
 9099 69d0 A16F21FF 		.word	-14585951
 9100 69d4 EED9F2FF 		.word	-861714
 9101 69d8 83B9C3FF 		.word	-3950205
 9102 69dc D5BF9EFF 		.word	-6373419
 9103 69e0 2996DA00 		.word	14325289
 9104 69e4 84A98300 		.word	8628612
 9105 69e8 5954FC01 		.word	33313881
 9106 69ec AB4680FF 		.word	-8370517
 9107 69f0 A3F8CBFE 		.word	-20186973
 9108 69f4 0132B4FF 		.word	-4967935
 9109 69f8 7C4C5501 		.word	22367356
 9110 69fc FB6F5000 		.word	5271547
 9111 6a00 6342EFFF 		.word	-1097117
 9112 6a04 9AEDB6FF 		.word	-4788838
 9113 6a08 DD7E85FE 		.word	-24805667
 9114 6a0c 4ACC63FF 		.word	-10236854
 9115 6a10 419377FF 		.word	-8940735
 9116 6a14 6338A7FF 		.word	-5818269
 9117 6a18 4FF895FF 		.word	-6948785
 9118 6a1c 749BE4FF 		.word	-1795212
 9119 6a20 ED2B0EFE 		.word	-32625683
 9120 6a24 45890BFF 		.word	-16021179
 9121 6a28 16FAF101 		.word	32635414
 9122 6a2c 5B7A8FFF 		.word	-7374245
 9123 6a30 CDF9F300 		.word	15989197
 9124 6a34 D41A3CFF 		.word	-12838188
 9125 6a38 30B6B001 		.word	28358192
 9126 6a3c 3017BFFF 		.word	-4253904
 9127 6a40 CB7998FE 		.word	-23561781
 9128 6a44 2D4AD5FF 		.word	-2799059
 9129 6a48 3E5A12FE 		.word	-32351682
 9130 6a4c F5A3E6FF 		.word	-1661963
 9131 6a50 B96A74FF 		.word	-9147719
 9132 6a54 53239F00 		.word	10429267
 9133 6a58 0C2102FF 		.word	-16637684
 9134 6a5c 50223E00 		.word	4072016
 9135 6a60 1057AEFF 		.word	-5351664
 9136 6a64 AD655500 		.word	5596589
 9137 6a68 CA2451FE 		.word	-28236598
 9138 6a6c A045CCFF 		.word	-3390048
 9139 6a70 40E1BB00 		.word	12312896
 9140 6a74 3ACE5E00 		.word	6213178
 9141 6a78 56902F00 		.word	3117142
 9142 6a7c E556F500 		.word	16078565
 9143 6a80 3F91BE01 		.word	29266239
 9144 6a84 25052700 		.word	2557221
 9145 6a88 6DFB1A00 		.word	1768301
 9146 6a8c 8993EA00 		.word	15373193
 9147 6a90 A27991FF 		.word	-7243358
 9148 6a94 9074CEFF 		.word	-3246960
 9149 6a98 C5E8B9FF 		.word	-4593467
 9150 6a9c B7BE8CFF 		.word	-7553353
ARM GAS  C:\Users\NIGHDR~1\AppData\Local\Temp\ccrnUt9g.s 			page 173


 9151 6aa0 490CFEFF 		.word	-127927
 9152 6aa4 8B14F2FF 		.word	-912245
 9153 6aa8 AA5AEFFF 		.word	-1090902
 9154 6aac 6142BBFF 		.word	-4504991
 9155 6ab0 F5B587FE 		.word	-24660491
 9156 6ab4 DE883400 		.word	3442910
 9157 6ab8 F50533FE 		.word	-30210571
 9158 6abc CB2F4E00 		.word	5124043
 9159 6ac0 9865D800 		.word	14181784
 9160 6ac4 49177D00 		.word	8197961
 9161 6ac8 FE602101 		.word	18964734
 9162 6acc EBD249FF 		.word	-11939093
 9163 6ad0 2BD15801 		.word	22597931
 9164 6ad4 07816D00 		.word	7176455
 9165 6ad8 7A68E4FE 		.word	-18585478
 9166 6adc AAF2CB00 		.word	13365930
 9167 6ae0 F2CC87FF 		.word	-7877390
 9168 6ae4 CA1CE9FF 		.word	-1499958
 9169 6ae8 41067F00 		.word	8324673
 9170 6aec 9F904700 		.word	4690079
 9171 6af0 648C5F00 		.word	6261860
 9172 6af4 4E960D00 		.word	890446
 9173 6af8 FB6B7601 		.word	24538107
 9174 6afc B63A7DFF 		.word	-8570186
 9175 6b00 01266CFF 		.word	-9689599
 9176 6b04 8DBDD1FF 		.word	-3031667
 9177 6b08 089B7D01 		.word	25008904
 9178 6b0c 71A35BFF 		.word	-10771599
 9179 6b10 794FBEFF 		.word	-4305031
 9180 6b14 86EF6CFF 		.word	-9638010
 9181 6b18 4C2FF800 		.word	16265036
 9182 6b1c A3E4EF00 		.word	15721635
 9183 6b20 116F0A00 		.word	683793
 9184 6b24 58954BFF 		.word	-11823784
 9185 6b28 D7EBEF00 		.word	15723479
 9186 6b2c A79F18FF 		.word	-15163481
 9187 6b30 2F976CFF 		.word	-9660625
 9188 6b34 6BD1BC00 		.word	12374379
 9189 6b38 E9E763FE 		.word	-27006999
 9190 6b3c 1CCA94FF 		.word	-7026148
 9191 6b40 AE238AFF 		.word	-7724114
 9192 6b44 6E1844FF 		.word	-12314514
 9193 6b48 0245B500 		.word	11879682
 9194 6b4c 6B665200 		.word	5400171
 9195 6b50 66ED0700 		.word	519526
 9196 6b54 5C24EDFF 		.word	-1235876
 9197 6b58 DDA25301 		.word	22258397
 9198 6b5c 37CA06FF 		.word	-16332233
 9199 6b60 87EA87FF 		.word	-7869817
 9200 6b64 18FADE00 		.word	14613016
 9201 6b68 415EA8FE 		.word	-22520255
 9202 6b6c F5F8D2FF 		.word	-2950923
 9203 6b70 A76CC9FE 		.word	-20353881
 9204 6b74 FFA16F00 		.word	7315967
 9205 6b78 CD08FE00 		.word	16648397
 9206 6b7c 880D7400 		.word	7605640
 9207 6b80 64B084FF 		.word	-8081308
ARM GAS  C:\Users\NIGHDR~1\AppData\Local\Temp\ccrnUt9g.s 			page 174


 9208 6b84 2BD77EFF 		.word	-8464597
 9209 6b88 B18582FF 		.word	-8223311
 9210 6b8c 9E4F9400 		.word	9719710
 9211 6b90 43E02501 		.word	19259459
 9212 6b94 0CCE15FF 		.word	-15348212
 9213 6b98 3E226E01 		.word	23994942
 9214 6b9c ED68AFFF 		.word	-5281555
 9215 6ba0 50846FFF 		.word	-9468848
 9216 6ba4 8EAE4800 		.word	4763278
 9217 6ba8 54E5B4FE 		.word	-21699244
 9218 6bac 69B38C00 		.word	9220969
 9219 6bb0 40F80FFF 		.word	-15730624
 9220 6bb4 E98A1000 		.word	1084137
 9221 6bb8 F5437BFE 		.word	-25476107
 9222 6bbc DA79D4FF 		.word	-2852390
 9223 6bc0 3F5FDA01 		.word	31088447
 9224 6bc4 D58589FF 		.word	-7764523
 9225 6bc8 8FB652FF 		.word	-11356529
 9226 6bcc 301C0B00 		.word	728112
 9227 6bd0 F4728D01 		.word	26047220
 9228 6bd4 D1AF4CFF 		.word	-11751471
 9229 6bd8 9DB596FF 		.word	-6900323
 9230 6bdc BAE503FF 		.word	-16521798
 9231 6be0 A49D6F01 		.word	24092068
 9232 6be4 E7BD8B00 		.word	9158119
 9233 6be8 77CABEFF 		.word	-4273545
 9234 6bec DA6A40FF 		.word	-12555558
 9235 6bf0 44EB3FFE 		.word	-29365436
 9236 6bf4 601AACFF 		.word	-5498272
 9237 6bf8 BB2F0B01 		.word	17510331
 9238 6bfc D712FBFF 		.word	-322857
 9239 6c00 51545900 		.word	5854289
 9240 6c04 443A8000 		.word	8403524
 9241 6c08 5E710501 		.word	17133918
 9242 6c0c 5C81D0FF 		.word	-3112612
 9243 6c10 610F53FE 		.word	-28111007
 9244 6c14 091CBC00 		.word	12327945
 9245 6c18 EF09A400 		.word	10750447
 9246 6c1c 3CCD9800 		.word	10014012
 9247 6c20 C0A362FF 		.word	-10312768
 9248 6c24 B8123C00 		.word	3936952
 9249 6c28 D9B68B00 		.word	9156313
 9250 6c2c 6D3B78FF 		.word	-8897683
 9251 6c30 04C0FB00 		.word	16498692
 9252 6c34 A9D2F0FF 		.word	-994647
 9253 6c38 25AC5CFE 		.word	-27481051
 9254 6c3c 94D3F5FF 		.word	-666732
 9255 6c40 B3413400 		.word	3424691
 9256 6c44 FD0D7300 		.word	7540221
 9257 6c48 B9AECE01 		.word	30322361
 9258 6c4c 72BC95FF 		.word	-6964110
 9259 6c50 ED5AAD00 		.word	11361005
 9260 6c54 2BC7C0FF 		.word	-4143317
 9261 6c58 586C7100 		.word	7433304
 9262 6c5c 34234C00 		.word	4989748
 9263 6c60 421994FF 		.word	-7071422
 9264 6c64 DD0407FF 		.word	-16317219
ARM GAS  C:\Users\NIGHDR~1\AppData\Local\Temp\ccrnUt9g.s 			page 175


 9265 6c68 97F172FF 		.word	-9244265
 9266 6c6c BED1E800 		.word	15258046
 9267 6c70 6232C700 		.word	13054562
 9268 6c74 9796D5FF 		.word	-2779497
 9269 6c78 124A2401 		.word	19155474
 9270 6c7c 35280700 		.word	469045
 9271 6c80 138741FF 		.word	-12482797
 9272 6c84 1AAC4500 		.word	4566042
 9273 6c88 AEED5500 		.word	5631406
 9274 6c8c 635F2900 		.word	2711395
 9275 6c90 03381000 		.word	1062915
 9276 6c94 27A0B1FF 		.word	-5136345
 9277 6c98 C86ADAFE 		.word	-19240248
 9278 6c9c B94454FF 		.word	-11254599
 9279 6ca0 5BBA3DFE 		.word	-29509029
 9280 6ca4 438F8DFF 		.word	-7499965
 9281 6ca8 0DF4A6FF 		.word	-5835763
 9282 6cac 6372C600 		.word	13005411
 9283 6cb0 C76EA3FF 		.word	-6066489
 9284 6cb4 C112BA00 		.word	12194497
 9285 6cb8 7CEFF601 		.word	32960380
 9286 6cbc 6E441600 		.word	1459310
 9287 6cc0 02EB2E01 		.word	19852034
 9288 6cc4 D43C6B00 		.word	7027924
 9289 6cc8 692A6901 		.word	23669353
 9290 6ccc 0EE69800 		.word	10020366
 9291 6cd0 07058300 		.word	8586503
 9292 6cd4 8D689AFF 		.word	-6657907
 9293 6cd8 D5030600 		.word	394197
 9294 6cdc 83E4A2FF 		.word	-6101885
 9295 6ce0 B3641C01 		.word	18638003
 9296 6ce4 E77B55FF 		.word	-11174937
 9297 6ce8 CE0EDF01 		.word	31395534
 9298 6cec FD60E600 		.word	15098109
 9299 6cf0 26989501 		.word	26581030
 9300 6cf4 62897A00 		.word	8030562
 9301 6cf8 D6CD03FF 		.word	-16527914
 9302 6cfc E298B3FF 		.word	-5007134
 9303 6d00 06858900 		.word	9012486
 9304 6d04 9E458CFF 		.word	-7584354
 9305 6d08 71A29AFF 		.word	-6643087
 9306 6d0c B4F3ACFF 		.word	-5442636
 9307 6d10 1BBD73FF 		.word	-9192165
 9308 6d14 8F2EDCFF 		.word	-2347377
 9309 6d18 D586E1FF 		.word	-1997099
 9310 6d1c 7E1D4500 		.word	4529534
 9311 6d20 BC2B8901 		.word	25766844
 9312 6d24 F2460900 		.word	607986
 9313 6d28 5ACCFFFF 		.word	-13222
 9314 6d2c E7AA9300 		.word	9677543
 9315 6d30 173813FE 		.word	-32294889
 9316 6d34 387D9DFF 		.word	-6456008
 9317 6d38 30B3DAFF 		.word	-2444496
 9318 6d3c 4FB6FDFF 		.word	-149937
 9319 6d40 26D4BF01 		.word	29348902
 9320 6d44 29EB7C00 		.word	8186665
 9321 6d48 60971C00 		.word	1873760
ARM GAS  C:\Users\NIGHDR~1\AppData\Local\Temp\ccrnUt9g.s 			page 176


 9322 6d4c 8794BE00 		.word	12489863
 9323 6d50 CDF927FE 		.word	-30934579
 9324 6d54 346088FF 		.word	-7839692
 9325 6d58 D42C88FF 		.word	-7852844
 9326 6d5c 43D183FF 		.word	-8138429
 9327 6d60 FC8217FF 		.word	-15236356
 9328 6d64 DB8014FF 		.word	-15433509
 9329 6d68 C6817600 		.word	7766470
 9330 6d6c 6C650B00 		.word	746860
 9331 6d70 B2059201 		.word	26346930
 9332 6d74 3E0764FF 		.word	-10221762
 9333 6d78 B5EC5EFE 		.word	-27333451
 9334 6d7c 1C1AA400 		.word	10754588
 9335 6d80 4C1670FF 		.word	-9431476
 9336 6d84 78664F00 		.word	5203576
 9337 6d88 CAC0E501 		.word	31834314
 9338 6d8c C8B0D700 		.word	14135496
 9339 6d90 2940F4FF 		.word	-770007
 9340 6d94 CEB84E00 		.word	5159118
 9341 6d98 A72D3F01 		.word	20917671
 9342 6d9c A02300FF 		.word	-16768096
 9343 6da0 3B0C8EFF 		.word	-7467973
 9344 6da4 CC0990FF 		.word	-7337524
 9345 6da8 DB5EE501 		.word	31809243
 9346 6dac 7A1B7000 		.word	7347066
 9347 6db0 BD696DFF 		.word	-9606723
 9348 6db4 40D04AFF 		.word	-11874240
 9349 6db8 FB7F3701 		.word	20414459
 9350 6dbc 02E2C600 		.word	13033986
 9351 6dc0 2C4CD100 		.word	13716524
 9352 6dc4 97984DFF 		.word	-11691881
 9353 6dc8 D2172E01 		.word	19797970
 9354 6dcc C9AB45FF 		.word	-12211255
 9355 6dd0 2CD3E700 		.word	15192876
 9356 6dd4 BE25E0FF 		.word	-2087490
 9357 6dd8 F5C43EFF 		.word	-12663563
 9358 6ddc A9B5DEFF 		.word	-2181719
 9359 6de0 22D31100 		.word	1168162
 9360 6de4 77F1C5FF 		.word	-3804809
 9361 6de8 E5239801 		.word	26747877
 9362 6dec 154528FF 		.word	-14138091
 9363 6df0 B2E2A100 		.word	10609330
 9364 6df4 94B3C100 		.word	12694420
 9365 6df8 DBC2FE01 		.word	33473243
 9366 6dfc 28CE33FF 		.word	-13382104
 9367 6e00 E75CFA01 		.word	33184999
 9368 6e04 4399AA00 		.word	11180355
 9369 6e08 1594F100 		.word	15832085
 9370 6e0c AA4552FF 		.word	-11385430
 9371 6e10 7912E7FF 		.word	-1633671
 9372 6e14 5C720300 		.word	225884
 9373 6e18 B83EE600 		.word	15089336
 9374 6e1c E1C957FF 		.word	-11023903
 9375 6e20 9260A2FF 		.word	-6135662
 9376 6e24 B5F2DC00 		.word	14480053
 9377 6e28 ADBBDD01 		.word	31308717
 9378 6e2c E23EAAFF 		.word	-5619998
ARM GAS  C:\Users\NIGHDR~1\AppData\Local\Temp\ccrnUt9g.s 			page 177


 9379 6e30 387ED901 		.word	31030840
 9380 6e34 750DE3FF 		.word	-1897099
 9381 6e38 B32CEF00 		.word	15674547
 9382 6e3c 9D8D9BFF 		.word	-6582883
 9383 6e40 90DD5300 		.word	5496208
 9384 6e44 EBD1D000 		.word	13685227
 9385 6e48 2A11A501 		.word	27595050
 9386 6e4c FB518500 		.word	8737275
 9387 6e50 7CF5C9FE 		.word	-20318852
 9388 6e54 61D318FF 		.word	-15150239
 9389 6e58 53D6A600 		.word	10933843
 9390 6e5c 9A2409FF 		.word	-16178022
 9391 6e60 F82F7F00 		.word	8335352
 9392 6e64 5ADB8CFF 		.word	-7546022
 9393 6e68 A1D926FE 		.word	-31008351
 9394 6e6c D4933FFF 		.word	-12610604
 9395 6e70 42549401 		.word	26498114
 9396 6e74 CF030100 		.word	66511
 9397 6e78 E6865901 		.word	22644454
 9398 6e7c 7F4E7AFF 		.word	-8761729
 9399 6e80 E09B01FF 		.word	-16671776
 9400 6e84 52884A00 		.word	4884562
 9401 6e88 B29CD0FF 		.word	-3105614
 9402 6e8c BA1931FF 		.word	-13559366
 9403 6e90 DE03D201 		.word	30540766
 9404 6e94 E596BEFF 		.word	-4286747
 9405 6e98 55A234FF 		.word	-13327787
 9406 6e9c 29548DFF 		.word	-7515095
 9407 6ea0 497B54FE 		.word	-28017847
 9408 6ea4 5D119600 		.word	9834845
 9409 6ea8 77131C01 		.word	18617207
 9410 6eac 2016D7FF 		.word	-2681312
 9411 6eb0 1C17CCFF 		.word	-3401956
 9412 6eb4 8EF134FF 		.word	-13307506
 9413 6eb8 E4347D00 		.word	8205540
 9414 6ebc 1D4CCF00 		.word	13585437
 9415 6ec0 D7A7FAFE 		.word	-17127465
 9416 6ec4 AFA4E600 		.word	15115439
 9417 6ec8 37CF6901 		.word	23711543
 9418 6ecc 6DBBF5FF 		.word	-672915
 9419 6ed0 A12CDC01 		.word	31206561
 9420 6ed4 296580FF 		.word	-8362711
 9421 6ed8 A7105E00 		.word	6164647
 9422 6edc 5DD66BFF 		.word	-9709987
 9423 6ee0 764800FE 		.word	-33535882
 9424 6ee4 503DEAFF 		.word	-1426096
 9425 6ee8 79AF7D00 		.word	8236921
 9426 6eec 8BA9FB00 		.word	16492939
 9427 6ef0 612793FE 		.word	-23910559
 9428 6ef4 FAC431FF 		.word	-13515526
 9429 6ef8 A5B36EFE 		.word	-26299483
 9430 6efc DF46BBFF 		.word	-4503841
 9431 6f00 168E7D01 		.word	25005590
 9432 6f04 9AB38AFF 		.word	-7687270
 9433 6f08 76B02A01 		.word	19574902
 9434 6f0c 0AAE9900 		.word	10071562
 9435 6f10 9C5C6600 		.word	6708380
ARM GAS  C:\Users\NIGHDR~1\AppData\Local\Temp\ccrnUt9g.s 			page 178


 9436 6f14 A80DA1FF 		.word	-6222424
 9437 6f18 8F102000 		.word	2101391
 9438 6f1c FAC5B4FF 		.word	-4930054
 9439 6f20 CBA32C01 		.word	19702731
 9440 6f24 57202400 		.word	2367575
 9441 6f28 A19914FF 		.word	-15427167
 9442 6f2c 7BFC0F00 		.word	1047675
 9443 6f30 19E35000 		.word	5301017
 9444 6f34 3C588E00 		.word	9328700
 9445 6f38 1116C901 		.word	29955601
 9446 6f3c 9ACD4DFF 		.word	-11678310
 9447 6f40 273F2F00 		.word	3096359
 9448 6f44 087A8D00 		.word	9271816
 9449 6f48 8017B6FE 		.word	-21620864
 9450 6f4c CC2713FF 		.word	-15521844
 9451 6f50 04701DFF 		.word	-14847996
 9452 6f54 17248CFF 		.word	-7592937
 9453 6f58 D2EA74FE 		.word	-25892142
 9454 6f5c 35323FFF 		.word	-12635595
 9455 6f60 79AB68FF 		.word	-9917575
 9456 6f64 A0DB5E00 		.word	6216608
 9457 6f68 57520EFE 		.word	-32615849
 9458 6f6c E72A0500 		.word	338663
 9459 6f70 A58B7FFE 		.word	-25195611
 9460 6f74 564E2600 		.word	2510422
 9461 6f78 823C42FE 		.word	-29213566
 9462 6f7c CB1E2DFF 		.word	-13820213
 9463 6f80 2EC47A01 		.word	24822830
 9464 6f84 F935A2FF 		.word	-6146567
 9465 6f88 888F67FE 		.word	-26767480
 9466 6f8c D7D27200 		.word	7525079
 9467 6f90 E707A0FE 		.word	-23066649
 9468 6f94 A9982AFF 		.word	-13985623
 9469 6f98 6F2DF600 		.word	16133487
 9470 6f9c 8E8387FF 		.word	-7896178
 9471 6fa0 8347CCFF 		.word	-3389565
 9472 6fa4 24E20B00 		.word	778788
 9473 6fa8 001CF2FF 		.word	-910336
 9474 6fac E18AD5FF 		.word	-2782495
 9475 6fb0 F72ED8FE 		.word	-19386633
 9476 6fb4 F503B700 		.word	11994101
 9477 6fb8 6CFC4A01 		.word	21691500
 9478 6fbc CE1A30FF 		.word	-13624626
 9479 6fc0 CD36F6FF 		.word	-641331
 9480 6fc4 D3C624FF 		.word	-14367021
 9481 6fc8 79233200 		.word	3285881
 9482 6fcc 34D8CAFF 		.word	-3483596
 9483 6fd0 268B81FE 		.word	-25064666
 9484 6fd4 F2499400 		.word	9718258
 9485 6fd8 43E78DFF 		.word	-7477437
 9486 6fdc 2A2FCC00 		.word	13381418
 9487 6fe0 4E741901 		.word	18445390
 9488 6fe4 04E1BFFF 		.word	-4202236
 9489 6fe8 0693E400 		.word	14979846
 9490 6fec 3A58B100 		.word	11622458
 9491 6ff0 7AA5E5FF 		.word	-1727110
 9492 6ff4 FC53C9FF 		.word	-3582980
ARM GAS  C:\Users\NIGHDR~1\AppData\Local\Temp\ccrnUt9g.s 			page 179


 9493 6ff8 E0A76001 		.word	23111648
 9494 6ffc B1B89EFF 		.word	-6375247
 9495 7000 F269B301 		.word	28535282
 9496 7004 F8C6F000 		.word	15779576
 9497 7008 8542CB01 		.word	30098053
 9498 700c FE242F00 		.word	3089662
 9499 7010 2D1873FF 		.word	-9234387
 9500 7014 773EFE00 		.word	16662135
 9501 7018 C4E1BAFE 		.word	-21306940
 9502 701c 7B8DAC00 		.word	11308411
 9503 7020 1A5529FF 		.word	-14068454
 9504 7024 E26FB700 		.word	12021730
 9505 7028 D5E79700 		.word	9955285
 9506 702c 043B07FF 		.word	-16303356
 9507 7030 EE8A9400 		.word	9734894
 9508 7034 429321FF 		.word	-14576830
 9509 7038 1FF68DFF 		.word	-7473633
 9510 703c D18D74FF 		.word	-9138735
 9511 7040 68701F00 		.word	2060392
 9512 7044 58A1AC00 		.word	11313496
 9513 7048 53D7E6FE 		.word	-18426029
 9514 704c 2F6F9700 		.word	9924399
 9515 7050 2D263401 		.word	20194861
 9516 7054 842DCC00 		.word	13380996
 9517 7058 8A806DFE 		.word	-26378102
 9518 705c E97586FF 		.word	-7965207
 9519 7060 F3BEADFE 		.word	-22167821
 9520 7064 F1ECF000 		.word	15789297
 9521 7068 527FECFE 		.word	-18055342
 9522 706c 28DFA1FF 		.word	-6168792
 9523 7070 6EB6E1FF 		.word	-1984914
 9524 7074 7BAEEF00 		.word	15707771
 9525 7078 87F29101 		.word	26342023
 9526 707c 33D19A00 		.word	10146099
 9527 7080 960373FE 		.word	-26016874
 9528 7084 D9A4FCFF 		.word	-219943
 9529 7088 379C4501 		.word	21339191
 9530 708c 545EFFFF 		.word	-41388
 9531 7090 E8492D01 		.word	19745256
 9532 7094 1413D4FF 		.word	-2878700
 9533 7098 60C53BFE 		.word	-29637280
 9534 709c 60FB2100 		.word	2227040
 9535 70a0 26C74901 		.word	21612326
 9536 70a4 40ACF7FF 		.word	-545728
 9537 70a8 757438FF 		.word	-13077387
 9538 70ac E4111200 		.word	1184228
 9539 70b0 3E8A6701 		.word	23562814
 9540 70b4 F6E5A4FF 		.word	-5970442
 9541 70b8 F476C9FE 		.word	-20351244
 9542 70bc 56209FFF 		.word	-6348714
 9543 70c0 6D228901 		.word	25764461
 9544 70c4 55D3BA00 		.word	12243797
 9545 70c8 0AC1C1FE 		.word	-20856566
 9546 70cc 7AC2B100 		.word	11649658
 9547 70d0 7AEE66FF 		.word	-10031494
 9548 70d4 A2DAAB00 		.word	11262626
 9549 70d8 6CD9A101 		.word	27384172
ARM GAS  C:\Users\NIGHDR~1\AppData\Local\Temp\ccrnUt9g.s 			page 180


 9550 70dc 9EAA2200 		.word	2271902
 9551 70e0 B02F9B01 		.word	26947504
 9552 70e4 B5E40BFF 		.word	-15997771
 9553 70e8 089C0000 		.word	39944
 9554 70ec 104B5D00 		.word	6114064
 9555 70f0 CE62FF01 		.word	33514190
 9556 70f4 3A9A2300 		.word	2333242
 9557 70f8 0CF3B8FE 		.word	-21433588
 9558 70fc 437542FF 		.word	-12421821
 9559 7100 E6E57B00 		.word	8119782
 9560 7104 C92A6E00 		.word	7219913
 9561 7108 86E4B2FE 		.word	-21830522
 9562 710c BA6C76FF 		.word	-9016134
 9563 7110 3A139AFF 		.word	-6679750
 9564 7114 52A93EFF 		.word	-12670638
 9565 7118 728F7301 		.word	24350578
 9566 711c EFC432FF 		.word	-13450001
 9567 7120 AD30C1FF 		.word	-4116307
 9568 7124 930254FF 		.word	-11271533
 9569 7128 968693FE 		.word	-23886186
 9570 712c 5FE84900 		.word	4843615
 9571 7130 6DE334FE 		.word	-30088339
 9572 7134 BF890A00 		.word	690623
 9573 7138 28CC1EFE 		.word	-31536088
 9574 713c 4C3461FF 		.word	-10406836
 9575 7140 A4EB7E00 		.word	8317860
 9576 7144 FE7CBC00 		.word	12352766
 9577 7148 4AB61501 		.word	18200138
 9578 714c 791D23FF 		.word	-14475911
 9579 7150 F11E07FE 		.word	-33087759
 9580 7154 55DAD6FF 		.word	-2696619
 9581 7158 075496FE 		.word	-23702521
 9582 715c 511B75FF 		.word	-9102511
 9583 7160 A09F98FE 		.word	-23552096
 9584 7164 4218DDFF 		.word	-2287550
 9585 7168 E30A3C01 		.word	20712163
 9586 716c 8D876600 		.word	6719373
 9587 7170 D0BD9601 		.word	26656208
 9588 7174 75B35C00 		.word	6075253
 9589 7178 841688FF 		.word	-7858556
 9590 717c 78C71C00 		.word	1886072
 9591 7180 15814FFE 		.word	-28344043
 9592 7184 B6094100 		.word	4262326
 9593 7188 DAA3A900 		.word	11117530
 9594 718c F693C6FF 		.word	-3763210
 9595 7190 6B269001 		.word	26224235
 9596 7194 4EAFCDFF 		.word	-3297458
 9597 7198 D605FAFE 		.word	-17168938
 9598 719c 2F581DFF 		.word	-14854097
 9599 71a0 A42FCCFF 		.word	-3395676
 9600 71a4 2B3706FF 		.word	-16369877
 9601 71a8 8386CFFE 		.word	-19954045
 9602 71ac 7464D600 		.word	14050420
 9603 71b0 608C4B01 		.word	21728352
 9604 71b4 6ADC9000 		.word	9493610
 9605 71b8 C3201C01 		.word	18620611
 9606 71bc AC5105FF 		.word	-16428628
ARM GAS  C:\Users\NIGHDR~1\AppData\Local\Temp\ccrnUt9g.s 			page 181


 9607 71c0 C7B334FF 		.word	-13323321
 9608 71c4 2554CB00 		.word	13325349
 9609 71c8 AA70AE00 		.word	11432106
 9610 71cc 0B045B00 		.word	5964811
 9611 71d0 45F41B01 		.word	18609221
 9612 71d4 75835C00 		.word	6062965
 9613 71d8 2198AFFF 		.word	-5269471
 9614 71dc 8C996BFF 		.word	-9725556
 9615 71e0 FB872BFE 		.word	-30701573
 9616 71e4 578A04FF 		.word	-16479657
 9617 71e8 C6EA93FE 		.word	-23860538
 9618 71ec 799854FF 		.word	-11233159
 9619 71f0 CD659B01 		.word	26961357
 9620 71f4 9D091900 		.word	1640861
 9621 71f8 486A11FE 		.word	-32413112
 9622 71fc 6C9900FF 		.word	-16737940
 9623 7200 BDE5BA00 		.word	12248509
 9624 7204 C108B0FF 		.word	-5240639
 9625 7208 AE95D100 		.word	13735342
 9626 720c EE821D00 		.word	1934062
 9627 7210 E9D67E01 		.word	25089769
 9628 7214 3DE26600 		.word	6742589
 9629 7218 39A30401 		.word	17081145
 9630 721c C66F33FF 		.word	-13406266
 9631 7220 2D4F4E01 		.word	21909293
 9632 7224 73D20AFF 		.word	-16067981
 9633 7228 DA0919FF 		.word	-15136294
 9634 722c 9E8BC6FF 		.word	-3765346
 9635 7230 D352BBFE 		.word	-21277997
 9636 7234 50855300 		.word	5473616
 9637 7238 9D81E601 		.word	31883677
 9638 723c F38586FF 		.word	-7961101
 9639 7240 28881000 		.word	1083432
 9640 7244 4D6B4FFF 		.word	-11572403
 9641 7248 B7555C01 		.word	22828471
 9642 724c B1CCCA00 		.word	13290673
 9643 7250 A34793FF 		.word	-7125085
 9644 7254 9845BE00 		.word	12469656
 9645 7258 AC33BC01 		.word	29111212
 9646 725c FAD2ACFF 		.word	-5451014
 9647 7260 D3F27101 		.word	24244947
 9648 7264 59591AFF 		.word	-15050407
 9649 7268 40426FFE 		.word	-26262976
 9650 726c 74982A00 		.word	2791540
 9651 7270 A1271BFF 		.word	-14997599
 9652 7274 3650FE00 		.word	16666678
 9653 7278 6AD17301 		.word	24367466
 9654 727c 677C6100 		.word	6388839
 9655 7280 DDE662FF 		.word	-10295587
 9656 7284 1FE70600 		.word	452383
 9657 7288 B2C078FE 		.word	-25640782
 9658 728c 0FD9CBFF 		.word	-3417841
 9659 7290 7C9E4F00 		.word	5217916
 9660 7294 7091F700 		.word	16224624
 9661 7298 5CFA3001 		.word	19987036
 9662 729c A3B5C1FF 		.word	-4082269
 9663 72a0 252F8EFE 		.word	-24236251
ARM GAS  C:\Users\NIGHDR~1\AppData\Local\Temp\ccrnUt9g.s 			page 182


 9664 72a4 90BDA5FF 		.word	-5915248
 9665 72a8 2E92F000 		.word	15766062
 9666 72ac 064B8000 		.word	8407814
 9667 72b0 299DC8FE 		.word	-20406999
 9668 72b4 5779D500 		.word	13990231
 9669 72b8 0171EC00 		.word	15495425
 9670 72bc 052DFA00 		.word	16395525
 9671 72c0 900C5200 		.word	5377168
 9672 72c4 1F6CE700 		.word	15166495
 9673 72c8 E1EF77FF 		.word	-8917023
 9674 72cc A707BDFF 		.word	-4388953
 9675 72d0 BBE484FF 		.word	-8067909
 9676 72d4 6EBD2200 		.word	2276718
 9677 72d8 5E2CCC01 		.word	30157918
 9678 72dc A234C500 		.word	12924066
 9679 72e0 4EBCF1FE 		.word	-17712050
 9680 72e4 39148D00 		.word	9245753
 9681 72e8 F4922F01 		.word	19895028
 9682 72ec CE643300 		.word	3368142
 9683 72f0 7D6B94FE 		.word	-23827587
 9684 72f4 1BC34D00 		.word	5096219
 9685 72f8 98FD5A01 		.word	22740376
 9686 72fc 078F90FF 		.word	-7303417
 9687 7300 33251F00 		.word	2041139
 9688 7304 227726FF 		.word	-14256350
 9689 7308 07C57600 		.word	7783687
 9690 730c 99BCD300 		.word	13876377
 9691 7310 971474FE 		.word	-25946985
 9692 7314 F54134FF 		.word	-13352459
 9693 7318 B4FD6E01 		.word	24051124
 9694 731c 2FB1D100 		.word	13742383
 9695 7320 A16311FF 		.word	-15637599
 9696 7324 76DECA00 		.word	13295222
 9697 7328 7DB3FC01 		.word	33338237
 9698 732c 7B367EFF 		.word	-8505733
 9699 7330 9139BF00 		.word	12532113
 9700 7334 37BA7900 		.word	7977527
 9701 7338 0AF38A00 		.word	9106186
 9702 733c CDD3E5FF 		.word	-1715251
 9703 7340 7D9CF1FE 		.word	-17720195
 9704 7344 949CB9FF 		.word	-4612972
 9705 7348 E313BCFF 		.word	-4451357
 9706 734c 7C2920FF 		.word	-14669444
 9707 7350 1F22CEFE 		.word	-20045281
 9708 7354 11395300 		.word	5454097
 9709 7358 CC1625FF 		.word	-14346548
 9710 735c 2A606200 		.word	6447146
 9711 7360 7766B801 		.word	28862071
 9712 7364 03BE1C00 		.word	1883651
 9713 7368 6E52DAFF 		.word	-2469266
 9714 736c C8CCC0FF 		.word	-4141880
 9715 7370 C9917600 		.word	7770569
 9716 7374 75CC9200 		.word	9620597
 9717 7378 84206201 		.word	23208068
 9718 737c C0C27900 		.word	7979712
 9719 7380 6AA1F801 		.word	33071466
 9720 7384 ED587C00 		.word	8149229
ARM GAS  C:\Users\NIGHDR~1\AppData\Local\Temp\ccrnUt9g.s 			page 183


 9721 7388 17D41A00 		.word	1758231
 9722 738c CDAB5AFF 		.word	-10834995
 9723 7390 F830D801 		.word	30945528
 9724 7394 8D25E6FF 		.word	-1694323
 9725 7398 7CCB00FE 		.word	-33502340
 9726 739c 9EA81EFF 		.word	-14767970
 9727 73a0 D6F81500 		.word	1439958
 9728 73a4 70BB07FF 		.word	-16270480
 9729 73a8 4B85EFFF 		.word	-1079989
 9730 73ac 4AE3F3FF 		.word	-793782
 9731 73b0 FA934600 		.word	4625402
 9732 73b4 D678A200 		.word	10647766
 9733 73b8 A709B3FF 		.word	-5043801
 9734 73bc 169E1200 		.word	1220118
 9735 73c0 DA4DD101 		.word	30494170
 9736 73c4 616D51FF 		.word	-11440799
 9737 73c8 F421B3FF 		.word	-5037580
 9738 73cc 393439FF 		.word	-13028295
 9739 73d0 41ACD2FF 		.word	-2970559
 9740 73d4 F947D1FF 		.word	-3061767
 9741 73d8 8EA9EE00 		.word	15640974
 9742 73dc 9EBD99FF 		.word	-6701666
 9743 73e0 AEFE67FE 		.word	-26739026
 9744 73e4 62210E00 		.word	926050
 9745 73e8 8D4CE6FF 		.word	-1684339
 9746 73ec 718B34FF 		.word	-13333647
 9747 73f0 0F3AD400 		.word	13908495
 9748 73f4 A8D7C9FF 		.word	-3549272
 9749 73f8 F8CCD701 		.word	30919928
 9750 73fc DF44A0FF 		.word	-6273825
 9751 7400 399AB7FE 		.word	-21521863
 9752 7404 2FE77900 		.word	7989039
 9753 7408 6AA68900 		.word	9021034
 9754 740c 51888A00 		.word	9078865
 9755 7410 A52B3300 		.word	3353509
 9756 7414 E78B3D00 		.word	4033511
 9757 7418 395F3BFE 		.word	-29663431
 9758 741c 766219FF 		.word	-15113610
 9759 7420 973FEC01 		.word	32259991
 9760 7424 5EBEFAFF 		.word	-344482
 9761 7428 A9B97201 		.word	24295849
 9762 742c 05FA3AFF 		.word	-12912123
 9763 7430 4B696101 		.word	23161163
 9764 7434 D7DF8600 		.word	8839127
 9765 7438 7163A301 		.word	27485041
 9766 743c 803E7000 		.word	7356032
 9767 7440 636A9300 		.word	9661027
 9768 7444 A3C30A00 		.word	705443
 9769 7448 21CDB600 		.word	11980065
 9770 744c D60EAEFF 		.word	-5370154
 9771 7450 8126E7FF 		.word	-1628543
 9772 7454 35B6DF00 		.word	14661173
 9773 7458 622A9FFF 		.word	-6346142
 9774 745c F70D2800 		.word	2625015
 9775 7460 BCD2B101 		.word	28431036
 9776 7464 061500FF 		.word	-16771834
 9777 7468 FF3D94FE 		.word	-23839233
ARM GAS  C:\Users\NIGHDR~1\AppData\Local\Temp\ccrnUt9g.s 			page 184


 9778 746c 892D81FF 		.word	-8311415
 9779 7470 591A74FE 		.word	-25945511
 9780 7474 7E267200 		.word	7480958
 9781 7478 FB32F2FE 		.word	-17681669
 9782 747c 798680FF 		.word	-8354183
 9783 7480 CCF9A7FE 		.word	-22545972
 9784 7484 A5EBD700 		.word	14150565
 9785 7488 CAB1F300 		.word	15970762
 9786 748c 858D3E00 		.word	4099461
 9787 7490 F082BE01 		.word	29262576
 9788 7494 6EAFFF00 		.word	16756590
 9789 7498 00149201 		.word	26350592
 9790 749c 25D279FF 		.word	-8793563
 9791 74a0 07278200 		.word	8529671
 9792 74a4 8EFA54FF 		.word	-11208050
 9793 74a8 8DC8CF00 		.word	13617293
 9794 74ac 095F68FF 		.word	-9937143
 9795 74b0 0BF4AE00 		.word	11465739
 9796 74b4 86E87E00 		.word	8317062
 9797 74b8 A7017BFE 		.word	-25493081
 9798 74bc 10C195FF 		.word	-6962928
 9799 74c0 E8E9EF01 		.word	32500200
 9800 74c4 D54670FF 		.word	-9419051
 9801 74c8 FC74A0FE 		.word	-23038724
 9802 74cc F2DEDCFF 		.word	-2302222
 9803 74d0 CD55E300 		.word	14898637
 9804 74d4 07B93A00 		.word	3848455
 9805 74d8 76F73F01 		.word	20969334
 9806 74dc 744DB1FF 		.word	-5157516
 9807 74e0 3EF5C8FE 		.word	-20384450
 9808 74e4 3F1225FF 		.word	-14347713
 9809 74e8 6B35E8FE 		.word	-18336405
 9810 74ec 32DDD300 		.word	13884722
 9811 74f0 A2DB07FE 		.word	-33039454
 9812 74f4 025E2B00 		.word	2842114
 9813 74f8 B63EB6FE 		.word	-21610826
 9814 74fc A04EC8FF 		.word	-3649888
 9815 7500 878CAA00 		.word	11177095
 9816 7504 EBB8E400 		.word	14989547
 9817 7508 AF358AFE 		.word	-24496721
 9818 750c 503A4DFF 		.word	-11716016
 9819 7510 98C90201 		.word	16959896
 9820 7514 3FC42200 		.word	2278463
 9821 7518 051EB800 		.word	12066309
 9822 751c ABB09A00 		.word	10137771
 9823 7520 793BCE00 		.word	13515641
 9824 7524 26632700 		.word	2581286
 9825 7528 AC504DFE 		.word	-28487508
 9826 752c 00869700 		.word	9930240
 9827 7530 BA21F1FE 		.word	-17751622
 9828 7534 5EFDDFFF 		.word	-2097826
 9829 7538 2C72FC00 		.word	16544300
 9830 753c 6C7E39FF 		.word	-13009300
 9831 7540 C9280DFF 		.word	-15914807
 9832 7544 27E51BFF 		.word	-14949081
 9833 7548 27EF1701 		.word	18345767
 9834 754c 977933FF 		.word	-13403753
ARM GAS  C:\Users\NIGHDR~1\AppData\Local\Temp\ccrnUt9g.s 			page 185


 9835 7550 9996F800 		.word	16291481
 9836 7554 0AEAAEFF 		.word	-5314038
 9837 7558 76F604FE 		.word	-33229194
 9838 755c C8F52600 		.word	2553288
 9839 7560 45A1F201 		.word	32678213
 9840 7564 10B29600 		.word	9875984
 9841 7568 71388200 		.word	8534129
 9842 756c AB1F6900 		.word	6889387
 9843 7570 1A586CFF 		.word	-9676774
 9844 7574 312A6A00 		.word	6957617
 9845 7578 FBA94200 		.word	4368891
 9846 757c 455D9500 		.word	9788741
 9847 7580 1439FE00 		.word	16660756
 9848 7584 A4196F00 		.word	7281060
 9849 7588 5ABC5AFF 		.word	-10830758
 9850 758c CC04C500 		.word	12911820
 9851 7590 28D53201 		.word	20108584
 9852 7594 D46084FF 		.word	-8101676
 9853 7598 588AB4FE 		.word	-21722536
 9854 759c E4927CFF 		.word	-8613148
 9855 75a0 B8F6F700 		.word	16250552
 9856 75a4 417556FF 		.word	-11111103
 9857 75a8 FD66D2FE 		.word	-19765507
 9858 75ac FE792400 		.word	2390526
 9859 75b0 897303FF 		.word	-16551031
 9860 75b4 3C18D800 		.word	14161980
 9861 75b8 86121D00 		.word	1905286
 9862 75bc 3BE26100 		.word	6414907
 9863 75c0 B08E4700 		.word	4689584
 9864 75c4 07D1A100 		.word	10604807
 9865 75c8 BD5433FE 		.word	-30190403
 9866 75cc 9BFA4800 		.word	4782747
 9867 75d0 D554EBFF 		.word	-1354539
 9868 75d4 2DDEE000 		.word	14736941
 9869 75d8 EE948FFF 		.word	-7367442
 9870 75dc AA2A35FF 		.word	-13292886
 9871 75e0 4EA77500 		.word	7710542
 9872 75e4 BA0028FF 		.word	-14155590
 9873 75e8 7DB167FF 		.word	-9981571
 9874 75ec 45E14200 		.word	4383045
 9875 75f0 E3075801 		.word	22546403
 9876 75f4 4BAC0600 		.word	437323
 9877 75f8 A92DE301 		.word	31665577
 9878 75fc 102446FF 		.word	-12180464
 9879 7600 320209FF 		.word	-16186830
 9880 7604 8BC11600 		.word	1491339
 9881 7608 8FB7E7FE 		.word	-18368625
 9882 760c DA453200 		.word	3294682
 9883 7610 EC38A101 		.word	27343084
 9884 7614 D5832A00 		.word	2786261
 9885 7618 8A912CFE 		.word	-30633590
 9886 761c 88E528FF 		.word	-14097016
 9887 7620 313F23FF 		.word	-14467279
 9888 7624 3D91F5FF 		.word	-683715
 9889 7628 65C002FE 		.word	-33374107
 9890 762c E8A77100 		.word	7448552
 9891 7630 98682601 		.word	19294360
ARM GAS  C:\Users\NIGHDR~1\AppData\Local\Temp\ccrnUt9g.s 			page 186


 9892 7634 79B9DA00 		.word	14334329
 9893 7638 798BD3FE 		.word	-19690631
 9894 763c 77F02300 		.word	2355319
 9895 7640 41BDD9FE 		.word	-19284671
 9896 7644 BBB3A2FF 		.word	-6114373
 9897 7648 A0BBE600 		.word	15121312
 9898 764c 3EF80EFF 		.word	-15796162
 9899 7650 3C4E6100 		.word	6377020
 9900 7654 FFF7A3FF 		.word	-6031361
 9901 7658 E13B5BFF 		.word	-10798111
 9902 765c 6B473AFF 		.word	-12957845
 9903 7660 F12F2101 		.word	18952177
 9904 7664 3275EC00 		.word	15496498
 9905 7668 DBB13FFE 		.word	-29380133
 9906 766c F45AB300 		.word	11754228
 9907 7670 23C2D7FF 		.word	-2637277
 9908 7674 BD4332FF 		.word	-13483075
 9909 7678 17878100 		.word	8488727
 9910 767c 68BD25FF 		.word	-14303896
 9911 7680 B939C200 		.word	12728761
 9912 7684 233EE7FF 		.word	-1622493
 9913 7688 DCF86C00 		.word	7141596
 9914 768c 0CE7B200 		.word	11724556
 9915 7690 8F505B01 		.word	22761615
 9916 7694 835D65FF 		.word	-10134141
 9917 7698 90270201 		.word	16918416
 9918 769c FFFAB200 		.word	11729663
 9919 76a0 0511ECFE 		.word	-18083579
 9920 76a4 8B202E00 		.word	3022987
 9921 76a8 CCBC26FE 		.word	-31015732
 9922 76ac F57334FF 		.word	-13339659
 9923 76b0 BF7149FE 		.word	-28741185
 9924 76b4 BF6C45FF 		.word	-12227393
 9925 76b8 1645F501 		.word	32851222
 9926 76bc 17CBB200 		.word	11717399
 9927 76c0 AA63AA00 		.word	11166634
 9928 76c4 41F86F00 		.word	7338049
 9929 76c8 256C99FF 		.word	-6722523
 9930 76cc 40254500 		.word	4531520
 9931 76d0 00583EFE 		.word	-29468672
 9932 76d4 599490FF 		.word	-7302055
 9933 76d8 BF44E001 		.word	31474879
 9934 76dc F1273500 		.word	3483633
 9935 76e0 29CBEDFF 		.word	-1193175
 9936 76e4 917EC2FF 		.word	-4030831
 9937 76e8 DD2AFDFF 		.word	-185635
 9938 76ec 19639700 		.word	9921305
 9939 76f0 61FDDF01 		.word	31456609
 9940 76f4 4A7331FF 		.word	-13536438
 9941 76f8 06AF48FF 		.word	-12013818
 9942 76fc 3BB0CB00 		.word	13348923
 9943 7700 7CB7F901 		.word	33142652
 9944 7704 E4E46300 		.word	6546660
 9945 7708 810CCFFE 		.word	-19985279
 9946 770c A8C0C3FF 		.word	-3948376
 9947 7710 CCB010FE 		.word	-32460596
 9948 7714 98EAAB00 		.word	11266712
ARM GAS  C:\Users\NIGHDR~1\AppData\Local\Temp\ccrnUt9g.s 			page 187


 9949 7718 4D2555FF 		.word	-11197107
 9950 771c 217887FF 		.word	-7899103
 9951 7720 8EC2E301 		.word	31703694
 9952 7724 1FD63A00 		.word	3855903
 9953 7728 D5BB7DFF 		.word	-8537131
 9954 772c E82E3CFF 		.word	-12833048
 9955 7730 BE742AFE 		.word	-30772034
 9956 7734 97B213FF 		.word	-15486313
 9957 7738 333EEDFE 		.word	-18006477
 9958 773c CCECC100 		.word	12709068
 9959 7740 C2E83C00 		.word	3991746
 9960 7744 AC229DFF 		.word	-6479188
 9961 7748 BD10B8FE 		.word	-21491523
 9962 774c 67035FFF 		.word	-10550425
 9963 7750 8DE924FE 		.word	-31135347
 9964 7754 29190BFF 		.word	-16049879
 9965 7758 15C3A600 		.word	10928917
 9966 775c 76F52D00 		.word	3011958
 9967 7760 43D595FF 		.word	-6957757
 9968 7764 9F0C12FF 		.word	-15594337
 9969 7768 BBA4E301 		.word	31696059
 9970 776c A0190500 		.word	334240
 9971 7770 0C4EC301 		.word	29576716
 9972 7774 2BC5E100 		.word	14796075
 9973 7778 308E29FE 		.word	-30831056
 9974 777c C49B3CFF 		.word	-12805180
 9975 7780 DFC71201 		.word	18008031
 9976 7784 91889C00 		.word	10258577
 9977 7788 FC75A9FE 		.word	-22448644
 9978 778c 91E2EE00 		.word	15655569
 9979 7790 EF176B00 		.word	7018479
 9980 7794 6DB5BCFF 		.word	-4410003
 9981 7798 E67031FE 		.word	-30314266
 9982 779c 49AAEDFF 		.word	-1201591
 9983 77a0 E7B7E3FF 		.word	-1853465
 9984 77a4 50DC1400 		.word	1367120
 9985 77a8 C26B7F01 		.word	25127874
 9986 77ac 7FCD6500 		.word	6671743
 9987 77b0 2E34C501 		.word	29701166
 9988 77b4 D2AB24FF 		.word	-14373934
 9989 77b8 58035AFF 		.word	-10878120
 9990 77bc 38978D00 		.word	9279288
 9991 77c0 60BBFFFF 		.word	-17568
 9992 77c4 2A4EC800 		.word	13127210
 9993 77c8 FE464601 		.word	21382910
 9994 77cc F47DA800 		.word	11042292
 9995 77d0 CC448A01 		.word	25838796
 9996 77d4 7CD74600 		.word	4642684
 9997 77d8 6642C8FE 		.word	-20430234
 9998 77dc 1134E400 		.word	14955537
 9999 77e0 75DC8FFE 		.word	-24126347
 10000 77e4 CBF87B00 		.word	8124619
 10001 77e8 3812AEFF 		.word	-5369288
 10002 77ec BA97A4FF 		.word	-5990470
 10003 77f0 33E8D001 		.word	30468147
 10004 77f4 A0E42BFF 		.word	-13900640
 10005 77f8 F91D1901 		.word	18423289
ARM GAS  C:\Users\NIGHDR~1\AppData\Local\Temp\ccrnUt9g.s 			page 188


 10006 77fc 44BE3F00 		.word	4177476
 10007              		.type	d, %object
 10008              		.size	d, 40
 10009              	d:
 10010 7800 B67859FF 		.word	-10913610
 10011 7804 8572D300 		.word	13857413
 10012 7808 BD6E15FF 		.word	-15372611
 10013 780c 0F0A6A00 		.word	6949391
 10014 7810 29C00100 		.word	114729
 10015 7814 98E879FF 		.word	-8787816
 10016 7818 BC3CA0FF 		.word	-6275908
 10017 781c 9971CEFF 		.word	-3247719
 10018 7820 00B7E2FE 		.word	-18696448
 10019 7824 B40D48FF 		.word	-12055116
 10020              		.type	sqrtm1, %object
 10021              		.size	sqrtm1, 40
 10022              	sqrtm1:
 10023 7828 B0A00EFE 		.word	-32595792
 10024 782c D3C986FF 		.word	-7943725
 10025 7830 9E188F00 		.word	9377950
 10026 7834 7F693500 		.word	3500415
 10027 7838 600CBD00 		.word	12389472
 10028 783c A7D7FBFF 		.word	-272473
 10029 7840 9F4C80FE 		.word	-25146209
 10030 7844 6A65E1FF 		.word	-2005654
 10031 7848 1EFC0400 		.word	326686
 10032 784c 920CAE00 		.word	11406482
 10033              		.type	d2, %object
 10034              		.size	d2, 40
 10035              	d2:
 10036 7850 59F1B2FE 		.word	-21827239
 10037 7854 0AE5A6FF 		.word	-5839606
 10038 7858 7BDD2AFE 		.word	-30745221
 10039 785c 1E14D400 		.word	13898782
 10040 7860 52800300 		.word	229458
 10041 7864 30D1F300 		.word	15978800
 10042 7868 777940FF 		.word	-12551817
 10043 786c 32E39CFF 		.word	-6495438
 10044 7870 006EC501 		.word	29715968
 10045 7874 671B9000 		.word	9444199
 10046              		.type	Bi, %object
 10047              		.size	Bi, 960
 10048              	Bi:
 10049 7878 853B8C01 		.word	25967493
 10050 787c BDF124FF 		.word	-14356035
 10051 7880 F825C301 		.word	29566456
 10052 7884 60DC3700 		.word	3660896
 10053 7888 B74C3EFF 		.word	-12694345
 10054 788c C3423D00 		.word	4014787
 10055 7890 324CA401 		.word	27544626
 10056 7894 E1A44CFF 		.word	-11754271
 10057 7898 4C3DA3FF 		.word	-6079156
 10058 789c 753E1F00 		.word	2047605
 10059 78a0 519140FF 		.word	-12545711
 10060 78a4 76410E00 		.word	934262
 10061 78a8 A273D6FF 		.word	-2722910
 10062 78ac 068A2E00 		.word	3049990
ARM GAS  C:\Users\NIGHDR~1\AppData\Local\Temp\ccrnUt9g.s 			page 189


 10063 78b0 7CE6F4FF 		.word	-727428
 10064 78b4 0A8A8F00 		.word	9406986
 10065 78b8 341AC200 		.word	12720692
 10066 78bc B8F44C00 		.word	5043384
 10067 78c0 818F2901 		.word	19500929
 10068 78c4 BEF413FF 		.word	-15469378
 10069 78c8 7BAA7AFF 		.word	-8738181
 10070 78cc 62814400 		.word	4489570
 10071 78d0 79D59300 		.word	9688441
 10072 78d4 56651EFF 		.word	-14785194
 10073 78d8 A1679B00 		.word	10184609
 10074 78dc 8C5943FF 		.word	-12363380
 10075 78e0 EFE5BE01 		.word	29287919
 10076 78e4 430BB500 		.word	11864899
 10077 78e8 C6F089FE 		.word	-24514362
 10078 78ec EE45BCFF 		.word	-4438546
 10079 78f0 4397EE00 		.word	15636291
 10080 78f4 132A6CFF 		.word	-9688557
 10081 78f8 E5557101 		.word	24204773
 10082 78fc 324487FF 		.word	-7912398
 10083 7900 116A0900 		.word	616977
 10084 7904 326701FF 		.word	-16685262
 10085 7908 5001A801 		.word	27787600
 10086 790c 23981EFF 		.word	-14772189
 10087 7910 10A8B901 		.word	28944400
 10088 7914 3859E8FF 		.word	-1550024
 10089 7918 65D2FC00 		.word	16568933
 10090 791c 29FA4700 		.word	4717097
 10091 7920 CCAA4FFF 		.word	-11556148
 10092 7924 0E2EEFFF 		.word	-1102322
 10093 7928 504DEF00 		.word	15682896
 10094 792c BDD64BFF 		.word	-11807043
 10095 7930 118DF900 		.word	16354577
 10096 7934 26504CFF 		.word	-11775962
 10097 7938 BE557500 		.word	7689662
 10098 793c 56E4AA00 		.word	11199574
 10099 7940 9CD8D001 		.word	30464156
 10100 7944 C3CFA4FF 		.word	-5976125
 10101 7948 96424CFF 		.word	-11779434
 10102 794c AFE110FF 		.word	-15670865
 10103 7950 8D506201 		.word	23220365
 10104 7954 4CDBF200 		.word	15915852
 10105 7958 C6A27200 		.word	7512774
 10106 795c 2EDA9800 		.word	10017326
 10107 7960 9B2BF1FE 		.word	-17749093
 10108 7964 9BA068FF 		.word	-9920357
 10109 7968 33BBA500 		.word	10861363
 10110 796c 0211AF00 		.word	11473154
 10111 7970 4254A001 		.word	27284546
 10112 7974 F73A1E00 		.word	1981175
 10113 7978 234135FE 		.word	-30064349
 10114 797c 45ECBF00 		.word	12577861
 10115 7980 2D86F501 		.word	32867885
 10116 7984 A37BDD00 		.word	14515107
 10117 7988 206E14FF 		.word	-15438304
 10118 798c 3417A500 		.word	10819380
 10119 7990 BAD64700 		.word	4708026
ARM GAS  C:\Users\NIGHDR~1\AppData\Local\Temp\ccrnUt9g.s 			page 190


 10120 7994 E9B06000 		.word	6336745
 10121 7998 F2EF3601 		.word	20377586
 10122 799c 39598A00 		.word	9066809
 10123 79a0 530054FF 		.word	-11272109
 10124 79a4 88A06400 		.word	6594696
 10125 79a8 5C8E78FE 		.word	-25653668
 10126 79ac 687CBE00 		.word	12483688
 10127 79b0 B5B13EFF 		.word	-12668491
 10128 79b4 FA295500 		.word	5581306
 10129 79b8 98822A01 		.word	19563160
 10130 79bc 60FCF600 		.word	16186464
 10131 79c0 97973FFE 		.word	-29386857
 10132 79c4 EF853E00 		.word	4097519
 10133 79c8 20389C00 		.word	10237984
 10134 79cc 2DA7BDFF 		.word	-4348115
 10135 79d0 8E85B301 		.word	28542350
 10136 79d4 8356D300 		.word	13850243
 10137 79d8 BBB396FE 		.word	-23678021
 10138 79dc FAAA0EFF 		.word	-15815942
 10139 79e0 D2A34E00 		.word	5153746
 10140 79e4 25349700 		.word	9909285
 10141 79e8 634D1A00 		.word	1723747
 10142 79ec EE9CD5FF 		.word	-2777874
 10143 79f0 D5C0D101 		.word	30523605
 10144 79f4 492E5400 		.word	5516873
 10145 79f8 14412901 		.word	19480852
 10146 79fc 36CE4F00 		.word	5230134
 10147 7a00 C98392FE 		.word	-23952439
 10148 7a04 AA6F18FF 		.word	-15175766
 10149 7a08 B12132FE 		.word	-30269007
 10150 7a0c AB26CBFF 		.word	-3463509
 10151 7a10 4EF77400 		.word	7665486
 10152 7a14 D1DD9900 		.word	10083793
 10153 7a18 8580B201 		.word	28475525
 10154 7a1c 3A2C1900 		.word	1649722
 10155 7a20 C9273B01 		.word	20654025
 10156 7a24 BD13FC00 		.word	16520125
 10157 7a28 31E5D201 		.word	30598449
 10158 7a2c 75BB7500 		.word	7715701
 10159 7a30 B5B3B801 		.word	28881845
 10160 7a34 0072DB00 		.word	14381568
 10161 7a38 305E9300 		.word	9657904
 10162 7a3c F5293800 		.word	3680757
 10163 7a40 7D0DCCFE 		.word	-20181635
 10164 7a44 F4AD7700 		.word	7843316
 10165 7a48 2CDD20FE 		.word	-31400660
 10166 7a4c 54EA1400 		.word	1370708
 10167 7a50 F9A0C601 		.word	29794553
 10168 7a54 EC7EEAFF 		.word	-1409300
 10169 7a58 2F63A8FE 		.word	-22518993
 10170 7a5c AAE299FF 		.word	-6692182
 10171 7a60 66B3D800 		.word	14201702
 10172 7a64 E28D7AFF 		.word	-8745502
 10173 7a68 7A4299FE 		.word	-23510406
 10174 7a6c B6F58600 		.word	8844726
 10175 7a70 E3E41901 		.word	18474211
 10176 7a74 D639EBFF 		.word	-1361450
ARM GAS  C:\Users\NIGHDR~1\AppData\Local\Temp\ccrnUt9g.s 			page 191


 10177 7a78 D8AD38FF 		.word	-13062696
 10178 7a7c B5E7D200 		.word	13821877
 10179 7a80 77809DFF 		.word	-6455177
 10180 7a84 815F88FF 		.word	-7839871
 10181 7a88 6E7E3300 		.word	3374702
 10182 7a8c 02A9B7FF 		.word	-4740862
 10183 7a90 078262FE 		.word	-27098617
 10184 7a94 45B05EFF 		.word	-10571707
 10185 7a98 7404E301 		.word	31655028
 10186 7a9c D9F291FF 		.word	-7212327
 10187 7aa0 CAAD1F01 		.word	18853322
 10188 7aa4 690127FF 		.word	-14220951
 10189 7aa8 2EAF4500 		.word	4566830
 10190 7aac E42F3AFF 		.word	-12963868
 10191 7ab0 D7E045FE 		.word	-28974889
 10192 7ab4 CF3845FF 		.word	-12240689
 10193 7ab8 10FE8BFF 		.word	-7602672
 10194 7abc 17CFD4FF 		.word	-2830569
 10195 7ac0 CA147EFF 		.word	-8514358
 10196 7ac4 5FD560FF 		.word	-10431137
 10197 7ac8 09B02100 		.word	2207753
 10198 7acc C805CFFF 		.word	-3209784
 10199 7ad0 F12A80FE 		.word	-25154831
 10200 7ad4 2321C0FF 		.word	-4185821
 10201 7ad8 F8E5C401 		.word	29681144
 10202 7adc 81117800 		.word	7868801
 10203 7ae0 FB6797FF 		.word	-6854661
 10204 7ae4 073470FF 		.word	-9423865
 10205 7ae8 8C3842FF 		.word	-12437364
 10206 7aec 28E2F5FF 		.word	-663000
 10207 7af0 D94625FE 		.word	-31111463
 10208 7af4 ACD609FF 		.word	-16132436
 10209 7af8 48438601 		.word	25576264
 10210 7afc 92C0D6FF 		.word	-2703214
 10211 7b00 2C267000 		.word	7349804
 10212 7b04 44B84BFF 		.word	-11814844
 10213 7b08 CE5AFB00 		.word	16472782
 10214 7b0c 95EB8D00 		.word	9300885
 10215 7b10 B5AA3A00 		.word	3844789
 10216 7b14 74F4EF00 		.word	15725684
 10217 7b18 5C9D0200 		.word	171356
 10218 7b1c 66AD6200 		.word	6466918
 10219 7b20 E9896001 		.word	23103977
 10220 7b24 7F31CB00 		.word	13316479
 10221 7b28 059B9400 		.word	9739013
 10222 7b2c 179409FF 		.word	-16149481
 10223 7b30 D37A0C00 		.word	817875
 10224 7b34 22861AFF 		.word	-15038942
 10225 7b38 DBCC8800 		.word	8965339
 10226 7b3c 860829FF 		.word	-14088058
 10227 7b40 E0532BFE 		.word	-30714912
 10228 7b44 5519F700 		.word	16193877
 10229 7b48 6D7F00FE 		.word	-33521811
 10230 7b4c A9883000 		.word	3180713
 10231 7b50 EE77DBFF 		.word	-2394130
 10232 7b54 E7ADD500 		.word	14003687
 10233 7b58 CE12FEFE 		.word	-16903474
ARM GAS  C:\Users\NIGHDR~1\AppData\Local\Temp\ccrnUt9g.s 			page 192


 10234 7b5c 08BA07FF 		.word	-16270840
 10235 7b60 7E090701 		.word	17238398
 10236 7b64 6F2A4800 		.word	4729455
 10237 7b68 6F34ECFE 		.word	-18074513
 10238 7b6c 603F8D00 		.word	9256800
 10239 7b70 93BF7FFE 		.word	-25182317
 10240 7b74 CD4EC0FF 		.word	-4174131
 10241 7b78 0E6AED01 		.word	32336398
 10242 7b7c BBDB4C00 		.word	5036987
 10243 7b80 AFF3BBFE 		.word	-21236817
 10244 7b84 6959AD00 		.word	11360617
 10245 7b88 55195901 		.word	22616405
 10246 7b8c A2F39400 		.word	9761698
 10247 7b90 0276D1FE 		.word	-19827198
 10248 7b94 219E0900 		.word	630305
 10249 7b98 8BA32EFF 		.word	-13720693
 10250 7b9c 5D462800 		.word	2639453
 10251 7ba0 6C2A8EFE 		.word	-24237460
 10252 7ba4 6FFC8EFF 		.word	-7406481
 10253 7ba8 9BDF9000 		.word	9494427
 10254 7bac 33E5A7FF 		.word	-5774029
 10255 7bb0 49FC9BFF 		.word	-6554551
 10256 7bb4 5E740CFF 		.word	-15960994
 10257 7bb8 98A0DAFF 		.word	-2449256
 10258 7bbc 9CEE25FF 		.word	-14291300
 10259 7bc0 B3EACFFF 		.word	-3151181
 10260 7bc4 C500B3FF 		.word	-5046075
 10261 7bc8 9AA48D00 		.word	9282714
 10262 7bcc E1C46800 		.word	6866145
 10263 7bd0 0A2319FE 		.word	-31907062
 10264 7bd4 D1D4F2FF 		.word	-863023
 10265 7bd8 61FDDEFE 		.word	-18940575
 10266 7bdc B865E500 		.word	15033784
 10267 7be0 DE127F01 		.word	25105118
 10268 7be4 A48887FF 		.word	-7894876
 10269 7be8 1ECF8CFE 		.word	-24326370
 10270 7bec 9261F300 		.word	15950226
 10271 7bf0 81C01AFE 		.word	-31801215
 10272 7bf4 C95421FF 		.word	-14592823
 10273 7bf8 6F0A4EFF 		.word	-11662737
 10274 7bfc 9351B2FF 		.word	-5090925
 10275 7c00 04041800 		.word	1573892
 10276 7c04 A1EED7FF 		.word	-2625887
 10277 7c08 068D2100 		.word	2198790
 10278 7c0c 35D70EFF 		.word	-15804619
 10279 7c10 29B5D0FF 		.word	-3099351
 10280 7c14 E78B9D00 		.word	10324967
 10281 7c18 B3CBDDFF 		.word	-2241613
 10282 7c1c FFB97100 		.word	7453183
 10283 7c20 BDE2ACFF 		.word	-5446979
 10284 7c24 7142D6FF 		.word	-2735503
 10285 7c28 CA3E2DFF 		.word	-13812022
 10286 7c2c 664008FF 		.word	-16236442
 10287 7c30 4EAE10FE 		.word	-32461234
 10288 7c34 857544FF 		.word	-12290683
 10289              		.text
 10290              	.Letext0:
ARM GAS  C:\Users\NIGHDR~1\AppData\Local\Temp\ccrnUt9g.s 			page 193


 10291              		.file 2 "c:\\program files (x86)\\cypress\\psoc creator\\4.1\\psoc creator\\import\\gnu\\arm\\5.4.
 10292              		.file 3 "c:\\program files (x86)\\cypress\\psoc creator\\4.1\\psoc creator\\import\\gnu\\arm\\5.4.
 10293              		.file 4 "ge.h"
 10294              		.file 5 "precomp_data.h"
 10295              		.file 6 "fe.h"
 10296              		.section	.debug_info,"",%progbits
 10297              	.Ldebug_info0:
 10298 0000 14200000 		.4byte	0x2014
 10299 0004 0400     		.2byte	0x4
 10300 0006 00000000 		.4byte	.Ldebug_abbrev0
 10301 000a 04       		.byte	0x4
 10302 000b 01       		.uleb128 0x1
 10303 000c 4F000000 		.4byte	.LASF71
 10304 0010 0C       		.byte	0xc
 10305 0011 1B010000 		.4byte	.LASF72
 10306 0015 BD010000 		.4byte	.LASF73
 10307 0019 00000000 		.4byte	.Ldebug_ranges0+0
 10308 001d 00000000 		.4byte	0
 10309 0021 00000000 		.4byte	.Ldebug_line0
 10310 0025 02       		.uleb128 0x2
 10311 0026 01       		.byte	0x1
 10312 0027 06       		.byte	0x6
 10313 0028 F2010000 		.4byte	.LASF0
 10314 002c 02       		.uleb128 0x2
 10315 002d 01       		.byte	0x1
 10316 002e 08       		.byte	0x8
 10317 002f A8010000 		.4byte	.LASF1
 10318 0033 02       		.uleb128 0x2
 10319 0034 02       		.byte	0x2
 10320 0035 05       		.byte	0x5
 10321 0036 0E000000 		.4byte	.LASF2
 10322 003a 02       		.uleb128 0x2
 10323 003b 02       		.byte	0x2
 10324 003c 07       		.byte	0x7
 10325 003d 3E020000 		.4byte	.LASF3
 10326 0041 03       		.uleb128 0x3
 10327 0042 18030000 		.4byte	.LASF7
 10328 0046 02       		.byte	0x2
 10329 0047 3F       		.byte	0x3f
 10330 0048 4C000000 		.4byte	0x4c
 10331 004c 02       		.uleb128 0x2
 10332 004d 04       		.byte	0x4
 10333 004e 05       		.byte	0x5
 10334 004f 44010000 		.4byte	.LASF4
 10335 0053 02       		.uleb128 0x2
 10336 0054 04       		.byte	0x4
 10337 0055 07       		.byte	0x7
 10338 0056 D0020000 		.4byte	.LASF5
 10339 005a 02       		.uleb128 0x2
 10340 005b 08       		.byte	0x8
 10341 005c 05       		.byte	0x5
 10342 005d 0D010000 		.4byte	.LASF6
 10343 0061 03       		.uleb128 0x3
 10344 0062 97020000 		.4byte	.LASF8
 10345 0066 02       		.byte	0x2
 10346 0067 5B       		.byte	0x5b
 10347 0068 6C000000 		.4byte	0x6c
ARM GAS  C:\Users\NIGHDR~1\AppData\Local\Temp\ccrnUt9g.s 			page 194


 10348 006c 02       		.uleb128 0x2
 10349 006d 08       		.byte	0x8
 10350 006e 07       		.byte	0x7
 10351 006f FE010000 		.4byte	.LASF9
 10352 0073 04       		.uleb128 0x4
 10353 0074 04       		.byte	0x4
 10354 0075 05       		.byte	0x5
 10355 0076 696E7400 		.ascii	"int\000"
 10356 007a 02       		.uleb128 0x2
 10357 007b 04       		.byte	0x4
 10358 007c 07       		.byte	0x7
 10359 007d 15020000 		.4byte	.LASF10
 10360 0081 03       		.uleb128 0x3
 10361 0082 71020000 		.4byte	.LASF11
 10362 0086 03       		.byte	0x3
 10363 0087 2C       		.byte	0x2c
 10364 0088 41000000 		.4byte	0x41
 10365 008c 03       		.uleb128 0x3
 10366 008d 05000000 		.4byte	.LASF12
 10367 0091 03       		.byte	0x3
 10368 0092 3C       		.byte	0x3c
 10369 0093 61000000 		.4byte	0x61
 10370 0097 05       		.uleb128 0x5
 10371 0098 666500   		.ascii	"fe\000"
 10372 009b 06       		.byte	0x6
 10373 009c 10       		.byte	0x10
 10374 009d A1000000 		.4byte	0xa1
 10375 00a1 06       		.uleb128 0x6
 10376 00a2 81000000 		.4byte	0x81
 10377 00a6 B1000000 		.4byte	0xb1
 10378 00aa 07       		.uleb128 0x7
 10379 00ab B1000000 		.4byte	0xb1
 10380 00af 09       		.byte	0x9
 10381 00b0 00       		.byte	0
 10382 00b1 02       		.uleb128 0x2
 10383 00b2 04       		.byte	0x4
 10384 00b3 07       		.byte	0x7
 10385 00b4 18000000 		.4byte	.LASF13
 10386 00b8 08       		.uleb128 0x8
 10387 00b9 78       		.byte	0x78
 10388 00ba 04       		.byte	0x4
 10389 00bb 15       		.byte	0x15
 10390 00bc DF000000 		.4byte	0xdf
 10391 00c0 09       		.uleb128 0x9
 10392 00c1 5800     		.ascii	"X\000"
 10393 00c3 04       		.byte	0x4
 10394 00c4 16       		.byte	0x16
 10395 00c5 97000000 		.4byte	0x97
 10396 00c9 00       		.byte	0
 10397 00ca 09       		.uleb128 0x9
 10398 00cb 5900     		.ascii	"Y\000"
 10399 00cd 04       		.byte	0x4
 10400 00ce 17       		.byte	0x17
 10401 00cf 97000000 		.4byte	0x97
 10402 00d3 28       		.byte	0x28
 10403 00d4 09       		.uleb128 0x9
 10404 00d5 5A00     		.ascii	"Z\000"
ARM GAS  C:\Users\NIGHDR~1\AppData\Local\Temp\ccrnUt9g.s 			page 195


 10405 00d7 04       		.byte	0x4
 10406 00d8 18       		.byte	0x18
 10407 00d9 97000000 		.4byte	0x97
 10408 00dd 50       		.byte	0x50
 10409 00de 00       		.byte	0
 10410 00df 03       		.uleb128 0x3
 10411 00e0 6F010000 		.4byte	.LASF14
 10412 00e4 04       		.byte	0x4
 10413 00e5 19       		.byte	0x19
 10414 00e6 B8000000 		.4byte	0xb8
 10415 00ea 08       		.uleb128 0x8
 10416 00eb A0       		.byte	0xa0
 10417 00ec 04       		.byte	0x4
 10418 00ed 1B       		.byte	0x1b
 10419 00ee 1B010000 		.4byte	0x11b
 10420 00f2 09       		.uleb128 0x9
 10421 00f3 5800     		.ascii	"X\000"
 10422 00f5 04       		.byte	0x4
 10423 00f6 1C       		.byte	0x1c
 10424 00f7 97000000 		.4byte	0x97
 10425 00fb 00       		.byte	0
 10426 00fc 09       		.uleb128 0x9
 10427 00fd 5900     		.ascii	"Y\000"
 10428 00ff 04       		.byte	0x4
 10429 0100 1D       		.byte	0x1d
 10430 0101 97000000 		.4byte	0x97
 10431 0105 28       		.byte	0x28
 10432 0106 09       		.uleb128 0x9
 10433 0107 5A00     		.ascii	"Z\000"
 10434 0109 04       		.byte	0x4
 10435 010a 1E       		.byte	0x1e
 10436 010b 97000000 		.4byte	0x97
 10437 010f 50       		.byte	0x50
 10438 0110 09       		.uleb128 0x9
 10439 0111 5400     		.ascii	"T\000"
 10440 0113 04       		.byte	0x4
 10441 0114 1F       		.byte	0x1f
 10442 0115 97000000 		.4byte	0x97
 10443 0119 78       		.byte	0x78
 10444 011a 00       		.byte	0
 10445 011b 03       		.uleb128 0x3
 10446 011c 75010000 		.4byte	.LASF15
 10447 0120 04       		.byte	0x4
 10448 0121 20       		.byte	0x20
 10449 0122 EA000000 		.4byte	0xea
 10450 0126 08       		.uleb128 0x8
 10451 0127 A0       		.byte	0xa0
 10452 0128 04       		.byte	0x4
 10453 0129 22       		.byte	0x22
 10454 012a 57010000 		.4byte	0x157
 10455 012e 09       		.uleb128 0x9
 10456 012f 5800     		.ascii	"X\000"
 10457 0131 04       		.byte	0x4
 10458 0132 23       		.byte	0x23
 10459 0133 97000000 		.4byte	0x97
 10460 0137 00       		.byte	0
 10461 0138 09       		.uleb128 0x9
ARM GAS  C:\Users\NIGHDR~1\AppData\Local\Temp\ccrnUt9g.s 			page 196


 10462 0139 5900     		.ascii	"Y\000"
 10463 013b 04       		.byte	0x4
 10464 013c 24       		.byte	0x24
 10465 013d 97000000 		.4byte	0x97
 10466 0141 28       		.byte	0x28
 10467 0142 09       		.uleb128 0x9
 10468 0143 5A00     		.ascii	"Z\000"
 10469 0145 04       		.byte	0x4
 10470 0146 25       		.byte	0x25
 10471 0147 97000000 		.4byte	0x97
 10472 014b 50       		.byte	0x50
 10473 014c 09       		.uleb128 0x9
 10474 014d 5400     		.ascii	"T\000"
 10475 014f 04       		.byte	0x4
 10476 0150 26       		.byte	0x26
 10477 0151 97000000 		.4byte	0x97
 10478 0155 78       		.byte	0x78
 10479 0156 00       		.byte	0
 10480 0157 03       		.uleb128 0x3
 10481 0158 7B010000 		.4byte	.LASF16
 10482 015c 04       		.byte	0x4
 10483 015d 27       		.byte	0x27
 10484 015e 26010000 		.4byte	0x126
 10485 0162 08       		.uleb128 0x8
 10486 0163 78       		.byte	0x78
 10487 0164 04       		.byte	0x4
 10488 0165 29       		.byte	0x29
 10489 0166 8F010000 		.4byte	0x18f
 10490 016a 0A       		.uleb128 0xa
 10491 016b 6A020000 		.4byte	.LASF17
 10492 016f 04       		.byte	0x4
 10493 0170 2A       		.byte	0x2a
 10494 0171 97000000 		.4byte	0x97
 10495 0175 00       		.byte	0
 10496 0176 0A       		.uleb128 0xa
 10497 0177 4D010000 		.4byte	.LASF18
 10498 017b 04       		.byte	0x4
 10499 017c 2B       		.byte	0x2b
 10500 017d 97000000 		.4byte	0x97
 10501 0181 28       		.byte	0x28
 10502 0182 0A       		.uleb128 0xa
 10503 0183 00000000 		.4byte	.LASF19
 10504 0187 04       		.byte	0x4
 10505 0188 2C       		.byte	0x2c
 10506 0189 97000000 		.4byte	0x97
 10507 018d 50       		.byte	0x50
 10508 018e 00       		.byte	0
 10509 018f 03       		.uleb128 0x3
 10510 0190 5F020000 		.4byte	.LASF20
 10511 0194 04       		.byte	0x4
 10512 0195 2D       		.byte	0x2d
 10513 0196 62010000 		.4byte	0x162
 10514 019a 08       		.uleb128 0x8
 10515 019b A0       		.byte	0xa0
 10516 019c 04       		.byte	0x4
 10517 019d 2F       		.byte	0x2f
 10518 019e D1010000 		.4byte	0x1d1
ARM GAS  C:\Users\NIGHDR~1\AppData\Local\Temp\ccrnUt9g.s 			page 197


 10519 01a2 0A       		.uleb128 0xa
 10520 01a3 21000000 		.4byte	.LASF21
 10521 01a7 04       		.byte	0x4
 10522 01a8 30       		.byte	0x30
 10523 01a9 97000000 		.4byte	0x97
 10524 01ad 00       		.byte	0
 10525 01ae 0A       		.uleb128 0xa
 10526 01af 4B030000 		.4byte	.LASF22
 10527 01b3 04       		.byte	0x4
 10528 01b4 31       		.byte	0x31
 10529 01b5 97000000 		.4byte	0x97
 10530 01b9 28       		.byte	0x28
 10531 01ba 09       		.uleb128 0x9
 10532 01bb 5A00     		.ascii	"Z\000"
 10533 01bd 04       		.byte	0x4
 10534 01be 32       		.byte	0x32
 10535 01bf 97000000 		.4byte	0x97
 10536 01c3 50       		.byte	0x50
 10537 01c4 09       		.uleb128 0x9
 10538 01c5 54326400 		.ascii	"T2d\000"
 10539 01c9 04       		.byte	0x4
 10540 01ca 33       		.byte	0x33
 10541 01cb 97000000 		.4byte	0x97
 10542 01cf 78       		.byte	0x78
 10543 01d0 00       		.byte	0
 10544 01d1 03       		.uleb128 0x3
 10545 01d2 55010000 		.4byte	.LASF23
 10546 01d6 04       		.byte	0x4
 10547 01d7 34       		.byte	0x34
 10548 01d8 9A010000 		.4byte	0x19a
 10549 01dc 0B       		.uleb128 0xb
 10550 01dd 12030000 		.4byte	.LASF26
 10551 01e1 01       		.byte	0x1
 10552 01e2 19       		.byte	0x19
 10553 01e3 00000000 		.4byte	.LFB1
 10554 01e7 98000000 		.4byte	.LFE1-.LFB1
 10555 01eb 01       		.uleb128 0x1
 10556 01ec 9C       		.byte	0x9c
 10557 01ed 31020000 		.4byte	0x231
 10558 01f1 0C       		.uleb128 0xc
 10559 01f2 7200     		.ascii	"r\000"
 10560 01f4 01       		.byte	0x1
 10561 01f5 19       		.byte	0x19
 10562 01f6 31020000 		.4byte	0x231
 10563 01fa 01       		.uleb128 0x1
 10564 01fb 50       		.byte	0x50
 10565 01fc 0D       		.uleb128 0xd
 10566 01fd 6100     		.ascii	"a\000"
 10567 01ff 01       		.byte	0x1
 10568 0200 19       		.byte	0x19
 10569 0201 37020000 		.4byte	0x237
 10570 0205 00000000 		.4byte	.LLST0
 10571 0209 0E       		.uleb128 0xe
 10572 020a 6900     		.ascii	"i\000"
 10573 020c 01       		.byte	0x1
 10574 020d 1A       		.byte	0x1a
 10575 020e 73000000 		.4byte	0x73
ARM GAS  C:\Users\NIGHDR~1\AppData\Local\Temp\ccrnUt9g.s 			page 198


 10576 0212 21000000 		.4byte	.LLST1
 10577 0216 0E       		.uleb128 0xe
 10578 0217 6200     		.ascii	"b\000"
 10579 0219 01       		.byte	0x1
 10580 021a 1B       		.byte	0x1b
 10581 021b 73000000 		.4byte	0x73
 10582 021f 4B000000 		.4byte	.LLST2
 10583 0223 0E       		.uleb128 0xe
 10584 0224 6B00     		.ascii	"k\000"
 10585 0226 01       		.byte	0x1
 10586 0227 1C       		.byte	0x1c
 10587 0228 73000000 		.4byte	0x73
 10588 022c 69000000 		.4byte	.LLST3
 10589 0230 00       		.byte	0
 10590 0231 0F       		.uleb128 0xf
 10591 0232 04       		.byte	0x4
 10592 0233 25000000 		.4byte	0x25
 10593 0237 0F       		.uleb128 0xf
 10594 0238 04       		.byte	0x4
 10595 0239 3D020000 		.4byte	0x23d
 10596 023d 10       		.uleb128 0x10
 10597 023e 2C000000 		.4byte	0x2c
 10598 0242 11       		.uleb128 0x11
 10599 0243 38020000 		.4byte	.LASF24
 10600 0247 01       		.byte	0x1
 10601 0248 4D01     		.2byte	0x14d
 10602 024a 2C000000 		.4byte	0x2c
 10603 024e 00000000 		.4byte	.LFB15
 10604 0252 1A000000 		.4byte	.LFE15-.LFB15
 10605 0256 01       		.uleb128 0x1
 10606 0257 9C       		.byte	0x9c
 10607 0258 AF020000 		.4byte	0x2af
 10608 025c 12       		.uleb128 0x12
 10609 025d 6200     		.ascii	"b\000"
 10610 025f 01       		.byte	0x1
 10611 0260 4D01     		.2byte	0x14d
 10612 0262 25000000 		.4byte	0x25
 10613 0266 87000000 		.4byte	.LLST4
 10614 026a 13       		.uleb128 0x13
 10615 026b 6300     		.ascii	"c\000"
 10616 026d 01       		.byte	0x1
 10617 026e 4D01     		.2byte	0x14d
 10618 0270 25000000 		.4byte	0x25
 10619 0274 01       		.uleb128 0x1
 10620 0275 51       		.byte	0x51
 10621 0276 14       		.uleb128 0x14
 10622 0277 756200   		.ascii	"ub\000"
 10623 027a 01       		.byte	0x1
 10624 027b 4E01     		.2byte	0x14e
 10625 027d 2C000000 		.4byte	0x2c
 10626 0281 A8000000 		.4byte	.LLST5
 10627 0285 15       		.uleb128 0x15
 10628 0286 756300   		.ascii	"uc\000"
 10629 0289 01       		.byte	0x1
 10630 028a 4F01     		.2byte	0x14f
 10631 028c 2C000000 		.4byte	0x2c
 10632 0290 01       		.uleb128 0x1
ARM GAS  C:\Users\NIGHDR~1\AppData\Local\Temp\ccrnUt9g.s 			page 199


 10633 0291 51       		.byte	0x51
 10634 0292 14       		.uleb128 0x14
 10635 0293 7800     		.ascii	"x\000"
 10636 0295 01       		.byte	0x1
 10637 0296 5001     		.2byte	0x150
 10638 0298 2C000000 		.4byte	0x2c
 10639 029c C9000000 		.4byte	.LLST6
 10640 02a0 14       		.uleb128 0x14
 10641 02a1 7900     		.ascii	"y\000"
 10642 02a3 01       		.byte	0x1
 10643 02a4 5101     		.2byte	0x151
 10644 02a6 8C000000 		.4byte	0x8c
 10645 02aa F5000000 		.4byte	.LLST7
 10646 02ae 00       		.byte	0
 10647 02af 11       		.uleb128 0x11
 10648 02b0 2D030000 		.4byte	.LASF25
 10649 02b4 01       		.byte	0x1
 10650 02b5 5701     		.2byte	0x157
 10651 02b7 2C000000 		.4byte	0x2c
 10652 02bb 00000000 		.4byte	.LFB16
 10653 02bf 04000000 		.4byte	.LFE16-.LFB16
 10654 02c3 01       		.uleb128 0x1
 10655 02c4 9C       		.byte	0x9c
 10656 02c5 E2020000 		.4byte	0x2e2
 10657 02c9 12       		.uleb128 0x12
 10658 02ca 6200     		.ascii	"b\000"
 10659 02cc 01       		.byte	0x1
 10660 02cd 5701     		.2byte	0x157
 10661 02cf 25000000 		.4byte	0x25
 10662 02d3 0D010000 		.4byte	.LLST8
 10663 02d7 16       		.uleb128 0x16
 10664 02d8 7800     		.ascii	"x\000"
 10665 02da 01       		.byte	0x1
 10666 02db 5801     		.2byte	0x158
 10667 02dd 8C000000 		.4byte	0x8c
 10668 02e1 00       		.byte	0
 10669 02e2 17       		.uleb128 0x17
 10670 02e3 B5020000 		.4byte	.LASF27
 10671 02e7 01       		.byte	0x1
 10672 02e8 5D01     		.2byte	0x15d
 10673 02ea 00000000 		.4byte	.LFB17
 10674 02ee 2A000000 		.4byte	.LFE17-.LFB17
 10675 02f2 01       		.uleb128 0x1
 10676 02f3 9C       		.byte	0x9c
 10677 02f4 81030000 		.4byte	0x381
 10678 02f8 12       		.uleb128 0x12
 10679 02f9 7400     		.ascii	"t\000"
 10680 02fb 01       		.byte	0x1
 10681 02fc 5D01     		.2byte	0x15d
 10682 02fe 81030000 		.4byte	0x381
 10683 0302 2E010000 		.4byte	.LLST9
 10684 0306 12       		.uleb128 0x12
 10685 0307 7500     		.ascii	"u\000"
 10686 0309 01       		.byte	0x1
 10687 030a 5D01     		.2byte	0x15d
 10688 030c 87030000 		.4byte	0x387
 10689 0310 5A010000 		.4byte	.LLST10
ARM GAS  C:\Users\NIGHDR~1\AppData\Local\Temp\ccrnUt9g.s 			page 200


 10690 0314 12       		.uleb128 0x12
 10691 0315 6200     		.ascii	"b\000"
 10692 0317 01       		.byte	0x1
 10693 0318 5D01     		.2byte	0x15d
 10694 031a 2C000000 		.4byte	0x2c
 10695 031e 86010000 		.4byte	.LLST11
 10696 0322 18       		.uleb128 0x18
 10697 0323 0C000000 		.4byte	.LVL26
 10698 0327 671F0000 		.4byte	0x1f67
 10699 032b 42030000 		.4byte	0x342
 10700 032f 19       		.uleb128 0x19
 10701 0330 01       		.uleb128 0x1
 10702 0331 50       		.byte	0x50
 10703 0332 02       		.uleb128 0x2
 10704 0333 74       		.byte	0x74
 10705 0334 00       		.sleb128 0
 10706 0335 19       		.uleb128 0x19
 10707 0336 01       		.uleb128 0x1
 10708 0337 51       		.byte	0x51
 10709 0338 02       		.uleb128 0x2
 10710 0339 75       		.byte	0x75
 10711 033a 00       		.sleb128 0
 10712 033b 19       		.uleb128 0x19
 10713 033c 01       		.uleb128 0x1
 10714 033d 52       		.byte	0x52
 10715 033e 02       		.uleb128 0x2
 10716 033f 76       		.byte	0x76
 10717 0340 00       		.sleb128 0
 10718 0341 00       		.byte	0
 10719 0342 18       		.uleb128 0x18
 10720 0343 1A000000 		.4byte	.LVL27
 10721 0347 671F0000 		.4byte	0x1f67
 10722 034b 62030000 		.4byte	0x362
 10723 034f 19       		.uleb128 0x19
 10724 0350 01       		.uleb128 0x1
 10725 0351 50       		.byte	0x50
 10726 0352 02       		.uleb128 0x2
 10727 0353 74       		.byte	0x74
 10728 0354 28       		.sleb128 40
 10729 0355 19       		.uleb128 0x19
 10730 0356 01       		.uleb128 0x1
 10731 0357 51       		.byte	0x51
 10732 0358 02       		.uleb128 0x2
 10733 0359 75       		.byte	0x75
 10734 035a 28       		.sleb128 40
 10735 035b 19       		.uleb128 0x19
 10736 035c 01       		.uleb128 0x1
 10737 035d 52       		.byte	0x52
 10738 035e 02       		.uleb128 0x2
 10739 035f 76       		.byte	0x76
 10740 0360 00       		.sleb128 0
 10741 0361 00       		.byte	0
 10742 0362 1A       		.uleb128 0x1a
 10743 0363 28000000 		.4byte	.LVL28
 10744 0367 671F0000 		.4byte	0x1f67
 10745 036b 19       		.uleb128 0x19
 10746 036c 01       		.uleb128 0x1
ARM GAS  C:\Users\NIGHDR~1\AppData\Local\Temp\ccrnUt9g.s 			page 201


 10747 036d 50       		.byte	0x50
 10748 036e 03       		.uleb128 0x3
 10749 036f 74       		.byte	0x74
 10750 0370 D000     		.sleb128 80
 10751 0372 19       		.uleb128 0x19
 10752 0373 01       		.uleb128 0x1
 10753 0374 51       		.byte	0x51
 10754 0375 03       		.uleb128 0x3
 10755 0376 75       		.byte	0x75
 10756 0377 D000     		.sleb128 80
 10757 0379 19       		.uleb128 0x19
 10758 037a 01       		.uleb128 0x1
 10759 037b 52       		.byte	0x52
 10760 037c 02       		.uleb128 0x2
 10761 037d 76       		.byte	0x76
 10762 037e 00       		.sleb128 0
 10763 037f 00       		.byte	0
 10764 0380 00       		.byte	0
 10765 0381 0F       		.uleb128 0xf
 10766 0382 04       		.byte	0x4
 10767 0383 8F010000 		.4byte	0x18f
 10768 0387 0F       		.uleb128 0xf
 10769 0388 04       		.byte	0x4
 10770 0389 8D030000 		.4byte	0x38d
 10771 038d 10       		.uleb128 0x10
 10772 038e 8F010000 		.4byte	0x18f
 10773 0392 17       		.uleb128 0x17
 10774 0393 30000000 		.4byte	.LASF28
 10775 0397 01       		.byte	0x1
 10776 0398 6401     		.2byte	0x164
 10777 039a 00000000 		.4byte	.LFB18
 10778 039e 48010000 		.4byte	.LFE18-.LFB18
 10779 03a2 01       		.uleb128 0x1
 10780 03a3 9C       		.byte	0x9c
 10781 03a4 CB060000 		.4byte	0x6cb
 10782 03a8 12       		.uleb128 0x12
 10783 03a9 7400     		.ascii	"t\000"
 10784 03ab 01       		.byte	0x1
 10785 03ac 6401     		.2byte	0x164
 10786 03ae 81030000 		.4byte	0x381
 10787 03b2 A7010000 		.4byte	.LLST12
 10788 03b6 12       		.uleb128 0x12
 10789 03b7 706F7300 		.ascii	"pos\000"
 10790 03bb 01       		.byte	0x1
 10791 03bc 6401     		.2byte	0x164
 10792 03be 73000000 		.4byte	0x73
 10793 03c2 D3010000 		.4byte	.LLST13
 10794 03c6 12       		.uleb128 0x12
 10795 03c7 6200     		.ascii	"b\000"
 10796 03c9 01       		.byte	0x1
 10797 03ca 6401     		.2byte	0x164
 10798 03cc 25000000 		.4byte	0x25
 10799 03d0 FF010000 		.4byte	.LLST14
 10800 03d4 1B       		.uleb128 0x1b
 10801 03d5 B6010000 		.4byte	.LASF29
 10802 03d9 01       		.byte	0x1
 10803 03da 6501     		.2byte	0x165
ARM GAS  C:\Users\NIGHDR~1\AppData\Local\Temp\ccrnUt9g.s 			page 202


 10804 03dc 8F010000 		.4byte	0x18f
 10805 03e0 03       		.uleb128 0x3
 10806 03e1 91       		.byte	0x91
 10807 03e2 F07E     		.sleb128 -144
 10808 03e4 1C       		.uleb128 0x1c
 10809 03e5 36030000 		.4byte	.LASF30
 10810 03e9 01       		.byte	0x1
 10811 03ea 6601     		.2byte	0x166
 10812 03ec 2C000000 		.4byte	0x2c
 10813 03f0 20020000 		.4byte	.LLST15
 10814 03f4 1C       		.uleb128 0x1c
 10815 03f5 F7000000 		.4byte	.LASF31
 10816 03f9 01       		.byte	0x1
 10817 03fa 6701     		.2byte	0x167
 10818 03fc 2C000000 		.4byte	0x2c
 10819 0400 33020000 		.4byte	.LLST16
 10820 0404 18       		.uleb128 0x18
 10821 0405 10000000 		.4byte	.LVL33
 10822 0409 AF020000 		.4byte	0x2af
 10823 040d 18040000 		.4byte	0x418
 10824 0411 19       		.uleb128 0x19
 10825 0412 01       		.uleb128 0x1
 10826 0413 50       		.byte	0x50
 10827 0414 02       		.uleb128 0x2
 10828 0415 76       		.byte	0x76
 10829 0416 00       		.sleb128 0
 10830 0417 00       		.byte	0
 10831 0418 18       		.uleb128 0x18
 10832 0419 22000000 		.4byte	.LVL36
 10833 041d 721F0000 		.4byte	0x1f72
 10834 0421 2C040000 		.4byte	0x42c
 10835 0425 19       		.uleb128 0x19
 10836 0426 01       		.uleb128 0x1
 10837 0427 50       		.byte	0x50
 10838 0428 02       		.uleb128 0x2
 10839 0429 75       		.byte	0x75
 10840 042a 00       		.sleb128 0
 10841 042b 00       		.byte	0
 10842 042c 18       		.uleb128 0x18
 10843 042d 32000000 		.4byte	.LVL37
 10844 0431 721F0000 		.4byte	0x1f72
 10845 0435 42040000 		.4byte	0x442
 10846 0439 19       		.uleb128 0x19
 10847 043a 01       		.uleb128 0x1
 10848 043b 50       		.byte	0x50
 10849 043c 04       		.uleb128 0x4
 10850 043d 91       		.byte	0x91
 10851 043e E47E     		.sleb128 -156
 10852 0440 06       		.byte	0x6
 10853 0441 00       		.byte	0
 10854 0442 18       		.uleb128 0x18
 10855 0443 40000000 		.4byte	.LVL38
 10856 0447 7D1F0000 		.4byte	0x1f7d
 10857 044b 58040000 		.4byte	0x458
 10858 044f 19       		.uleb128 0x19
 10859 0450 01       		.uleb128 0x1
 10860 0451 50       		.byte	0x50
ARM GAS  C:\Users\NIGHDR~1\AppData\Local\Temp\ccrnUt9g.s 			page 203


 10861 0452 04       		.uleb128 0x4
 10862 0453 91       		.byte	0x91
 10863 0454 E87E     		.sleb128 -152
 10864 0456 06       		.byte	0x6
 10865 0457 00       		.byte	0
 10866 0458 18       		.uleb128 0x18
 10867 0459 4C000000 		.4byte	.LVL39
 10868 045d 42020000 		.4byte	0x242
 10869 0461 73040000 		.4byte	0x473
 10870 0465 19       		.uleb128 0x19
 10871 0466 01       		.uleb128 0x1
 10872 0467 50       		.byte	0x50
 10873 0468 04       		.uleb128 0x4
 10874 0469 7D       		.byte	0x7d
 10875 046a 00       		.sleb128 0
 10876 046b 94       		.byte	0x94
 10877 046c 01       		.byte	0x1
 10878 046d 19       		.uleb128 0x19
 10879 046e 01       		.uleb128 0x1
 10880 046f 51       		.byte	0x51
 10881 0470 01       		.uleb128 0x1
 10882 0471 31       		.byte	0x31
 10883 0472 00       		.byte	0
 10884 0473 18       		.uleb128 0x18
 10885 0474 5E000000 		.4byte	.LVL41
 10886 0478 E2020000 		.4byte	0x2e2
 10887 047c 95040000 		.4byte	0x495
 10888 0480 19       		.uleb128 0x19
 10889 0481 01       		.uleb128 0x1
 10890 0482 50       		.byte	0x50
 10891 0483 02       		.uleb128 0x2
 10892 0484 75       		.byte	0x75
 10893 0485 00       		.sleb128 0
 10894 0486 19       		.uleb128 0x19
 10895 0487 01       		.uleb128 0x1
 10896 0488 51       		.byte	0x51
 10897 0489 0A       		.uleb128 0xa
 10898 048a 74       		.byte	0x74
 10899 048b 00       		.sleb128 0
 10900 048c 77       		.byte	0x77
 10901 048d 00       		.sleb128 0
 10902 048e 1C       		.byte	0x1c
 10903 048f 36       		.byte	0x36
 10904 0490 24       		.byte	0x24
 10905 0491 76       		.byte	0x76
 10906 0492 00       		.sleb128 0
 10907 0493 22       		.byte	0x22
 10908 0494 00       		.byte	0
 10909 0495 18       		.uleb128 0x18
 10910 0496 66000000 		.4byte	.LVL42
 10911 049a 42020000 		.4byte	0x242
 10912 049e B0040000 		.4byte	0x4b0
 10913 04a2 19       		.uleb128 0x19
 10914 04a3 01       		.uleb128 0x1
 10915 04a4 50       		.byte	0x50
 10916 04a5 04       		.uleb128 0x4
 10917 04a6 7D       		.byte	0x7d
ARM GAS  C:\Users\NIGHDR~1\AppData\Local\Temp\ccrnUt9g.s 			page 204


 10918 04a7 00       		.sleb128 0
 10919 04a8 94       		.byte	0x94
 10920 04a9 01       		.byte	0x1
 10921 04aa 19       		.uleb128 0x19
 10922 04ab 01       		.uleb128 0x1
 10923 04ac 51       		.byte	0x51
 10924 04ad 01       		.uleb128 0x1
 10925 04ae 32       		.byte	0x32
 10926 04af 00       		.byte	0
 10927 04b0 18       		.uleb128 0x18
 10928 04b1 76000000 		.4byte	.LVL43
 10929 04b5 E2020000 		.4byte	0x2e2
 10930 04b9 D4040000 		.4byte	0x4d4
 10931 04bd 19       		.uleb128 0x19
 10932 04be 01       		.uleb128 0x1
 10933 04bf 50       		.byte	0x50
 10934 04c0 02       		.uleb128 0x2
 10935 04c1 75       		.byte	0x75
 10936 04c2 00       		.sleb128 0
 10937 04c3 19       		.uleb128 0x19
 10938 04c4 01       		.uleb128 0x1
 10939 04c5 51       		.byte	0x51
 10940 04c6 0C       		.uleb128 0xc
 10941 04c7 74       		.byte	0x74
 10942 04c8 00       		.sleb128 0
 10943 04c9 77       		.byte	0x77
 10944 04ca 00       		.sleb128 0
 10945 04cb 1C       		.byte	0x1c
 10946 04cc 36       		.byte	0x36
 10947 04cd 24       		.byte	0x24
 10948 04ce 76       		.byte	0x76
 10949 04cf 00       		.sleb128 0
 10950 04d0 22       		.byte	0x22
 10951 04d1 23       		.byte	0x23
 10952 04d2 78       		.uleb128 0x78
 10953 04d3 00       		.byte	0
 10954 04d4 18       		.uleb128 0x18
 10955 04d5 7E000000 		.4byte	.LVL44
 10956 04d9 42020000 		.4byte	0x242
 10957 04dd EF040000 		.4byte	0x4ef
 10958 04e1 19       		.uleb128 0x19
 10959 04e2 01       		.uleb128 0x1
 10960 04e3 50       		.byte	0x50
 10961 04e4 04       		.uleb128 0x4
 10962 04e5 7D       		.byte	0x7d
 10963 04e6 00       		.sleb128 0
 10964 04e7 94       		.byte	0x94
 10965 04e8 01       		.byte	0x1
 10966 04e9 19       		.uleb128 0x19
 10967 04ea 01       		.uleb128 0x1
 10968 04eb 51       		.byte	0x51
 10969 04ec 01       		.uleb128 0x1
 10970 04ed 33       		.byte	0x33
 10971 04ee 00       		.byte	0
 10972 04ef 18       		.uleb128 0x18
 10973 04f0 8E000000 		.4byte	.LVL45
 10974 04f4 E2020000 		.4byte	0x2e2
ARM GAS  C:\Users\NIGHDR~1\AppData\Local\Temp\ccrnUt9g.s 			page 205


 10975 04f8 14050000 		.4byte	0x514
 10976 04fc 19       		.uleb128 0x19
 10977 04fd 01       		.uleb128 0x1
 10978 04fe 50       		.byte	0x50
 10979 04ff 02       		.uleb128 0x2
 10980 0500 75       		.byte	0x75
 10981 0501 00       		.sleb128 0
 10982 0502 19       		.uleb128 0x19
 10983 0503 01       		.uleb128 0x1
 10984 0504 51       		.byte	0x51
 10985 0505 0D       		.uleb128 0xd
 10986 0506 74       		.byte	0x74
 10987 0507 00       		.sleb128 0
 10988 0508 77       		.byte	0x77
 10989 0509 00       		.sleb128 0
 10990 050a 1C       		.byte	0x1c
 10991 050b 36       		.byte	0x36
 10992 050c 24       		.byte	0x24
 10993 050d 76       		.byte	0x76
 10994 050e 00       		.sleb128 0
 10995 050f 22       		.byte	0x22
 10996 0510 23       		.byte	0x23
 10997 0511 F001     		.uleb128 0xf0
 10998 0513 00       		.byte	0
 10999 0514 18       		.uleb128 0x18
 11000 0515 96000000 		.4byte	.LVL46
 11001 0519 42020000 		.4byte	0x242
 11002 051d 2F050000 		.4byte	0x52f
 11003 0521 19       		.uleb128 0x19
 11004 0522 01       		.uleb128 0x1
 11005 0523 50       		.byte	0x50
 11006 0524 04       		.uleb128 0x4
 11007 0525 7D       		.byte	0x7d
 11008 0526 00       		.sleb128 0
 11009 0527 94       		.byte	0x94
 11010 0528 01       		.byte	0x1
 11011 0529 19       		.uleb128 0x19
 11012 052a 01       		.uleb128 0x1
 11013 052b 51       		.byte	0x51
 11014 052c 01       		.uleb128 0x1
 11015 052d 34       		.byte	0x34
 11016 052e 00       		.byte	0
 11017 052f 18       		.uleb128 0x18
 11018 0530 A8000000 		.4byte	.LVL47
 11019 0534 E2020000 		.4byte	0x2e2
 11020 0538 54050000 		.4byte	0x554
 11021 053c 19       		.uleb128 0x19
 11022 053d 01       		.uleb128 0x1
 11023 053e 50       		.byte	0x50
 11024 053f 02       		.uleb128 0x2
 11025 0540 75       		.byte	0x75
 11026 0541 00       		.sleb128 0
 11027 0542 19       		.uleb128 0x19
 11028 0543 01       		.uleb128 0x1
 11029 0544 51       		.byte	0x51
 11030 0545 0D       		.uleb128 0xd
 11031 0546 74       		.byte	0x74
ARM GAS  C:\Users\NIGHDR~1\AppData\Local\Temp\ccrnUt9g.s 			page 206


 11032 0547 00       		.sleb128 0
 11033 0548 77       		.byte	0x77
 11034 0549 00       		.sleb128 0
 11035 054a 1C       		.byte	0x1c
 11036 054b 36       		.byte	0x36
 11037 054c 24       		.byte	0x24
 11038 054d 76       		.byte	0x76
 11039 054e 00       		.sleb128 0
 11040 054f 22       		.byte	0x22
 11041 0550 23       		.byte	0x23
 11042 0551 E802     		.uleb128 0x168
 11043 0553 00       		.byte	0
 11044 0554 18       		.uleb128 0x18
 11045 0555 B0000000 		.4byte	.LVL48
 11046 0559 42020000 		.4byte	0x242
 11047 055d 6F050000 		.4byte	0x56f
 11048 0561 19       		.uleb128 0x19
 11049 0562 01       		.uleb128 0x1
 11050 0563 50       		.byte	0x50
 11051 0564 04       		.uleb128 0x4
 11052 0565 7D       		.byte	0x7d
 11053 0566 00       		.sleb128 0
 11054 0567 94       		.byte	0x94
 11055 0568 01       		.byte	0x1
 11056 0569 19       		.uleb128 0x19
 11057 056a 01       		.uleb128 0x1
 11058 056b 51       		.byte	0x51
 11059 056c 01       		.uleb128 0x1
 11060 056d 35       		.byte	0x35
 11061 056e 00       		.byte	0
 11062 056f 18       		.uleb128 0x18
 11063 0570 C2000000 		.4byte	.LVL49
 11064 0574 E2020000 		.4byte	0x2e2
 11065 0578 94050000 		.4byte	0x594
 11066 057c 19       		.uleb128 0x19
 11067 057d 01       		.uleb128 0x1
 11068 057e 50       		.byte	0x50
 11069 057f 02       		.uleb128 0x2
 11070 0580 75       		.byte	0x75
 11071 0581 00       		.sleb128 0
 11072 0582 19       		.uleb128 0x19
 11073 0583 01       		.uleb128 0x1
 11074 0584 51       		.byte	0x51
 11075 0585 0D       		.uleb128 0xd
 11076 0586 74       		.byte	0x74
 11077 0587 00       		.sleb128 0
 11078 0588 77       		.byte	0x77
 11079 0589 00       		.sleb128 0
 11080 058a 1C       		.byte	0x1c
 11081 058b 36       		.byte	0x36
 11082 058c 24       		.byte	0x24
 11083 058d 76       		.byte	0x76
 11084 058e 00       		.sleb128 0
 11085 058f 22       		.byte	0x22
 11086 0590 23       		.byte	0x23
 11087 0591 E003     		.uleb128 0x1e0
 11088 0593 00       		.byte	0
ARM GAS  C:\Users\NIGHDR~1\AppData\Local\Temp\ccrnUt9g.s 			page 207


 11089 0594 18       		.uleb128 0x18
 11090 0595 CA000000 		.4byte	.LVL50
 11091 0599 42020000 		.4byte	0x242
 11092 059d AF050000 		.4byte	0x5af
 11093 05a1 19       		.uleb128 0x19
 11094 05a2 01       		.uleb128 0x1
 11095 05a3 50       		.byte	0x50
 11096 05a4 04       		.uleb128 0x4
 11097 05a5 7D       		.byte	0x7d
 11098 05a6 00       		.sleb128 0
 11099 05a7 94       		.byte	0x94
 11100 05a8 01       		.byte	0x1
 11101 05a9 19       		.uleb128 0x19
 11102 05aa 01       		.uleb128 0x1
 11103 05ab 51       		.byte	0x51
 11104 05ac 01       		.uleb128 0x1
 11105 05ad 36       		.byte	0x36
 11106 05ae 00       		.byte	0
 11107 05af 18       		.uleb128 0x18
 11108 05b0 E0000000 		.4byte	.LVL51
 11109 05b4 E2020000 		.4byte	0x2e2
 11110 05b8 D4050000 		.4byte	0x5d4
 11111 05bc 19       		.uleb128 0x19
 11112 05bd 01       		.uleb128 0x1
 11113 05be 50       		.byte	0x50
 11114 05bf 02       		.uleb128 0x2
 11115 05c0 75       		.byte	0x75
 11116 05c1 00       		.sleb128 0
 11117 05c2 19       		.uleb128 0x19
 11118 05c3 01       		.uleb128 0x1
 11119 05c4 51       		.byte	0x51
 11120 05c5 0D       		.uleb128 0xd
 11121 05c6 74       		.byte	0x74
 11122 05c7 00       		.sleb128 0
 11123 05c8 77       		.byte	0x77
 11124 05c9 00       		.sleb128 0
 11125 05ca 1C       		.byte	0x1c
 11126 05cb 36       		.byte	0x36
 11127 05cc 24       		.byte	0x24
 11128 05cd 76       		.byte	0x76
 11129 05ce 00       		.sleb128 0
 11130 05cf 22       		.byte	0x22
 11131 05d0 23       		.byte	0x23
 11132 05d1 D804     		.uleb128 0x258
 11133 05d3 00       		.byte	0
 11134 05d4 18       		.uleb128 0x18
 11135 05d5 E8000000 		.4byte	.LVL52
 11136 05d9 42020000 		.4byte	0x242
 11137 05dd EF050000 		.4byte	0x5ef
 11138 05e1 19       		.uleb128 0x19
 11139 05e2 01       		.uleb128 0x1
 11140 05e3 50       		.byte	0x50
 11141 05e4 04       		.uleb128 0x4
 11142 05e5 7D       		.byte	0x7d
 11143 05e6 00       		.sleb128 0
 11144 05e7 94       		.byte	0x94
 11145 05e8 01       		.byte	0x1
ARM GAS  C:\Users\NIGHDR~1\AppData\Local\Temp\ccrnUt9g.s 			page 208


 11146 05e9 19       		.uleb128 0x19
 11147 05ea 01       		.uleb128 0x1
 11148 05eb 51       		.byte	0x51
 11149 05ec 01       		.uleb128 0x1
 11150 05ed 37       		.byte	0x37
 11151 05ee 00       		.byte	0
 11152 05ef 18       		.uleb128 0x18
 11153 05f0 FE000000 		.4byte	.LVL53
 11154 05f4 E2020000 		.4byte	0x2e2
 11155 05f8 14060000 		.4byte	0x614
 11156 05fc 19       		.uleb128 0x19
 11157 05fd 01       		.uleb128 0x1
 11158 05fe 50       		.byte	0x50
 11159 05ff 02       		.uleb128 0x2
 11160 0600 75       		.byte	0x75
 11161 0601 00       		.sleb128 0
 11162 0602 19       		.uleb128 0x19
 11163 0603 01       		.uleb128 0x1
 11164 0604 51       		.byte	0x51
 11165 0605 0D       		.uleb128 0xd
 11166 0606 74       		.byte	0x74
 11167 0607 00       		.sleb128 0
 11168 0608 77       		.byte	0x77
 11169 0609 00       		.sleb128 0
 11170 060a 1C       		.byte	0x1c
 11171 060b 36       		.byte	0x36
 11172 060c 24       		.byte	0x24
 11173 060d 76       		.byte	0x76
 11174 060e 00       		.sleb128 0
 11175 060f 22       		.byte	0x22
 11176 0610 23       		.byte	0x23
 11177 0611 D005     		.uleb128 0x2d0
 11178 0613 00       		.byte	0
 11179 0614 18       		.uleb128 0x18
 11180 0615 06010000 		.4byte	.LVL54
 11181 0619 42020000 		.4byte	0x242
 11182 061d 2F060000 		.4byte	0x62f
 11183 0621 19       		.uleb128 0x19
 11184 0622 01       		.uleb128 0x1
 11185 0623 50       		.byte	0x50
 11186 0624 04       		.uleb128 0x4
 11187 0625 7D       		.byte	0x7d
 11188 0626 00       		.sleb128 0
 11189 0627 94       		.byte	0x94
 11190 0628 01       		.byte	0x1
 11191 0629 19       		.uleb128 0x19
 11192 062a 01       		.uleb128 0x1
 11193 062b 51       		.byte	0x51
 11194 062c 01       		.uleb128 0x1
 11195 062d 38       		.byte	0x38
 11196 062e 00       		.byte	0
 11197 062f 18       		.uleb128 0x18
 11198 0630 1C010000 		.4byte	.LVL55
 11199 0634 E2020000 		.4byte	0x2e2
 11200 0638 56060000 		.4byte	0x656
 11201 063c 19       		.uleb128 0x19
 11202 063d 01       		.uleb128 0x1
ARM GAS  C:\Users\NIGHDR~1\AppData\Local\Temp\ccrnUt9g.s 			page 209


 11203 063e 50       		.byte	0x50
 11204 063f 02       		.uleb128 0x2
 11205 0640 75       		.byte	0x75
 11206 0641 00       		.sleb128 0
 11207 0642 19       		.uleb128 0x19
 11208 0643 01       		.uleb128 0x1
 11209 0644 51       		.byte	0x51
 11210 0645 0F       		.uleb128 0xf
 11211 0646 77       		.byte	0x77
 11212 0647 00       		.sleb128 0
 11213 0648 34       		.byte	0x34
 11214 0649 24       		.byte	0x24
 11215 064a 77       		.byte	0x77
 11216 064b 00       		.sleb128 0
 11217 064c 1C       		.byte	0x1c
 11218 064d 36       		.byte	0x36
 11219 064e 24       		.byte	0x24
 11220 064f 76       		.byte	0x76
 11221 0650 00       		.sleb128 0
 11222 0651 22       		.byte	0x22
 11223 0652 74       		.byte	0x74
 11224 0653 00       		.sleb128 0
 11225 0654 22       		.byte	0x22
 11226 0655 00       		.byte	0
 11227 0656 18       		.uleb128 0x18
 11228 0657 24010000 		.4byte	.LVL56
 11229 065b 881F0000 		.4byte	0x1f88
 11230 065f 73060000 		.4byte	0x673
 11231 0663 19       		.uleb128 0x19
 11232 0664 01       		.uleb128 0x1
 11233 0665 50       		.byte	0x50
 11234 0666 03       		.uleb128 0x3
 11235 0667 91       		.byte	0x91
 11236 0668 F07E     		.sleb128 -144
 11237 066a 19       		.uleb128 0x19
 11238 066b 01       		.uleb128 0x1
 11239 066c 51       		.byte	0x51
 11240 066d 04       		.uleb128 0x4
 11241 066e 91       		.byte	0x91
 11242 066f E47E     		.sleb128 -156
 11243 0671 06       		.byte	0x6
 11244 0672 00       		.byte	0
 11245 0673 18       		.uleb128 0x18
 11246 0674 2C010000 		.4byte	.LVL57
 11247 0678 881F0000 		.4byte	0x1f88
 11248 067c 8E060000 		.4byte	0x68e
 11249 0680 19       		.uleb128 0x19
 11250 0681 01       		.uleb128 0x1
 11251 0682 50       		.byte	0x50
 11252 0683 03       		.uleb128 0x3
 11253 0684 91       		.byte	0x91
 11254 0685 987F     		.sleb128 -104
 11255 0687 19       		.uleb128 0x19
 11256 0688 01       		.uleb128 0x1
 11257 0689 51       		.byte	0x51
 11258 068a 02       		.uleb128 0x2
 11259 068b 75       		.byte	0x75
ARM GAS  C:\Users\NIGHDR~1\AppData\Local\Temp\ccrnUt9g.s 			page 210


 11260 068c 00       		.sleb128 0
 11261 068d 00       		.byte	0
 11262 068e 18       		.uleb128 0x18
 11263 068f 34010000 		.4byte	.LVL58
 11264 0693 931F0000 		.4byte	0x1f93
 11265 0697 AA060000 		.4byte	0x6aa
 11266 069b 19       		.uleb128 0x19
 11267 069c 01       		.uleb128 0x1
 11268 069d 50       		.byte	0x50
 11269 069e 02       		.uleb128 0x2
 11270 069f 91       		.byte	0x91
 11271 06a0 40       		.sleb128 -64
 11272 06a1 19       		.uleb128 0x19
 11273 06a2 01       		.uleb128 0x1
 11274 06a3 51       		.byte	0x51
 11275 06a4 04       		.uleb128 0x4
 11276 06a5 91       		.byte	0x91
 11277 06a6 E87E     		.sleb128 -152
 11278 06a8 06       		.byte	0x6
 11279 06a9 00       		.byte	0
 11280 06aa 1A       		.uleb128 0x1a
 11281 06ab 3E010000 		.4byte	.LVL59
 11282 06af E2020000 		.4byte	0x2e2
 11283 06b3 19       		.uleb128 0x19
 11284 06b4 01       		.uleb128 0x1
 11285 06b5 50       		.byte	0x50
 11286 06b6 02       		.uleb128 0x2
 11287 06b7 75       		.byte	0x75
 11288 06b8 00       		.sleb128 0
 11289 06b9 19       		.uleb128 0x19
 11290 06ba 01       		.uleb128 0x1
 11291 06bb 51       		.byte	0x51
 11292 06bc 03       		.uleb128 0x3
 11293 06bd 91       		.byte	0x91
 11294 06be F07E     		.sleb128 -144
 11295 06c0 19       		.uleb128 0x19
 11296 06c1 01       		.uleb128 0x1
 11297 06c2 52       		.byte	0x52
 11298 06c3 05       		.uleb128 0x5
 11299 06c4 91       		.byte	0x91
 11300 06c5 EC7E     		.sleb128 -148
 11301 06c7 94       		.byte	0x94
 11302 06c8 01       		.byte	0x1
 11303 06c9 00       		.byte	0
 11304 06ca 00       		.byte	0
 11305 06cb 1D       		.uleb128 0x1d
 11306 06cc 8E030000 		.4byte	.LASF33
 11307 06d0 01       		.byte	0x1
 11308 06d1 09       		.byte	0x9
 11309 06d2 00000000 		.4byte	.LFB0
 11310 06d6 A4000000 		.4byte	.LFE0-.LFB0
 11311 06da 01       		.uleb128 0x1
 11312 06db 9C       		.byte	0x9c
 11313 06dc 77080000 		.4byte	0x877
 11314 06e0 0D       		.uleb128 0xd
 11315 06e1 7200     		.ascii	"r\000"
 11316 06e3 01       		.byte	0x1
ARM GAS  C:\Users\NIGHDR~1\AppData\Local\Temp\ccrnUt9g.s 			page 211


 11317 06e4 09       		.byte	0x9
 11318 06e5 77080000 		.4byte	0x877
 11319 06e9 5F020000 		.4byte	.LLST17
 11320 06ed 0D       		.uleb128 0xd
 11321 06ee 7000     		.ascii	"p\000"
 11322 06f0 01       		.byte	0x1
 11323 06f1 09       		.byte	0x9
 11324 06f2 7D080000 		.4byte	0x87d
 11325 06f6 8B020000 		.4byte	.LLST18
 11326 06fa 0D       		.uleb128 0xd
 11327 06fb 7100     		.ascii	"q\000"
 11328 06fd 01       		.byte	0x1
 11329 06fe 09       		.byte	0x9
 11330 06ff 88080000 		.4byte	0x888
 11331 0703 C2020000 		.4byte	.LLST19
 11332 0707 1E       		.uleb128 0x1e
 11333 0708 743000   		.ascii	"t0\000"
 11334 070b 01       		.byte	0x1
 11335 070c 0A       		.byte	0xa
 11336 070d 97000000 		.4byte	0x97
 11337 0711 02       		.uleb128 0x2
 11338 0712 91       		.byte	0x91
 11339 0713 40       		.sleb128 -64
 11340 0714 18       		.uleb128 0x18
 11341 0715 16000000 		.4byte	.LVL66
 11342 0719 9E1F0000 		.4byte	0x1f9e
 11343 071d 34070000 		.4byte	0x734
 11344 0721 19       		.uleb128 0x19
 11345 0722 01       		.uleb128 0x1
 11346 0723 50       		.byte	0x50
 11347 0724 02       		.uleb128 0x2
 11348 0725 74       		.byte	0x74
 11349 0726 00       		.sleb128 0
 11350 0727 19       		.uleb128 0x19
 11351 0728 01       		.uleb128 0x1
 11352 0729 51       		.byte	0x51
 11353 072a 02       		.uleb128 0x2
 11354 072b 76       		.byte	0x76
 11355 072c 00       		.sleb128 0
 11356 072d 19       		.uleb128 0x19
 11357 072e 01       		.uleb128 0x1
 11358 072f 52       		.byte	0x52
 11359 0730 02       		.uleb128 0x2
 11360 0731 75       		.byte	0x75
 11361 0732 00       		.sleb128 0
 11362 0733 00       		.byte	0
 11363 0734 18       		.uleb128 0x18
 11364 0735 2A000000 		.4byte	.LVL67
 11365 0739 A91F0000 		.4byte	0x1fa9
 11366 073d 54070000 		.4byte	0x754
 11367 0741 19       		.uleb128 0x19
 11368 0742 01       		.uleb128 0x1
 11369 0743 50       		.byte	0x50
 11370 0744 02       		.uleb128 0x2
 11371 0745 76       		.byte	0x76
 11372 0746 00       		.sleb128 0
 11373 0747 19       		.uleb128 0x19
ARM GAS  C:\Users\NIGHDR~1\AppData\Local\Temp\ccrnUt9g.s 			page 212


 11374 0748 01       		.uleb128 0x1
 11375 0749 51       		.byte	0x51
 11376 074a 02       		.uleb128 0x2
 11377 074b 75       		.byte	0x75
 11378 074c 28       		.sleb128 40
 11379 074d 19       		.uleb128 0x19
 11380 074e 01       		.uleb128 0x1
 11381 074f 52       		.byte	0x52
 11382 0750 02       		.uleb128 0x2
 11383 0751 75       		.byte	0x75
 11384 0752 00       		.sleb128 0
 11385 0753 00       		.byte	0
 11386 0754 18       		.uleb128 0x18
 11387 0755 3E000000 		.4byte	.LVL68
 11388 0759 B41F0000 		.4byte	0x1fb4
 11389 075d 76070000 		.4byte	0x776
 11390 0761 19       		.uleb128 0x19
 11391 0762 01       		.uleb128 0x1
 11392 0763 50       		.byte	0x50
 11393 0764 04       		.uleb128 0x4
 11394 0765 91       		.byte	0x91
 11395 0766 BC7F     		.sleb128 -68
 11396 0768 06       		.byte	0x6
 11397 0769 19       		.uleb128 0x19
 11398 076a 01       		.uleb128 0x1
 11399 076b 51       		.byte	0x51
 11400 076c 02       		.uleb128 0x2
 11401 076d 74       		.byte	0x74
 11402 076e 00       		.sleb128 0
 11403 076f 19       		.uleb128 0x19
 11404 0770 01       		.uleb128 0x1
 11405 0771 52       		.byte	0x52
 11406 0772 02       		.uleb128 0x2
 11407 0773 77       		.byte	0x77
 11408 0774 00       		.sleb128 0
 11409 0775 00       		.byte	0
 11410 0776 18       		.uleb128 0x18
 11411 0777 4C000000 		.4byte	.LVL69
 11412 077b B41F0000 		.4byte	0x1fb4
 11413 077f 96070000 		.4byte	0x796
 11414 0783 19       		.uleb128 0x19
 11415 0784 01       		.uleb128 0x1
 11416 0785 50       		.byte	0x50
 11417 0786 02       		.uleb128 0x2
 11418 0787 76       		.byte	0x76
 11419 0788 00       		.sleb128 0
 11420 0789 19       		.uleb128 0x19
 11421 078a 01       		.uleb128 0x1
 11422 078b 51       		.byte	0x51
 11423 078c 02       		.uleb128 0x2
 11424 078d 76       		.byte	0x76
 11425 078e 00       		.sleb128 0
 11426 078f 19       		.uleb128 0x19
 11427 0790 01       		.uleb128 0x1
 11428 0791 52       		.byte	0x52
 11429 0792 02       		.uleb128 0x2
 11430 0793 77       		.byte	0x77
ARM GAS  C:\Users\NIGHDR~1\AppData\Local\Temp\ccrnUt9g.s 			page 213


 11431 0794 28       		.sleb128 40
 11432 0795 00       		.byte	0
 11433 0796 18       		.uleb128 0x18
 11434 0797 5C000000 		.4byte	.LVL70
 11435 079b B41F0000 		.4byte	0x1fb4
 11436 079f B8070000 		.4byte	0x7b8
 11437 07a3 19       		.uleb128 0x19
 11438 07a4 01       		.uleb128 0x1
 11439 07a5 50       		.byte	0x50
 11440 07a6 02       		.uleb128 0x2
 11441 07a7 76       		.byte	0x76
 11442 07a8 00       		.sleb128 0
 11443 07a9 19       		.uleb128 0x19
 11444 07aa 01       		.uleb128 0x1
 11445 07ab 51       		.byte	0x51
 11446 07ac 03       		.uleb128 0x3
 11447 07ad 77       		.byte	0x77
 11448 07ae F800     		.sleb128 120
 11449 07b0 19       		.uleb128 0x19
 11450 07b1 01       		.uleb128 0x1
 11451 07b2 52       		.byte	0x52
 11452 07b3 03       		.uleb128 0x3
 11453 07b4 75       		.byte	0x75
 11454 07b5 F800     		.sleb128 120
 11455 07b7 00       		.byte	0
 11456 07b8 18       		.uleb128 0x18
 11457 07b9 6A000000 		.4byte	.LVL71
 11458 07bd B41F0000 		.4byte	0x1fb4
 11459 07c1 DA070000 		.4byte	0x7da
 11460 07c5 19       		.uleb128 0x19
 11461 07c6 01       		.uleb128 0x1
 11462 07c7 50       		.byte	0x50
 11463 07c8 02       		.uleb128 0x2
 11464 07c9 74       		.byte	0x74
 11465 07ca 00       		.sleb128 0
 11466 07cb 19       		.uleb128 0x19
 11467 07cc 01       		.uleb128 0x1
 11468 07cd 51       		.byte	0x51
 11469 07ce 03       		.uleb128 0x3
 11470 07cf 75       		.byte	0x75
 11471 07d0 D000     		.sleb128 80
 11472 07d2 19       		.uleb128 0x19
 11473 07d3 01       		.uleb128 0x1
 11474 07d4 52       		.byte	0x52
 11475 07d5 03       		.uleb128 0x3
 11476 07d6 77       		.byte	0x77
 11477 07d7 D000     		.sleb128 80
 11478 07d9 00       		.byte	0
 11479 07da 18       		.uleb128 0x18
 11480 07db 74000000 		.4byte	.LVL72
 11481 07df 9E1F0000 		.4byte	0x1f9e
 11482 07e3 FA070000 		.4byte	0x7fa
 11483 07e7 19       		.uleb128 0x19
 11484 07e8 01       		.uleb128 0x1
 11485 07e9 50       		.byte	0x50
 11486 07ea 02       		.uleb128 0x2
 11487 07eb 91       		.byte	0x91
ARM GAS  C:\Users\NIGHDR~1\AppData\Local\Temp\ccrnUt9g.s 			page 214


 11488 07ec 40       		.sleb128 -64
 11489 07ed 19       		.uleb128 0x19
 11490 07ee 01       		.uleb128 0x1
 11491 07ef 51       		.byte	0x51
 11492 07f0 02       		.uleb128 0x2
 11493 07f1 74       		.byte	0x74
 11494 07f2 00       		.sleb128 0
 11495 07f3 19       		.uleb128 0x19
 11496 07f4 01       		.uleb128 0x1
 11497 07f5 52       		.byte	0x52
 11498 07f6 02       		.uleb128 0x2
 11499 07f7 74       		.byte	0x74
 11500 07f8 00       		.sleb128 0
 11501 07f9 00       		.byte	0
 11502 07fa 18       		.uleb128 0x18
 11503 07fb 82000000 		.4byte	.LVL75
 11504 07ff A91F0000 		.4byte	0x1fa9
 11505 0803 1A080000 		.4byte	0x81a
 11506 0807 19       		.uleb128 0x19
 11507 0808 01       		.uleb128 0x1
 11508 0809 50       		.byte	0x50
 11509 080a 02       		.uleb128 0x2
 11510 080b 74       		.byte	0x74
 11511 080c 00       		.sleb128 0
 11512 080d 19       		.uleb128 0x19
 11513 080e 01       		.uleb128 0x1
 11514 080f 51       		.byte	0x51
 11515 0810 02       		.uleb128 0x2
 11516 0811 77       		.byte	0x77
 11517 0812 00       		.sleb128 0
 11518 0813 19       		.uleb128 0x19
 11519 0814 01       		.uleb128 0x1
 11520 0815 52       		.byte	0x52
 11521 0816 02       		.uleb128 0x2
 11522 0817 75       		.byte	0x75
 11523 0818 00       		.sleb128 0
 11524 0819 00       		.byte	0
 11525 081a 18       		.uleb128 0x18
 11526 081b 8C000000 		.4byte	.LVL76
 11527 081f 9E1F0000 		.4byte	0x1f9e
 11528 0823 3A080000 		.4byte	0x83a
 11529 0827 19       		.uleb128 0x19
 11530 0828 01       		.uleb128 0x1
 11531 0829 50       		.byte	0x50
 11532 082a 02       		.uleb128 0x2
 11533 082b 75       		.byte	0x75
 11534 082c 00       		.sleb128 0
 11535 082d 19       		.uleb128 0x19
 11536 082e 01       		.uleb128 0x1
 11537 082f 51       		.byte	0x51
 11538 0830 02       		.uleb128 0x2
 11539 0831 77       		.byte	0x77
 11540 0832 00       		.sleb128 0
 11541 0833 19       		.uleb128 0x19
 11542 0834 01       		.uleb128 0x1
 11543 0835 52       		.byte	0x52
 11544 0836 02       		.uleb128 0x2
ARM GAS  C:\Users\NIGHDR~1\AppData\Local\Temp\ccrnUt9g.s 			page 215


 11545 0837 75       		.byte	0x75
 11546 0838 00       		.sleb128 0
 11547 0839 00       		.byte	0
 11548 083a 18       		.uleb128 0x18
 11549 083b 96000000 		.4byte	.LVL77
 11550 083f 9E1F0000 		.4byte	0x1f9e
 11551 0843 5A080000 		.4byte	0x85a
 11552 0847 19       		.uleb128 0x19
 11553 0848 01       		.uleb128 0x1
 11554 0849 50       		.byte	0x50
 11555 084a 02       		.uleb128 0x2
 11556 084b 77       		.byte	0x77
 11557 084c 00       		.sleb128 0
 11558 084d 19       		.uleb128 0x19
 11559 084e 01       		.uleb128 0x1
 11560 084f 51       		.byte	0x51
 11561 0850 02       		.uleb128 0x2
 11562 0851 91       		.byte	0x91
 11563 0852 40       		.sleb128 -64
 11564 0853 19       		.uleb128 0x19
 11565 0854 01       		.uleb128 0x1
 11566 0855 52       		.byte	0x52
 11567 0856 02       		.uleb128 0x2
 11568 0857 76       		.byte	0x76
 11569 0858 00       		.sleb128 0
 11570 0859 00       		.byte	0
 11571 085a 1A       		.uleb128 0x1a
 11572 085b A0000000 		.4byte	.LVL78
 11573 085f A91F0000 		.4byte	0x1fa9
 11574 0863 19       		.uleb128 0x19
 11575 0864 01       		.uleb128 0x1
 11576 0865 50       		.byte	0x50
 11577 0866 02       		.uleb128 0x2
 11578 0867 76       		.byte	0x76
 11579 0868 00       		.sleb128 0
 11580 0869 19       		.uleb128 0x19
 11581 086a 01       		.uleb128 0x1
 11582 086b 51       		.byte	0x51
 11583 086c 02       		.uleb128 0x2
 11584 086d 91       		.byte	0x91
 11585 086e 40       		.sleb128 -64
 11586 086f 19       		.uleb128 0x19
 11587 0870 01       		.uleb128 0x1
 11588 0871 52       		.byte	0x52
 11589 0872 02       		.uleb128 0x2
 11590 0873 76       		.byte	0x76
 11591 0874 00       		.sleb128 0
 11592 0875 00       		.byte	0
 11593 0876 00       		.byte	0
 11594 0877 0F       		.uleb128 0xf
 11595 0878 04       		.byte	0x4
 11596 0879 57010000 		.4byte	0x157
 11597 087d 0F       		.uleb128 0xf
 11598 087e 04       		.byte	0x4
 11599 087f 83080000 		.4byte	0x883
 11600 0883 10       		.uleb128 0x10
 11601 0884 1B010000 		.4byte	0x11b
ARM GAS  C:\Users\NIGHDR~1\AppData\Local\Temp\ccrnUt9g.s 			page 216


 11602 0888 0F       		.uleb128 0xf
 11603 0889 04       		.byte	0x4
 11604 088a 8E080000 		.4byte	0x88e
 11605 088e 10       		.uleb128 0x10
 11606 088f D1010000 		.4byte	0x1d1
 11607 0893 1F       		.uleb128 0x1f
 11608 0894 28010000 		.4byte	.LASF74
 11609 0898 01       		.byte	0x1
 11610 0899 8D       		.byte	0x8d
 11611 089a 73000000 		.4byte	0x73
 11612 089e 00000000 		.4byte	.LFB3
 11613 08a2 04010000 		.4byte	.LFE3-.LFB3
 11614 08a6 01       		.uleb128 0x1
 11615 08a7 9C       		.byte	0x9c
 11616 08a8 C60B0000 		.4byte	0xbc6
 11617 08ac 0D       		.uleb128 0xd
 11618 08ad 6800     		.ascii	"h\000"
 11619 08af 01       		.byte	0x1
 11620 08b0 8D       		.byte	0x8d
 11621 08b1 C60B0000 		.4byte	0xbc6
 11622 08b5 EE020000 		.4byte	.LLST20
 11623 08b9 0D       		.uleb128 0xd
 11624 08ba 7300     		.ascii	"s\000"
 11625 08bc 01       		.byte	0x1
 11626 08bd 8D       		.byte	0x8d
 11627 08be 37020000 		.4byte	0x237
 11628 08c2 35030000 		.4byte	.LLST21
 11629 08c6 1E       		.uleb128 0x1e
 11630 08c7 7500     		.ascii	"u\000"
 11631 08c9 01       		.byte	0x1
 11632 08ca 8E       		.byte	0x8e
 11633 08cb 97000000 		.4byte	0x97
 11634 08cf 02       		.uleb128 0x2
 11635 08d0 91       		.byte	0x91
 11636 08d1 40       		.sleb128 -64
 11637 08d2 1E       		.uleb128 0x1e
 11638 08d3 7600     		.ascii	"v\000"
 11639 08d5 01       		.byte	0x1
 11640 08d6 8F       		.byte	0x8f
 11641 08d7 97000000 		.4byte	0x97
 11642 08db 03       		.uleb128 0x3
 11643 08dc 91       		.byte	0x91
 11644 08dd 987F     		.sleb128 -104
 11645 08df 1E       		.uleb128 0x1e
 11646 08e0 763300   		.ascii	"v3\000"
 11647 08e3 01       		.byte	0x1
 11648 08e4 90       		.byte	0x90
 11649 08e5 97000000 		.4byte	0x97
 11650 08e9 03       		.uleb128 0x3
 11651 08ea 91       		.byte	0x91
 11652 08eb F07E     		.sleb128 -144
 11653 08ed 1E       		.uleb128 0x1e
 11654 08ee 76787800 		.ascii	"vxx\000"
 11655 08f2 01       		.byte	0x1
 11656 08f3 91       		.byte	0x91
 11657 08f4 97000000 		.4byte	0x97
 11658 08f8 03       		.uleb128 0x3
ARM GAS  C:\Users\NIGHDR~1\AppData\Local\Temp\ccrnUt9g.s 			page 217


 11659 08f9 91       		.byte	0x91
 11660 08fa C87E     		.sleb128 -184
 11661 08fc 20       		.uleb128 0x20
 11662 08fd 40030000 		.4byte	.LASF32
 11663 0901 01       		.byte	0x1
 11664 0902 92       		.byte	0x92
 11665 0903 97000000 		.4byte	0x97
 11666 0907 03       		.uleb128 0x3
 11667 0908 91       		.byte	0x91
 11668 0909 A07E     		.sleb128 -224
 11669 090b 18       		.uleb128 0x18
 11670 090c 12000000 		.4byte	.LVL82
 11671 0910 BF1F0000 		.4byte	0x1fbf
 11672 0914 25090000 		.4byte	0x925
 11673 0918 19       		.uleb128 0x19
 11674 0919 01       		.uleb128 0x1
 11675 091a 50       		.byte	0x50
 11676 091b 02       		.uleb128 0x2
 11677 091c 76       		.byte	0x76
 11678 091d 00       		.sleb128 0
 11679 091e 19       		.uleb128 0x19
 11680 091f 01       		.uleb128 0x1
 11681 0920 51       		.byte	0x51
 11682 0921 02       		.uleb128 0x2
 11683 0922 77       		.byte	0x77
 11684 0923 00       		.sleb128 0
 11685 0924 00       		.byte	0
 11686 0925 18       		.uleb128 0x18
 11687 0926 1C000000 		.4byte	.LVL83
 11688 092a 721F0000 		.4byte	0x1f72
 11689 092e 39090000 		.4byte	0x939
 11690 0932 19       		.uleb128 0x19
 11691 0933 01       		.uleb128 0x1
 11692 0934 50       		.byte	0x50
 11693 0935 02       		.uleb128 0x2
 11694 0936 75       		.byte	0x75
 11695 0937 00       		.sleb128 0
 11696 0938 00       		.byte	0
 11697 0939 18       		.uleb128 0x18
 11698 093a 24000000 		.4byte	.LVL84
 11699 093e CA1F0000 		.4byte	0x1fca
 11700 0942 53090000 		.4byte	0x953
 11701 0946 19       		.uleb128 0x19
 11702 0947 01       		.uleb128 0x1
 11703 0948 50       		.byte	0x50
 11704 0949 02       		.uleb128 0x2
 11705 094a 91       		.byte	0x91
 11706 094b 40       		.sleb128 -64
 11707 094c 19       		.uleb128 0x19
 11708 094d 01       		.uleb128 0x1
 11709 094e 51       		.byte	0x51
 11710 094f 02       		.uleb128 0x2
 11711 0950 76       		.byte	0x76
 11712 0951 00       		.sleb128 0
 11713 0952 00       		.byte	0
 11714 0953 18       		.uleb128 0x18
 11715 0954 2E000000 		.4byte	.LVL85
ARM GAS  C:\Users\NIGHDR~1\AppData\Local\Temp\ccrnUt9g.s 			page 218


 11716 0958 B41F0000 		.4byte	0x1fb4
 11717 095c 77090000 		.4byte	0x977
 11718 0960 19       		.uleb128 0x19
 11719 0961 01       		.uleb128 0x1
 11720 0962 50       		.byte	0x50
 11721 0963 03       		.uleb128 0x3
 11722 0964 91       		.byte	0x91
 11723 0965 987F     		.sleb128 -104
 11724 0967 19       		.uleb128 0x19
 11725 0968 01       		.uleb128 0x1
 11726 0969 51       		.byte	0x51
 11727 096a 02       		.uleb128 0x2
 11728 096b 91       		.byte	0x91
 11729 096c 40       		.sleb128 -64
 11730 096d 19       		.uleb128 0x19
 11731 096e 01       		.uleb128 0x1
 11732 096f 52       		.byte	0x52
 11733 0970 05       		.uleb128 0x5
 11734 0971 03       		.byte	0x3
 11735 0972 00780000 		.4byte	.LANCHOR1
 11736 0976 00       		.byte	0
 11737 0977 18       		.uleb128 0x18
 11738 0978 38000000 		.4byte	.LVL86
 11739 097c A91F0000 		.4byte	0x1fa9
 11740 0980 97090000 		.4byte	0x997
 11741 0984 19       		.uleb128 0x19
 11742 0985 01       		.uleb128 0x1
 11743 0986 50       		.byte	0x50
 11744 0987 02       		.uleb128 0x2
 11745 0988 91       		.byte	0x91
 11746 0989 40       		.sleb128 -64
 11747 098a 19       		.uleb128 0x19
 11748 098b 01       		.uleb128 0x1
 11749 098c 51       		.byte	0x51
 11750 098d 02       		.uleb128 0x2
 11751 098e 91       		.byte	0x91
 11752 098f 40       		.sleb128 -64
 11753 0990 19       		.uleb128 0x19
 11754 0991 01       		.uleb128 0x1
 11755 0992 52       		.byte	0x52
 11756 0993 02       		.uleb128 0x2
 11757 0994 75       		.byte	0x75
 11758 0995 00       		.sleb128 0
 11759 0996 00       		.byte	0
 11760 0997 18       		.uleb128 0x18
 11761 0998 42000000 		.4byte	.LVL87
 11762 099c 9E1F0000 		.4byte	0x1f9e
 11763 09a0 B9090000 		.4byte	0x9b9
 11764 09a4 19       		.uleb128 0x19
 11765 09a5 01       		.uleb128 0x1
 11766 09a6 50       		.byte	0x50
 11767 09a7 03       		.uleb128 0x3
 11768 09a8 91       		.byte	0x91
 11769 09a9 987F     		.sleb128 -104
 11770 09ab 19       		.uleb128 0x19
 11771 09ac 01       		.uleb128 0x1
 11772 09ad 51       		.byte	0x51
ARM GAS  C:\Users\NIGHDR~1\AppData\Local\Temp\ccrnUt9g.s 			page 219


 11773 09ae 03       		.uleb128 0x3
 11774 09af 91       		.byte	0x91
 11775 09b0 987F     		.sleb128 -104
 11776 09b2 19       		.uleb128 0x19
 11777 09b3 01       		.uleb128 0x1
 11778 09b4 52       		.byte	0x52
 11779 09b5 02       		.uleb128 0x2
 11780 09b6 75       		.byte	0x75
 11781 09b7 00       		.sleb128 0
 11782 09b8 00       		.byte	0
 11783 09b9 18       		.uleb128 0x18
 11784 09ba 4A000000 		.4byte	.LVL88
 11785 09be CA1F0000 		.4byte	0x1fca
 11786 09c2 D5090000 		.4byte	0x9d5
 11787 09c6 19       		.uleb128 0x19
 11788 09c7 01       		.uleb128 0x1
 11789 09c8 50       		.byte	0x50
 11790 09c9 03       		.uleb128 0x3
 11791 09ca 91       		.byte	0x91
 11792 09cb F07E     		.sleb128 -144
 11793 09cd 19       		.uleb128 0x19
 11794 09ce 01       		.uleb128 0x1
 11795 09cf 51       		.byte	0x51
 11796 09d0 03       		.uleb128 0x3
 11797 09d1 91       		.byte	0x91
 11798 09d2 987F     		.sleb128 -104
 11799 09d4 00       		.byte	0
 11800 09d5 18       		.uleb128 0x18
 11801 09d6 54000000 		.4byte	.LVL89
 11802 09da B41F0000 		.4byte	0x1fb4
 11803 09de F8090000 		.4byte	0x9f8
 11804 09e2 19       		.uleb128 0x19
 11805 09e3 01       		.uleb128 0x1
 11806 09e4 50       		.byte	0x50
 11807 09e5 03       		.uleb128 0x3
 11808 09e6 91       		.byte	0x91
 11809 09e7 F07E     		.sleb128 -144
 11810 09e9 19       		.uleb128 0x19
 11811 09ea 01       		.uleb128 0x1
 11812 09eb 51       		.byte	0x51
 11813 09ec 03       		.uleb128 0x3
 11814 09ed 91       		.byte	0x91
 11815 09ee F07E     		.sleb128 -144
 11816 09f0 19       		.uleb128 0x19
 11817 09f1 01       		.uleb128 0x1
 11818 09f2 52       		.byte	0x52
 11819 09f3 03       		.uleb128 0x3
 11820 09f4 91       		.byte	0x91
 11821 09f5 987F     		.sleb128 -104
 11822 09f7 00       		.byte	0
 11823 09f8 18       		.uleb128 0x18
 11824 09f9 5C000000 		.4byte	.LVL90
 11825 09fd CA1F0000 		.4byte	0x1fca
 11826 0a01 130A0000 		.4byte	0xa13
 11827 0a05 19       		.uleb128 0x19
 11828 0a06 01       		.uleb128 0x1
 11829 0a07 50       		.byte	0x50
ARM GAS  C:\Users\NIGHDR~1\AppData\Local\Temp\ccrnUt9g.s 			page 220


 11830 0a08 02       		.uleb128 0x2
 11831 0a09 74       		.byte	0x74
 11832 0a0a 00       		.sleb128 0
 11833 0a0b 19       		.uleb128 0x19
 11834 0a0c 01       		.uleb128 0x1
 11835 0a0d 51       		.byte	0x51
 11836 0a0e 03       		.uleb128 0x3
 11837 0a0f 91       		.byte	0x91
 11838 0a10 F07E     		.sleb128 -144
 11839 0a12 00       		.byte	0
 11840 0a13 18       		.uleb128 0x18
 11841 0a14 66000000 		.4byte	.LVL91
 11842 0a18 B41F0000 		.4byte	0x1fb4
 11843 0a1c 340A0000 		.4byte	0xa34
 11844 0a20 19       		.uleb128 0x19
 11845 0a21 01       		.uleb128 0x1
 11846 0a22 50       		.byte	0x50
 11847 0a23 02       		.uleb128 0x2
 11848 0a24 74       		.byte	0x74
 11849 0a25 00       		.sleb128 0
 11850 0a26 19       		.uleb128 0x19
 11851 0a27 01       		.uleb128 0x1
 11852 0a28 51       		.byte	0x51
 11853 0a29 02       		.uleb128 0x2
 11854 0a2a 74       		.byte	0x74
 11855 0a2b 00       		.sleb128 0
 11856 0a2c 19       		.uleb128 0x19
 11857 0a2d 01       		.uleb128 0x1
 11858 0a2e 52       		.byte	0x52
 11859 0a2f 03       		.uleb128 0x3
 11860 0a30 91       		.byte	0x91
 11861 0a31 987F     		.sleb128 -104
 11862 0a33 00       		.byte	0
 11863 0a34 18       		.uleb128 0x18
 11864 0a35 70000000 		.4byte	.LVL92
 11865 0a39 B41F0000 		.4byte	0x1fb4
 11866 0a3d 540A0000 		.4byte	0xa54
 11867 0a41 19       		.uleb128 0x19
 11868 0a42 01       		.uleb128 0x1
 11869 0a43 50       		.byte	0x50
 11870 0a44 02       		.uleb128 0x2
 11871 0a45 74       		.byte	0x74
 11872 0a46 00       		.sleb128 0
 11873 0a47 19       		.uleb128 0x19
 11874 0a48 01       		.uleb128 0x1
 11875 0a49 51       		.byte	0x51
 11876 0a4a 02       		.uleb128 0x2
 11877 0a4b 74       		.byte	0x74
 11878 0a4c 00       		.sleb128 0
 11879 0a4d 19       		.uleb128 0x19
 11880 0a4e 01       		.uleb128 0x1
 11881 0a4f 52       		.byte	0x52
 11882 0a50 02       		.uleb128 0x2
 11883 0a51 91       		.byte	0x91
 11884 0a52 40       		.sleb128 -64
 11885 0a53 00       		.byte	0
 11886 0a54 18       		.uleb128 0x18
ARM GAS  C:\Users\NIGHDR~1\AppData\Local\Temp\ccrnUt9g.s 			page 221


 11887 0a55 78000000 		.4byte	.LVL93
 11888 0a59 D51F0000 		.4byte	0x1fd5
 11889 0a5d 6E0A0000 		.4byte	0xa6e
 11890 0a61 19       		.uleb128 0x19
 11891 0a62 01       		.uleb128 0x1
 11892 0a63 50       		.byte	0x50
 11893 0a64 02       		.uleb128 0x2
 11894 0a65 74       		.byte	0x74
 11895 0a66 00       		.sleb128 0
 11896 0a67 19       		.uleb128 0x19
 11897 0a68 01       		.uleb128 0x1
 11898 0a69 51       		.byte	0x51
 11899 0a6a 02       		.uleb128 0x2
 11900 0a6b 74       		.byte	0x74
 11901 0a6c 00       		.sleb128 0
 11902 0a6d 00       		.byte	0
 11903 0a6e 18       		.uleb128 0x18
 11904 0a6f 82000000 		.4byte	.LVL94
 11905 0a73 B41F0000 		.4byte	0x1fb4
 11906 0a77 8F0A0000 		.4byte	0xa8f
 11907 0a7b 19       		.uleb128 0x19
 11908 0a7c 01       		.uleb128 0x1
 11909 0a7d 50       		.byte	0x50
 11910 0a7e 02       		.uleb128 0x2
 11911 0a7f 74       		.byte	0x74
 11912 0a80 00       		.sleb128 0
 11913 0a81 19       		.uleb128 0x19
 11914 0a82 01       		.uleb128 0x1
 11915 0a83 51       		.byte	0x51
 11916 0a84 02       		.uleb128 0x2
 11917 0a85 74       		.byte	0x74
 11918 0a86 00       		.sleb128 0
 11919 0a87 19       		.uleb128 0x19
 11920 0a88 01       		.uleb128 0x1
 11921 0a89 52       		.byte	0x52
 11922 0a8a 03       		.uleb128 0x3
 11923 0a8b 91       		.byte	0x91
 11924 0a8c F07E     		.sleb128 -144
 11925 0a8e 00       		.byte	0
 11926 0a8f 18       		.uleb128 0x18
 11927 0a90 8C000000 		.4byte	.LVL95
 11928 0a94 B41F0000 		.4byte	0x1fb4
 11929 0a98 AF0A0000 		.4byte	0xaaf
 11930 0a9c 19       		.uleb128 0x19
 11931 0a9d 01       		.uleb128 0x1
 11932 0a9e 50       		.byte	0x50
 11933 0a9f 02       		.uleb128 0x2
 11934 0aa0 74       		.byte	0x74
 11935 0aa1 00       		.sleb128 0
 11936 0aa2 19       		.uleb128 0x19
 11937 0aa3 01       		.uleb128 0x1
 11938 0aa4 51       		.byte	0x51
 11939 0aa5 02       		.uleb128 0x2
 11940 0aa6 74       		.byte	0x74
 11941 0aa7 00       		.sleb128 0
 11942 0aa8 19       		.uleb128 0x19
 11943 0aa9 01       		.uleb128 0x1
ARM GAS  C:\Users\NIGHDR~1\AppData\Local\Temp\ccrnUt9g.s 			page 222


 11944 0aaa 52       		.byte	0x52
 11945 0aab 02       		.uleb128 0x2
 11946 0aac 91       		.byte	0x91
 11947 0aad 40       		.sleb128 -64
 11948 0aae 00       		.byte	0
 11949 0aaf 18       		.uleb128 0x18
 11950 0ab0 94000000 		.4byte	.LVL96
 11951 0ab4 CA1F0000 		.4byte	0x1fca
 11952 0ab8 CA0A0000 		.4byte	0xaca
 11953 0abc 19       		.uleb128 0x19
 11954 0abd 01       		.uleb128 0x1
 11955 0abe 50       		.byte	0x50
 11956 0abf 03       		.uleb128 0x3
 11957 0ac0 91       		.byte	0x91
 11958 0ac1 C87E     		.sleb128 -184
 11959 0ac3 19       		.uleb128 0x19
 11960 0ac4 01       		.uleb128 0x1
 11961 0ac5 51       		.byte	0x51
 11962 0ac6 02       		.uleb128 0x2
 11963 0ac7 74       		.byte	0x74
 11964 0ac8 00       		.sleb128 0
 11965 0ac9 00       		.byte	0
 11966 0aca 18       		.uleb128 0x18
 11967 0acb 9E000000 		.4byte	.LVL97
 11968 0acf B41F0000 		.4byte	0x1fb4
 11969 0ad3 ED0A0000 		.4byte	0xaed
 11970 0ad7 19       		.uleb128 0x19
 11971 0ad8 01       		.uleb128 0x1
 11972 0ad9 50       		.byte	0x50
 11973 0ada 03       		.uleb128 0x3
 11974 0adb 91       		.byte	0x91
 11975 0adc C87E     		.sleb128 -184
 11976 0ade 19       		.uleb128 0x19
 11977 0adf 01       		.uleb128 0x1
 11978 0ae0 51       		.byte	0x51
 11979 0ae1 03       		.uleb128 0x3
 11980 0ae2 91       		.byte	0x91
 11981 0ae3 C87E     		.sleb128 -184
 11982 0ae5 19       		.uleb128 0x19
 11983 0ae6 01       		.uleb128 0x1
 11984 0ae7 52       		.byte	0x52
 11985 0ae8 03       		.uleb128 0x3
 11986 0ae9 91       		.byte	0x91
 11987 0aea 987F     		.sleb128 -104
 11988 0aec 00       		.byte	0
 11989 0aed 18       		.uleb128 0x18
 11990 0aee A8000000 		.4byte	.LVL98
 11991 0af2 A91F0000 		.4byte	0x1fa9
 11992 0af6 0E0B0000 		.4byte	0xb0e
 11993 0afa 19       		.uleb128 0x19
 11994 0afb 01       		.uleb128 0x1
 11995 0afc 50       		.byte	0x50
 11996 0afd 02       		.uleb128 0x2
 11997 0afe 7D       		.byte	0x7d
 11998 0aff 00       		.sleb128 0
 11999 0b00 19       		.uleb128 0x19
 12000 0b01 01       		.uleb128 0x1
ARM GAS  C:\Users\NIGHDR~1\AppData\Local\Temp\ccrnUt9g.s 			page 223


 12001 0b02 51       		.byte	0x51
 12002 0b03 03       		.uleb128 0x3
 12003 0b04 91       		.byte	0x91
 12004 0b05 C87E     		.sleb128 -184
 12005 0b07 19       		.uleb128 0x19
 12006 0b08 01       		.uleb128 0x1
 12007 0b09 52       		.byte	0x52
 12008 0b0a 02       		.uleb128 0x2
 12009 0b0b 91       		.byte	0x91
 12010 0b0c 40       		.sleb128 -64
 12011 0b0d 00       		.byte	0
 12012 0b0e 18       		.uleb128 0x18
 12013 0b0f AE000000 		.4byte	.LVL99
 12014 0b13 E01F0000 		.4byte	0x1fe0
 12015 0b17 220B0000 		.4byte	0xb22
 12016 0b1b 19       		.uleb128 0x19
 12017 0b1c 01       		.uleb128 0x1
 12018 0b1d 50       		.byte	0x50
 12019 0b1e 02       		.uleb128 0x2
 12020 0b1f 7D       		.byte	0x7d
 12021 0b20 00       		.sleb128 0
 12022 0b21 00       		.byte	0
 12023 0b22 18       		.uleb128 0x18
 12024 0b23 BC000000 		.4byte	.LVL100
 12025 0b27 9E1F0000 		.4byte	0x1f9e
 12026 0b2b 430B0000 		.4byte	0xb43
 12027 0b2f 19       		.uleb128 0x19
 12028 0b30 01       		.uleb128 0x1
 12029 0b31 50       		.byte	0x50
 12030 0b32 02       		.uleb128 0x2
 12031 0b33 7D       		.byte	0x7d
 12032 0b34 00       		.sleb128 0
 12033 0b35 19       		.uleb128 0x19
 12034 0b36 01       		.uleb128 0x1
 12035 0b37 51       		.byte	0x51
 12036 0b38 03       		.uleb128 0x3
 12037 0b39 91       		.byte	0x91
 12038 0b3a C87E     		.sleb128 -184
 12039 0b3c 19       		.uleb128 0x19
 12040 0b3d 01       		.uleb128 0x1
 12041 0b3e 52       		.byte	0x52
 12042 0b3f 02       		.uleb128 0x2
 12043 0b40 91       		.byte	0x91
 12044 0b41 40       		.sleb128 -64
 12045 0b42 00       		.byte	0
 12046 0b43 18       		.uleb128 0x18
 12047 0b44 C2000000 		.4byte	.LVL101
 12048 0b48 E01F0000 		.4byte	0x1fe0
 12049 0b4c 570B0000 		.4byte	0xb57
 12050 0b50 19       		.uleb128 0x19
 12051 0b51 01       		.uleb128 0x1
 12052 0b52 50       		.byte	0x50
 12053 0b53 02       		.uleb128 0x2
 12054 0b54 7D       		.byte	0x7d
 12055 0b55 00       		.sleb128 0
 12056 0b56 00       		.byte	0
 12057 0b57 18       		.uleb128 0x18
ARM GAS  C:\Users\NIGHDR~1\AppData\Local\Temp\ccrnUt9g.s 			page 224


 12058 0b58 D2000000 		.4byte	.LVL102
 12059 0b5c B41F0000 		.4byte	0x1fb4
 12060 0b60 7A0B0000 		.4byte	0xb7a
 12061 0b64 19       		.uleb128 0x19
 12062 0b65 01       		.uleb128 0x1
 12063 0b66 50       		.byte	0x50
 12064 0b67 02       		.uleb128 0x2
 12065 0b68 74       		.byte	0x74
 12066 0b69 00       		.sleb128 0
 12067 0b6a 19       		.uleb128 0x19
 12068 0b6b 01       		.uleb128 0x1
 12069 0b6c 51       		.byte	0x51
 12070 0b6d 02       		.uleb128 0x2
 12071 0b6e 74       		.byte	0x74
 12072 0b6f 00       		.sleb128 0
 12073 0b70 19       		.uleb128 0x19
 12074 0b71 01       		.uleb128 0x1
 12075 0b72 52       		.byte	0x52
 12076 0b73 05       		.uleb128 0x5
 12077 0b74 03       		.byte	0x3
 12078 0b75 28780000 		.4byte	.LANCHOR1+40
 12079 0b79 00       		.byte	0
 12080 0b7a 18       		.uleb128 0x18
 12081 0b7b D8000000 		.4byte	.LVL103
 12082 0b7f EB1F0000 		.4byte	0x1feb
 12083 0b83 8E0B0000 		.4byte	0xb8e
 12084 0b87 19       		.uleb128 0x19
 12085 0b88 01       		.uleb128 0x1
 12086 0b89 50       		.byte	0x50
 12087 0b8a 02       		.uleb128 0x2
 12088 0b8b 74       		.byte	0x74
 12089 0b8c 00       		.sleb128 0
 12090 0b8d 00       		.byte	0
 12091 0b8e 18       		.uleb128 0x18
 12092 0b8f E8000000 		.4byte	.LVL104
 12093 0b93 931F0000 		.4byte	0x1f93
 12094 0b97 A80B0000 		.4byte	0xba8
 12095 0b9b 19       		.uleb128 0x19
 12096 0b9c 01       		.uleb128 0x1
 12097 0b9d 50       		.byte	0x50
 12098 0b9e 02       		.uleb128 0x2
 12099 0b9f 74       		.byte	0x74
 12100 0ba0 00       		.sleb128 0
 12101 0ba1 19       		.uleb128 0x19
 12102 0ba2 01       		.uleb128 0x1
 12103 0ba3 51       		.byte	0x51
 12104 0ba4 02       		.uleb128 0x2
 12105 0ba5 74       		.byte	0x74
 12106 0ba6 00       		.sleb128 0
 12107 0ba7 00       		.byte	0
 12108 0ba8 1A       		.uleb128 0x1a
 12109 0ba9 F4000000 		.4byte	.LVL105
 12110 0bad B41F0000 		.4byte	0x1fb4
 12111 0bb1 19       		.uleb128 0x19
 12112 0bb2 01       		.uleb128 0x1
 12113 0bb3 50       		.byte	0x50
 12114 0bb4 03       		.uleb128 0x3
ARM GAS  C:\Users\NIGHDR~1\AppData\Local\Temp\ccrnUt9g.s 			page 225


 12115 0bb5 74       		.byte	0x74
 12116 0bb6 F800     		.sleb128 120
 12117 0bb8 19       		.uleb128 0x19
 12118 0bb9 01       		.uleb128 0x1
 12119 0bba 51       		.byte	0x51
 12120 0bbb 02       		.uleb128 0x2
 12121 0bbc 74       		.byte	0x74
 12122 0bbd 00       		.sleb128 0
 12123 0bbe 19       		.uleb128 0x19
 12124 0bbf 01       		.uleb128 0x1
 12125 0bc0 52       		.byte	0x52
 12126 0bc1 02       		.uleb128 0x2
 12127 0bc2 76       		.byte	0x76
 12128 0bc3 00       		.sleb128 0
 12129 0bc4 00       		.byte	0
 12130 0bc5 00       		.byte	0
 12131 0bc6 0F       		.uleb128 0xf
 12132 0bc7 04       		.byte	0x4
 12133 0bc8 1B010000 		.4byte	0x11b
 12134 0bcc 1D       		.uleb128 0x1d
 12135 0bcd 28000000 		.4byte	.LASF34
 12136 0bd1 01       		.byte	0x1
 12137 0bd2 BC       		.byte	0xbc
 12138 0bd3 00000000 		.4byte	.LFB4
 12139 0bd7 98000000 		.4byte	.LFE4-.LFB4
 12140 0bdb 01       		.uleb128 0x1
 12141 0bdc 9C       		.byte	0x9c
 12142 0bdd 580D0000 		.4byte	0xd58
 12143 0be1 0D       		.uleb128 0xd
 12144 0be2 7200     		.ascii	"r\000"
 12145 0be4 01       		.byte	0x1
 12146 0be5 BC       		.byte	0xbc
 12147 0be6 77080000 		.4byte	0x877
 12148 0bea 61030000 		.4byte	.LLST22
 12149 0bee 0D       		.uleb128 0xd
 12150 0bef 7000     		.ascii	"p\000"
 12151 0bf1 01       		.byte	0x1
 12152 0bf2 BC       		.byte	0xbc
 12153 0bf3 7D080000 		.4byte	0x87d
 12154 0bf7 8D030000 		.4byte	.LLST23
 12155 0bfb 0D       		.uleb128 0xd
 12156 0bfc 7100     		.ascii	"q\000"
 12157 0bfe 01       		.byte	0x1
 12158 0bff BC       		.byte	0xbc
 12159 0c00 87030000 		.4byte	0x387
 12160 0c04 C4030000 		.4byte	.LLST24
 12161 0c08 1E       		.uleb128 0x1e
 12162 0c09 743000   		.ascii	"t0\000"
 12163 0c0c 01       		.byte	0x1
 12164 0c0d BD       		.byte	0xbd
 12165 0c0e 97000000 		.4byte	0x97
 12166 0c12 02       		.uleb128 0x2
 12167 0c13 91       		.byte	0x91
 12168 0c14 40       		.sleb128 -64
 12169 0c15 18       		.uleb128 0x18
 12170 0c16 16000000 		.4byte	.LVL113
 12171 0c1a 9E1F0000 		.4byte	0x1f9e
ARM GAS  C:\Users\NIGHDR~1\AppData\Local\Temp\ccrnUt9g.s 			page 226


 12172 0c1e 350C0000 		.4byte	0xc35
 12173 0c22 19       		.uleb128 0x19
 12174 0c23 01       		.uleb128 0x1
 12175 0c24 50       		.byte	0x50
 12176 0c25 02       		.uleb128 0x2
 12177 0c26 77       		.byte	0x77
 12178 0c27 00       		.sleb128 0
 12179 0c28 19       		.uleb128 0x19
 12180 0c29 01       		.uleb128 0x1
 12181 0c2a 51       		.byte	0x51
 12182 0c2b 02       		.uleb128 0x2
 12183 0c2c 76       		.byte	0x76
 12184 0c2d 00       		.sleb128 0
 12185 0c2e 19       		.uleb128 0x19
 12186 0c2f 01       		.uleb128 0x1
 12187 0c30 52       		.byte	0x52
 12188 0c31 02       		.uleb128 0x2
 12189 0c32 74       		.byte	0x74
 12190 0c33 00       		.sleb128 0
 12191 0c34 00       		.byte	0
 12192 0c35 18       		.uleb128 0x18
 12193 0c36 2A000000 		.4byte	.LVL114
 12194 0c3a A91F0000 		.4byte	0x1fa9
 12195 0c3e 550C0000 		.4byte	0xc55
 12196 0c42 19       		.uleb128 0x19
 12197 0c43 01       		.uleb128 0x1
 12198 0c44 50       		.byte	0x50
 12199 0c45 02       		.uleb128 0x2
 12200 0c46 76       		.byte	0x76
 12201 0c47 00       		.sleb128 0
 12202 0c48 19       		.uleb128 0x19
 12203 0c49 01       		.uleb128 0x1
 12204 0c4a 51       		.byte	0x51
 12205 0c4b 02       		.uleb128 0x2
 12206 0c4c 74       		.byte	0x74
 12207 0c4d 28       		.sleb128 40
 12208 0c4e 19       		.uleb128 0x19
 12209 0c4f 01       		.uleb128 0x1
 12210 0c50 52       		.byte	0x52
 12211 0c51 02       		.uleb128 0x2
 12212 0c52 74       		.byte	0x74
 12213 0c53 00       		.sleb128 0
 12214 0c54 00       		.byte	0
 12215 0c55 18       		.uleb128 0x18
 12216 0c56 3E000000 		.4byte	.LVL115
 12217 0c5a B41F0000 		.4byte	0x1fb4
 12218 0c5e 770C0000 		.4byte	0xc77
 12219 0c62 19       		.uleb128 0x19
 12220 0c63 01       		.uleb128 0x1
 12221 0c64 50       		.byte	0x50
 12222 0c65 04       		.uleb128 0x4
 12223 0c66 91       		.byte	0x91
 12224 0c67 BC7F     		.sleb128 -68
 12225 0c69 06       		.byte	0x6
 12226 0c6a 19       		.uleb128 0x19
 12227 0c6b 01       		.uleb128 0x1
 12228 0c6c 51       		.byte	0x51
ARM GAS  C:\Users\NIGHDR~1\AppData\Local\Temp\ccrnUt9g.s 			page 227


 12229 0c6d 02       		.uleb128 0x2
 12230 0c6e 77       		.byte	0x77
 12231 0c6f 00       		.sleb128 0
 12232 0c70 19       		.uleb128 0x19
 12233 0c71 01       		.uleb128 0x1
 12234 0c72 52       		.byte	0x52
 12235 0c73 02       		.uleb128 0x2
 12236 0c74 75       		.byte	0x75
 12237 0c75 00       		.sleb128 0
 12238 0c76 00       		.byte	0
 12239 0c77 18       		.uleb128 0x18
 12240 0c78 4C000000 		.4byte	.LVL116
 12241 0c7c B41F0000 		.4byte	0x1fb4
 12242 0c80 970C0000 		.4byte	0xc97
 12243 0c84 19       		.uleb128 0x19
 12244 0c85 01       		.uleb128 0x1
 12245 0c86 50       		.byte	0x50
 12246 0c87 02       		.uleb128 0x2
 12247 0c88 76       		.byte	0x76
 12248 0c89 00       		.sleb128 0
 12249 0c8a 19       		.uleb128 0x19
 12250 0c8b 01       		.uleb128 0x1
 12251 0c8c 51       		.byte	0x51
 12252 0c8d 02       		.uleb128 0x2
 12253 0c8e 76       		.byte	0x76
 12254 0c8f 00       		.sleb128 0
 12255 0c90 19       		.uleb128 0x19
 12256 0c91 01       		.uleb128 0x1
 12257 0c92 52       		.byte	0x52
 12258 0c93 02       		.uleb128 0x2
 12259 0c94 75       		.byte	0x75
 12260 0c95 28       		.sleb128 40
 12261 0c96 00       		.byte	0
 12262 0c97 18       		.uleb128 0x18
 12263 0c98 5C000000 		.4byte	.LVL117
 12264 0c9c B41F0000 		.4byte	0x1fb4
 12265 0ca0 B90C0000 		.4byte	0xcb9
 12266 0ca4 19       		.uleb128 0x19
 12267 0ca5 01       		.uleb128 0x1
 12268 0ca6 50       		.byte	0x50
 12269 0ca7 02       		.uleb128 0x2
 12270 0ca8 76       		.byte	0x76
 12271 0ca9 00       		.sleb128 0
 12272 0caa 19       		.uleb128 0x19
 12273 0cab 01       		.uleb128 0x1
 12274 0cac 51       		.byte	0x51
 12275 0cad 03       		.uleb128 0x3
 12276 0cae 75       		.byte	0x75
 12277 0caf D000     		.sleb128 80
 12278 0cb1 19       		.uleb128 0x19
 12279 0cb2 01       		.uleb128 0x1
 12280 0cb3 52       		.byte	0x52
 12281 0cb4 03       		.uleb128 0x3
 12282 0cb5 74       		.byte	0x74
 12283 0cb6 F800     		.sleb128 120
 12284 0cb8 00       		.byte	0
 12285 0cb9 18       		.uleb128 0x18
ARM GAS  C:\Users\NIGHDR~1\AppData\Local\Temp\ccrnUt9g.s 			page 228


 12286 0cba 68000000 		.4byte	.LVL118
 12287 0cbe 9E1F0000 		.4byte	0x1f9e
 12288 0cc2 DB0C0000 		.4byte	0xcdb
 12289 0cc6 19       		.uleb128 0x19
 12290 0cc7 01       		.uleb128 0x1
 12291 0cc8 50       		.byte	0x50
 12292 0cc9 02       		.uleb128 0x2
 12293 0cca 91       		.byte	0x91
 12294 0ccb 40       		.sleb128 -64
 12295 0ccc 19       		.uleb128 0x19
 12296 0ccd 01       		.uleb128 0x1
 12297 0cce 51       		.byte	0x51
 12298 0ccf 03       		.uleb128 0x3
 12299 0cd0 74       		.byte	0x74
 12300 0cd1 D000     		.sleb128 80
 12301 0cd3 19       		.uleb128 0x19
 12302 0cd4 01       		.uleb128 0x1
 12303 0cd5 52       		.byte	0x52
 12304 0cd6 03       		.uleb128 0x3
 12305 0cd7 74       		.byte	0x74
 12306 0cd8 D000     		.sleb128 80
 12307 0cda 00       		.byte	0
 12308 0cdb 18       		.uleb128 0x18
 12309 0cdc 76000000 		.4byte	.LVL121
 12310 0ce0 A91F0000 		.4byte	0x1fa9
 12311 0ce4 FB0C0000 		.4byte	0xcfb
 12312 0ce8 19       		.uleb128 0x19
 12313 0ce9 01       		.uleb128 0x1
 12314 0cea 50       		.byte	0x50
 12315 0ceb 02       		.uleb128 0x2
 12316 0cec 77       		.byte	0x77
 12317 0ced 00       		.sleb128 0
 12318 0cee 19       		.uleb128 0x19
 12319 0cef 01       		.uleb128 0x1
 12320 0cf0 51       		.byte	0x51
 12321 0cf1 02       		.uleb128 0x2
 12322 0cf2 75       		.byte	0x75
 12323 0cf3 00       		.sleb128 0
 12324 0cf4 19       		.uleb128 0x19
 12325 0cf5 01       		.uleb128 0x1
 12326 0cf6 52       		.byte	0x52
 12327 0cf7 02       		.uleb128 0x2
 12328 0cf8 74       		.byte	0x74
 12329 0cf9 00       		.sleb128 0
 12330 0cfa 00       		.byte	0
 12331 0cfb 18       		.uleb128 0x18
 12332 0cfc 80000000 		.4byte	.LVL122
 12333 0d00 9E1F0000 		.4byte	0x1f9e
 12334 0d04 1B0D0000 		.4byte	0xd1b
 12335 0d08 19       		.uleb128 0x19
 12336 0d09 01       		.uleb128 0x1
 12337 0d0a 50       		.byte	0x50
 12338 0d0b 02       		.uleb128 0x2
 12339 0d0c 74       		.byte	0x74
 12340 0d0d 00       		.sleb128 0
 12341 0d0e 19       		.uleb128 0x19
 12342 0d0f 01       		.uleb128 0x1
ARM GAS  C:\Users\NIGHDR~1\AppData\Local\Temp\ccrnUt9g.s 			page 229


 12343 0d10 51       		.byte	0x51
 12344 0d11 02       		.uleb128 0x2
 12345 0d12 75       		.byte	0x75
 12346 0d13 00       		.sleb128 0
 12347 0d14 19       		.uleb128 0x19
 12348 0d15 01       		.uleb128 0x1
 12349 0d16 52       		.byte	0x52
 12350 0d17 02       		.uleb128 0x2
 12351 0d18 74       		.byte	0x74
 12352 0d19 00       		.sleb128 0
 12353 0d1a 00       		.byte	0
 12354 0d1b 18       		.uleb128 0x18
 12355 0d1c 8A000000 		.4byte	.LVL123
 12356 0d20 9E1F0000 		.4byte	0x1f9e
 12357 0d24 3B0D0000 		.4byte	0xd3b
 12358 0d28 19       		.uleb128 0x19
 12359 0d29 01       		.uleb128 0x1
 12360 0d2a 50       		.byte	0x50
 12361 0d2b 02       		.uleb128 0x2
 12362 0d2c 75       		.byte	0x75
 12363 0d2d 00       		.sleb128 0
 12364 0d2e 19       		.uleb128 0x19
 12365 0d2f 01       		.uleb128 0x1
 12366 0d30 51       		.byte	0x51
 12367 0d31 02       		.uleb128 0x2
 12368 0d32 91       		.byte	0x91
 12369 0d33 40       		.sleb128 -64
 12370 0d34 19       		.uleb128 0x19
 12371 0d35 01       		.uleb128 0x1
 12372 0d36 52       		.byte	0x52
 12373 0d37 02       		.uleb128 0x2
 12374 0d38 76       		.byte	0x76
 12375 0d39 00       		.sleb128 0
 12376 0d3a 00       		.byte	0
 12377 0d3b 1A       		.uleb128 0x1a
 12378 0d3c 94000000 		.4byte	.LVL124
 12379 0d40 A91F0000 		.4byte	0x1fa9
 12380 0d44 19       		.uleb128 0x19
 12381 0d45 01       		.uleb128 0x1
 12382 0d46 50       		.byte	0x50
 12383 0d47 02       		.uleb128 0x2
 12384 0d48 76       		.byte	0x76
 12385 0d49 00       		.sleb128 0
 12386 0d4a 19       		.uleb128 0x19
 12387 0d4b 01       		.uleb128 0x1
 12388 0d4c 51       		.byte	0x51
 12389 0d4d 02       		.uleb128 0x2
 12390 0d4e 91       		.byte	0x91
 12391 0d4f 40       		.sleb128 -64
 12392 0d50 19       		.uleb128 0x19
 12393 0d51 01       		.uleb128 0x1
 12394 0d52 52       		.byte	0x52
 12395 0d53 02       		.uleb128 0x2
 12396 0d54 76       		.byte	0x76
 12397 0d55 00       		.sleb128 0
 12398 0d56 00       		.byte	0
 12399 0d57 00       		.byte	0
ARM GAS  C:\Users\NIGHDR~1\AppData\Local\Temp\ccrnUt9g.s 			page 230


 12400 0d58 1D       		.uleb128 0x1d
 12401 0d59 30020000 		.4byte	.LASF35
 12402 0d5d 01       		.byte	0x1
 12403 0d5e CF       		.byte	0xcf
 12404 0d5f 00000000 		.4byte	.LFB5
 12405 0d63 98000000 		.4byte	.LFE5-.LFB5
 12406 0d67 01       		.uleb128 0x1
 12407 0d68 9C       		.byte	0x9c
 12408 0d69 E40E0000 		.4byte	0xee4
 12409 0d6d 0D       		.uleb128 0xd
 12410 0d6e 7200     		.ascii	"r\000"
 12411 0d70 01       		.byte	0x1
 12412 0d71 CF       		.byte	0xcf
 12413 0d72 77080000 		.4byte	0x877
 12414 0d76 F0030000 		.4byte	.LLST25
 12415 0d7a 0D       		.uleb128 0xd
 12416 0d7b 7000     		.ascii	"p\000"
 12417 0d7d 01       		.byte	0x1
 12418 0d7e CF       		.byte	0xcf
 12419 0d7f 7D080000 		.4byte	0x87d
 12420 0d83 1C040000 		.4byte	.LLST26
 12421 0d87 0D       		.uleb128 0xd
 12422 0d88 7100     		.ascii	"q\000"
 12423 0d8a 01       		.byte	0x1
 12424 0d8b CF       		.byte	0xcf
 12425 0d8c 87030000 		.4byte	0x387
 12426 0d90 53040000 		.4byte	.LLST27
 12427 0d94 1E       		.uleb128 0x1e
 12428 0d95 743000   		.ascii	"t0\000"
 12429 0d98 01       		.byte	0x1
 12430 0d99 D0       		.byte	0xd0
 12431 0d9a 97000000 		.4byte	0x97
 12432 0d9e 02       		.uleb128 0x2
 12433 0d9f 91       		.byte	0x91
 12434 0da0 40       		.sleb128 -64
 12435 0da1 18       		.uleb128 0x18
 12436 0da2 16000000 		.4byte	.LVL129
 12437 0da6 9E1F0000 		.4byte	0x1f9e
 12438 0daa C10D0000 		.4byte	0xdc1
 12439 0dae 19       		.uleb128 0x19
 12440 0daf 01       		.uleb128 0x1
 12441 0db0 50       		.byte	0x50
 12442 0db1 02       		.uleb128 0x2
 12443 0db2 77       		.byte	0x77
 12444 0db3 00       		.sleb128 0
 12445 0db4 19       		.uleb128 0x19
 12446 0db5 01       		.uleb128 0x1
 12447 0db6 51       		.byte	0x51
 12448 0db7 02       		.uleb128 0x2
 12449 0db8 76       		.byte	0x76
 12450 0db9 00       		.sleb128 0
 12451 0dba 19       		.uleb128 0x19
 12452 0dbb 01       		.uleb128 0x1
 12453 0dbc 52       		.byte	0x52
 12454 0dbd 02       		.uleb128 0x2
 12455 0dbe 74       		.byte	0x74
 12456 0dbf 00       		.sleb128 0
ARM GAS  C:\Users\NIGHDR~1\AppData\Local\Temp\ccrnUt9g.s 			page 231


 12457 0dc0 00       		.byte	0
 12458 0dc1 18       		.uleb128 0x18
 12459 0dc2 2A000000 		.4byte	.LVL130
 12460 0dc6 A91F0000 		.4byte	0x1fa9
 12461 0dca E10D0000 		.4byte	0xde1
 12462 0dce 19       		.uleb128 0x19
 12463 0dcf 01       		.uleb128 0x1
 12464 0dd0 50       		.byte	0x50
 12465 0dd1 02       		.uleb128 0x2
 12466 0dd2 76       		.byte	0x76
 12467 0dd3 00       		.sleb128 0
 12468 0dd4 19       		.uleb128 0x19
 12469 0dd5 01       		.uleb128 0x1
 12470 0dd6 51       		.byte	0x51
 12471 0dd7 02       		.uleb128 0x2
 12472 0dd8 74       		.byte	0x74
 12473 0dd9 28       		.sleb128 40
 12474 0dda 19       		.uleb128 0x19
 12475 0ddb 01       		.uleb128 0x1
 12476 0ddc 52       		.byte	0x52
 12477 0ddd 02       		.uleb128 0x2
 12478 0dde 74       		.byte	0x74
 12479 0ddf 00       		.sleb128 0
 12480 0de0 00       		.byte	0
 12481 0de1 18       		.uleb128 0x18
 12482 0de2 40000000 		.4byte	.LVL131
 12483 0de6 B41F0000 		.4byte	0x1fb4
 12484 0dea 030E0000 		.4byte	0xe03
 12485 0dee 19       		.uleb128 0x19
 12486 0def 01       		.uleb128 0x1
 12487 0df0 50       		.byte	0x50
 12488 0df1 04       		.uleb128 0x4
 12489 0df2 91       		.byte	0x91
 12490 0df3 BC7F     		.sleb128 -68
 12491 0df5 06       		.byte	0x6
 12492 0df6 19       		.uleb128 0x19
 12493 0df7 01       		.uleb128 0x1
 12494 0df8 51       		.byte	0x51
 12495 0df9 02       		.uleb128 0x2
 12496 0dfa 77       		.byte	0x77
 12497 0dfb 00       		.sleb128 0
 12498 0dfc 19       		.uleb128 0x19
 12499 0dfd 01       		.uleb128 0x1
 12500 0dfe 52       		.byte	0x52
 12501 0dff 02       		.uleb128 0x2
 12502 0e00 75       		.byte	0x75
 12503 0e01 28       		.sleb128 40
 12504 0e02 00       		.byte	0
 12505 0e03 18       		.uleb128 0x18
 12506 0e04 4C000000 		.4byte	.LVL132
 12507 0e08 B41F0000 		.4byte	0x1fb4
 12508 0e0c 230E0000 		.4byte	0xe23
 12509 0e10 19       		.uleb128 0x19
 12510 0e11 01       		.uleb128 0x1
 12511 0e12 50       		.byte	0x50
 12512 0e13 02       		.uleb128 0x2
 12513 0e14 76       		.byte	0x76
ARM GAS  C:\Users\NIGHDR~1\AppData\Local\Temp\ccrnUt9g.s 			page 232


 12514 0e15 00       		.sleb128 0
 12515 0e16 19       		.uleb128 0x19
 12516 0e17 01       		.uleb128 0x1
 12517 0e18 51       		.byte	0x51
 12518 0e19 02       		.uleb128 0x2
 12519 0e1a 76       		.byte	0x76
 12520 0e1b 00       		.sleb128 0
 12521 0e1c 19       		.uleb128 0x19
 12522 0e1d 01       		.uleb128 0x1
 12523 0e1e 52       		.byte	0x52
 12524 0e1f 02       		.uleb128 0x2
 12525 0e20 75       		.byte	0x75
 12526 0e21 00       		.sleb128 0
 12527 0e22 00       		.byte	0
 12528 0e23 18       		.uleb128 0x18
 12529 0e24 5C000000 		.4byte	.LVL133
 12530 0e28 B41F0000 		.4byte	0x1fb4
 12531 0e2c 450E0000 		.4byte	0xe45
 12532 0e30 19       		.uleb128 0x19
 12533 0e31 01       		.uleb128 0x1
 12534 0e32 50       		.byte	0x50
 12535 0e33 02       		.uleb128 0x2
 12536 0e34 76       		.byte	0x76
 12537 0e35 00       		.sleb128 0
 12538 0e36 19       		.uleb128 0x19
 12539 0e37 01       		.uleb128 0x1
 12540 0e38 51       		.byte	0x51
 12541 0e39 03       		.uleb128 0x3
 12542 0e3a 75       		.byte	0x75
 12543 0e3b D000     		.sleb128 80
 12544 0e3d 19       		.uleb128 0x19
 12545 0e3e 01       		.uleb128 0x1
 12546 0e3f 52       		.byte	0x52
 12547 0e40 03       		.uleb128 0x3
 12548 0e41 74       		.byte	0x74
 12549 0e42 F800     		.sleb128 120
 12550 0e44 00       		.byte	0
 12551 0e45 18       		.uleb128 0x18
 12552 0e46 68000000 		.4byte	.LVL134
 12553 0e4a 9E1F0000 		.4byte	0x1f9e
 12554 0e4e 670E0000 		.4byte	0xe67
 12555 0e52 19       		.uleb128 0x19
 12556 0e53 01       		.uleb128 0x1
 12557 0e54 50       		.byte	0x50
 12558 0e55 02       		.uleb128 0x2
 12559 0e56 91       		.byte	0x91
 12560 0e57 40       		.sleb128 -64
 12561 0e58 19       		.uleb128 0x19
 12562 0e59 01       		.uleb128 0x1
 12563 0e5a 51       		.byte	0x51
 12564 0e5b 03       		.uleb128 0x3
 12565 0e5c 74       		.byte	0x74
 12566 0e5d D000     		.sleb128 80
 12567 0e5f 19       		.uleb128 0x19
 12568 0e60 01       		.uleb128 0x1
 12569 0e61 52       		.byte	0x52
 12570 0e62 03       		.uleb128 0x3
ARM GAS  C:\Users\NIGHDR~1\AppData\Local\Temp\ccrnUt9g.s 			page 233


 12571 0e63 74       		.byte	0x74
 12572 0e64 D000     		.sleb128 80
 12573 0e66 00       		.byte	0
 12574 0e67 18       		.uleb128 0x18
 12575 0e68 76000000 		.4byte	.LVL137
 12576 0e6c A91F0000 		.4byte	0x1fa9
 12577 0e70 870E0000 		.4byte	0xe87
 12578 0e74 19       		.uleb128 0x19
 12579 0e75 01       		.uleb128 0x1
 12580 0e76 50       		.byte	0x50
 12581 0e77 02       		.uleb128 0x2
 12582 0e78 77       		.byte	0x77
 12583 0e79 00       		.sleb128 0
 12584 0e7a 19       		.uleb128 0x19
 12585 0e7b 01       		.uleb128 0x1
 12586 0e7c 51       		.byte	0x51
 12587 0e7d 02       		.uleb128 0x2
 12588 0e7e 75       		.byte	0x75
 12589 0e7f 00       		.sleb128 0
 12590 0e80 19       		.uleb128 0x19
 12591 0e81 01       		.uleb128 0x1
 12592 0e82 52       		.byte	0x52
 12593 0e83 02       		.uleb128 0x2
 12594 0e84 74       		.byte	0x74
 12595 0e85 00       		.sleb128 0
 12596 0e86 00       		.byte	0
 12597 0e87 18       		.uleb128 0x18
 12598 0e88 80000000 		.4byte	.LVL138
 12599 0e8c 9E1F0000 		.4byte	0x1f9e
 12600 0e90 A70E0000 		.4byte	0xea7
 12601 0e94 19       		.uleb128 0x19
 12602 0e95 01       		.uleb128 0x1
 12603 0e96 50       		.byte	0x50
 12604 0e97 02       		.uleb128 0x2
 12605 0e98 74       		.byte	0x74
 12606 0e99 00       		.sleb128 0
 12607 0e9a 19       		.uleb128 0x19
 12608 0e9b 01       		.uleb128 0x1
 12609 0e9c 51       		.byte	0x51
 12610 0e9d 02       		.uleb128 0x2
 12611 0e9e 75       		.byte	0x75
 12612 0e9f 00       		.sleb128 0
 12613 0ea0 19       		.uleb128 0x19
 12614 0ea1 01       		.uleb128 0x1
 12615 0ea2 52       		.byte	0x52
 12616 0ea3 02       		.uleb128 0x2
 12617 0ea4 74       		.byte	0x74
 12618 0ea5 00       		.sleb128 0
 12619 0ea6 00       		.byte	0
 12620 0ea7 18       		.uleb128 0x18
 12621 0ea8 8A000000 		.4byte	.LVL139
 12622 0eac A91F0000 		.4byte	0x1fa9
 12623 0eb0 C70E0000 		.4byte	0xec7
 12624 0eb4 19       		.uleb128 0x19
 12625 0eb5 01       		.uleb128 0x1
 12626 0eb6 50       		.byte	0x50
 12627 0eb7 02       		.uleb128 0x2
ARM GAS  C:\Users\NIGHDR~1\AppData\Local\Temp\ccrnUt9g.s 			page 234


 12628 0eb8 75       		.byte	0x75
 12629 0eb9 00       		.sleb128 0
 12630 0eba 19       		.uleb128 0x19
 12631 0ebb 01       		.uleb128 0x1
 12632 0ebc 51       		.byte	0x51
 12633 0ebd 02       		.uleb128 0x2
 12634 0ebe 91       		.byte	0x91
 12635 0ebf 40       		.sleb128 -64
 12636 0ec0 19       		.uleb128 0x19
 12637 0ec1 01       		.uleb128 0x1
 12638 0ec2 52       		.byte	0x52
 12639 0ec3 02       		.uleb128 0x2
 12640 0ec4 76       		.byte	0x76
 12641 0ec5 00       		.sleb128 0
 12642 0ec6 00       		.byte	0
 12643 0ec7 1A       		.uleb128 0x1a
 12644 0ec8 94000000 		.4byte	.LVL140
 12645 0ecc 9E1F0000 		.4byte	0x1f9e
 12646 0ed0 19       		.uleb128 0x19
 12647 0ed1 01       		.uleb128 0x1
 12648 0ed2 50       		.byte	0x50
 12649 0ed3 02       		.uleb128 0x2
 12650 0ed4 76       		.byte	0x76
 12651 0ed5 00       		.sleb128 0
 12652 0ed6 19       		.uleb128 0x19
 12653 0ed7 01       		.uleb128 0x1
 12654 0ed8 51       		.byte	0x51
 12655 0ed9 02       		.uleb128 0x2
 12656 0eda 91       		.byte	0x91
 12657 0edb 40       		.sleb128 -64
 12658 0edc 19       		.uleb128 0x19
 12659 0edd 01       		.uleb128 0x1
 12660 0ede 52       		.byte	0x52
 12661 0edf 02       		.uleb128 0x2
 12662 0ee0 76       		.byte	0x76
 12663 0ee1 00       		.sleb128 0
 12664 0ee2 00       		.byte	0
 12665 0ee3 00       		.byte	0
 12666 0ee4 1D       		.uleb128 0x1d
 12667 0ee5 51020000 		.4byte	.LASF36
 12668 0ee9 01       		.byte	0x1
 12669 0eea E3       		.byte	0xe3
 12670 0eeb 00000000 		.4byte	.LFB6
 12671 0eef 2E000000 		.4byte	.LFE6-.LFB6
 12672 0ef3 01       		.uleb128 0x1
 12673 0ef4 9C       		.byte	0x9c
 12674 0ef5 710F0000 		.4byte	0xf71
 12675 0ef9 0D       		.uleb128 0xd
 12676 0efa 7200     		.ascii	"r\000"
 12677 0efc 01       		.byte	0x1
 12678 0efd E3       		.byte	0xe3
 12679 0efe 710F0000 		.4byte	0xf71
 12680 0f02 7F040000 		.4byte	.LLST28
 12681 0f06 0D       		.uleb128 0xd
 12682 0f07 7000     		.ascii	"p\000"
 12683 0f09 01       		.byte	0x1
 12684 0f0a E3       		.byte	0xe3
ARM GAS  C:\Users\NIGHDR~1\AppData\Local\Temp\ccrnUt9g.s 			page 235


 12685 0f0b 770F0000 		.4byte	0xf77
 12686 0f0f AB040000 		.4byte	.LLST29
 12687 0f13 18       		.uleb128 0x18
 12688 0f14 10000000 		.4byte	.LVL143
 12689 0f18 B41F0000 		.4byte	0x1fb4
 12690 0f1c 330F0000 		.4byte	0xf33
 12691 0f20 19       		.uleb128 0x19
 12692 0f21 01       		.uleb128 0x1
 12693 0f22 50       		.byte	0x50
 12694 0f23 02       		.uleb128 0x2
 12695 0f24 74       		.byte	0x74
 12696 0f25 00       		.sleb128 0
 12697 0f26 19       		.uleb128 0x19
 12698 0f27 01       		.uleb128 0x1
 12699 0f28 51       		.byte	0x51
 12700 0f29 02       		.uleb128 0x2
 12701 0f2a 75       		.byte	0x75
 12702 0f2b 00       		.sleb128 0
 12703 0f2c 19       		.uleb128 0x19
 12704 0f2d 01       		.uleb128 0x1
 12705 0f2e 52       		.byte	0x52
 12706 0f2f 02       		.uleb128 0x2
 12707 0f30 76       		.byte	0x76
 12708 0f31 00       		.sleb128 0
 12709 0f32 00       		.byte	0
 12710 0f33 18       		.uleb128 0x18
 12711 0f34 20000000 		.4byte	.LVL145
 12712 0f38 B41F0000 		.4byte	0x1fb4
 12713 0f3c 530F0000 		.4byte	0xf53
 12714 0f40 19       		.uleb128 0x19
 12715 0f41 01       		.uleb128 0x1
 12716 0f42 50       		.byte	0x50
 12717 0f43 02       		.uleb128 0x2
 12718 0f44 74       		.byte	0x74
 12719 0f45 28       		.sleb128 40
 12720 0f46 19       		.uleb128 0x19
 12721 0f47 01       		.uleb128 0x1
 12722 0f48 51       		.byte	0x51
 12723 0f49 02       		.uleb128 0x2
 12724 0f4a 75       		.byte	0x75
 12725 0f4b 58       		.sleb128 -40
 12726 0f4c 19       		.uleb128 0x19
 12727 0f4d 01       		.uleb128 0x1
 12728 0f4e 52       		.byte	0x52
 12729 0f4f 02       		.uleb128 0x2
 12730 0f50 75       		.byte	0x75
 12731 0f51 00       		.sleb128 0
 12732 0f52 00       		.byte	0
 12733 0f53 1A       		.uleb128 0x1a
 12734 0f54 2C000000 		.4byte	.LVL146
 12735 0f58 B41F0000 		.4byte	0x1fb4
 12736 0f5c 19       		.uleb128 0x19
 12737 0f5d 01       		.uleb128 0x1
 12738 0f5e 50       		.byte	0x50
 12739 0f5f 03       		.uleb128 0x3
 12740 0f60 74       		.byte	0x74
 12741 0f61 D000     		.sleb128 80
ARM GAS  C:\Users\NIGHDR~1\AppData\Local\Temp\ccrnUt9g.s 			page 236


 12742 0f63 19       		.uleb128 0x19
 12743 0f64 01       		.uleb128 0x1
 12744 0f65 51       		.byte	0x51
 12745 0f66 02       		.uleb128 0x2
 12746 0f67 75       		.byte	0x75
 12747 0f68 00       		.sleb128 0
 12748 0f69 19       		.uleb128 0x19
 12749 0f6a 01       		.uleb128 0x1
 12750 0f6b 52       		.byte	0x52
 12751 0f6c 02       		.uleb128 0x2
 12752 0f6d 76       		.byte	0x76
 12753 0f6e 00       		.sleb128 0
 12754 0f6f 00       		.byte	0
 12755 0f70 00       		.byte	0
 12756 0f71 0F       		.uleb128 0xf
 12757 0f72 04       		.byte	0x4
 12758 0f73 DF000000 		.4byte	0xdf
 12759 0f77 0F       		.uleb128 0xf
 12760 0f78 04       		.byte	0x4
 12761 0f79 7D0F0000 		.4byte	0xf7d
 12762 0f7d 10       		.uleb128 0x10
 12763 0f7e 57010000 		.4byte	0x157
 12764 0f82 1D       		.uleb128 0x1d
 12765 0f83 E9000000 		.4byte	.LASF37
 12766 0f87 01       		.byte	0x1
 12767 0f88 EF       		.byte	0xef
 12768 0f89 00000000 		.4byte	.LFB7
 12769 0f8d 48000000 		.4byte	.LFE7-.LFB7
 12770 0f91 01       		.uleb128 0x1
 12771 0f92 9C       		.byte	0x9c
 12772 0f93 32100000 		.4byte	0x1032
 12773 0f97 0D       		.uleb128 0xd
 12774 0f98 7200     		.ascii	"r\000"
 12775 0f9a 01       		.byte	0x1
 12776 0f9b EF       		.byte	0xef
 12777 0f9c C60B0000 		.4byte	0xbc6
 12778 0fa0 F3040000 		.4byte	.LLST30
 12779 0fa4 0D       		.uleb128 0xd
 12780 0fa5 7000     		.ascii	"p\000"
 12781 0fa7 01       		.byte	0x1
 12782 0fa8 EF       		.byte	0xef
 12783 0fa9 770F0000 		.4byte	0xf77
 12784 0fad 1F050000 		.4byte	.LLST31
 12785 0fb1 18       		.uleb128 0x18
 12786 0fb2 12000000 		.4byte	.LVL151
 12787 0fb6 B41F0000 		.4byte	0x1fb4
 12788 0fba D10F0000 		.4byte	0xfd1
 12789 0fbe 19       		.uleb128 0x19
 12790 0fbf 01       		.uleb128 0x1
 12791 0fc0 50       		.byte	0x50
 12792 0fc1 02       		.uleb128 0x2
 12793 0fc2 74       		.byte	0x74
 12794 0fc3 00       		.sleb128 0
 12795 0fc4 19       		.uleb128 0x19
 12796 0fc5 01       		.uleb128 0x1
 12797 0fc6 51       		.byte	0x51
 12798 0fc7 02       		.uleb128 0x2
ARM GAS  C:\Users\NIGHDR~1\AppData\Local\Temp\ccrnUt9g.s 			page 237


 12799 0fc8 75       		.byte	0x75
 12800 0fc9 00       		.sleb128 0
 12801 0fca 19       		.uleb128 0x19
 12802 0fcb 01       		.uleb128 0x1
 12803 0fcc 52       		.byte	0x52
 12804 0fcd 02       		.uleb128 0x2
 12805 0fce 77       		.byte	0x77
 12806 0fcf 00       		.sleb128 0
 12807 0fd0 00       		.byte	0
 12808 0fd1 18       		.uleb128 0x18
 12809 0fd2 2C000000 		.4byte	.LVL152
 12810 0fd6 B41F0000 		.4byte	0x1fb4
 12811 0fda F20F0000 		.4byte	0xff2
 12812 0fde 19       		.uleb128 0x19
 12813 0fdf 01       		.uleb128 0x1
 12814 0fe0 50       		.byte	0x50
 12815 0fe1 02       		.uleb128 0x2
 12816 0fe2 74       		.byte	0x74
 12817 0fe3 28       		.sleb128 40
 12818 0fe4 19       		.uleb128 0x19
 12819 0fe5 01       		.uleb128 0x1
 12820 0fe6 51       		.byte	0x51
 12821 0fe7 03       		.uleb128 0x3
 12822 0fe8 91       		.byte	0x91
 12823 0fe9 64       		.sleb128 -28
 12824 0fea 06       		.byte	0x6
 12825 0feb 19       		.uleb128 0x19
 12826 0fec 01       		.uleb128 0x1
 12827 0fed 52       		.byte	0x52
 12828 0fee 02       		.uleb128 0x2
 12829 0fef 76       		.byte	0x76
 12830 0ff0 00       		.sleb128 0
 12831 0ff1 00       		.byte	0
 12832 0ff2 18       		.uleb128 0x18
 12833 0ff3 38000000 		.4byte	.LVL153
 12834 0ff7 B41F0000 		.4byte	0x1fb4
 12835 0ffb 13100000 		.4byte	0x1013
 12836 0fff 19       		.uleb128 0x19
 12837 1000 01       		.uleb128 0x1
 12838 1001 50       		.byte	0x50
 12839 1002 03       		.uleb128 0x3
 12840 1003 74       		.byte	0x74
 12841 1004 D000     		.sleb128 80
 12842 1006 19       		.uleb128 0x19
 12843 1007 01       		.uleb128 0x1
 12844 1008 51       		.byte	0x51
 12845 1009 02       		.uleb128 0x2
 12846 100a 76       		.byte	0x76
 12847 100b 00       		.sleb128 0
 12848 100c 19       		.uleb128 0x19
 12849 100d 01       		.uleb128 0x1
 12850 100e 52       		.byte	0x52
 12851 100f 02       		.uleb128 0x2
 12852 1010 77       		.byte	0x77
 12853 1011 00       		.sleb128 0
 12854 1012 00       		.byte	0
 12855 1013 1A       		.uleb128 0x1a
ARM GAS  C:\Users\NIGHDR~1\AppData\Local\Temp\ccrnUt9g.s 			page 238


 12856 1014 44000000 		.4byte	.LVL154
 12857 1018 B41F0000 		.4byte	0x1fb4
 12858 101c 19       		.uleb128 0x19
 12859 101d 01       		.uleb128 0x1
 12860 101e 50       		.byte	0x50
 12861 101f 03       		.uleb128 0x3
 12862 1020 74       		.byte	0x74
 12863 1021 F800     		.sleb128 120
 12864 1023 19       		.uleb128 0x19
 12865 1024 01       		.uleb128 0x1
 12866 1025 51       		.byte	0x51
 12867 1026 02       		.uleb128 0x2
 12868 1027 75       		.byte	0x75
 12869 1028 00       		.sleb128 0
 12870 1029 19       		.uleb128 0x19
 12871 102a 01       		.uleb128 0x1
 12872 102b 52       		.byte	0x52
 12873 102c 03       		.uleb128 0x3
 12874 102d 91       		.byte	0x91
 12875 102e 64       		.sleb128 -28
 12876 102f 06       		.byte	0x6
 12877 1030 00       		.byte	0
 12878 1031 00       		.byte	0
 12879 1032 1D       		.uleb128 0x1d
 12880 1033 03030000 		.4byte	.LASF38
 12881 1037 01       		.byte	0x1
 12882 1038 F7       		.byte	0xf7
 12883 1039 00000000 		.4byte	.LFB8
 12884 103d 1A000000 		.4byte	.LFE8-.LFB8
 12885 1041 01       		.uleb128 0x1
 12886 1042 9C       		.byte	0x9c
 12887 1043 8E100000 		.4byte	0x108e
 12888 1047 0D       		.uleb128 0xd
 12889 1048 6800     		.ascii	"h\000"
 12890 104a 01       		.byte	0x1
 12891 104b F7       		.byte	0xf7
 12892 104c 710F0000 		.4byte	0xf71
 12893 1050 67050000 		.4byte	.LLST32
 12894 1054 18       		.uleb128 0x18
 12895 1055 08000000 		.4byte	.LVL160
 12896 1059 7D1F0000 		.4byte	0x1f7d
 12897 105d 68100000 		.4byte	0x1068
 12898 1061 19       		.uleb128 0x19
 12899 1062 01       		.uleb128 0x1
 12900 1063 50       		.byte	0x50
 12901 1064 02       		.uleb128 0x2
 12902 1065 74       		.byte	0x74
 12903 1066 00       		.sleb128 0
 12904 1067 00       		.byte	0
 12905 1068 18       		.uleb128 0x18
 12906 1069 10000000 		.4byte	.LVL161
 12907 106d 721F0000 		.4byte	0x1f72
 12908 1071 7C100000 		.4byte	0x107c
 12909 1075 19       		.uleb128 0x19
 12910 1076 01       		.uleb128 0x1
 12911 1077 50       		.byte	0x50
 12912 1078 02       		.uleb128 0x2
ARM GAS  C:\Users\NIGHDR~1\AppData\Local\Temp\ccrnUt9g.s 			page 239


 12913 1079 74       		.byte	0x74
 12914 107a 28       		.sleb128 40
 12915 107b 00       		.byte	0
 12916 107c 1A       		.uleb128 0x1a
 12917 107d 18000000 		.4byte	.LVL162
 12918 1081 721F0000 		.4byte	0x1f72
 12919 1085 19       		.uleb128 0x19
 12920 1086 01       		.uleb128 0x1
 12921 1087 50       		.byte	0x50
 12922 1088 03       		.uleb128 0x3
 12923 1089 74       		.byte	0x74
 12924 108a D000     		.sleb128 80
 12925 108c 00       		.byte	0
 12926 108d 00       		.byte	0
 12927 108e 21       		.uleb128 0x21
 12928 108f C6020000 		.4byte	.LASF39
 12929 1093 01       		.byte	0x1
 12930 1094 0301     		.2byte	0x103
 12931 1096 00000000 		.4byte	.LFB9
 12932 109a 78000000 		.4byte	.LFE9-.LFB9
 12933 109e 01       		.uleb128 0x1
 12934 109f 9C       		.byte	0x9c
 12935 10a0 DC110000 		.4byte	0x11dc
 12936 10a4 12       		.uleb128 0x12
 12937 10a5 7200     		.ascii	"r\000"
 12938 10a7 01       		.byte	0x1
 12939 10a8 0301     		.2byte	0x103
 12940 10aa 77080000 		.4byte	0x877
 12941 10ae 93050000 		.4byte	.LLST33
 12942 10b2 12       		.uleb128 0x12
 12943 10b3 7000     		.ascii	"p\000"
 12944 10b5 01       		.byte	0x1
 12945 10b6 0301     		.2byte	0x103
 12946 10b8 DC110000 		.4byte	0x11dc
 12947 10bc CC050000 		.4byte	.LLST34
 12948 10c0 15       		.uleb128 0x15
 12949 10c1 743000   		.ascii	"t0\000"
 12950 10c4 01       		.byte	0x1
 12951 10c5 0401     		.2byte	0x104
 12952 10c7 97000000 		.4byte	0x97
 12953 10cb 02       		.uleb128 0x2
 12954 10cc 91       		.byte	0x91
 12955 10cd 40       		.sleb128 -64
 12956 10ce 18       		.uleb128 0x18
 12957 10cf 0C000000 		.4byte	.LVL165
 12958 10d3 CA1F0000 		.4byte	0x1fca
 12959 10d7 E8100000 		.4byte	0x10e8
 12960 10db 19       		.uleb128 0x19
 12961 10dc 01       		.uleb128 0x1
 12962 10dd 50       		.byte	0x50
 12963 10de 02       		.uleb128 0x2
 12964 10df 74       		.byte	0x74
 12965 10e0 00       		.sleb128 0
 12966 10e1 19       		.uleb128 0x19
 12967 10e2 01       		.uleb128 0x1
 12968 10e3 51       		.byte	0x51
 12969 10e4 02       		.uleb128 0x2
ARM GAS  C:\Users\NIGHDR~1\AppData\Local\Temp\ccrnUt9g.s 			page 240


 12970 10e5 77       		.byte	0x77
 12971 10e6 00       		.sleb128 0
 12972 10e7 00       		.byte	0
 12973 10e8 18       		.uleb128 0x18
 12974 10e9 22000000 		.4byte	.LVL166
 12975 10ed CA1F0000 		.4byte	0x1fca
 12976 10f1 03110000 		.4byte	0x1103
 12977 10f5 19       		.uleb128 0x19
 12978 10f6 01       		.uleb128 0x1
 12979 10f7 50       		.byte	0x50
 12980 10f8 02       		.uleb128 0x2
 12981 10f9 75       		.byte	0x75
 12982 10fa 00       		.sleb128 0
 12983 10fb 19       		.uleb128 0x19
 12984 10fc 01       		.uleb128 0x1
 12985 10fd 51       		.byte	0x51
 12986 10fe 03       		.uleb128 0x3
 12987 10ff 7D       		.byte	0x7d
 12988 1100 00       		.sleb128 0
 12989 1101 06       		.byte	0x6
 12990 1102 00       		.byte	0
 12991 1103 18       		.uleb128 0x18
 12992 1104 36000000 		.4byte	.LVL167
 12993 1108 F61F0000 		.4byte	0x1ff6
 12994 110c 20110000 		.4byte	0x1120
 12995 1110 19       		.uleb128 0x19
 12996 1111 01       		.uleb128 0x1
 12997 1112 50       		.byte	0x50
 12998 1113 04       		.uleb128 0x4
 12999 1114 91       		.byte	0x91
 13000 1115 BC7F     		.sleb128 -68
 13001 1117 06       		.byte	0x6
 13002 1118 19       		.uleb128 0x19
 13003 1119 01       		.uleb128 0x1
 13004 111a 51       		.byte	0x51
 13005 111b 03       		.uleb128 0x3
 13006 111c 77       		.byte	0x77
 13007 111d D000     		.sleb128 80
 13008 111f 00       		.byte	0
 13009 1120 18       		.uleb128 0x18
 13010 1121 44000000 		.4byte	.LVL168
 13011 1125 9E1F0000 		.4byte	0x1f9e
 13012 1129 41110000 		.4byte	0x1141
 13013 112d 19       		.uleb128 0x19
 13014 112e 01       		.uleb128 0x1
 13015 112f 50       		.byte	0x50
 13016 1130 02       		.uleb128 0x2
 13017 1131 76       		.byte	0x76
 13018 1132 00       		.sleb128 0
 13019 1133 19       		.uleb128 0x19
 13020 1134 01       		.uleb128 0x1
 13021 1135 51       		.byte	0x51
 13022 1136 02       		.uleb128 0x2
 13023 1137 77       		.byte	0x77
 13024 1138 00       		.sleb128 0
 13025 1139 19       		.uleb128 0x19
 13026 113a 01       		.uleb128 0x1
ARM GAS  C:\Users\NIGHDR~1\AppData\Local\Temp\ccrnUt9g.s 			page 241


 13027 113b 52       		.byte	0x52
 13028 113c 03       		.uleb128 0x3
 13029 113d 7D       		.byte	0x7d
 13030 113e 00       		.sleb128 0
 13031 113f 06       		.byte	0x6
 13032 1140 00       		.byte	0
 13033 1141 18       		.uleb128 0x18
 13034 1142 4C000000 		.4byte	.LVL169
 13035 1146 CA1F0000 		.4byte	0x1fca
 13036 114a 5B110000 		.4byte	0x115b
 13037 114e 19       		.uleb128 0x19
 13038 114f 01       		.uleb128 0x1
 13039 1150 50       		.byte	0x50
 13040 1151 02       		.uleb128 0x2
 13041 1152 91       		.byte	0x91
 13042 1153 40       		.sleb128 -64
 13043 1154 19       		.uleb128 0x19
 13044 1155 01       		.uleb128 0x1
 13045 1156 51       		.byte	0x51
 13046 1157 02       		.uleb128 0x2
 13047 1158 76       		.byte	0x76
 13048 1159 00       		.sleb128 0
 13049 115a 00       		.byte	0
 13050 115b 18       		.uleb128 0x18
 13051 115c 56000000 		.4byte	.LVL170
 13052 1160 9E1F0000 		.4byte	0x1f9e
 13053 1164 7B110000 		.4byte	0x117b
 13054 1168 19       		.uleb128 0x19
 13055 1169 01       		.uleb128 0x1
 13056 116a 50       		.byte	0x50
 13057 116b 02       		.uleb128 0x2
 13058 116c 76       		.byte	0x76
 13059 116d 00       		.sleb128 0
 13060 116e 19       		.uleb128 0x19
 13061 116f 01       		.uleb128 0x1
 13062 1170 51       		.byte	0x51
 13063 1171 02       		.uleb128 0x2
 13064 1172 75       		.byte	0x75
 13065 1173 00       		.sleb128 0
 13066 1174 19       		.uleb128 0x19
 13067 1175 01       		.uleb128 0x1
 13068 1176 52       		.byte	0x52
 13069 1177 02       		.uleb128 0x2
 13070 1178 74       		.byte	0x74
 13071 1179 00       		.sleb128 0
 13072 117a 00       		.byte	0
 13073 117b 18       		.uleb128 0x18
 13074 117c 60000000 		.4byte	.LVL171
 13075 1180 A91F0000 		.4byte	0x1fa9
 13076 1184 9B110000 		.4byte	0x119b
 13077 1188 19       		.uleb128 0x19
 13078 1189 01       		.uleb128 0x1
 13079 118a 50       		.byte	0x50
 13080 118b 02       		.uleb128 0x2
 13081 118c 75       		.byte	0x75
 13082 118d 00       		.sleb128 0
 13083 118e 19       		.uleb128 0x19
ARM GAS  C:\Users\NIGHDR~1\AppData\Local\Temp\ccrnUt9g.s 			page 242


 13084 118f 01       		.uleb128 0x1
 13085 1190 51       		.byte	0x51
 13086 1191 02       		.uleb128 0x2
 13087 1192 75       		.byte	0x75
 13088 1193 00       		.sleb128 0
 13089 1194 19       		.uleb128 0x19
 13090 1195 01       		.uleb128 0x1
 13091 1196 52       		.byte	0x52
 13092 1197 02       		.uleb128 0x2
 13093 1198 74       		.byte	0x74
 13094 1199 00       		.sleb128 0
 13095 119a 00       		.byte	0
 13096 119b 18       		.uleb128 0x18
 13097 119c 6A000000 		.4byte	.LVL172
 13098 11a0 A91F0000 		.4byte	0x1fa9
 13099 11a4 BB110000 		.4byte	0x11bb
 13100 11a8 19       		.uleb128 0x19
 13101 11a9 01       		.uleb128 0x1
 13102 11aa 50       		.byte	0x50
 13103 11ab 02       		.uleb128 0x2
 13104 11ac 74       		.byte	0x74
 13105 11ad 00       		.sleb128 0
 13106 11ae 19       		.uleb128 0x19
 13107 11af 01       		.uleb128 0x1
 13108 11b0 51       		.byte	0x51
 13109 11b1 02       		.uleb128 0x2
 13110 11b2 91       		.byte	0x91
 13111 11b3 40       		.sleb128 -64
 13112 11b4 19       		.uleb128 0x19
 13113 11b5 01       		.uleb128 0x1
 13114 11b6 52       		.byte	0x52
 13115 11b7 02       		.uleb128 0x2
 13116 11b8 76       		.byte	0x76
 13117 11b9 00       		.sleb128 0
 13118 11ba 00       		.byte	0
 13119 11bb 1A       		.uleb128 0x1a
 13120 11bc 74000000 		.4byte	.LVL173
 13121 11c0 A91F0000 		.4byte	0x1fa9
 13122 11c4 19       		.uleb128 0x19
 13123 11c5 01       		.uleb128 0x1
 13124 11c6 50       		.byte	0x50
 13125 11c7 04       		.uleb128 0x4
 13126 11c8 91       		.byte	0x91
 13127 11c9 BC7F     		.sleb128 -68
 13128 11cb 06       		.byte	0x6
 13129 11cc 19       		.uleb128 0x19
 13130 11cd 01       		.uleb128 0x1
 13131 11ce 51       		.byte	0x51
 13132 11cf 04       		.uleb128 0x4
 13133 11d0 91       		.byte	0x91
 13134 11d1 BC7F     		.sleb128 -68
 13135 11d3 06       		.byte	0x6
 13136 11d4 19       		.uleb128 0x19
 13137 11d5 01       		.uleb128 0x1
 13138 11d6 52       		.byte	0x52
 13139 11d7 02       		.uleb128 0x2
 13140 11d8 75       		.byte	0x75
ARM GAS  C:\Users\NIGHDR~1\AppData\Local\Temp\ccrnUt9g.s 			page 243


 13141 11d9 00       		.sleb128 0
 13142 11da 00       		.byte	0
 13143 11db 00       		.byte	0
 13144 11dc 0F       		.uleb128 0xf
 13145 11dd 04       		.byte	0x4
 13146 11de E2110000 		.4byte	0x11e2
 13147 11e2 10       		.uleb128 0x10
 13148 11e3 DF000000 		.4byte	0xdf
 13149 11e7 21       		.uleb128 0x21
 13150 11e8 8F020000 		.4byte	.LASF40
 13151 11ec 01       		.byte	0x1
 13152 11ed 1201     		.2byte	0x112
 13153 11ef 00000000 		.4byte	.LFB10
 13154 11f3 22000000 		.4byte	.LFE10-.LFB10
 13155 11f7 01       		.uleb128 0x1
 13156 11f8 9C       		.byte	0x9c
 13157 11f9 5A120000 		.4byte	0x125a
 13158 11fd 12       		.uleb128 0x12
 13159 11fe 6800     		.ascii	"h\000"
 13160 1200 01       		.byte	0x1
 13161 1201 1201     		.2byte	0x112
 13162 1203 C60B0000 		.4byte	0xbc6
 13163 1207 F8050000 		.4byte	.LLST35
 13164 120b 18       		.uleb128 0x18
 13165 120c 08000000 		.4byte	.LVL178
 13166 1210 7D1F0000 		.4byte	0x1f7d
 13167 1214 1F120000 		.4byte	0x121f
 13168 1218 19       		.uleb128 0x19
 13169 1219 01       		.uleb128 0x1
 13170 121a 50       		.byte	0x50
 13171 121b 02       		.uleb128 0x2
 13172 121c 74       		.byte	0x74
 13173 121d 00       		.sleb128 0
 13174 121e 00       		.byte	0
 13175 121f 18       		.uleb128 0x18
 13176 1220 10000000 		.4byte	.LVL179
 13177 1224 721F0000 		.4byte	0x1f72
 13178 1228 33120000 		.4byte	0x1233
 13179 122c 19       		.uleb128 0x19
 13180 122d 01       		.uleb128 0x1
 13181 122e 50       		.byte	0x50
 13182 122f 02       		.uleb128 0x2
 13183 1230 74       		.byte	0x74
 13184 1231 28       		.sleb128 40
 13185 1232 00       		.byte	0
 13186 1233 18       		.uleb128 0x18
 13187 1234 18000000 		.4byte	.LVL180
 13188 1238 721F0000 		.4byte	0x1f72
 13189 123c 48120000 		.4byte	0x1248
 13190 1240 19       		.uleb128 0x19
 13191 1241 01       		.uleb128 0x1
 13192 1242 50       		.byte	0x50
 13193 1243 03       		.uleb128 0x3
 13194 1244 74       		.byte	0x74
 13195 1245 D000     		.sleb128 80
 13196 1247 00       		.byte	0
 13197 1248 1A       		.uleb128 0x1a
ARM GAS  C:\Users\NIGHDR~1\AppData\Local\Temp\ccrnUt9g.s 			page 244


 13198 1249 20000000 		.4byte	.LVL181
 13199 124d 7D1F0000 		.4byte	0x1f7d
 13200 1251 19       		.uleb128 0x19
 13201 1252 01       		.uleb128 0x1
 13202 1253 50       		.byte	0x50
 13203 1254 03       		.uleb128 0x3
 13204 1255 74       		.byte	0x74
 13205 1256 F800     		.sleb128 120
 13206 1258 00       		.byte	0
 13207 1259 00       		.byte	0
 13208 125a 21       		.uleb128 0x21
 13209 125b 5F010000 		.4byte	.LASF41
 13210 125f 01       		.byte	0x1
 13211 1260 2E01     		.2byte	0x12e
 13212 1262 00000000 		.4byte	.LFB12
 13213 1266 40000000 		.4byte	.LFE12-.LFB12
 13214 126a 01       		.uleb128 0x1
 13215 126b 9C       		.byte	0x9c
 13216 126c 0A130000 		.4byte	0x130a
 13217 1270 12       		.uleb128 0x12
 13218 1271 7200     		.ascii	"r\000"
 13219 1273 01       		.byte	0x1
 13220 1274 2E01     		.2byte	0x12e
 13221 1276 0A130000 		.4byte	0x130a
 13222 127a 24060000 		.4byte	.LLST36
 13223 127e 12       		.uleb128 0x12
 13224 127f 7000     		.ascii	"p\000"
 13225 1281 01       		.byte	0x1
 13226 1282 2E01     		.2byte	0x12e
 13227 1284 7D080000 		.4byte	0x87d
 13228 1288 50060000 		.4byte	.LLST37
 13229 128c 18       		.uleb128 0x18
 13230 128d 12000000 		.4byte	.LVL185
 13231 1291 9E1F0000 		.4byte	0x1f9e
 13232 1295 AC120000 		.4byte	0x12ac
 13233 1299 19       		.uleb128 0x19
 13234 129a 01       		.uleb128 0x1
 13235 129b 50       		.byte	0x50
 13236 129c 02       		.uleb128 0x2
 13237 129d 75       		.byte	0x75
 13238 129e 00       		.sleb128 0
 13239 129f 19       		.uleb128 0x19
 13240 12a0 01       		.uleb128 0x1
 13241 12a1 51       		.byte	0x51
 13242 12a2 02       		.uleb128 0x2
 13243 12a3 76       		.byte	0x76
 13244 12a4 00       		.sleb128 0
 13245 12a5 19       		.uleb128 0x19
 13246 12a6 01       		.uleb128 0x1
 13247 12a7 52       		.byte	0x52
 13248 12a8 02       		.uleb128 0x2
 13249 12a9 74       		.byte	0x74
 13250 12aa 00       		.sleb128 0
 13251 12ab 00       		.byte	0
 13252 12ac 18       		.uleb128 0x18
 13253 12ad 1E000000 		.4byte	.LVL186
 13254 12b1 A91F0000 		.4byte	0x1fa9
ARM GAS  C:\Users\NIGHDR~1\AppData\Local\Temp\ccrnUt9g.s 			page 245


 13255 12b5 CC120000 		.4byte	0x12cc
 13256 12b9 19       		.uleb128 0x19
 13257 12ba 01       		.uleb128 0x1
 13258 12bb 50       		.byte	0x50
 13259 12bc 02       		.uleb128 0x2
 13260 12bd 75       		.byte	0x75
 13261 12be 28       		.sleb128 40
 13262 12bf 19       		.uleb128 0x19
 13263 12c0 01       		.uleb128 0x1
 13264 12c1 51       		.byte	0x51
 13265 12c2 02       		.uleb128 0x2
 13266 12c3 76       		.byte	0x76
 13267 12c4 00       		.sleb128 0
 13268 12c5 19       		.uleb128 0x19
 13269 12c6 01       		.uleb128 0x1
 13270 12c7 52       		.byte	0x52
 13271 12c8 02       		.uleb128 0x2
 13272 12c9 74       		.byte	0x74
 13273 12ca 00       		.sleb128 0
 13274 12cb 00       		.byte	0
 13275 12cc 18       		.uleb128 0x18
 13276 12cd 2A000000 		.4byte	.LVL187
 13277 12d1 881F0000 		.4byte	0x1f88
 13278 12d5 E8120000 		.4byte	0x12e8
 13279 12d9 19       		.uleb128 0x19
 13280 12da 01       		.uleb128 0x1
 13281 12db 50       		.byte	0x50
 13282 12dc 03       		.uleb128 0x3
 13283 12dd 75       		.byte	0x75
 13284 12de D000     		.sleb128 80
 13285 12e0 19       		.uleb128 0x19
 13286 12e1 01       		.uleb128 0x1
 13287 12e2 51       		.byte	0x51
 13288 12e3 03       		.uleb128 0x3
 13289 12e4 74       		.byte	0x74
 13290 12e5 D000     		.sleb128 80
 13291 12e7 00       		.byte	0
 13292 12e8 1A       		.uleb128 0x1a
 13293 12e9 3A000000 		.4byte	.LVL188
 13294 12ed B41F0000 		.4byte	0x1fb4
 13295 12f1 19       		.uleb128 0x19
 13296 12f2 01       		.uleb128 0x1
 13297 12f3 50       		.byte	0x50
 13298 12f4 03       		.uleb128 0x3
 13299 12f5 75       		.byte	0x75
 13300 12f6 F800     		.sleb128 120
 13301 12f8 19       		.uleb128 0x19
 13302 12f9 01       		.uleb128 0x1
 13303 12fa 51       		.byte	0x51
 13304 12fb 03       		.uleb128 0x3
 13305 12fc 74       		.byte	0x74
 13306 12fd F800     		.sleb128 120
 13307 12ff 19       		.uleb128 0x19
 13308 1300 01       		.uleb128 0x1
 13309 1301 52       		.byte	0x52
 13310 1302 05       		.uleb128 0x5
 13311 1303 03       		.byte	0x3
ARM GAS  C:\Users\NIGHDR~1\AppData\Local\Temp\ccrnUt9g.s 			page 246


 13312 1304 50780000 		.4byte	.LANCHOR1+80
 13313 1308 00       		.byte	0
 13314 1309 00       		.byte	0
 13315 130a 0F       		.uleb128 0xf
 13316 130b 04       		.byte	0x4
 13317 130c D1010000 		.4byte	0x1d1
 13318 1310 21       		.uleb128 0x21
 13319 1311 BA020000 		.4byte	.LASF42
 13320 1315 01       		.byte	0x1
 13321 1316 3A01     		.2byte	0x13a
 13322 1318 00000000 		.4byte	.LFB13
 13323 131c 24000000 		.4byte	.LFE13-.LFB13
 13324 1320 01       		.uleb128 0x1
 13325 1321 9C       		.byte	0x9c
 13326 1322 8F130000 		.4byte	0x138f
 13327 1326 12       		.uleb128 0x12
 13328 1327 7200     		.ascii	"r\000"
 13329 1329 01       		.byte	0x1
 13330 132a 3A01     		.2byte	0x13a
 13331 132c 710F0000 		.4byte	0xf71
 13332 1330 94060000 		.4byte	.LLST38
 13333 1334 12       		.uleb128 0x12
 13334 1335 7000     		.ascii	"p\000"
 13335 1337 01       		.byte	0x1
 13336 1338 3A01     		.2byte	0x13a
 13337 133a 7D080000 		.4byte	0x87d
 13338 133e C0060000 		.4byte	.LLST39
 13339 1342 18       		.uleb128 0x18
 13340 1343 0A000000 		.4byte	.LVL193
 13341 1347 881F0000 		.4byte	0x1f88
 13342 134b 5C130000 		.4byte	0x135c
 13343 134f 19       		.uleb128 0x19
 13344 1350 01       		.uleb128 0x1
 13345 1351 50       		.byte	0x50
 13346 1352 02       		.uleb128 0x2
 13347 1353 74       		.byte	0x74
 13348 1354 00       		.sleb128 0
 13349 1355 19       		.uleb128 0x19
 13350 1356 01       		.uleb128 0x1
 13351 1357 51       		.byte	0x51
 13352 1358 02       		.uleb128 0x2
 13353 1359 75       		.byte	0x75
 13354 135a 00       		.sleb128 0
 13355 135b 00       		.byte	0
 13356 135c 18       		.uleb128 0x18
 13357 135d 16000000 		.4byte	.LVL194
 13358 1361 881F0000 		.4byte	0x1f88
 13359 1365 76130000 		.4byte	0x1376
 13360 1369 19       		.uleb128 0x19
 13361 136a 01       		.uleb128 0x1
 13362 136b 50       		.byte	0x50
 13363 136c 02       		.uleb128 0x2
 13364 136d 74       		.byte	0x74
 13365 136e 28       		.sleb128 40
 13366 136f 19       		.uleb128 0x19
 13367 1370 01       		.uleb128 0x1
 13368 1371 51       		.byte	0x51
ARM GAS  C:\Users\NIGHDR~1\AppData\Local\Temp\ccrnUt9g.s 			page 247


 13369 1372 02       		.uleb128 0x2
 13370 1373 75       		.byte	0x75
 13371 1374 28       		.sleb128 40
 13372 1375 00       		.byte	0
 13373 1376 1A       		.uleb128 0x1a
 13374 1377 22000000 		.4byte	.LVL195
 13375 137b 881F0000 		.4byte	0x1f88
 13376 137f 19       		.uleb128 0x19
 13377 1380 01       		.uleb128 0x1
 13378 1381 50       		.byte	0x50
 13379 1382 03       		.uleb128 0x3
 13380 1383 74       		.byte	0x74
 13381 1384 D000     		.sleb128 80
 13382 1386 19       		.uleb128 0x19
 13383 1387 01       		.uleb128 0x1
 13384 1388 51       		.byte	0x51
 13385 1389 03       		.uleb128 0x3
 13386 138a 75       		.byte	0x75
 13387 138b D000     		.sleb128 80
 13388 138d 00       		.byte	0
 13389 138e 00       		.byte	0
 13390 138f 21       		.uleb128 0x21
 13391 1390 03010000 		.4byte	.LASF43
 13392 1394 01       		.byte	0x1
 13393 1395 1E01     		.2byte	0x11e
 13394 1397 00000000 		.4byte	.LFB11
 13395 139b 18000000 		.4byte	.LFE11-.LFB11
 13396 139f 01       		.uleb128 0x1
 13397 13a0 9C       		.byte	0x9c
 13398 13a1 01140000 		.4byte	0x1401
 13399 13a5 12       		.uleb128 0x12
 13400 13a6 7200     		.ascii	"r\000"
 13401 13a8 01       		.byte	0x1
 13402 13a9 1E01     		.2byte	0x11e
 13403 13ab 77080000 		.4byte	0x877
 13404 13af EC060000 		.4byte	.LLST40
 13405 13b3 12       		.uleb128 0x12
 13406 13b4 7000     		.ascii	"p\000"
 13407 13b6 01       		.byte	0x1
 13408 13b7 1E01     		.2byte	0x11e
 13409 13b9 7D080000 		.4byte	0x87d
 13410 13bd 18070000 		.4byte	.LLST41
 13411 13c1 15       		.uleb128 0x15
 13412 13c2 7100     		.ascii	"q\000"
 13413 13c4 01       		.byte	0x1
 13414 13c5 1F01     		.2byte	0x11f
 13415 13c7 DF000000 		.4byte	0xdf
 13416 13cb 03       		.uleb128 0x3
 13417 13cc 91       		.byte	0x91
 13418 13cd 807F     		.sleb128 -128
 13419 13cf 18       		.uleb128 0x18
 13420 13d0 0C000000 		.4byte	.LVL200
 13421 13d4 10130000 		.4byte	0x1310
 13422 13d8 EA130000 		.4byte	0x13ea
 13423 13dc 19       		.uleb128 0x19
 13424 13dd 01       		.uleb128 0x1
 13425 13de 50       		.byte	0x50
ARM GAS  C:\Users\NIGHDR~1\AppData\Local\Temp\ccrnUt9g.s 			page 248


 13426 13df 02       		.uleb128 0x2
 13427 13e0 7D       		.byte	0x7d
 13428 13e1 00       		.sleb128 0
 13429 13e2 19       		.uleb128 0x19
 13430 13e3 01       		.uleb128 0x1
 13431 13e4 51       		.byte	0x51
 13432 13e5 03       		.uleb128 0x3
 13433 13e6 F3       		.byte	0xf3
 13434 13e7 01       		.uleb128 0x1
 13435 13e8 51       		.byte	0x51
 13436 13e9 00       		.byte	0
 13437 13ea 1A       		.uleb128 0x1a
 13438 13eb 14000000 		.4byte	.LVL201
 13439 13ef 8E100000 		.4byte	0x108e
 13440 13f3 19       		.uleb128 0x19
 13441 13f4 01       		.uleb128 0x1
 13442 13f5 50       		.byte	0x50
 13443 13f6 02       		.uleb128 0x2
 13444 13f7 74       		.byte	0x74
 13445 13f8 00       		.sleb128 0
 13446 13f9 19       		.uleb128 0x19
 13447 13fa 01       		.uleb128 0x1
 13448 13fb 51       		.byte	0x51
 13449 13fc 02       		.uleb128 0x2
 13450 13fd 7D       		.byte	0x7d
 13451 13fe 00       		.sleb128 0
 13452 13ff 00       		.byte	0
 13453 1400 00       		.byte	0
 13454 1401 21       		.uleb128 0x21
 13455 1402 E2020000 		.4byte	.LASF44
 13456 1406 01       		.byte	0x1
 13457 1407 4101     		.2byte	0x141
 13458 1409 00000000 		.4byte	.LFB14
 13459 140d 40000000 		.4byte	.LFE14-.LFB14
 13460 1411 01       		.uleb128 0x1
 13461 1412 9C       		.byte	0x9c
 13462 1413 E6140000 		.4byte	0x14e6
 13463 1417 12       		.uleb128 0x12
 13464 1418 7300     		.ascii	"s\000"
 13465 141a 01       		.byte	0x1
 13466 141b 4101     		.2byte	0x141
 13467 141d E6140000 		.4byte	0x14e6
 13468 1421 39070000 		.4byte	.LLST42
 13469 1425 12       		.uleb128 0x12
 13470 1426 6800     		.ascii	"h\000"
 13471 1428 01       		.byte	0x1
 13472 1429 4101     		.2byte	0x141
 13473 142b 7D080000 		.4byte	0x87d
 13474 142f 65070000 		.4byte	.LLST43
 13475 1433 1B       		.uleb128 0x1b
 13476 1434 AF020000 		.4byte	.LASF45
 13477 1438 01       		.byte	0x1
 13478 1439 4201     		.2byte	0x142
 13479 143b 97000000 		.4byte	0x97
 13480 143f 02       		.uleb128 0x2
 13481 1440 91       		.byte	0x91
 13482 1441 48       		.sleb128 -56
ARM GAS  C:\Users\NIGHDR~1\AppData\Local\Temp\ccrnUt9g.s 			page 249


 13483 1442 15       		.uleb128 0x15
 13484 1443 7800     		.ascii	"x\000"
 13485 1445 01       		.byte	0x1
 13486 1446 4301     		.2byte	0x143
 13487 1448 97000000 		.4byte	0x97
 13488 144c 03       		.uleb128 0x3
 13489 144d 91       		.byte	0x91
 13490 144e A07F     		.sleb128 -96
 13491 1450 15       		.uleb128 0x15
 13492 1451 7900     		.ascii	"y\000"
 13493 1453 01       		.byte	0x1
 13494 1454 4401     		.2byte	0x144
 13495 1456 97000000 		.4byte	0x97
 13496 145a 03       		.uleb128 0x3
 13497 145b 91       		.byte	0x91
 13498 145c F87E     		.sleb128 -136
 13499 145e 18       		.uleb128 0x18
 13500 145f 10000000 		.4byte	.LVL206
 13501 1463 01200000 		.4byte	0x2001
 13502 1467 79140000 		.4byte	0x1479
 13503 146b 19       		.uleb128 0x19
 13504 146c 01       		.uleb128 0x1
 13505 146d 50       		.byte	0x50
 13506 146e 02       		.uleb128 0x2
 13507 146f 91       		.byte	0x91
 13508 1470 48       		.sleb128 -56
 13509 1471 19       		.uleb128 0x19
 13510 1472 01       		.uleb128 0x1
 13511 1473 51       		.byte	0x51
 13512 1474 03       		.uleb128 0x3
 13513 1475 74       		.byte	0x74
 13514 1476 D000     		.sleb128 80
 13515 1478 00       		.byte	0
 13516 1479 18       		.uleb128 0x18
 13517 147a 1A000000 		.4byte	.LVL207
 13518 147e B41F0000 		.4byte	0x1fb4
 13519 1482 9A140000 		.4byte	0x149a
 13520 1486 19       		.uleb128 0x19
 13521 1487 01       		.uleb128 0x1
 13522 1488 50       		.byte	0x50
 13523 1489 03       		.uleb128 0x3
 13524 148a 91       		.byte	0x91
 13525 148b A07F     		.sleb128 -96
 13526 148d 19       		.uleb128 0x19
 13527 148e 01       		.uleb128 0x1
 13528 148f 51       		.byte	0x51
 13529 1490 02       		.uleb128 0x2
 13530 1491 74       		.byte	0x74
 13531 1492 00       		.sleb128 0
 13532 1493 19       		.uleb128 0x19
 13533 1494 01       		.uleb128 0x1
 13534 1495 52       		.byte	0x52
 13535 1496 02       		.uleb128 0x2
 13536 1497 91       		.byte	0x91
 13537 1498 48       		.sleb128 -56
 13538 1499 00       		.byte	0
 13539 149a 18       		.uleb128 0x18
ARM GAS  C:\Users\NIGHDR~1\AppData\Local\Temp\ccrnUt9g.s 			page 250


 13540 149b 26000000 		.4byte	.LVL208
 13541 149f B41F0000 		.4byte	0x1fb4
 13542 14a3 BA140000 		.4byte	0x14ba
 13543 14a7 19       		.uleb128 0x19
 13544 14a8 01       		.uleb128 0x1
 13545 14a9 50       		.byte	0x50
 13546 14aa 02       		.uleb128 0x2
 13547 14ab 7D       		.byte	0x7d
 13548 14ac 00       		.sleb128 0
 13549 14ad 19       		.uleb128 0x19
 13550 14ae 01       		.uleb128 0x1
 13551 14af 51       		.byte	0x51
 13552 14b0 02       		.uleb128 0x2
 13553 14b1 74       		.byte	0x74
 13554 14b2 28       		.sleb128 40
 13555 14b3 19       		.uleb128 0x19
 13556 14b4 01       		.uleb128 0x1
 13557 14b5 52       		.byte	0x52
 13558 14b6 02       		.uleb128 0x2
 13559 14b7 91       		.byte	0x91
 13560 14b8 48       		.sleb128 -56
 13561 14b9 00       		.byte	0
 13562 14ba 18       		.uleb128 0x18
 13563 14bb 2E000000 		.4byte	.LVL209
 13564 14bf 0C200000 		.4byte	0x200c
 13565 14c3 D4140000 		.4byte	0x14d4
 13566 14c7 19       		.uleb128 0x19
 13567 14c8 01       		.uleb128 0x1
 13568 14c9 50       		.byte	0x50
 13569 14ca 02       		.uleb128 0x2
 13570 14cb 75       		.byte	0x75
 13571 14cc 00       		.sleb128 0
 13572 14cd 19       		.uleb128 0x19
 13573 14ce 01       		.uleb128 0x1
 13574 14cf 51       		.byte	0x51
 13575 14d0 02       		.uleb128 0x2
 13576 14d1 7D       		.byte	0x7d
 13577 14d2 00       		.sleb128 0
 13578 14d3 00       		.byte	0
 13579 14d4 1A       		.uleb128 0x1a
 13580 14d5 34000000 		.4byte	.LVL210
 13581 14d9 EB1F0000 		.4byte	0x1feb
 13582 14dd 19       		.uleb128 0x19
 13583 14de 01       		.uleb128 0x1
 13584 14df 50       		.byte	0x50
 13585 14e0 03       		.uleb128 0x3
 13586 14e1 91       		.byte	0x91
 13587 14e2 A07F     		.sleb128 -96
 13588 14e4 00       		.byte	0
 13589 14e5 00       		.byte	0
 13590 14e6 0F       		.uleb128 0xf
 13591 14e7 04       		.byte	0x4
 13592 14e8 2C000000 		.4byte	0x2c
 13593 14ec 21       		.uleb128 0x21
 13594 14ed 95010000 		.4byte	.LASF46
 13595 14f1 01       		.byte	0x1
 13596 14f2 8201     		.2byte	0x182
ARM GAS  C:\Users\NIGHDR~1\AppData\Local\Temp\ccrnUt9g.s 			page 251


 13597 14f4 00000000 		.4byte	.LFB19
 13598 14f8 F0000000 		.4byte	.LFE19-.LFB19
 13599 14fc 01       		.uleb128 0x1
 13600 14fd 9C       		.byte	0x9c
 13601 14fe 39170000 		.4byte	0x1739
 13602 1502 12       		.uleb128 0x12
 13603 1503 6800     		.ascii	"h\000"
 13604 1505 01       		.byte	0x1
 13605 1506 8201     		.2byte	0x182
 13606 1508 C60B0000 		.4byte	0xbc6
 13607 150c 91070000 		.4byte	.LLST44
 13608 1510 12       		.uleb128 0x12
 13609 1511 6100     		.ascii	"a\000"
 13610 1513 01       		.byte	0x1
 13611 1514 8201     		.2byte	0x182
 13612 1516 37020000 		.4byte	0x237
 13613 151a BD070000 		.4byte	.LLST45
 13614 151e 15       		.uleb128 0x15
 13615 151f 6500     		.ascii	"e\000"
 13616 1521 01       		.byte	0x1
 13617 1522 8301     		.2byte	0x183
 13618 1524 39170000 		.4byte	0x1739
 13619 1528 03       		.uleb128 0x3
 13620 1529 91       		.byte	0x91
 13621 152a B07F     		.sleb128 -80
 13622 152c 1C       		.uleb128 0x1c
 13623 152d FD020000 		.4byte	.LASF47
 13624 1531 01       		.byte	0x1
 13625 1532 8401     		.2byte	0x184
 13626 1534 25000000 		.4byte	0x25
 13627 1538 DE070000 		.4byte	.LLST46
 13628 153c 15       		.uleb128 0x15
 13629 153d 7200     		.ascii	"r\000"
 13630 153f 01       		.byte	0x1
 13631 1540 8501     		.2byte	0x185
 13632 1542 57010000 		.4byte	0x157
 13633 1546 03       		.uleb128 0x3
 13634 1547 91       		.byte	0x91
 13635 1548 907E     		.sleb128 -240
 13636 154a 15       		.uleb128 0x15
 13637 154b 7300     		.ascii	"s\000"
 13638 154d 01       		.byte	0x1
 13639 154e 8601     		.2byte	0x186
 13640 1550 DF000000 		.4byte	0xdf
 13641 1554 03       		.uleb128 0x3
 13642 1555 91       		.byte	0x91
 13643 1556 987D     		.sleb128 -360
 13644 1558 15       		.uleb128 0x15
 13645 1559 7400     		.ascii	"t\000"
 13646 155b 01       		.byte	0x1
 13647 155c 8701     		.2byte	0x187
 13648 155e 8F010000 		.4byte	0x18f
 13649 1562 03       		.uleb128 0x3
 13650 1563 91       		.byte	0x91
 13651 1564 A07C     		.sleb128 -480
 13652 1566 14       		.uleb128 0x14
 13653 1567 6900     		.ascii	"i\000"
ARM GAS  C:\Users\NIGHDR~1\AppData\Local\Temp\ccrnUt9g.s 			page 252


 13654 1569 01       		.byte	0x1
 13655 156a 8801     		.2byte	0x188
 13656 156c 73000000 		.4byte	0x73
 13657 1570 FC070000 		.4byte	.LLST47
 13658 1574 18       		.uleb128 0x18
 13659 1575 54000000 		.4byte	.LVL225
 13660 1579 E7110000 		.4byte	0x11e7
 13661 157d 88150000 		.4byte	0x1588
 13662 1581 19       		.uleb128 0x19
 13663 1582 01       		.uleb128 0x1
 13664 1583 50       		.byte	0x50
 13665 1584 02       		.uleb128 0x2
 13666 1585 74       		.byte	0x74
 13667 1586 00       		.sleb128 0
 13668 1587 00       		.byte	0
 13669 1588 18       		.uleb128 0x18
 13670 1589 68000000 		.4byte	.LVL227
 13671 158d 92030000 		.4byte	0x392
 13672 1591 B7150000 		.4byte	0x15b7
 13673 1595 19       		.uleb128 0x19
 13674 1596 01       		.uleb128 0x1
 13675 1597 50       		.byte	0x50
 13676 1598 02       		.uleb128 0x2
 13677 1599 7D       		.byte	0x7d
 13678 159a 00       		.sleb128 0
 13679 159b 19       		.uleb128 0x19
 13680 159c 01       		.uleb128 0x1
 13681 159d 51       		.byte	0x51
 13682 159e 09       		.uleb128 0x9
 13683 159f 75       		.byte	0x75
 13684 15a0 00       		.sleb128 0
 13685 15a1 4F       		.byte	0x4f
 13686 15a2 25       		.byte	0x25
 13687 15a3 75       		.byte	0x75
 13688 15a4 00       		.sleb128 0
 13689 15a5 22       		.byte	0x22
 13690 15a6 31       		.byte	0x31
 13691 15a7 26       		.byte	0x26
 13692 15a8 19       		.uleb128 0x19
 13693 15a9 01       		.uleb128 0x1
 13694 15aa 52       		.byte	0x52
 13695 15ab 0A       		.uleb128 0xa
 13696 15ac 91       		.byte	0x91
 13697 15ad 00       		.sleb128 0
 13698 15ae 75       		.byte	0x75
 13699 15af 00       		.sleb128 0
 13700 15b0 22       		.byte	0x22
 13701 15b1 08       		.byte	0x8
 13702 15b2 50       		.byte	0x50
 13703 15b3 1C       		.byte	0x1c
 13704 15b4 94       		.byte	0x94
 13705 15b5 01       		.byte	0x1
 13706 15b6 00       		.byte	0
 13707 15b7 18       		.uleb128 0x18
 13708 15b8 72000000 		.4byte	.LVL228
 13709 15bc CC0B0000 		.4byte	0xbcc
 13710 15c0 D8150000 		.4byte	0x15d8
ARM GAS  C:\Users\NIGHDR~1\AppData\Local\Temp\ccrnUt9g.s 			page 253


 13711 15c4 19       		.uleb128 0x19
 13712 15c5 01       		.uleb128 0x1
 13713 15c6 50       		.byte	0x50
 13714 15c7 03       		.uleb128 0x3
 13715 15c8 91       		.byte	0x91
 13716 15c9 907E     		.sleb128 -240
 13717 15cb 19       		.uleb128 0x19
 13718 15cc 01       		.uleb128 0x1
 13719 15cd 51       		.byte	0x51
 13720 15ce 02       		.uleb128 0x2
 13721 15cf 74       		.byte	0x74
 13722 15d0 00       		.sleb128 0
 13723 15d1 19       		.uleb128 0x19
 13724 15d2 01       		.uleb128 0x1
 13725 15d3 52       		.byte	0x52
 13726 15d4 02       		.uleb128 0x2
 13727 15d5 7D       		.byte	0x7d
 13728 15d6 00       		.sleb128 0
 13729 15d7 00       		.byte	0
 13730 15d8 18       		.uleb128 0x18
 13731 15d9 7A000000 		.4byte	.LVL229
 13732 15dd 820F0000 		.4byte	0xf82
 13733 15e1 F3150000 		.4byte	0x15f3
 13734 15e5 19       		.uleb128 0x19
 13735 15e6 01       		.uleb128 0x1
 13736 15e7 50       		.byte	0x50
 13737 15e8 02       		.uleb128 0x2
 13738 15e9 74       		.byte	0x74
 13739 15ea 00       		.sleb128 0
 13740 15eb 19       		.uleb128 0x19
 13741 15ec 01       		.uleb128 0x1
 13742 15ed 51       		.byte	0x51
 13743 15ee 03       		.uleb128 0x3
 13744 15ef 91       		.byte	0x91
 13745 15f0 907E     		.sleb128 -240
 13746 15f2 00       		.byte	0
 13747 15f3 18       		.uleb128 0x18
 13748 15f4 88000000 		.4byte	.LVL231
 13749 15f8 8F130000 		.4byte	0x138f
 13750 15fc 0E160000 		.4byte	0x160e
 13751 1600 19       		.uleb128 0x19
 13752 1601 01       		.uleb128 0x1
 13753 1602 50       		.byte	0x50
 13754 1603 03       		.uleb128 0x3
 13755 1604 91       		.byte	0x91
 13756 1605 907E     		.sleb128 -240
 13757 1607 19       		.uleb128 0x19
 13758 1608 01       		.uleb128 0x1
 13759 1609 51       		.byte	0x51
 13760 160a 02       		.uleb128 0x2
 13761 160b 74       		.byte	0x74
 13762 160c 00       		.sleb128 0
 13763 160d 00       		.byte	0
 13764 160e 18       		.uleb128 0x18
 13765 160f 90000000 		.4byte	.LVL232
 13766 1613 E40E0000 		.4byte	0xee4
 13767 1617 2A160000 		.4byte	0x162a
ARM GAS  C:\Users\NIGHDR~1\AppData\Local\Temp\ccrnUt9g.s 			page 254


 13768 161b 19       		.uleb128 0x19
 13769 161c 01       		.uleb128 0x1
 13770 161d 50       		.byte	0x50
 13771 161e 03       		.uleb128 0x3
 13772 161f 91       		.byte	0x91
 13773 1620 987D     		.sleb128 -360
 13774 1622 19       		.uleb128 0x19
 13775 1623 01       		.uleb128 0x1
 13776 1624 51       		.byte	0x51
 13777 1625 03       		.uleb128 0x3
 13778 1626 91       		.byte	0x91
 13779 1627 907E     		.sleb128 -240
 13780 1629 00       		.byte	0
 13781 162a 18       		.uleb128 0x18
 13782 162b 98000000 		.4byte	.LVL233
 13783 162f 8E100000 		.4byte	0x108e
 13784 1633 46160000 		.4byte	0x1646
 13785 1637 19       		.uleb128 0x19
 13786 1638 01       		.uleb128 0x1
 13787 1639 50       		.byte	0x50
 13788 163a 03       		.uleb128 0x3
 13789 163b 91       		.byte	0x91
 13790 163c 907E     		.sleb128 -240
 13791 163e 19       		.uleb128 0x19
 13792 163f 01       		.uleb128 0x1
 13793 1640 51       		.byte	0x51
 13794 1641 03       		.uleb128 0x3
 13795 1642 91       		.byte	0x91
 13796 1643 987D     		.sleb128 -360
 13797 1645 00       		.byte	0
 13798 1646 18       		.uleb128 0x18
 13799 1647 A0000000 		.4byte	.LVL234
 13800 164b E40E0000 		.4byte	0xee4
 13801 164f 62160000 		.4byte	0x1662
 13802 1653 19       		.uleb128 0x19
 13803 1654 01       		.uleb128 0x1
 13804 1655 50       		.byte	0x50
 13805 1656 03       		.uleb128 0x3
 13806 1657 91       		.byte	0x91
 13807 1658 987D     		.sleb128 -360
 13808 165a 19       		.uleb128 0x19
 13809 165b 01       		.uleb128 0x1
 13810 165c 51       		.byte	0x51
 13811 165d 03       		.uleb128 0x3
 13812 165e 91       		.byte	0x91
 13813 165f 907E     		.sleb128 -240
 13814 1661 00       		.byte	0
 13815 1662 18       		.uleb128 0x18
 13816 1663 A8000000 		.4byte	.LVL235
 13817 1667 8E100000 		.4byte	0x108e
 13818 166b 7E160000 		.4byte	0x167e
 13819 166f 19       		.uleb128 0x19
 13820 1670 01       		.uleb128 0x1
 13821 1671 50       		.byte	0x50
 13822 1672 03       		.uleb128 0x3
 13823 1673 91       		.byte	0x91
 13824 1674 907E     		.sleb128 -240
ARM GAS  C:\Users\NIGHDR~1\AppData\Local\Temp\ccrnUt9g.s 			page 255


 13825 1676 19       		.uleb128 0x19
 13826 1677 01       		.uleb128 0x1
 13827 1678 51       		.byte	0x51
 13828 1679 03       		.uleb128 0x3
 13829 167a 91       		.byte	0x91
 13830 167b 987D     		.sleb128 -360
 13831 167d 00       		.byte	0
 13832 167e 18       		.uleb128 0x18
 13833 167f B0000000 		.4byte	.LVL236
 13834 1683 E40E0000 		.4byte	0xee4
 13835 1687 9A160000 		.4byte	0x169a
 13836 168b 19       		.uleb128 0x19
 13837 168c 01       		.uleb128 0x1
 13838 168d 50       		.byte	0x50
 13839 168e 03       		.uleb128 0x3
 13840 168f 91       		.byte	0x91
 13841 1690 987D     		.sleb128 -360
 13842 1692 19       		.uleb128 0x19
 13843 1693 01       		.uleb128 0x1
 13844 1694 51       		.byte	0x51
 13845 1695 03       		.uleb128 0x3
 13846 1696 91       		.byte	0x91
 13847 1697 907E     		.sleb128 -240
 13848 1699 00       		.byte	0
 13849 169a 18       		.uleb128 0x18
 13850 169b B8000000 		.4byte	.LVL237
 13851 169f 8E100000 		.4byte	0x108e
 13852 16a3 B6160000 		.4byte	0x16b6
 13853 16a7 19       		.uleb128 0x19
 13854 16a8 01       		.uleb128 0x1
 13855 16a9 50       		.byte	0x50
 13856 16aa 03       		.uleb128 0x3
 13857 16ab 91       		.byte	0x91
 13858 16ac 907E     		.sleb128 -240
 13859 16ae 19       		.uleb128 0x19
 13860 16af 01       		.uleb128 0x1
 13861 16b0 51       		.byte	0x51
 13862 16b1 03       		.uleb128 0x3
 13863 16b2 91       		.byte	0x91
 13864 16b3 987D     		.sleb128 -360
 13865 16b5 00       		.byte	0
 13866 16b6 18       		.uleb128 0x18
 13867 16b7 C0000000 		.4byte	.LVL238
 13868 16bb 820F0000 		.4byte	0xf82
 13869 16bf D1160000 		.4byte	0x16d1
 13870 16c3 19       		.uleb128 0x19
 13871 16c4 01       		.uleb128 0x1
 13872 16c5 50       		.byte	0x50
 13873 16c6 02       		.uleb128 0x2
 13874 16c7 74       		.byte	0x74
 13875 16c8 00       		.sleb128 0
 13876 16c9 19       		.uleb128 0x19
 13877 16ca 01       		.uleb128 0x1
 13878 16cb 51       		.byte	0x51
 13879 16cc 03       		.uleb128 0x3
 13880 16cd 91       		.byte	0x91
 13881 16ce 907E     		.sleb128 -240
ARM GAS  C:\Users\NIGHDR~1\AppData\Local\Temp\ccrnUt9g.s 			page 256


 13882 16d0 00       		.byte	0
 13883 16d1 18       		.uleb128 0x18
 13884 16d2 D4000000 		.4byte	.LVL240
 13885 16d6 92030000 		.4byte	0x392
 13886 16da 00170000 		.4byte	0x1700
 13887 16de 19       		.uleb128 0x19
 13888 16df 01       		.uleb128 0x1
 13889 16e0 50       		.byte	0x50
 13890 16e1 02       		.uleb128 0x2
 13891 16e2 7D       		.byte	0x7d
 13892 16e3 00       		.sleb128 0
 13893 16e4 19       		.uleb128 0x19
 13894 16e5 01       		.uleb128 0x1
 13895 16e6 51       		.byte	0x51
 13896 16e7 09       		.uleb128 0x9
 13897 16e8 75       		.byte	0x75
 13898 16e9 00       		.sleb128 0
 13899 16ea 4F       		.byte	0x4f
 13900 16eb 25       		.byte	0x25
 13901 16ec 75       		.byte	0x75
 13902 16ed 00       		.sleb128 0
 13903 16ee 22       		.byte	0x22
 13904 16ef 31       		.byte	0x31
 13905 16f0 26       		.byte	0x26
 13906 16f1 19       		.uleb128 0x19
 13907 16f2 01       		.uleb128 0x1
 13908 16f3 52       		.byte	0x52
 13909 16f4 0A       		.uleb128 0xa
 13910 16f5 91       		.byte	0x91
 13911 16f6 00       		.sleb128 0
 13912 16f7 75       		.byte	0x75
 13913 16f8 00       		.sleb128 0
 13914 16f9 22       		.byte	0x22
 13915 16fa 08       		.byte	0x8
 13916 16fb 50       		.byte	0x50
 13917 16fc 1C       		.byte	0x1c
 13918 16fd 94       		.byte	0x94
 13919 16fe 01       		.byte	0x1
 13920 16ff 00       		.byte	0
 13921 1700 18       		.uleb128 0x18
 13922 1701 DE000000 		.4byte	.LVL241
 13923 1705 CC0B0000 		.4byte	0xbcc
 13924 1709 21170000 		.4byte	0x1721
 13925 170d 19       		.uleb128 0x19
 13926 170e 01       		.uleb128 0x1
 13927 170f 50       		.byte	0x50
 13928 1710 03       		.uleb128 0x3
 13929 1711 91       		.byte	0x91
 13930 1712 907E     		.sleb128 -240
 13931 1714 19       		.uleb128 0x19
 13932 1715 01       		.uleb128 0x1
 13933 1716 51       		.byte	0x51
 13934 1717 02       		.uleb128 0x2
 13935 1718 74       		.byte	0x74
 13936 1719 00       		.sleb128 0
 13937 171a 19       		.uleb128 0x19
 13938 171b 01       		.uleb128 0x1
ARM GAS  C:\Users\NIGHDR~1\AppData\Local\Temp\ccrnUt9g.s 			page 257


 13939 171c 52       		.byte	0x52
 13940 171d 02       		.uleb128 0x2
 13941 171e 7D       		.byte	0x7d
 13942 171f 00       		.sleb128 0
 13943 1720 00       		.byte	0
 13944 1721 1A       		.uleb128 0x1a
 13945 1722 E6000000 		.4byte	.LVL242
 13946 1726 820F0000 		.4byte	0xf82
 13947 172a 19       		.uleb128 0x19
 13948 172b 01       		.uleb128 0x1
 13949 172c 50       		.byte	0x50
 13950 172d 02       		.uleb128 0x2
 13951 172e 74       		.byte	0x74
 13952 172f 00       		.sleb128 0
 13953 1730 19       		.uleb128 0x19
 13954 1731 01       		.uleb128 0x1
 13955 1732 51       		.byte	0x51
 13956 1733 03       		.uleb128 0x3
 13957 1734 91       		.byte	0x91
 13958 1735 907E     		.sleb128 -240
 13959 1737 00       		.byte	0
 13960 1738 00       		.byte	0
 13961 1739 06       		.uleb128 0x6
 13962 173a 25000000 		.4byte	0x25
 13963 173e 49170000 		.4byte	0x1749
 13964 1742 07       		.uleb128 0x7
 13965 1743 B1000000 		.4byte	0xb1
 13966 1747 3F       		.byte	0x3f
 13967 1748 00       		.byte	0
 13968 1749 21       		.uleb128 0x21
 13969 174a 87030000 		.4byte	.LASF48
 13970 174e 01       		.byte	0x1
 13971 174f B901     		.2byte	0x1b9
 13972 1751 00000000 		.4byte	.LFB20
 13973 1755 A4000000 		.4byte	.LFE20-.LFB20
 13974 1759 01       		.uleb128 0x1
 13975 175a 9C       		.byte	0x9c
 13976 175b FA180000 		.4byte	0x18fa
 13977 175f 12       		.uleb128 0x12
 13978 1760 7200     		.ascii	"r\000"
 13979 1762 01       		.byte	0x1
 13980 1763 B901     		.2byte	0x1b9
 13981 1765 77080000 		.4byte	0x877
 13982 1769 54080000 		.4byte	.LLST48
 13983 176d 12       		.uleb128 0x12
 13984 176e 7000     		.ascii	"p\000"
 13985 1770 01       		.byte	0x1
 13986 1771 B901     		.2byte	0x1b9
 13987 1773 7D080000 		.4byte	0x87d
 13988 1777 80080000 		.4byte	.LLST49
 13989 177b 12       		.uleb128 0x12
 13990 177c 7100     		.ascii	"q\000"
 13991 177e 01       		.byte	0x1
 13992 177f B901     		.2byte	0x1b9
 13993 1781 88080000 		.4byte	0x888
 13994 1785 B7080000 		.4byte	.LLST50
 13995 1789 15       		.uleb128 0x15
ARM GAS  C:\Users\NIGHDR~1\AppData\Local\Temp\ccrnUt9g.s 			page 258


 13996 178a 743000   		.ascii	"t0\000"
 13997 178d 01       		.byte	0x1
 13998 178e BA01     		.2byte	0x1ba
 13999 1790 97000000 		.4byte	0x97
 14000 1794 02       		.uleb128 0x2
 14001 1795 91       		.byte	0x91
 14002 1796 40       		.sleb128 -64
 14003 1797 18       		.uleb128 0x18
 14004 1798 16000000 		.4byte	.LVL249
 14005 179c 9E1F0000 		.4byte	0x1f9e
 14006 17a0 B7170000 		.4byte	0x17b7
 14007 17a4 19       		.uleb128 0x19
 14008 17a5 01       		.uleb128 0x1
 14009 17a6 50       		.byte	0x50
 14010 17a7 02       		.uleb128 0x2
 14011 17a8 74       		.byte	0x74
 14012 17a9 00       		.sleb128 0
 14013 17aa 19       		.uleb128 0x19
 14014 17ab 01       		.uleb128 0x1
 14015 17ac 51       		.byte	0x51
 14016 17ad 02       		.uleb128 0x2
 14017 17ae 76       		.byte	0x76
 14018 17af 00       		.sleb128 0
 14019 17b0 19       		.uleb128 0x19
 14020 17b1 01       		.uleb128 0x1
 14021 17b2 52       		.byte	0x52
 14022 17b3 02       		.uleb128 0x2
 14023 17b4 75       		.byte	0x75
 14024 17b5 00       		.sleb128 0
 14025 17b6 00       		.byte	0
 14026 17b7 18       		.uleb128 0x18
 14027 17b8 2A000000 		.4byte	.LVL250
 14028 17bc A91F0000 		.4byte	0x1fa9
 14029 17c0 D7170000 		.4byte	0x17d7
 14030 17c4 19       		.uleb128 0x19
 14031 17c5 01       		.uleb128 0x1
 14032 17c6 50       		.byte	0x50
 14033 17c7 02       		.uleb128 0x2
 14034 17c8 76       		.byte	0x76
 14035 17c9 00       		.sleb128 0
 14036 17ca 19       		.uleb128 0x19
 14037 17cb 01       		.uleb128 0x1
 14038 17cc 51       		.byte	0x51
 14039 17cd 02       		.uleb128 0x2
 14040 17ce 75       		.byte	0x75
 14041 17cf 28       		.sleb128 40
 14042 17d0 19       		.uleb128 0x19
 14043 17d1 01       		.uleb128 0x1
 14044 17d2 52       		.byte	0x52
 14045 17d3 02       		.uleb128 0x2
 14046 17d4 75       		.byte	0x75
 14047 17d5 00       		.sleb128 0
 14048 17d6 00       		.byte	0
 14049 17d7 18       		.uleb128 0x18
 14050 17d8 40000000 		.4byte	.LVL251
 14051 17dc B41F0000 		.4byte	0x1fb4
 14052 17e0 F9170000 		.4byte	0x17f9
ARM GAS  C:\Users\NIGHDR~1\AppData\Local\Temp\ccrnUt9g.s 			page 259


 14053 17e4 19       		.uleb128 0x19
 14054 17e5 01       		.uleb128 0x1
 14055 17e6 50       		.byte	0x50
 14056 17e7 04       		.uleb128 0x4
 14057 17e8 91       		.byte	0x91
 14058 17e9 BC7F     		.sleb128 -68
 14059 17eb 06       		.byte	0x6
 14060 17ec 19       		.uleb128 0x19
 14061 17ed 01       		.uleb128 0x1
 14062 17ee 51       		.byte	0x51
 14063 17ef 02       		.uleb128 0x2
 14064 17f0 74       		.byte	0x74
 14065 17f1 00       		.sleb128 0
 14066 17f2 19       		.uleb128 0x19
 14067 17f3 01       		.uleb128 0x1
 14068 17f4 52       		.byte	0x52
 14069 17f5 02       		.uleb128 0x2
 14070 17f6 77       		.byte	0x77
 14071 17f7 28       		.sleb128 40
 14072 17f8 00       		.byte	0
 14073 17f9 18       		.uleb128 0x18
 14074 17fa 4C000000 		.4byte	.LVL252
 14075 17fe B41F0000 		.4byte	0x1fb4
 14076 1802 19180000 		.4byte	0x1819
 14077 1806 19       		.uleb128 0x19
 14078 1807 01       		.uleb128 0x1
 14079 1808 50       		.byte	0x50
 14080 1809 02       		.uleb128 0x2
 14081 180a 76       		.byte	0x76
 14082 180b 00       		.sleb128 0
 14083 180c 19       		.uleb128 0x19
 14084 180d 01       		.uleb128 0x1
 14085 180e 51       		.byte	0x51
 14086 180f 02       		.uleb128 0x2
 14087 1810 76       		.byte	0x76
 14088 1811 00       		.sleb128 0
 14089 1812 19       		.uleb128 0x19
 14090 1813 01       		.uleb128 0x1
 14091 1814 52       		.byte	0x52
 14092 1815 02       		.uleb128 0x2
 14093 1816 77       		.byte	0x77
 14094 1817 00       		.sleb128 0
 14095 1818 00       		.byte	0
 14096 1819 18       		.uleb128 0x18
 14097 181a 5C000000 		.4byte	.LVL253
 14098 181e B41F0000 		.4byte	0x1fb4
 14099 1822 3B180000 		.4byte	0x183b
 14100 1826 19       		.uleb128 0x19
 14101 1827 01       		.uleb128 0x1
 14102 1828 50       		.byte	0x50
 14103 1829 02       		.uleb128 0x2
 14104 182a 76       		.byte	0x76
 14105 182b 00       		.sleb128 0
 14106 182c 19       		.uleb128 0x19
 14107 182d 01       		.uleb128 0x1
 14108 182e 51       		.byte	0x51
 14109 182f 03       		.uleb128 0x3
ARM GAS  C:\Users\NIGHDR~1\AppData\Local\Temp\ccrnUt9g.s 			page 260


 14110 1830 77       		.byte	0x77
 14111 1831 F800     		.sleb128 120
 14112 1833 19       		.uleb128 0x19
 14113 1834 01       		.uleb128 0x1
 14114 1835 52       		.byte	0x52
 14115 1836 03       		.uleb128 0x3
 14116 1837 75       		.byte	0x75
 14117 1838 F800     		.sleb128 120
 14118 183a 00       		.byte	0
 14119 183b 18       		.uleb128 0x18
 14120 183c 6A000000 		.4byte	.LVL254
 14121 1840 B41F0000 		.4byte	0x1fb4
 14122 1844 5D180000 		.4byte	0x185d
 14123 1848 19       		.uleb128 0x19
 14124 1849 01       		.uleb128 0x1
 14125 184a 50       		.byte	0x50
 14126 184b 02       		.uleb128 0x2
 14127 184c 74       		.byte	0x74
 14128 184d 00       		.sleb128 0
 14129 184e 19       		.uleb128 0x19
 14130 184f 01       		.uleb128 0x1
 14131 1850 51       		.byte	0x51
 14132 1851 03       		.uleb128 0x3
 14133 1852 75       		.byte	0x75
 14134 1853 D000     		.sleb128 80
 14135 1855 19       		.uleb128 0x19
 14136 1856 01       		.uleb128 0x1
 14137 1857 52       		.byte	0x52
 14138 1858 03       		.uleb128 0x3
 14139 1859 77       		.byte	0x77
 14140 185a D000     		.sleb128 80
 14141 185c 00       		.byte	0
 14142 185d 18       		.uleb128 0x18
 14143 185e 74000000 		.4byte	.LVL255
 14144 1862 9E1F0000 		.4byte	0x1f9e
 14145 1866 7D180000 		.4byte	0x187d
 14146 186a 19       		.uleb128 0x19
 14147 186b 01       		.uleb128 0x1
 14148 186c 50       		.byte	0x50
 14149 186d 02       		.uleb128 0x2
 14150 186e 91       		.byte	0x91
 14151 186f 40       		.sleb128 -64
 14152 1870 19       		.uleb128 0x19
 14153 1871 01       		.uleb128 0x1
 14154 1872 51       		.byte	0x51
 14155 1873 02       		.uleb128 0x2
 14156 1874 74       		.byte	0x74
 14157 1875 00       		.sleb128 0
 14158 1876 19       		.uleb128 0x19
 14159 1877 01       		.uleb128 0x1
 14160 1878 52       		.byte	0x52
 14161 1879 02       		.uleb128 0x2
 14162 187a 74       		.byte	0x74
 14163 187b 00       		.sleb128 0
 14164 187c 00       		.byte	0
 14165 187d 18       		.uleb128 0x18
 14166 187e 82000000 		.4byte	.LVL258
ARM GAS  C:\Users\NIGHDR~1\AppData\Local\Temp\ccrnUt9g.s 			page 261


 14167 1882 A91F0000 		.4byte	0x1fa9
 14168 1886 9D180000 		.4byte	0x189d
 14169 188a 19       		.uleb128 0x19
 14170 188b 01       		.uleb128 0x1
 14171 188c 50       		.byte	0x50
 14172 188d 02       		.uleb128 0x2
 14173 188e 74       		.byte	0x74
 14174 188f 00       		.sleb128 0
 14175 1890 19       		.uleb128 0x19
 14176 1891 01       		.uleb128 0x1
 14177 1892 51       		.byte	0x51
 14178 1893 02       		.uleb128 0x2
 14179 1894 77       		.byte	0x77
 14180 1895 00       		.sleb128 0
 14181 1896 19       		.uleb128 0x19
 14182 1897 01       		.uleb128 0x1
 14183 1898 52       		.byte	0x52
 14184 1899 02       		.uleb128 0x2
 14185 189a 75       		.byte	0x75
 14186 189b 00       		.sleb128 0
 14187 189c 00       		.byte	0
 14188 189d 18       		.uleb128 0x18
 14189 189e 8C000000 		.4byte	.LVL259
 14190 18a2 9E1F0000 		.4byte	0x1f9e
 14191 18a6 BD180000 		.4byte	0x18bd
 14192 18aa 19       		.uleb128 0x19
 14193 18ab 01       		.uleb128 0x1
 14194 18ac 50       		.byte	0x50
 14195 18ad 02       		.uleb128 0x2
 14196 18ae 75       		.byte	0x75
 14197 18af 00       		.sleb128 0
 14198 18b0 19       		.uleb128 0x19
 14199 18b1 01       		.uleb128 0x1
 14200 18b2 51       		.byte	0x51
 14201 18b3 02       		.uleb128 0x2
 14202 18b4 77       		.byte	0x77
 14203 18b5 00       		.sleb128 0
 14204 18b6 19       		.uleb128 0x19
 14205 18b7 01       		.uleb128 0x1
 14206 18b8 52       		.byte	0x52
 14207 18b9 02       		.uleb128 0x2
 14208 18ba 75       		.byte	0x75
 14209 18bb 00       		.sleb128 0
 14210 18bc 00       		.byte	0
 14211 18bd 18       		.uleb128 0x18
 14212 18be 96000000 		.4byte	.LVL260
 14213 18c2 A91F0000 		.4byte	0x1fa9
 14214 18c6 DD180000 		.4byte	0x18dd
 14215 18ca 19       		.uleb128 0x19
 14216 18cb 01       		.uleb128 0x1
 14217 18cc 50       		.byte	0x50
 14218 18cd 02       		.uleb128 0x2
 14219 18ce 77       		.byte	0x77
 14220 18cf 00       		.sleb128 0
 14221 18d0 19       		.uleb128 0x19
 14222 18d1 01       		.uleb128 0x1
 14223 18d2 51       		.byte	0x51
ARM GAS  C:\Users\NIGHDR~1\AppData\Local\Temp\ccrnUt9g.s 			page 262


 14224 18d3 02       		.uleb128 0x2
 14225 18d4 91       		.byte	0x91
 14226 18d5 40       		.sleb128 -64
 14227 18d6 19       		.uleb128 0x19
 14228 18d7 01       		.uleb128 0x1
 14229 18d8 52       		.byte	0x52
 14230 18d9 02       		.uleb128 0x2
 14231 18da 76       		.byte	0x76
 14232 18db 00       		.sleb128 0
 14233 18dc 00       		.byte	0
 14234 18dd 1A       		.uleb128 0x1a
 14235 18de A0000000 		.4byte	.LVL261
 14236 18e2 9E1F0000 		.4byte	0x1f9e
 14237 18e6 19       		.uleb128 0x19
 14238 18e7 01       		.uleb128 0x1
 14239 18e8 50       		.byte	0x50
 14240 18e9 02       		.uleb128 0x2
 14241 18ea 76       		.byte	0x76
 14242 18eb 00       		.sleb128 0
 14243 18ec 19       		.uleb128 0x19
 14244 18ed 01       		.uleb128 0x1
 14245 18ee 51       		.byte	0x51
 14246 18ef 02       		.uleb128 0x2
 14247 18f0 91       		.byte	0x91
 14248 18f1 40       		.sleb128 -64
 14249 18f2 19       		.uleb128 0x19
 14250 18f3 01       		.uleb128 0x1
 14251 18f4 52       		.byte	0x52
 14252 18f5 02       		.uleb128 0x2
 14253 18f6 76       		.byte	0x76
 14254 18f7 00       		.sleb128 0
 14255 18f8 00       		.byte	0
 14256 18f9 00       		.byte	0
 14257 18fa 1D       		.uleb128 0x1d
 14258 18fb 53030000 		.4byte	.LASF49
 14259 18ff 01       		.byte	0x1
 14260 1900 43       		.byte	0x43
 14261 1901 00000000 		.4byte	.LFB2
 14262 1905 34020000 		.4byte	.LFE2-.LFB2
 14263 1909 01       		.uleb128 0x1
 14264 190a 9C       		.byte	0x9c
 14265 190b D11D0000 		.4byte	0x1dd1
 14266 190f 0D       		.uleb128 0xd
 14267 1910 7200     		.ascii	"r\000"
 14268 1912 01       		.byte	0x1
 14269 1913 43       		.byte	0x43
 14270 1914 710F0000 		.4byte	0xf71
 14271 1918 E3080000 		.4byte	.LLST51
 14272 191c 0D       		.uleb128 0xd
 14273 191d 6100     		.ascii	"a\000"
 14274 191f 01       		.byte	0x1
 14275 1920 43       		.byte	0x43
 14276 1921 37020000 		.4byte	0x237
 14277 1925 0F090000 		.4byte	.LLST52
 14278 1929 0D       		.uleb128 0xd
 14279 192a 4100     		.ascii	"A\000"
 14280 192c 01       		.byte	0x1
ARM GAS  C:\Users\NIGHDR~1\AppData\Local\Temp\ccrnUt9g.s 			page 263


 14281 192d 43       		.byte	0x43
 14282 192e 7D080000 		.4byte	0x87d
 14283 1932 30090000 		.4byte	.LLST53
 14284 1936 0D       		.uleb128 0xd
 14285 1937 6200     		.ascii	"b\000"
 14286 1939 01       		.byte	0x1
 14287 193a 43       		.byte	0x43
 14288 193b 37020000 		.4byte	0x237
 14289 193f 5C090000 		.4byte	.LLST54
 14290 1943 20       		.uleb128 0x20
 14291 1944 70030000 		.4byte	.LASF50
 14292 1948 01       		.byte	0x1
 14293 1949 44       		.byte	0x44
 14294 194a D11D0000 		.4byte	0x1dd1
 14295 194e 03       		.uleb128 0x3
 14296 194f 91       		.byte	0x91
 14297 1950 F07D     		.sleb128 -272
 14298 1952 20       		.uleb128 0x20
 14299 1953 22020000 		.4byte	.LASF51
 14300 1957 01       		.byte	0x1
 14301 1958 45       		.byte	0x45
 14302 1959 D11D0000 		.4byte	0x1dd1
 14303 195d 03       		.uleb128 0x3
 14304 195e 91       		.byte	0x91
 14305 195f F07B     		.sleb128 -528
 14306 1961 1E       		.uleb128 0x1e
 14307 1962 416900   		.ascii	"Ai\000"
 14308 1965 01       		.byte	0x1
 14309 1966 46       		.byte	0x46
 14310 1967 E11D0000 		.4byte	0x1de1
 14311 196b 03       		.uleb128 0x3
 14312 196c 91       		.byte	0x91
 14313 196d F071     		.sleb128 -1808
 14314 196f 1E       		.uleb128 0x1e
 14315 1970 7400     		.ascii	"t\000"
 14316 1972 01       		.byte	0x1
 14317 1973 47       		.byte	0x47
 14318 1974 57010000 		.4byte	0x157
 14319 1978 03       		.uleb128 0x3
 14320 1979 91       		.byte	0x91
 14321 197a D070     		.sleb128 -1968
 14322 197c 1E       		.uleb128 0x1e
 14323 197d 7500     		.ascii	"u\000"
 14324 197f 01       		.byte	0x1
 14325 1980 48       		.byte	0x48
 14326 1981 1B010000 		.4byte	0x11b
 14327 1985 03       		.uleb128 0x3
 14328 1986 91       		.byte	0x91
 14329 1987 B06F     		.sleb128 -2128
 14330 1989 1E       		.uleb128 0x1e
 14331 198a 413200   		.ascii	"A2\000"
 14332 198d 01       		.byte	0x1
 14333 198e 49       		.byte	0x49
 14334 198f 1B010000 		.4byte	0x11b
 14335 1993 03       		.uleb128 0x3
 14336 1994 91       		.byte	0x91
 14337 1995 906E     		.sleb128 -2288
ARM GAS  C:\Users\NIGHDR~1\AppData\Local\Temp\ccrnUt9g.s 			page 264


 14338 1997 0E       		.uleb128 0xe
 14339 1998 6900     		.ascii	"i\000"
 14340 199a 01       		.byte	0x1
 14341 199b 4A       		.byte	0x4a
 14342 199c 73000000 		.4byte	0x73
 14343 19a0 88090000 		.4byte	.LLST55
 14344 19a4 18       		.uleb128 0x18
 14345 19a5 16000000 		.4byte	.LVL265
 14346 19a9 DC010000 		.4byte	0x1dc
 14347 19ad C0190000 		.4byte	0x19c0
 14348 19b1 19       		.uleb128 0x19
 14349 19b2 01       		.uleb128 0x1
 14350 19b3 50       		.byte	0x50
 14351 19b4 03       		.uleb128 0x3
 14352 19b5 91       		.byte	0x91
 14353 19b6 F07D     		.sleb128 -272
 14354 19b8 19       		.uleb128 0x19
 14355 19b9 01       		.uleb128 0x1
 14356 19ba 51       		.byte	0x51
 14357 19bb 03       		.uleb128 0x3
 14358 19bc F3       		.byte	0xf3
 14359 19bd 01       		.uleb128 0x1
 14360 19be 51       		.byte	0x51
 14361 19bf 00       		.byte	0
 14362 19c0 18       		.uleb128 0x18
 14363 19c1 22000000 		.4byte	.LVL266
 14364 19c5 DC010000 		.4byte	0x1dc
 14365 19c9 DB190000 		.4byte	0x19db
 14366 19cd 19       		.uleb128 0x19
 14367 19ce 01       		.uleb128 0x1
 14368 19cf 50       		.byte	0x50
 14369 19d0 03       		.uleb128 0x3
 14370 19d1 91       		.byte	0x91
 14371 19d2 F07B     		.sleb128 -528
 14372 19d4 19       		.uleb128 0x19
 14373 19d5 01       		.uleb128 0x1
 14374 19d6 51       		.byte	0x51
 14375 19d7 02       		.uleb128 0x2
 14376 19d8 76       		.byte	0x76
 14377 19d9 00       		.sleb128 0
 14378 19da 00       		.byte	0
 14379 19db 18       		.uleb128 0x18
 14380 19dc 2A000000 		.4byte	.LVL267
 14381 19e0 5A120000 		.4byte	0x125a
 14382 19e4 F6190000 		.4byte	0x19f6
 14383 19e8 19       		.uleb128 0x19
 14384 19e9 01       		.uleb128 0x1
 14385 19ea 50       		.byte	0x50
 14386 19eb 03       		.uleb128 0x3
 14387 19ec 91       		.byte	0x91
 14388 19ed F071     		.sleb128 -1808
 14389 19ef 19       		.uleb128 0x19
 14390 19f0 01       		.uleb128 0x1
 14391 19f1 51       		.byte	0x51
 14392 19f2 02       		.uleb128 0x2
 14393 19f3 74       		.byte	0x74
 14394 19f4 00       		.sleb128 0
ARM GAS  C:\Users\NIGHDR~1\AppData\Local\Temp\ccrnUt9g.s 			page 265


 14395 19f5 00       		.byte	0
 14396 19f6 18       		.uleb128 0x18
 14397 19f7 32000000 		.4byte	.LVL268
 14398 19fb 8F130000 		.4byte	0x138f
 14399 19ff 111A0000 		.4byte	0x1a11
 14400 1a03 19       		.uleb128 0x19
 14401 1a04 01       		.uleb128 0x1
 14402 1a05 50       		.byte	0x50
 14403 1a06 03       		.uleb128 0x3
 14404 1a07 91       		.byte	0x91
 14405 1a08 D070     		.sleb128 -1968
 14406 1a0a 19       		.uleb128 0x19
 14407 1a0b 01       		.uleb128 0x1
 14408 1a0c 51       		.byte	0x51
 14409 1a0d 02       		.uleb128 0x2
 14410 1a0e 74       		.byte	0x74
 14411 1a0f 00       		.sleb128 0
 14412 1a10 00       		.byte	0
 14413 1a11 18       		.uleb128 0x18
 14414 1a12 3A000000 		.4byte	.LVL269
 14415 1a16 820F0000 		.4byte	0xf82
 14416 1a1a 2D1A0000 		.4byte	0x1a2d
 14417 1a1e 19       		.uleb128 0x19
 14418 1a1f 01       		.uleb128 0x1
 14419 1a20 50       		.byte	0x50
 14420 1a21 03       		.uleb128 0x3
 14421 1a22 91       		.byte	0x91
 14422 1a23 906E     		.sleb128 -2288
 14423 1a25 19       		.uleb128 0x19
 14424 1a26 01       		.uleb128 0x1
 14425 1a27 51       		.byte	0x51
 14426 1a28 03       		.uleb128 0x3
 14427 1a29 91       		.byte	0x91
 14428 1a2a D070     		.sleb128 -1968
 14429 1a2c 00       		.byte	0
 14430 1a2d 18       		.uleb128 0x18
 14431 1a2e 44000000 		.4byte	.LVL270
 14432 1a32 CB060000 		.4byte	0x6cb
 14433 1a36 501A0000 		.4byte	0x1a50
 14434 1a3a 19       		.uleb128 0x19
 14435 1a3b 01       		.uleb128 0x1
 14436 1a3c 50       		.byte	0x50
 14437 1a3d 03       		.uleb128 0x3
 14438 1a3e 91       		.byte	0x91
 14439 1a3f D070     		.sleb128 -1968
 14440 1a41 19       		.uleb128 0x19
 14441 1a42 01       		.uleb128 0x1
 14442 1a43 51       		.byte	0x51
 14443 1a44 03       		.uleb128 0x3
 14444 1a45 91       		.byte	0x91
 14445 1a46 906E     		.sleb128 -2288
 14446 1a48 19       		.uleb128 0x19
 14447 1a49 01       		.uleb128 0x1
 14448 1a4a 52       		.byte	0x52
 14449 1a4b 03       		.uleb128 0x3
 14450 1a4c 91       		.byte	0x91
 14451 1a4d F071     		.sleb128 -1808
ARM GAS  C:\Users\NIGHDR~1\AppData\Local\Temp\ccrnUt9g.s 			page 266


 14452 1a4f 00       		.byte	0
 14453 1a50 18       		.uleb128 0x18
 14454 1a51 4C000000 		.4byte	.LVL271
 14455 1a55 820F0000 		.4byte	0xf82
 14456 1a59 6C1A0000 		.4byte	0x1a6c
 14457 1a5d 19       		.uleb128 0x19
 14458 1a5e 01       		.uleb128 0x1
 14459 1a5f 50       		.byte	0x50
 14460 1a60 03       		.uleb128 0x3
 14461 1a61 91       		.byte	0x91
 14462 1a62 B06F     		.sleb128 -2128
 14463 1a64 19       		.uleb128 0x19
 14464 1a65 01       		.uleb128 0x1
 14465 1a66 51       		.byte	0x51
 14466 1a67 03       		.uleb128 0x3
 14467 1a68 91       		.byte	0x91
 14468 1a69 D070     		.sleb128 -1968
 14469 1a6b 00       		.byte	0
 14470 1a6c 18       		.uleb128 0x18
 14471 1a6d 54000000 		.4byte	.LVL272
 14472 1a71 5A120000 		.4byte	0x125a
 14473 1a75 881A0000 		.4byte	0x1a88
 14474 1a79 19       		.uleb128 0x19
 14475 1a7a 01       		.uleb128 0x1
 14476 1a7b 50       		.byte	0x50
 14477 1a7c 03       		.uleb128 0x3
 14478 1a7d 91       		.byte	0x91
 14479 1a7e 9073     		.sleb128 -1648
 14480 1a80 19       		.uleb128 0x19
 14481 1a81 01       		.uleb128 0x1
 14482 1a82 51       		.byte	0x51
 14483 1a83 03       		.uleb128 0x3
 14484 1a84 91       		.byte	0x91
 14485 1a85 B06F     		.sleb128 -2128
 14486 1a87 00       		.byte	0
 14487 1a88 18       		.uleb128 0x18
 14488 1a89 5E000000 		.4byte	.LVL273
 14489 1a8d CB060000 		.4byte	0x6cb
 14490 1a91 AB1A0000 		.4byte	0x1aab
 14491 1a95 19       		.uleb128 0x19
 14492 1a96 01       		.uleb128 0x1
 14493 1a97 50       		.byte	0x50
 14494 1a98 03       		.uleb128 0x3
 14495 1a99 91       		.byte	0x91
 14496 1a9a D070     		.sleb128 -1968
 14497 1a9c 19       		.uleb128 0x19
 14498 1a9d 01       		.uleb128 0x1
 14499 1a9e 51       		.byte	0x51
 14500 1a9f 03       		.uleb128 0x3
 14501 1aa0 91       		.byte	0x91
 14502 1aa1 906E     		.sleb128 -2288
 14503 1aa3 19       		.uleb128 0x19
 14504 1aa4 01       		.uleb128 0x1
 14505 1aa5 52       		.byte	0x52
 14506 1aa6 03       		.uleb128 0x3
 14507 1aa7 91       		.byte	0x91
 14508 1aa8 9073     		.sleb128 -1648
ARM GAS  C:\Users\NIGHDR~1\AppData\Local\Temp\ccrnUt9g.s 			page 267


 14509 1aaa 00       		.byte	0
 14510 1aab 18       		.uleb128 0x18
 14511 1aac 66000000 		.4byte	.LVL274
 14512 1ab0 820F0000 		.4byte	0xf82
 14513 1ab4 C71A0000 		.4byte	0x1ac7
 14514 1ab8 19       		.uleb128 0x19
 14515 1ab9 01       		.uleb128 0x1
 14516 1aba 50       		.byte	0x50
 14517 1abb 03       		.uleb128 0x3
 14518 1abc 91       		.byte	0x91
 14519 1abd B06F     		.sleb128 -2128
 14520 1abf 19       		.uleb128 0x19
 14521 1ac0 01       		.uleb128 0x1
 14522 1ac1 51       		.byte	0x51
 14523 1ac2 03       		.uleb128 0x3
 14524 1ac3 91       		.byte	0x91
 14525 1ac4 D070     		.sleb128 -1968
 14526 1ac6 00       		.byte	0
 14527 1ac7 18       		.uleb128 0x18
 14528 1ac8 6E000000 		.4byte	.LVL275
 14529 1acc 5A120000 		.4byte	0x125a
 14530 1ad0 E31A0000 		.4byte	0x1ae3
 14531 1ad4 19       		.uleb128 0x19
 14532 1ad5 01       		.uleb128 0x1
 14533 1ad6 50       		.byte	0x50
 14534 1ad7 03       		.uleb128 0x3
 14535 1ad8 91       		.byte	0x91
 14536 1ad9 B074     		.sleb128 -1488
 14537 1adb 19       		.uleb128 0x19
 14538 1adc 01       		.uleb128 0x1
 14539 1add 51       		.byte	0x51
 14540 1ade 03       		.uleb128 0x3
 14541 1adf 91       		.byte	0x91
 14542 1ae0 B06F     		.sleb128 -2128
 14543 1ae2 00       		.byte	0
 14544 1ae3 18       		.uleb128 0x18
 14545 1ae4 78000000 		.4byte	.LVL276
 14546 1ae8 CB060000 		.4byte	0x6cb
 14547 1aec 061B0000 		.4byte	0x1b06
 14548 1af0 19       		.uleb128 0x19
 14549 1af1 01       		.uleb128 0x1
 14550 1af2 50       		.byte	0x50
 14551 1af3 03       		.uleb128 0x3
 14552 1af4 91       		.byte	0x91
 14553 1af5 D070     		.sleb128 -1968
 14554 1af7 19       		.uleb128 0x19
 14555 1af8 01       		.uleb128 0x1
 14556 1af9 51       		.byte	0x51
 14557 1afa 03       		.uleb128 0x3
 14558 1afb 91       		.byte	0x91
 14559 1afc 906E     		.sleb128 -2288
 14560 1afe 19       		.uleb128 0x19
 14561 1aff 01       		.uleb128 0x1
 14562 1b00 52       		.byte	0x52
 14563 1b01 03       		.uleb128 0x3
 14564 1b02 91       		.byte	0x91
 14565 1b03 B074     		.sleb128 -1488
ARM GAS  C:\Users\NIGHDR~1\AppData\Local\Temp\ccrnUt9g.s 			page 268


 14566 1b05 00       		.byte	0
 14567 1b06 18       		.uleb128 0x18
 14568 1b07 80000000 		.4byte	.LVL277
 14569 1b0b 820F0000 		.4byte	0xf82
 14570 1b0f 221B0000 		.4byte	0x1b22
 14571 1b13 19       		.uleb128 0x19
 14572 1b14 01       		.uleb128 0x1
 14573 1b15 50       		.byte	0x50
 14574 1b16 03       		.uleb128 0x3
 14575 1b17 91       		.byte	0x91
 14576 1b18 B06F     		.sleb128 -2128
 14577 1b1a 19       		.uleb128 0x19
 14578 1b1b 01       		.uleb128 0x1
 14579 1b1c 51       		.byte	0x51
 14580 1b1d 03       		.uleb128 0x3
 14581 1b1e 91       		.byte	0x91
 14582 1b1f D070     		.sleb128 -1968
 14583 1b21 00       		.byte	0
 14584 1b22 18       		.uleb128 0x18
 14585 1b23 88000000 		.4byte	.LVL278
 14586 1b27 5A120000 		.4byte	0x125a
 14587 1b2b 3E1B0000 		.4byte	0x1b3e
 14588 1b2f 19       		.uleb128 0x19
 14589 1b30 01       		.uleb128 0x1
 14590 1b31 50       		.byte	0x50
 14591 1b32 03       		.uleb128 0x3
 14592 1b33 91       		.byte	0x91
 14593 1b34 D075     		.sleb128 -1328
 14594 1b36 19       		.uleb128 0x19
 14595 1b37 01       		.uleb128 0x1
 14596 1b38 51       		.byte	0x51
 14597 1b39 03       		.uleb128 0x3
 14598 1b3a 91       		.byte	0x91
 14599 1b3b B06F     		.sleb128 -2128
 14600 1b3d 00       		.byte	0
 14601 1b3e 18       		.uleb128 0x18
 14602 1b3f 92000000 		.4byte	.LVL279
 14603 1b43 CB060000 		.4byte	0x6cb
 14604 1b47 611B0000 		.4byte	0x1b61
 14605 1b4b 19       		.uleb128 0x19
 14606 1b4c 01       		.uleb128 0x1
 14607 1b4d 50       		.byte	0x50
 14608 1b4e 03       		.uleb128 0x3
 14609 1b4f 91       		.byte	0x91
 14610 1b50 D070     		.sleb128 -1968
 14611 1b52 19       		.uleb128 0x19
 14612 1b53 01       		.uleb128 0x1
 14613 1b54 51       		.byte	0x51
 14614 1b55 03       		.uleb128 0x3
 14615 1b56 91       		.byte	0x91
 14616 1b57 906E     		.sleb128 -2288
 14617 1b59 19       		.uleb128 0x19
 14618 1b5a 01       		.uleb128 0x1
 14619 1b5b 52       		.byte	0x52
 14620 1b5c 03       		.uleb128 0x3
 14621 1b5d 91       		.byte	0x91
 14622 1b5e D075     		.sleb128 -1328
ARM GAS  C:\Users\NIGHDR~1\AppData\Local\Temp\ccrnUt9g.s 			page 269


 14623 1b60 00       		.byte	0
 14624 1b61 18       		.uleb128 0x18
 14625 1b62 9A000000 		.4byte	.LVL280
 14626 1b66 820F0000 		.4byte	0xf82
 14627 1b6a 7D1B0000 		.4byte	0x1b7d
 14628 1b6e 19       		.uleb128 0x19
 14629 1b6f 01       		.uleb128 0x1
 14630 1b70 50       		.byte	0x50
 14631 1b71 03       		.uleb128 0x3
 14632 1b72 91       		.byte	0x91
 14633 1b73 B06F     		.sleb128 -2128
 14634 1b75 19       		.uleb128 0x19
 14635 1b76 01       		.uleb128 0x1
 14636 1b77 51       		.byte	0x51
 14637 1b78 03       		.uleb128 0x3
 14638 1b79 91       		.byte	0x91
 14639 1b7a D070     		.sleb128 -1968
 14640 1b7c 00       		.byte	0
 14641 1b7d 18       		.uleb128 0x18
 14642 1b7e A4000000 		.4byte	.LVL281
 14643 1b82 5A120000 		.4byte	0x125a
 14644 1b86 991B0000 		.4byte	0x1b99
 14645 1b8a 19       		.uleb128 0x19
 14646 1b8b 01       		.uleb128 0x1
 14647 1b8c 50       		.byte	0x50
 14648 1b8d 03       		.uleb128 0x3
 14649 1b8e 91       		.byte	0x91
 14650 1b8f F076     		.sleb128 -1168
 14651 1b91 19       		.uleb128 0x19
 14652 1b92 01       		.uleb128 0x1
 14653 1b93 51       		.byte	0x51
 14654 1b94 03       		.uleb128 0x3
 14655 1b95 91       		.byte	0x91
 14656 1b96 B06F     		.sleb128 -2128
 14657 1b98 00       		.byte	0
 14658 1b99 18       		.uleb128 0x18
 14659 1b9a B0000000 		.4byte	.LVL282
 14660 1b9e CB060000 		.4byte	0x6cb
 14661 1ba2 BC1B0000 		.4byte	0x1bbc
 14662 1ba6 19       		.uleb128 0x19
 14663 1ba7 01       		.uleb128 0x1
 14664 1ba8 50       		.byte	0x50
 14665 1ba9 03       		.uleb128 0x3
 14666 1baa 91       		.byte	0x91
 14667 1bab D070     		.sleb128 -1968
 14668 1bad 19       		.uleb128 0x19
 14669 1bae 01       		.uleb128 0x1
 14670 1baf 51       		.byte	0x51
 14671 1bb0 03       		.uleb128 0x3
 14672 1bb1 91       		.byte	0x91
 14673 1bb2 906E     		.sleb128 -2288
 14674 1bb4 19       		.uleb128 0x19
 14675 1bb5 01       		.uleb128 0x1
 14676 1bb6 52       		.byte	0x52
 14677 1bb7 03       		.uleb128 0x3
 14678 1bb8 91       		.byte	0x91
 14679 1bb9 F076     		.sleb128 -1168
ARM GAS  C:\Users\NIGHDR~1\AppData\Local\Temp\ccrnUt9g.s 			page 270


 14680 1bbb 00       		.byte	0
 14681 1bbc 18       		.uleb128 0x18
 14682 1bbd B8000000 		.4byte	.LVL283
 14683 1bc1 820F0000 		.4byte	0xf82
 14684 1bc5 D81B0000 		.4byte	0x1bd8
 14685 1bc9 19       		.uleb128 0x19
 14686 1bca 01       		.uleb128 0x1
 14687 1bcb 50       		.byte	0x50
 14688 1bcc 03       		.uleb128 0x3
 14689 1bcd 91       		.byte	0x91
 14690 1bce B06F     		.sleb128 -2128
 14691 1bd0 19       		.uleb128 0x19
 14692 1bd1 01       		.uleb128 0x1
 14693 1bd2 51       		.byte	0x51
 14694 1bd3 03       		.uleb128 0x3
 14695 1bd4 91       		.byte	0x91
 14696 1bd5 D070     		.sleb128 -1968
 14697 1bd7 00       		.byte	0
 14698 1bd8 18       		.uleb128 0x18
 14699 1bd9 C6000000 		.4byte	.LVL284
 14700 1bdd 5A120000 		.4byte	0x125a
 14701 1be1 F41B0000 		.4byte	0x1bf4
 14702 1be5 19       		.uleb128 0x19
 14703 1be6 01       		.uleb128 0x1
 14704 1be7 50       		.byte	0x50
 14705 1be8 03       		.uleb128 0x3
 14706 1be9 91       		.byte	0x91
 14707 1bea 9078     		.sleb128 -1008
 14708 1bec 19       		.uleb128 0x19
 14709 1bed 01       		.uleb128 0x1
 14710 1bee 51       		.byte	0x51
 14711 1bef 03       		.uleb128 0x3
 14712 1bf0 91       		.byte	0x91
 14713 1bf1 B06F     		.sleb128 -2128
 14714 1bf3 00       		.byte	0
 14715 1bf4 18       		.uleb128 0x18
 14716 1bf5 D6000000 		.4byte	.LVL285
 14717 1bf9 CB060000 		.4byte	0x6cb
 14718 1bfd 171C0000 		.4byte	0x1c17
 14719 1c01 19       		.uleb128 0x19
 14720 1c02 01       		.uleb128 0x1
 14721 1c03 50       		.byte	0x50
 14722 1c04 03       		.uleb128 0x3
 14723 1c05 91       		.byte	0x91
 14724 1c06 D070     		.sleb128 -1968
 14725 1c08 19       		.uleb128 0x19
 14726 1c09 01       		.uleb128 0x1
 14727 1c0a 51       		.byte	0x51
 14728 1c0b 03       		.uleb128 0x3
 14729 1c0c 91       		.byte	0x91
 14730 1c0d 906E     		.sleb128 -2288
 14731 1c0f 19       		.uleb128 0x19
 14732 1c10 01       		.uleb128 0x1
 14733 1c11 52       		.byte	0x52
 14734 1c12 03       		.uleb128 0x3
 14735 1c13 91       		.byte	0x91
 14736 1c14 9078     		.sleb128 -1008
ARM GAS  C:\Users\NIGHDR~1\AppData\Local\Temp\ccrnUt9g.s 			page 271


 14737 1c16 00       		.byte	0
 14738 1c17 18       		.uleb128 0x18
 14739 1c18 DE000000 		.4byte	.LVL286
 14740 1c1c 820F0000 		.4byte	0xf82
 14741 1c20 331C0000 		.4byte	0x1c33
 14742 1c24 19       		.uleb128 0x19
 14743 1c25 01       		.uleb128 0x1
 14744 1c26 50       		.byte	0x50
 14745 1c27 03       		.uleb128 0x3
 14746 1c28 91       		.byte	0x91
 14747 1c29 B06F     		.sleb128 -2128
 14748 1c2b 19       		.uleb128 0x19
 14749 1c2c 01       		.uleb128 0x1
 14750 1c2d 51       		.byte	0x51
 14751 1c2e 03       		.uleb128 0x3
 14752 1c2f 91       		.byte	0x91
 14753 1c30 D070     		.sleb128 -1968
 14754 1c32 00       		.byte	0
 14755 1c33 18       		.uleb128 0x18
 14756 1c34 EC000000 		.4byte	.LVL287
 14757 1c38 5A120000 		.4byte	0x125a
 14758 1c3c 4F1C0000 		.4byte	0x1c4f
 14759 1c40 19       		.uleb128 0x19
 14760 1c41 01       		.uleb128 0x1
 14761 1c42 50       		.byte	0x50
 14762 1c43 03       		.uleb128 0x3
 14763 1c44 91       		.byte	0x91
 14764 1c45 B079     		.sleb128 -848
 14765 1c47 19       		.uleb128 0x19
 14766 1c48 01       		.uleb128 0x1
 14767 1c49 51       		.byte	0x51
 14768 1c4a 03       		.uleb128 0x3
 14769 1c4b 91       		.byte	0x91
 14770 1c4c B06F     		.sleb128 -2128
 14771 1c4e 00       		.byte	0
 14772 1c4f 18       		.uleb128 0x18
 14773 1c50 FC000000 		.4byte	.LVL288
 14774 1c54 CB060000 		.4byte	0x6cb
 14775 1c58 721C0000 		.4byte	0x1c72
 14776 1c5c 19       		.uleb128 0x19
 14777 1c5d 01       		.uleb128 0x1
 14778 1c5e 50       		.byte	0x50
 14779 1c5f 03       		.uleb128 0x3
 14780 1c60 91       		.byte	0x91
 14781 1c61 D070     		.sleb128 -1968
 14782 1c63 19       		.uleb128 0x19
 14783 1c64 01       		.uleb128 0x1
 14784 1c65 51       		.byte	0x51
 14785 1c66 03       		.uleb128 0x3
 14786 1c67 91       		.byte	0x91
 14787 1c68 906E     		.sleb128 -2288
 14788 1c6a 19       		.uleb128 0x19
 14789 1c6b 01       		.uleb128 0x1
 14790 1c6c 52       		.byte	0x52
 14791 1c6d 03       		.uleb128 0x3
 14792 1c6e 91       		.byte	0x91
 14793 1c6f B079     		.sleb128 -848
ARM GAS  C:\Users\NIGHDR~1\AppData\Local\Temp\ccrnUt9g.s 			page 272


 14794 1c71 00       		.byte	0
 14795 1c72 18       		.uleb128 0x18
 14796 1c73 04010000 		.4byte	.LVL289
 14797 1c77 820F0000 		.4byte	0xf82
 14798 1c7b 8E1C0000 		.4byte	0x1c8e
 14799 1c7f 19       		.uleb128 0x19
 14800 1c80 01       		.uleb128 0x1
 14801 1c81 50       		.byte	0x50
 14802 1c82 03       		.uleb128 0x3
 14803 1c83 91       		.byte	0x91
 14804 1c84 B06F     		.sleb128 -2128
 14805 1c86 19       		.uleb128 0x19
 14806 1c87 01       		.uleb128 0x1
 14807 1c88 51       		.byte	0x51
 14808 1c89 03       		.uleb128 0x3
 14809 1c8a 91       		.byte	0x91
 14810 1c8b D070     		.sleb128 -1968
 14811 1c8d 00       		.byte	0
 14812 1c8e 18       		.uleb128 0x18
 14813 1c8f 10010000 		.4byte	.LVL290
 14814 1c93 5A120000 		.4byte	0x125a
 14815 1c97 AA1C0000 		.4byte	0x1caa
 14816 1c9b 19       		.uleb128 0x19
 14817 1c9c 01       		.uleb128 0x1
 14818 1c9d 50       		.byte	0x50
 14819 1c9e 03       		.uleb128 0x3
 14820 1c9f 91       		.byte	0x91
 14821 1ca0 D07A     		.sleb128 -688
 14822 1ca2 19       		.uleb128 0x19
 14823 1ca3 01       		.uleb128 0x1
 14824 1ca4 51       		.byte	0x51
 14825 1ca5 03       		.uleb128 0x3
 14826 1ca6 91       		.byte	0x91
 14827 1ca7 B06F     		.sleb128 -2128
 14828 1ca9 00       		.byte	0
 14829 1caa 18       		.uleb128 0x18
 14830 1cab 16010000 		.4byte	.LVL291
 14831 1caf 32100000 		.4byte	0x1032
 14832 1cb3 BE1C0000 		.4byte	0x1cbe
 14833 1cb7 19       		.uleb128 0x19
 14834 1cb8 01       		.uleb128 0x1
 14835 1cb9 50       		.byte	0x50
 14836 1cba 02       		.uleb128 0x2
 14837 1cbb 75       		.byte	0x75
 14838 1cbc 00       		.sleb128 0
 14839 1cbd 00       		.byte	0
 14840 1cbe 18       		.uleb128 0x18
 14841 1cbf 44010000 		.4byte	.LVL295
 14842 1cc3 8E100000 		.4byte	0x108e
 14843 1cc7 D91C0000 		.4byte	0x1cd9
 14844 1ccb 19       		.uleb128 0x19
 14845 1ccc 01       		.uleb128 0x1
 14846 1ccd 50       		.byte	0x50
 14847 1cce 03       		.uleb128 0x3
 14848 1ccf 91       		.byte	0x91
 14849 1cd0 D070     		.sleb128 -1968
 14850 1cd2 19       		.uleb128 0x19
ARM GAS  C:\Users\NIGHDR~1\AppData\Local\Temp\ccrnUt9g.s 			page 273


 14851 1cd3 01       		.uleb128 0x1
 14852 1cd4 51       		.byte	0x51
 14853 1cd5 02       		.uleb128 0x2
 14854 1cd6 75       		.byte	0x75
 14855 1cd7 00       		.sleb128 0
 14856 1cd8 00       		.byte	0
 14857 1cd9 18       		.uleb128 0x18
 14858 1cda 58010000 		.4byte	.LVL296
 14859 1cde 820F0000 		.4byte	0xf82
 14860 1ce2 F51C0000 		.4byte	0x1cf5
 14861 1ce6 19       		.uleb128 0x19
 14862 1ce7 01       		.uleb128 0x1
 14863 1ce8 50       		.byte	0x50
 14864 1ce9 03       		.uleb128 0x3
 14865 1cea 91       		.byte	0x91
 14866 1ceb B06F     		.sleb128 -2128
 14867 1ced 19       		.uleb128 0x19
 14868 1cee 01       		.uleb128 0x1
 14869 1cef 51       		.byte	0x51
 14870 1cf0 03       		.uleb128 0x3
 14871 1cf1 91       		.byte	0x91
 14872 1cf2 D070     		.sleb128 -1968
 14873 1cf4 00       		.byte	0
 14874 1cf5 18       		.uleb128 0x18
 14875 1cf6 7A010000 		.4byte	.LVL297
 14876 1cfa CB060000 		.4byte	0x6cb
 14877 1cfe 111D0000 		.4byte	0x1d11
 14878 1d02 19       		.uleb128 0x19
 14879 1d03 01       		.uleb128 0x1
 14880 1d04 50       		.byte	0x50
 14881 1d05 03       		.uleb128 0x3
 14882 1d06 91       		.byte	0x91
 14883 1d07 D070     		.sleb128 -1968
 14884 1d09 19       		.uleb128 0x19
 14885 1d0a 01       		.uleb128 0x1
 14886 1d0b 51       		.byte	0x51
 14887 1d0c 03       		.uleb128 0x3
 14888 1d0d 91       		.byte	0x91
 14889 1d0e B06F     		.sleb128 -2128
 14890 1d10 00       		.byte	0
 14891 1d11 18       		.uleb128 0x18
 14892 1d12 88010000 		.4byte	.LVL298
 14893 1d16 820F0000 		.4byte	0xf82
 14894 1d1a 2D1D0000 		.4byte	0x1d2d
 14895 1d1e 19       		.uleb128 0x19
 14896 1d1f 01       		.uleb128 0x1
 14897 1d20 50       		.byte	0x50
 14898 1d21 03       		.uleb128 0x3
 14899 1d22 91       		.byte	0x91
 14900 1d23 B06F     		.sleb128 -2128
 14901 1d25 19       		.uleb128 0x19
 14902 1d26 01       		.uleb128 0x1
 14903 1d27 51       		.byte	0x51
 14904 1d28 03       		.uleb128 0x3
 14905 1d29 91       		.byte	0x91
 14906 1d2a D070     		.sleb128 -1968
 14907 1d2c 00       		.byte	0
ARM GAS  C:\Users\NIGHDR~1\AppData\Local\Temp\ccrnUt9g.s 			page 274


 14908 1d2d 18       		.uleb128 0x18
 14909 1d2e AC010000 		.4byte	.LVL299
 14910 1d32 49170000 		.4byte	0x1749
 14911 1d36 491D0000 		.4byte	0x1d49
 14912 1d3a 19       		.uleb128 0x19
 14913 1d3b 01       		.uleb128 0x1
 14914 1d3c 50       		.byte	0x50
 14915 1d3d 03       		.uleb128 0x3
 14916 1d3e 91       		.byte	0x91
 14917 1d3f D070     		.sleb128 -1968
 14918 1d41 19       		.uleb128 0x19
 14919 1d42 01       		.uleb128 0x1
 14920 1d43 51       		.byte	0x51
 14921 1d44 03       		.uleb128 0x3
 14922 1d45 91       		.byte	0x91
 14923 1d46 B06F     		.sleb128 -2128
 14924 1d48 00       		.byte	0
 14925 1d49 18       		.uleb128 0x18
 14926 1d4a C0010000 		.4byte	.LVL300
 14927 1d4e 820F0000 		.4byte	0xf82
 14928 1d52 651D0000 		.4byte	0x1d65
 14929 1d56 19       		.uleb128 0x19
 14930 1d57 01       		.uleb128 0x1
 14931 1d58 50       		.byte	0x50
 14932 1d59 03       		.uleb128 0x3
 14933 1d5a 91       		.byte	0x91
 14934 1d5b B06F     		.sleb128 -2128
 14935 1d5d 19       		.uleb128 0x19
 14936 1d5e 01       		.uleb128 0x1
 14937 1d5f 51       		.byte	0x51
 14938 1d60 03       		.uleb128 0x3
 14939 1d61 91       		.byte	0x91
 14940 1d62 D070     		.sleb128 -1968
 14941 1d64 00       		.byte	0
 14942 1d65 18       		.uleb128 0x18
 14943 1d66 E2010000 		.4byte	.LVL301
 14944 1d6a CC0B0000 		.4byte	0xbcc
 14945 1d6e 811D0000 		.4byte	0x1d81
 14946 1d72 19       		.uleb128 0x19
 14947 1d73 01       		.uleb128 0x1
 14948 1d74 50       		.byte	0x50
 14949 1d75 03       		.uleb128 0x3
 14950 1d76 91       		.byte	0x91
 14951 1d77 D070     		.sleb128 -1968
 14952 1d79 19       		.uleb128 0x19
 14953 1d7a 01       		.uleb128 0x1
 14954 1d7b 51       		.byte	0x51
 14955 1d7c 03       		.uleb128 0x3
 14956 1d7d 91       		.byte	0x91
 14957 1d7e B06F     		.sleb128 -2128
 14958 1d80 00       		.byte	0
 14959 1d81 18       		.uleb128 0x18
 14960 1d82 F0010000 		.4byte	.LVL302
 14961 1d86 820F0000 		.4byte	0xf82
 14962 1d8a 9D1D0000 		.4byte	0x1d9d
 14963 1d8e 19       		.uleb128 0x19
 14964 1d8f 01       		.uleb128 0x1
ARM GAS  C:\Users\NIGHDR~1\AppData\Local\Temp\ccrnUt9g.s 			page 275


 14965 1d90 50       		.byte	0x50
 14966 1d91 03       		.uleb128 0x3
 14967 1d92 91       		.byte	0x91
 14968 1d93 B06F     		.sleb128 -2128
 14969 1d95 19       		.uleb128 0x19
 14970 1d96 01       		.uleb128 0x1
 14971 1d97 51       		.byte	0x51
 14972 1d98 03       		.uleb128 0x3
 14973 1d99 91       		.byte	0x91
 14974 1d9a D070     		.sleb128 -1968
 14975 1d9c 00       		.byte	0
 14976 1d9d 18       		.uleb128 0x18
 14977 1d9e 14020000 		.4byte	.LVL303
 14978 1da2 580D0000 		.4byte	0xd58
 14979 1da6 B91D0000 		.4byte	0x1db9
 14980 1daa 19       		.uleb128 0x19
 14981 1dab 01       		.uleb128 0x1
 14982 1dac 50       		.byte	0x50
 14983 1dad 03       		.uleb128 0x3
 14984 1dae 91       		.byte	0x91
 14985 1daf D070     		.sleb128 -1968
 14986 1db1 19       		.uleb128 0x19
 14987 1db2 01       		.uleb128 0x1
 14988 1db3 51       		.byte	0x51
 14989 1db4 03       		.uleb128 0x3
 14990 1db5 91       		.byte	0x91
 14991 1db6 B06F     		.sleb128 -2128
 14992 1db8 00       		.byte	0
 14993 1db9 1A       		.uleb128 0x1a
 14994 1dba 1C020000 		.4byte	.LVL304
 14995 1dbe E40E0000 		.4byte	0xee4
 14996 1dc2 19       		.uleb128 0x19
 14997 1dc3 01       		.uleb128 0x1
 14998 1dc4 50       		.byte	0x50
 14999 1dc5 02       		.uleb128 0x2
 15000 1dc6 75       		.byte	0x75
 15001 1dc7 00       		.sleb128 0
 15002 1dc8 19       		.uleb128 0x19
 15003 1dc9 01       		.uleb128 0x1
 15004 1dca 51       		.byte	0x51
 15005 1dcb 03       		.uleb128 0x3
 15006 1dcc 91       		.byte	0x91
 15007 1dcd D070     		.sleb128 -1968
 15008 1dcf 00       		.byte	0
 15009 1dd0 00       		.byte	0
 15010 1dd1 06       		.uleb128 0x6
 15011 1dd2 25000000 		.4byte	0x25
 15012 1dd6 E11D0000 		.4byte	0x1de1
 15013 1dda 07       		.uleb128 0x7
 15014 1ddb B1000000 		.4byte	0xb1
 15015 1ddf FF       		.byte	0xff
 15016 1de0 00       		.byte	0
 15017 1de1 06       		.uleb128 0x6
 15018 1de2 D1010000 		.4byte	0x1d1
 15019 1de6 F11D0000 		.4byte	0x1df1
 15020 1dea 07       		.uleb128 0x7
 15021 1deb B1000000 		.4byte	0xb1
ARM GAS  C:\Users\NIGHDR~1\AppData\Local\Temp\ccrnUt9g.s 			page 276


 15022 1def 07       		.byte	0x7
 15023 1df0 00       		.byte	0
 15024 1df1 21       		.uleb128 0x21
 15025 1df2 22030000 		.4byte	.LASF52
 15026 1df6 01       		.byte	0x1
 15027 1df7 CA01     		.2byte	0x1ca
 15028 1df9 00000000 		.4byte	.LFB21
 15029 1dfd 40000000 		.4byte	.LFE21-.LFB21
 15030 1e01 01       		.uleb128 0x1
 15031 1e02 9C       		.byte	0x9c
 15032 1e03 D61E0000 		.4byte	0x1ed6
 15033 1e07 12       		.uleb128 0x12
 15034 1e08 7300     		.ascii	"s\000"
 15035 1e0a 01       		.byte	0x1
 15036 1e0b CA01     		.2byte	0x1ca
 15037 1e0d E6140000 		.4byte	0x14e6
 15038 1e11 A8090000 		.4byte	.LLST56
 15039 1e15 12       		.uleb128 0x12
 15040 1e16 6800     		.ascii	"h\000"
 15041 1e18 01       		.byte	0x1
 15042 1e19 CA01     		.2byte	0x1ca
 15043 1e1b DC110000 		.4byte	0x11dc
 15044 1e1f D4090000 		.4byte	.LLST57
 15045 1e23 1B       		.uleb128 0x1b
 15046 1e24 AF020000 		.4byte	.LASF45
 15047 1e28 01       		.byte	0x1
 15048 1e29 CB01     		.2byte	0x1cb
 15049 1e2b 97000000 		.4byte	0x97
 15050 1e2f 02       		.uleb128 0x2
 15051 1e30 91       		.byte	0x91
 15052 1e31 48       		.sleb128 -56
 15053 1e32 15       		.uleb128 0x15
 15054 1e33 7800     		.ascii	"x\000"
 15055 1e35 01       		.byte	0x1
 15056 1e36 CC01     		.2byte	0x1cc
 15057 1e38 97000000 		.4byte	0x97
 15058 1e3c 03       		.uleb128 0x3
 15059 1e3d 91       		.byte	0x91
 15060 1e3e A07F     		.sleb128 -96
 15061 1e40 15       		.uleb128 0x15
 15062 1e41 7900     		.ascii	"y\000"
 15063 1e43 01       		.byte	0x1
 15064 1e44 CD01     		.2byte	0x1cd
 15065 1e46 97000000 		.4byte	0x97
 15066 1e4a 03       		.uleb128 0x3
 15067 1e4b 91       		.byte	0x91
 15068 1e4c F87E     		.sleb128 -136
 15069 1e4e 18       		.uleb128 0x18
 15070 1e4f 10000000 		.4byte	.LVL312
 15071 1e53 01200000 		.4byte	0x2001
 15072 1e57 691E0000 		.4byte	0x1e69
 15073 1e5b 19       		.uleb128 0x19
 15074 1e5c 01       		.uleb128 0x1
 15075 1e5d 50       		.byte	0x50
 15076 1e5e 02       		.uleb128 0x2
 15077 1e5f 91       		.byte	0x91
 15078 1e60 48       		.sleb128 -56
ARM GAS  C:\Users\NIGHDR~1\AppData\Local\Temp\ccrnUt9g.s 			page 277


 15079 1e61 19       		.uleb128 0x19
 15080 1e62 01       		.uleb128 0x1
 15081 1e63 51       		.byte	0x51
 15082 1e64 03       		.uleb128 0x3
 15083 1e65 74       		.byte	0x74
 15084 1e66 D000     		.sleb128 80
 15085 1e68 00       		.byte	0
 15086 1e69 18       		.uleb128 0x18
 15087 1e6a 1A000000 		.4byte	.LVL313
 15088 1e6e B41F0000 		.4byte	0x1fb4
 15089 1e72 8A1E0000 		.4byte	0x1e8a
 15090 1e76 19       		.uleb128 0x19
 15091 1e77 01       		.uleb128 0x1
 15092 1e78 50       		.byte	0x50
 15093 1e79 03       		.uleb128 0x3
 15094 1e7a 91       		.byte	0x91
 15095 1e7b A07F     		.sleb128 -96
 15096 1e7d 19       		.uleb128 0x19
 15097 1e7e 01       		.uleb128 0x1
 15098 1e7f 51       		.byte	0x51
 15099 1e80 02       		.uleb128 0x2
 15100 1e81 74       		.byte	0x74
 15101 1e82 00       		.sleb128 0
 15102 1e83 19       		.uleb128 0x19
 15103 1e84 01       		.uleb128 0x1
 15104 1e85 52       		.byte	0x52
 15105 1e86 02       		.uleb128 0x2
 15106 1e87 91       		.byte	0x91
 15107 1e88 48       		.sleb128 -56
 15108 1e89 00       		.byte	0
 15109 1e8a 18       		.uleb128 0x18
 15110 1e8b 26000000 		.4byte	.LVL314
 15111 1e8f B41F0000 		.4byte	0x1fb4
 15112 1e93 AA1E0000 		.4byte	0x1eaa
 15113 1e97 19       		.uleb128 0x19
 15114 1e98 01       		.uleb128 0x1
 15115 1e99 50       		.byte	0x50
 15116 1e9a 02       		.uleb128 0x2
 15117 1e9b 7D       		.byte	0x7d
 15118 1e9c 00       		.sleb128 0
 15119 1e9d 19       		.uleb128 0x19
 15120 1e9e 01       		.uleb128 0x1
 15121 1e9f 51       		.byte	0x51
 15122 1ea0 02       		.uleb128 0x2
 15123 1ea1 74       		.byte	0x74
 15124 1ea2 28       		.sleb128 40
 15125 1ea3 19       		.uleb128 0x19
 15126 1ea4 01       		.uleb128 0x1
 15127 1ea5 52       		.byte	0x52
 15128 1ea6 02       		.uleb128 0x2
 15129 1ea7 91       		.byte	0x91
 15130 1ea8 48       		.sleb128 -56
 15131 1ea9 00       		.byte	0
 15132 1eaa 18       		.uleb128 0x18
 15133 1eab 2E000000 		.4byte	.LVL315
 15134 1eaf 0C200000 		.4byte	0x200c
 15135 1eb3 C41E0000 		.4byte	0x1ec4
ARM GAS  C:\Users\NIGHDR~1\AppData\Local\Temp\ccrnUt9g.s 			page 278


 15136 1eb7 19       		.uleb128 0x19
 15137 1eb8 01       		.uleb128 0x1
 15138 1eb9 50       		.byte	0x50
 15139 1eba 02       		.uleb128 0x2
 15140 1ebb 75       		.byte	0x75
 15141 1ebc 00       		.sleb128 0
 15142 1ebd 19       		.uleb128 0x19
 15143 1ebe 01       		.uleb128 0x1
 15144 1ebf 51       		.byte	0x51
 15145 1ec0 02       		.uleb128 0x2
 15146 1ec1 7D       		.byte	0x7d
 15147 1ec2 00       		.sleb128 0
 15148 1ec3 00       		.byte	0
 15149 1ec4 1A       		.uleb128 0x1a
 15150 1ec5 34000000 		.4byte	.LVL316
 15151 1ec9 EB1F0000 		.4byte	0x1feb
 15152 1ecd 19       		.uleb128 0x19
 15153 1ece 01       		.uleb128 0x1
 15154 1ecf 50       		.byte	0x50
 15155 1ed0 03       		.uleb128 0x3
 15156 1ed1 91       		.byte	0x91
 15157 1ed2 A07F     		.sleb128 -96
 15158 1ed4 00       		.byte	0
 15159 1ed5 00       		.byte	0
 15160 1ed6 06       		.uleb128 0x6
 15161 1ed7 8D030000 		.4byte	0x38d
 15162 1edb E61E0000 		.4byte	0x1ee6
 15163 1edf 07       		.uleb128 0x7
 15164 1ee0 B1000000 		.4byte	0xb1
 15165 1ee4 07       		.byte	0x7
 15166 1ee5 00       		.byte	0
 15167 1ee6 1E       		.uleb128 0x1e
 15168 1ee7 426900   		.ascii	"Bi\000"
 15169 1eea 05       		.byte	0x5
 15170 1eeb 01       		.byte	0x1
 15171 1eec F61E0000 		.4byte	0x1ef6
 15172 1ef0 05       		.uleb128 0x5
 15173 1ef1 03       		.byte	0x3
 15174 1ef2 78780000 		.4byte	Bi
 15175 1ef6 10       		.uleb128 0x10
 15176 1ef7 D61E0000 		.4byte	0x1ed6
 15177 1efb 06       		.uleb128 0x6
 15178 1efc 8D030000 		.4byte	0x38d
 15179 1f00 111F0000 		.4byte	0x1f11
 15180 1f04 07       		.uleb128 0x7
 15181 1f05 B1000000 		.4byte	0xb1
 15182 1f09 1F       		.byte	0x1f
 15183 1f0a 07       		.uleb128 0x7
 15184 1f0b B1000000 		.4byte	0xb1
 15185 1f0f 07       		.byte	0x7
 15186 1f10 00       		.byte	0
 15187 1f11 20       		.uleb128 0x20
 15188 1f12 77030000 		.4byte	.LASF53
 15189 1f16 05       		.byte	0x5
 15190 1f17 2E       		.byte	0x2e
 15191 1f18 221F0000 		.4byte	0x1f22
 15192 1f1c 05       		.uleb128 0x5
ARM GAS  C:\Users\NIGHDR~1\AppData\Local\Temp\ccrnUt9g.s 			page 279


 15193 1f1d 03       		.byte	0x3
 15194 1f1e 00000000 		.4byte	base
 15195 1f22 10       		.uleb128 0x10
 15196 1f23 FB1E0000 		.4byte	0x1efb
 15197 1f27 1E       		.uleb128 0x1e
 15198 1f28 6400     		.ascii	"d\000"
 15199 1f2a 01       		.byte	0x1
 15200 1f2b 85       		.byte	0x85
 15201 1f2c 361F0000 		.4byte	0x1f36
 15202 1f30 05       		.uleb128 0x5
 15203 1f31 03       		.byte	0x3
 15204 1f32 00780000 		.4byte	d
 15205 1f36 10       		.uleb128 0x10
 15206 1f37 A1000000 		.4byte	0xa1
 15207 1f3b 20       		.uleb128 0x20
 15208 1f3c 29020000 		.4byte	.LASF54
 15209 1f40 01       		.byte	0x1
 15210 1f41 89       		.byte	0x89
 15211 1f42 4C1F0000 		.4byte	0x1f4c
 15212 1f46 05       		.uleb128 0x5
 15213 1f47 03       		.byte	0x3
 15214 1f48 28780000 		.4byte	sqrtm1
 15215 1f4c 10       		.uleb128 0x10
 15216 1f4d A1000000 		.4byte	0xa1
 15217 1f51 15       		.uleb128 0x15
 15218 1f52 643200   		.ascii	"d2\000"
 15219 1f55 01       		.byte	0x1
 15220 1f56 2A01     		.2byte	0x12a
 15221 1f58 621F0000 		.4byte	0x1f62
 15222 1f5c 05       		.uleb128 0x5
 15223 1f5d 03       		.byte	0x3
 15224 1f5e 50780000 		.4byte	d2
 15225 1f62 10       		.uleb128 0x10
 15226 1f63 A1000000 		.4byte	0xa1
 15227 1f67 22       		.uleb128 0x22
 15228 1f68 20010000 		.4byte	.LASF55
 15229 1f6c 20010000 		.4byte	.LASF55
 15230 1f70 06       		.byte	0x6
 15231 1f71 1C       		.byte	0x1c
 15232 1f72 22       		.uleb128 0x22
 15233 1f73 46030000 		.4byte	.LASF56
 15234 1f77 46030000 		.4byte	.LASF56
 15235 1f7b 06       		.byte	0x6
 15236 1f7c 14       		.byte	0x14
 15237 1f7d 22       		.uleb128 0x22
 15238 1f7e 82030000 		.4byte	.LASF57
 15239 1f82 82030000 		.4byte	.LASF57
 15240 1f86 06       		.byte	0x6
 15241 1f87 13       		.byte	0x13
 15242 1f88 22       		.uleb128 0x22
 15243 1f89 87020000 		.4byte	.LASF58
 15244 1f8d 87020000 		.4byte	.LASF58
 15245 1f91 06       		.byte	0x6
 15246 1f92 19       		.byte	0x19
 15247 1f93 22       		.uleb128 0x22
 15248 1f94 0B030000 		.4byte	.LASF59
 15249 1f98 0B030000 		.4byte	.LASF59
ARM GAS  C:\Users\NIGHDR~1\AppData\Local\Temp\ccrnUt9g.s 			page 280


 15250 1f9c 06       		.byte	0x6
 15251 1f9d 1F       		.byte	0x1f
 15252 1f9e 22       		.uleb128 0x22
 15253 1f9f FC000000 		.4byte	.LASF60
 15254 1fa3 FC000000 		.4byte	.LASF60
 15255 1fa7 06       		.byte	0x6
 15256 1fa8 20       		.byte	0x20
 15257 1fa9 22       		.uleb128 0x22
 15258 1faa 8E010000 		.4byte	.LASF61
 15259 1fae 8E010000 		.4byte	.LASF61
 15260 1fb2 06       		.byte	0x6
 15261 1fb3 27       		.byte	0x27
 15262 1fb4 22       		.uleb128 0x22
 15263 1fb5 41000000 		.4byte	.LASF62
 15264 1fb9 41000000 		.4byte	.LASF62
 15265 1fbd 06       		.byte	0x6
 15266 1fbe 24       		.byte	0x24
 15267 1fbf 22       		.uleb128 0x22
 15268 1fc0 A2020000 		.4byte	.LASF63
 15269 1fc4 A2020000 		.4byte	.LASF63
 15270 1fc8 06       		.byte	0x6
 15271 1fc9 16       		.byte	0x16
 15272 1fca 22       		.uleb128 0x22
 15273 1fcb 7C030000 		.4byte	.LASF64
 15274 1fcf 7C030000 		.4byte	.LASF64
 15275 1fd3 06       		.byte	0x6
 15276 1fd4 22       		.byte	0x22
 15277 1fd5 22       		.uleb128 0x22
 15278 1fd6 DD000000 		.4byte	.LASF65
 15279 1fda DD000000 		.4byte	.LASF65
 15280 1fde 06       		.byte	0x6
 15281 1fdf 26       		.byte	0x26
 15282 1fe0 22       		.uleb128 0x22
 15283 1fe1 F0020000 		.4byte	.LASF66
 15284 1fe5 F0020000 		.4byte	.LASF66
 15285 1fe9 06       		.byte	0x6
 15286 1fea 1B       		.byte	0x1b
 15287 1feb 22       		.uleb128 0x22
 15288 1fec 79020000 		.4byte	.LASF67
 15289 1ff0 79020000 		.4byte	.LASF67
 15290 1ff4 06       		.byte	0x6
 15291 1ff5 1A       		.byte	0x1a
 15292 1ff6 22       		.uleb128 0x22
 15293 1ff7 48000000 		.4byte	.LASF68
 15294 1ffb 48000000 		.4byte	.LASF68
 15295 1fff 06       		.byte	0x6
 15296 2000 23       		.byte	0x23
 15297 2001 22       		.uleb128 0x22
 15298 2002 37000000 		.4byte	.LASF69
 15299 2006 37000000 		.4byte	.LASF69
 15300 200a 06       		.byte	0x6
 15301 200b 21       		.byte	0x21
 15302 200c 22       		.uleb128 0x22
 15303 200d 83010000 		.4byte	.LASF70
 15304 2011 83010000 		.4byte	.LASF70
 15305 2015 06       		.byte	0x6
 15306 2016 17       		.byte	0x17
ARM GAS  C:\Users\NIGHDR~1\AppData\Local\Temp\ccrnUt9g.s 			page 281


 15307 2017 00       		.byte	0
 15308              		.section	.debug_abbrev,"",%progbits
 15309              	.Ldebug_abbrev0:
 15310 0000 01       		.uleb128 0x1
 15311 0001 11       		.uleb128 0x11
 15312 0002 01       		.byte	0x1
 15313 0003 25       		.uleb128 0x25
 15314 0004 0E       		.uleb128 0xe
 15315 0005 13       		.uleb128 0x13
 15316 0006 0B       		.uleb128 0xb
 15317 0007 03       		.uleb128 0x3
 15318 0008 0E       		.uleb128 0xe
 15319 0009 1B       		.uleb128 0x1b
 15320 000a 0E       		.uleb128 0xe
 15321 000b 55       		.uleb128 0x55
 15322 000c 17       		.uleb128 0x17
 15323 000d 11       		.uleb128 0x11
 15324 000e 01       		.uleb128 0x1
 15325 000f 10       		.uleb128 0x10
 15326 0010 17       		.uleb128 0x17
 15327 0011 00       		.byte	0
 15328 0012 00       		.byte	0
 15329 0013 02       		.uleb128 0x2
 15330 0014 24       		.uleb128 0x24
 15331 0015 00       		.byte	0
 15332 0016 0B       		.uleb128 0xb
 15333 0017 0B       		.uleb128 0xb
 15334 0018 3E       		.uleb128 0x3e
 15335 0019 0B       		.uleb128 0xb
 15336 001a 03       		.uleb128 0x3
 15337 001b 0E       		.uleb128 0xe
 15338 001c 00       		.byte	0
 15339 001d 00       		.byte	0
 15340 001e 03       		.uleb128 0x3
 15341 001f 16       		.uleb128 0x16
 15342 0020 00       		.byte	0
 15343 0021 03       		.uleb128 0x3
 15344 0022 0E       		.uleb128 0xe
 15345 0023 3A       		.uleb128 0x3a
 15346 0024 0B       		.uleb128 0xb
 15347 0025 3B       		.uleb128 0x3b
 15348 0026 0B       		.uleb128 0xb
 15349 0027 49       		.uleb128 0x49
 15350 0028 13       		.uleb128 0x13
 15351 0029 00       		.byte	0
 15352 002a 00       		.byte	0
 15353 002b 04       		.uleb128 0x4
 15354 002c 24       		.uleb128 0x24
 15355 002d 00       		.byte	0
 15356 002e 0B       		.uleb128 0xb
 15357 002f 0B       		.uleb128 0xb
 15358 0030 3E       		.uleb128 0x3e
 15359 0031 0B       		.uleb128 0xb
 15360 0032 03       		.uleb128 0x3
 15361 0033 08       		.uleb128 0x8
 15362 0034 00       		.byte	0
 15363 0035 00       		.byte	0
ARM GAS  C:\Users\NIGHDR~1\AppData\Local\Temp\ccrnUt9g.s 			page 282


 15364 0036 05       		.uleb128 0x5
 15365 0037 16       		.uleb128 0x16
 15366 0038 00       		.byte	0
 15367 0039 03       		.uleb128 0x3
 15368 003a 08       		.uleb128 0x8
 15369 003b 3A       		.uleb128 0x3a
 15370 003c 0B       		.uleb128 0xb
 15371 003d 3B       		.uleb128 0x3b
 15372 003e 0B       		.uleb128 0xb
 15373 003f 49       		.uleb128 0x49
 15374 0040 13       		.uleb128 0x13
 15375 0041 00       		.byte	0
 15376 0042 00       		.byte	0
 15377 0043 06       		.uleb128 0x6
 15378 0044 01       		.uleb128 0x1
 15379 0045 01       		.byte	0x1
 15380 0046 49       		.uleb128 0x49
 15381 0047 13       		.uleb128 0x13
 15382 0048 01       		.uleb128 0x1
 15383 0049 13       		.uleb128 0x13
 15384 004a 00       		.byte	0
 15385 004b 00       		.byte	0
 15386 004c 07       		.uleb128 0x7
 15387 004d 21       		.uleb128 0x21
 15388 004e 00       		.byte	0
 15389 004f 49       		.uleb128 0x49
 15390 0050 13       		.uleb128 0x13
 15391 0051 2F       		.uleb128 0x2f
 15392 0052 0B       		.uleb128 0xb
 15393 0053 00       		.byte	0
 15394 0054 00       		.byte	0
 15395 0055 08       		.uleb128 0x8
 15396 0056 13       		.uleb128 0x13
 15397 0057 01       		.byte	0x1
 15398 0058 0B       		.uleb128 0xb
 15399 0059 0B       		.uleb128 0xb
 15400 005a 3A       		.uleb128 0x3a
 15401 005b 0B       		.uleb128 0xb
 15402 005c 3B       		.uleb128 0x3b
 15403 005d 0B       		.uleb128 0xb
 15404 005e 01       		.uleb128 0x1
 15405 005f 13       		.uleb128 0x13
 15406 0060 00       		.byte	0
 15407 0061 00       		.byte	0
 15408 0062 09       		.uleb128 0x9
 15409 0063 0D       		.uleb128 0xd
 15410 0064 00       		.byte	0
 15411 0065 03       		.uleb128 0x3
 15412 0066 08       		.uleb128 0x8
 15413 0067 3A       		.uleb128 0x3a
 15414 0068 0B       		.uleb128 0xb
 15415 0069 3B       		.uleb128 0x3b
 15416 006a 0B       		.uleb128 0xb
 15417 006b 49       		.uleb128 0x49
 15418 006c 13       		.uleb128 0x13
 15419 006d 38       		.uleb128 0x38
 15420 006e 0B       		.uleb128 0xb
ARM GAS  C:\Users\NIGHDR~1\AppData\Local\Temp\ccrnUt9g.s 			page 283


 15421 006f 00       		.byte	0
 15422 0070 00       		.byte	0
 15423 0071 0A       		.uleb128 0xa
 15424 0072 0D       		.uleb128 0xd
 15425 0073 00       		.byte	0
 15426 0074 03       		.uleb128 0x3
 15427 0075 0E       		.uleb128 0xe
 15428 0076 3A       		.uleb128 0x3a
 15429 0077 0B       		.uleb128 0xb
 15430 0078 3B       		.uleb128 0x3b
 15431 0079 0B       		.uleb128 0xb
 15432 007a 49       		.uleb128 0x49
 15433 007b 13       		.uleb128 0x13
 15434 007c 38       		.uleb128 0x38
 15435 007d 0B       		.uleb128 0xb
 15436 007e 00       		.byte	0
 15437 007f 00       		.byte	0
 15438 0080 0B       		.uleb128 0xb
 15439 0081 2E       		.uleb128 0x2e
 15440 0082 01       		.byte	0x1
 15441 0083 03       		.uleb128 0x3
 15442 0084 0E       		.uleb128 0xe
 15443 0085 3A       		.uleb128 0x3a
 15444 0086 0B       		.uleb128 0xb
 15445 0087 3B       		.uleb128 0x3b
 15446 0088 0B       		.uleb128 0xb
 15447 0089 27       		.uleb128 0x27
 15448 008a 19       		.uleb128 0x19
 15449 008b 11       		.uleb128 0x11
 15450 008c 01       		.uleb128 0x1
 15451 008d 12       		.uleb128 0x12
 15452 008e 06       		.uleb128 0x6
 15453 008f 40       		.uleb128 0x40
 15454 0090 18       		.uleb128 0x18
 15455 0091 9742     		.uleb128 0x2117
 15456 0093 19       		.uleb128 0x19
 15457 0094 01       		.uleb128 0x1
 15458 0095 13       		.uleb128 0x13
 15459 0096 00       		.byte	0
 15460 0097 00       		.byte	0
 15461 0098 0C       		.uleb128 0xc
 15462 0099 05       		.uleb128 0x5
 15463 009a 00       		.byte	0
 15464 009b 03       		.uleb128 0x3
 15465 009c 08       		.uleb128 0x8
 15466 009d 3A       		.uleb128 0x3a
 15467 009e 0B       		.uleb128 0xb
 15468 009f 3B       		.uleb128 0x3b
 15469 00a0 0B       		.uleb128 0xb
 15470 00a1 49       		.uleb128 0x49
 15471 00a2 13       		.uleb128 0x13
 15472 00a3 02       		.uleb128 0x2
 15473 00a4 18       		.uleb128 0x18
 15474 00a5 00       		.byte	0
 15475 00a6 00       		.byte	0
 15476 00a7 0D       		.uleb128 0xd
 15477 00a8 05       		.uleb128 0x5
ARM GAS  C:\Users\NIGHDR~1\AppData\Local\Temp\ccrnUt9g.s 			page 284


 15478 00a9 00       		.byte	0
 15479 00aa 03       		.uleb128 0x3
 15480 00ab 08       		.uleb128 0x8
 15481 00ac 3A       		.uleb128 0x3a
 15482 00ad 0B       		.uleb128 0xb
 15483 00ae 3B       		.uleb128 0x3b
 15484 00af 0B       		.uleb128 0xb
 15485 00b0 49       		.uleb128 0x49
 15486 00b1 13       		.uleb128 0x13
 15487 00b2 02       		.uleb128 0x2
 15488 00b3 17       		.uleb128 0x17
 15489 00b4 00       		.byte	0
 15490 00b5 00       		.byte	0
 15491 00b6 0E       		.uleb128 0xe
 15492 00b7 34       		.uleb128 0x34
 15493 00b8 00       		.byte	0
 15494 00b9 03       		.uleb128 0x3
 15495 00ba 08       		.uleb128 0x8
 15496 00bb 3A       		.uleb128 0x3a
 15497 00bc 0B       		.uleb128 0xb
 15498 00bd 3B       		.uleb128 0x3b
 15499 00be 0B       		.uleb128 0xb
 15500 00bf 49       		.uleb128 0x49
 15501 00c0 13       		.uleb128 0x13
 15502 00c1 02       		.uleb128 0x2
 15503 00c2 17       		.uleb128 0x17
 15504 00c3 00       		.byte	0
 15505 00c4 00       		.byte	0
 15506 00c5 0F       		.uleb128 0xf
 15507 00c6 0F       		.uleb128 0xf
 15508 00c7 00       		.byte	0
 15509 00c8 0B       		.uleb128 0xb
 15510 00c9 0B       		.uleb128 0xb
 15511 00ca 49       		.uleb128 0x49
 15512 00cb 13       		.uleb128 0x13
 15513 00cc 00       		.byte	0
 15514 00cd 00       		.byte	0
 15515 00ce 10       		.uleb128 0x10
 15516 00cf 26       		.uleb128 0x26
 15517 00d0 00       		.byte	0
 15518 00d1 49       		.uleb128 0x49
 15519 00d2 13       		.uleb128 0x13
 15520 00d3 00       		.byte	0
 15521 00d4 00       		.byte	0
 15522 00d5 11       		.uleb128 0x11
 15523 00d6 2E       		.uleb128 0x2e
 15524 00d7 01       		.byte	0x1
 15525 00d8 03       		.uleb128 0x3
 15526 00d9 0E       		.uleb128 0xe
 15527 00da 3A       		.uleb128 0x3a
 15528 00db 0B       		.uleb128 0xb
 15529 00dc 3B       		.uleb128 0x3b
 15530 00dd 05       		.uleb128 0x5
 15531 00de 27       		.uleb128 0x27
 15532 00df 19       		.uleb128 0x19
 15533 00e0 49       		.uleb128 0x49
 15534 00e1 13       		.uleb128 0x13
ARM GAS  C:\Users\NIGHDR~1\AppData\Local\Temp\ccrnUt9g.s 			page 285


 15535 00e2 11       		.uleb128 0x11
 15536 00e3 01       		.uleb128 0x1
 15537 00e4 12       		.uleb128 0x12
 15538 00e5 06       		.uleb128 0x6
 15539 00e6 40       		.uleb128 0x40
 15540 00e7 18       		.uleb128 0x18
 15541 00e8 9742     		.uleb128 0x2117
 15542 00ea 19       		.uleb128 0x19
 15543 00eb 01       		.uleb128 0x1
 15544 00ec 13       		.uleb128 0x13
 15545 00ed 00       		.byte	0
 15546 00ee 00       		.byte	0
 15547 00ef 12       		.uleb128 0x12
 15548 00f0 05       		.uleb128 0x5
 15549 00f1 00       		.byte	0
 15550 00f2 03       		.uleb128 0x3
 15551 00f3 08       		.uleb128 0x8
 15552 00f4 3A       		.uleb128 0x3a
 15553 00f5 0B       		.uleb128 0xb
 15554 00f6 3B       		.uleb128 0x3b
 15555 00f7 05       		.uleb128 0x5
 15556 00f8 49       		.uleb128 0x49
 15557 00f9 13       		.uleb128 0x13
 15558 00fa 02       		.uleb128 0x2
 15559 00fb 17       		.uleb128 0x17
 15560 00fc 00       		.byte	0
 15561 00fd 00       		.byte	0
 15562 00fe 13       		.uleb128 0x13
 15563 00ff 05       		.uleb128 0x5
 15564 0100 00       		.byte	0
 15565 0101 03       		.uleb128 0x3
 15566 0102 08       		.uleb128 0x8
 15567 0103 3A       		.uleb128 0x3a
 15568 0104 0B       		.uleb128 0xb
 15569 0105 3B       		.uleb128 0x3b
 15570 0106 05       		.uleb128 0x5
 15571 0107 49       		.uleb128 0x49
 15572 0108 13       		.uleb128 0x13
 15573 0109 02       		.uleb128 0x2
 15574 010a 18       		.uleb128 0x18
 15575 010b 00       		.byte	0
 15576 010c 00       		.byte	0
 15577 010d 14       		.uleb128 0x14
 15578 010e 34       		.uleb128 0x34
 15579 010f 00       		.byte	0
 15580 0110 03       		.uleb128 0x3
 15581 0111 08       		.uleb128 0x8
 15582 0112 3A       		.uleb128 0x3a
 15583 0113 0B       		.uleb128 0xb
 15584 0114 3B       		.uleb128 0x3b
 15585 0115 05       		.uleb128 0x5
 15586 0116 49       		.uleb128 0x49
 15587 0117 13       		.uleb128 0x13
 15588 0118 02       		.uleb128 0x2
 15589 0119 17       		.uleb128 0x17
 15590 011a 00       		.byte	0
 15591 011b 00       		.byte	0
ARM GAS  C:\Users\NIGHDR~1\AppData\Local\Temp\ccrnUt9g.s 			page 286


 15592 011c 15       		.uleb128 0x15
 15593 011d 34       		.uleb128 0x34
 15594 011e 00       		.byte	0
 15595 011f 03       		.uleb128 0x3
 15596 0120 08       		.uleb128 0x8
 15597 0121 3A       		.uleb128 0x3a
 15598 0122 0B       		.uleb128 0xb
 15599 0123 3B       		.uleb128 0x3b
 15600 0124 05       		.uleb128 0x5
 15601 0125 49       		.uleb128 0x49
 15602 0126 13       		.uleb128 0x13
 15603 0127 02       		.uleb128 0x2
 15604 0128 18       		.uleb128 0x18
 15605 0129 00       		.byte	0
 15606 012a 00       		.byte	0
 15607 012b 16       		.uleb128 0x16
 15608 012c 34       		.uleb128 0x34
 15609 012d 00       		.byte	0
 15610 012e 03       		.uleb128 0x3
 15611 012f 08       		.uleb128 0x8
 15612 0130 3A       		.uleb128 0x3a
 15613 0131 0B       		.uleb128 0xb
 15614 0132 3B       		.uleb128 0x3b
 15615 0133 05       		.uleb128 0x5
 15616 0134 49       		.uleb128 0x49
 15617 0135 13       		.uleb128 0x13
 15618 0136 00       		.byte	0
 15619 0137 00       		.byte	0
 15620 0138 17       		.uleb128 0x17
 15621 0139 2E       		.uleb128 0x2e
 15622 013a 01       		.byte	0x1
 15623 013b 03       		.uleb128 0x3
 15624 013c 0E       		.uleb128 0xe
 15625 013d 3A       		.uleb128 0x3a
 15626 013e 0B       		.uleb128 0xb
 15627 013f 3B       		.uleb128 0x3b
 15628 0140 05       		.uleb128 0x5
 15629 0141 27       		.uleb128 0x27
 15630 0142 19       		.uleb128 0x19
 15631 0143 11       		.uleb128 0x11
 15632 0144 01       		.uleb128 0x1
 15633 0145 12       		.uleb128 0x12
 15634 0146 06       		.uleb128 0x6
 15635 0147 40       		.uleb128 0x40
 15636 0148 18       		.uleb128 0x18
 15637 0149 9742     		.uleb128 0x2117
 15638 014b 19       		.uleb128 0x19
 15639 014c 01       		.uleb128 0x1
 15640 014d 13       		.uleb128 0x13
 15641 014e 00       		.byte	0
 15642 014f 00       		.byte	0
 15643 0150 18       		.uleb128 0x18
 15644 0151 898201   		.uleb128 0x4109
 15645 0154 01       		.byte	0x1
 15646 0155 11       		.uleb128 0x11
 15647 0156 01       		.uleb128 0x1
 15648 0157 31       		.uleb128 0x31
ARM GAS  C:\Users\NIGHDR~1\AppData\Local\Temp\ccrnUt9g.s 			page 287


 15649 0158 13       		.uleb128 0x13
 15650 0159 01       		.uleb128 0x1
 15651 015a 13       		.uleb128 0x13
 15652 015b 00       		.byte	0
 15653 015c 00       		.byte	0
 15654 015d 19       		.uleb128 0x19
 15655 015e 8A8201   		.uleb128 0x410a
 15656 0161 00       		.byte	0
 15657 0162 02       		.uleb128 0x2
 15658 0163 18       		.uleb128 0x18
 15659 0164 9142     		.uleb128 0x2111
 15660 0166 18       		.uleb128 0x18
 15661 0167 00       		.byte	0
 15662 0168 00       		.byte	0
 15663 0169 1A       		.uleb128 0x1a
 15664 016a 898201   		.uleb128 0x4109
 15665 016d 01       		.byte	0x1
 15666 016e 11       		.uleb128 0x11
 15667 016f 01       		.uleb128 0x1
 15668 0170 31       		.uleb128 0x31
 15669 0171 13       		.uleb128 0x13
 15670 0172 00       		.byte	0
 15671 0173 00       		.byte	0
 15672 0174 1B       		.uleb128 0x1b
 15673 0175 34       		.uleb128 0x34
 15674 0176 00       		.byte	0
 15675 0177 03       		.uleb128 0x3
 15676 0178 0E       		.uleb128 0xe
 15677 0179 3A       		.uleb128 0x3a
 15678 017a 0B       		.uleb128 0xb
 15679 017b 3B       		.uleb128 0x3b
 15680 017c 05       		.uleb128 0x5
 15681 017d 49       		.uleb128 0x49
 15682 017e 13       		.uleb128 0x13
 15683 017f 02       		.uleb128 0x2
 15684 0180 18       		.uleb128 0x18
 15685 0181 00       		.byte	0
 15686 0182 00       		.byte	0
 15687 0183 1C       		.uleb128 0x1c
 15688 0184 34       		.uleb128 0x34
 15689 0185 00       		.byte	0
 15690 0186 03       		.uleb128 0x3
 15691 0187 0E       		.uleb128 0xe
 15692 0188 3A       		.uleb128 0x3a
 15693 0189 0B       		.uleb128 0xb
 15694 018a 3B       		.uleb128 0x3b
 15695 018b 05       		.uleb128 0x5
 15696 018c 49       		.uleb128 0x49
 15697 018d 13       		.uleb128 0x13
 15698 018e 02       		.uleb128 0x2
 15699 018f 17       		.uleb128 0x17
 15700 0190 00       		.byte	0
 15701 0191 00       		.byte	0
 15702 0192 1D       		.uleb128 0x1d
 15703 0193 2E       		.uleb128 0x2e
 15704 0194 01       		.byte	0x1
 15705 0195 3F       		.uleb128 0x3f
ARM GAS  C:\Users\NIGHDR~1\AppData\Local\Temp\ccrnUt9g.s 			page 288


 15706 0196 19       		.uleb128 0x19
 15707 0197 03       		.uleb128 0x3
 15708 0198 0E       		.uleb128 0xe
 15709 0199 3A       		.uleb128 0x3a
 15710 019a 0B       		.uleb128 0xb
 15711 019b 3B       		.uleb128 0x3b
 15712 019c 0B       		.uleb128 0xb
 15713 019d 27       		.uleb128 0x27
 15714 019e 19       		.uleb128 0x19
 15715 019f 11       		.uleb128 0x11
 15716 01a0 01       		.uleb128 0x1
 15717 01a1 12       		.uleb128 0x12
 15718 01a2 06       		.uleb128 0x6
 15719 01a3 40       		.uleb128 0x40
 15720 01a4 18       		.uleb128 0x18
 15721 01a5 9742     		.uleb128 0x2117
 15722 01a7 19       		.uleb128 0x19
 15723 01a8 01       		.uleb128 0x1
 15724 01a9 13       		.uleb128 0x13
 15725 01aa 00       		.byte	0
 15726 01ab 00       		.byte	0
 15727 01ac 1E       		.uleb128 0x1e
 15728 01ad 34       		.uleb128 0x34
 15729 01ae 00       		.byte	0
 15730 01af 03       		.uleb128 0x3
 15731 01b0 08       		.uleb128 0x8
 15732 01b1 3A       		.uleb128 0x3a
 15733 01b2 0B       		.uleb128 0xb
 15734 01b3 3B       		.uleb128 0x3b
 15735 01b4 0B       		.uleb128 0xb
 15736 01b5 49       		.uleb128 0x49
 15737 01b6 13       		.uleb128 0x13
 15738 01b7 02       		.uleb128 0x2
 15739 01b8 18       		.uleb128 0x18
 15740 01b9 00       		.byte	0
 15741 01ba 00       		.byte	0
 15742 01bb 1F       		.uleb128 0x1f
 15743 01bc 2E       		.uleb128 0x2e
 15744 01bd 01       		.byte	0x1
 15745 01be 3F       		.uleb128 0x3f
 15746 01bf 19       		.uleb128 0x19
 15747 01c0 03       		.uleb128 0x3
 15748 01c1 0E       		.uleb128 0xe
 15749 01c2 3A       		.uleb128 0x3a
 15750 01c3 0B       		.uleb128 0xb
 15751 01c4 3B       		.uleb128 0x3b
 15752 01c5 0B       		.uleb128 0xb
 15753 01c6 27       		.uleb128 0x27
 15754 01c7 19       		.uleb128 0x19
 15755 01c8 49       		.uleb128 0x49
 15756 01c9 13       		.uleb128 0x13
 15757 01ca 11       		.uleb128 0x11
 15758 01cb 01       		.uleb128 0x1
 15759 01cc 12       		.uleb128 0x12
 15760 01cd 06       		.uleb128 0x6
 15761 01ce 40       		.uleb128 0x40
 15762 01cf 18       		.uleb128 0x18
ARM GAS  C:\Users\NIGHDR~1\AppData\Local\Temp\ccrnUt9g.s 			page 289


 15763 01d0 9742     		.uleb128 0x2117
 15764 01d2 19       		.uleb128 0x19
 15765 01d3 01       		.uleb128 0x1
 15766 01d4 13       		.uleb128 0x13
 15767 01d5 00       		.byte	0
 15768 01d6 00       		.byte	0
 15769 01d7 20       		.uleb128 0x20
 15770 01d8 34       		.uleb128 0x34
 15771 01d9 00       		.byte	0
 15772 01da 03       		.uleb128 0x3
 15773 01db 0E       		.uleb128 0xe
 15774 01dc 3A       		.uleb128 0x3a
 15775 01dd 0B       		.uleb128 0xb
 15776 01de 3B       		.uleb128 0x3b
 15777 01df 0B       		.uleb128 0xb
 15778 01e0 49       		.uleb128 0x49
 15779 01e1 13       		.uleb128 0x13
 15780 01e2 02       		.uleb128 0x2
 15781 01e3 18       		.uleb128 0x18
 15782 01e4 00       		.byte	0
 15783 01e5 00       		.byte	0
 15784 01e6 21       		.uleb128 0x21
 15785 01e7 2E       		.uleb128 0x2e
 15786 01e8 01       		.byte	0x1
 15787 01e9 3F       		.uleb128 0x3f
 15788 01ea 19       		.uleb128 0x19
 15789 01eb 03       		.uleb128 0x3
 15790 01ec 0E       		.uleb128 0xe
 15791 01ed 3A       		.uleb128 0x3a
 15792 01ee 0B       		.uleb128 0xb
 15793 01ef 3B       		.uleb128 0x3b
 15794 01f0 05       		.uleb128 0x5
 15795 01f1 27       		.uleb128 0x27
 15796 01f2 19       		.uleb128 0x19
 15797 01f3 11       		.uleb128 0x11
 15798 01f4 01       		.uleb128 0x1
 15799 01f5 12       		.uleb128 0x12
 15800 01f6 06       		.uleb128 0x6
 15801 01f7 40       		.uleb128 0x40
 15802 01f8 18       		.uleb128 0x18
 15803 01f9 9742     		.uleb128 0x2117
 15804 01fb 19       		.uleb128 0x19
 15805 01fc 01       		.uleb128 0x1
 15806 01fd 13       		.uleb128 0x13
 15807 01fe 00       		.byte	0
 15808 01ff 00       		.byte	0
 15809 0200 22       		.uleb128 0x22
 15810 0201 2E       		.uleb128 0x2e
 15811 0202 00       		.byte	0
 15812 0203 3F       		.uleb128 0x3f
 15813 0204 19       		.uleb128 0x19
 15814 0205 3C       		.uleb128 0x3c
 15815 0206 19       		.uleb128 0x19
 15816 0207 6E       		.uleb128 0x6e
 15817 0208 0E       		.uleb128 0xe
 15818 0209 03       		.uleb128 0x3
 15819 020a 0E       		.uleb128 0xe
ARM GAS  C:\Users\NIGHDR~1\AppData\Local\Temp\ccrnUt9g.s 			page 290


 15820 020b 3A       		.uleb128 0x3a
 15821 020c 0B       		.uleb128 0xb
 15822 020d 3B       		.uleb128 0x3b
 15823 020e 0B       		.uleb128 0xb
 15824 020f 00       		.byte	0
 15825 0210 00       		.byte	0
 15826 0211 00       		.byte	0
 15827              		.section	.debug_loc,"",%progbits
 15828              	.Ldebug_loc0:
 15829              	.LLST0:
 15830 0000 00000000 		.4byte	.LVL0
 15831 0004 24000000 		.4byte	.LVL4
 15832 0008 0100     		.2byte	0x1
 15833 000a 51       		.byte	0x51
 15834 000b 24000000 		.4byte	.LVL4
 15835 000f 98000000 		.4byte	.LFE1
 15836 0013 0400     		.2byte	0x4
 15837 0015 F3       		.byte	0xf3
 15838 0016 01       		.uleb128 0x1
 15839 0017 51       		.byte	0x51
 15840 0018 9F       		.byte	0x9f
 15841 0019 00000000 		.4byte	0
 15842 001d 00000000 		.4byte	0
 15843              	.LLST1:
 15844 0021 06000000 		.4byte	.LVL1
 15845 0025 0A000000 		.4byte	.LVL2
 15846 0029 0200     		.2byte	0x2
 15847 002b 30       		.byte	0x30
 15848 002c 9F       		.byte	0x9f
 15849 002d 0A000000 		.4byte	.LVL2
 15850 0031 24000000 		.4byte	.LVL4
 15851 0035 0100     		.2byte	0x1
 15852 0037 53       		.byte	0x53
 15853 0038 24000000 		.4byte	.LVL4
 15854 003c 92000000 		.4byte	.LVL16
 15855 0040 0100     		.2byte	0x1
 15856 0042 55       		.byte	0x55
 15857 0043 00000000 		.4byte	0
 15858 0047 00000000 		.4byte	0
 15859              	.LLST2:
 15860 004b 32000000 		.4byte	.LVL5
 15861 004f 80000000 		.4byte	.LVL12
 15862 0053 0100     		.2byte	0x1
 15863 0055 54       		.byte	0x54
 15864 0056 82000000 		.4byte	.LVL13
 15865 005a 8C000000 		.4byte	.LVL14
 15866 005e 0100     		.2byte	0x1
 15867 0060 54       		.byte	0x54
 15868 0061 00000000 		.4byte	0
 15869 0065 00000000 		.4byte	0
 15870              	.LLST3:
 15871 0069 60000000 		.4byte	.LVL6
 15872 006d 6E000000 		.4byte	.LVL7
 15873 0071 0100     		.2byte	0x1
 15874 0073 53       		.byte	0x53
 15875 0074 72000000 		.4byte	.LVL8
 15876 0078 7C000000 		.4byte	.LVL10
ARM GAS  C:\Users\NIGHDR~1\AppData\Local\Temp\ccrnUt9g.s 			page 291


 15877 007c 0100     		.2byte	0x1
 15878 007e 53       		.byte	0x53
 15879 007f 00000000 		.4byte	0
 15880 0083 00000000 		.4byte	0
 15881              	.LLST4:
 15882 0087 00000000 		.4byte	.LVL17
 15883 008b 08000000 		.4byte	.LVL20
 15884 008f 0100     		.2byte	0x1
 15885 0091 50       		.byte	0x50
 15886 0092 08000000 		.4byte	.LVL20
 15887 0096 1A000000 		.4byte	.LFE15
 15888 009a 0400     		.2byte	0x4
 15889 009c F3       		.byte	0xf3
 15890 009d 01       		.uleb128 0x1
 15891 009e 50       		.byte	0x50
 15892 009f 9F       		.byte	0x9f
 15893 00a0 00000000 		.4byte	0
 15894 00a4 00000000 		.4byte	0
 15895              	.LLST5:
 15896 00a8 04000000 		.4byte	.LVL18
 15897 00ac 08000000 		.4byte	.LVL20
 15898 00b0 0100     		.2byte	0x1
 15899 00b2 50       		.byte	0x50
 15900 00b3 08000000 		.4byte	.LVL20
 15901 00b7 1A000000 		.4byte	.LFE15
 15902 00bb 0400     		.2byte	0x4
 15903 00bd F3       		.byte	0xf3
 15904 00be 01       		.uleb128 0x1
 15905 00bf 50       		.byte	0x50
 15906 00c0 9F       		.byte	0x9f
 15907 00c1 00000000 		.4byte	0
 15908 00c5 00000000 		.4byte	0
 15909              	.LLST6:
 15910 00c9 06000000 		.4byte	.LVL19
 15911 00cd 08000000 		.4byte	.LVL20
 15912 00d1 0600     		.2byte	0x6
 15913 00d3 70       		.byte	0x70
 15914 00d4 00       		.sleb128 0
 15915 00d5 71       		.byte	0x71
 15916 00d6 00       		.sleb128 0
 15917 00d7 27       		.byte	0x27
 15918 00d8 9F       		.byte	0x9f
 15919 00d9 08000000 		.4byte	.LVL20
 15920 00dd 1A000000 		.4byte	.LFE15
 15921 00e1 0A00     		.2byte	0xa
 15922 00e3 F3       		.byte	0xf3
 15923 00e4 01       		.uleb128 0x1
 15924 00e5 50       		.byte	0x50
 15925 00e6 08       		.byte	0x8
 15926 00e7 FF       		.byte	0xff
 15927 00e8 1A       		.byte	0x1a
 15928 00e9 71       		.byte	0x71
 15929 00ea 00       		.sleb128 0
 15930 00eb 27       		.byte	0x27
 15931 00ec 9F       		.byte	0x9f
 15932 00ed 00000000 		.4byte	0
 15933 00f1 00000000 		.4byte	0
ARM GAS  C:\Users\NIGHDR~1\AppData\Local\Temp\ccrnUt9g.s 			page 292


 15934              	.LLST7:
 15935 00f5 0C000000 		.4byte	.LVL21
 15936 00f9 16000000 		.4byte	.LVL22
 15937 00fd 0600     		.2byte	0x6
 15938 00ff 54       		.byte	0x54
 15939 0100 93       		.byte	0x93
 15940 0101 04       		.uleb128 0x4
 15941 0102 55       		.byte	0x55
 15942 0103 93       		.byte	0x93
 15943 0104 04       		.uleb128 0x4
 15944 0105 00000000 		.4byte	0
 15945 0109 00000000 		.4byte	0
 15946              	.LLST8:
 15947 010d 00000000 		.4byte	.LVL23
 15948 0111 02000000 		.4byte	.LVL24
 15949 0115 0100     		.2byte	0x1
 15950 0117 50       		.byte	0x50
 15951 0118 02000000 		.4byte	.LVL24
 15952 011c 04000000 		.4byte	.LFE16
 15953 0120 0400     		.2byte	0x4
 15954 0122 F3       		.byte	0xf3
 15955 0123 01       		.uleb128 0x1
 15956 0124 50       		.byte	0x50
 15957 0125 9F       		.byte	0x9f
 15958 0126 00000000 		.4byte	0
 15959 012a 00000000 		.4byte	0
 15960              	.LLST9:
 15961 012e 00000000 		.4byte	.LVL25
 15962 0132 0B000000 		.4byte	.LVL26-1
 15963 0136 0100     		.2byte	0x1
 15964 0138 50       		.byte	0x50
 15965 0139 0B000000 		.4byte	.LVL26-1
 15966 013d 28000000 		.4byte	.LVL29
 15967 0141 0100     		.2byte	0x1
 15968 0143 54       		.byte	0x54
 15969 0144 28000000 		.4byte	.LVL29
 15970 0148 2A000000 		.4byte	.LFE17
 15971 014c 0400     		.2byte	0x4
 15972 014e F3       		.byte	0xf3
 15973 014f 01       		.uleb128 0x1
 15974 0150 50       		.byte	0x50
 15975 0151 9F       		.byte	0x9f
 15976 0152 00000000 		.4byte	0
 15977 0156 00000000 		.4byte	0
 15978              	.LLST10:
 15979 015a 00000000 		.4byte	.LVL25
 15980 015e 0B000000 		.4byte	.LVL26-1
 15981 0162 0100     		.2byte	0x1
 15982 0164 51       		.byte	0x51
 15983 0165 0B000000 		.4byte	.LVL26-1
 15984 0169 28000000 		.4byte	.LVL30
 15985 016d 0100     		.2byte	0x1
 15986 016f 55       		.byte	0x55
 15987 0170 28000000 		.4byte	.LVL30
 15988 0174 2A000000 		.4byte	.LFE17
 15989 0178 0400     		.2byte	0x4
 15990 017a F3       		.byte	0xf3
ARM GAS  C:\Users\NIGHDR~1\AppData\Local\Temp\ccrnUt9g.s 			page 293


 15991 017b 01       		.uleb128 0x1
 15992 017c 51       		.byte	0x51
 15993 017d 9F       		.byte	0x9f
 15994 017e 00000000 		.4byte	0
 15995 0182 00000000 		.4byte	0
 15996              	.LLST11:
 15997 0186 00000000 		.4byte	.LVL25
 15998 018a 0B000000 		.4byte	.LVL26-1
 15999 018e 0100     		.2byte	0x1
 16000 0190 52       		.byte	0x52
 16001 0191 0B000000 		.4byte	.LVL26-1
 16002 0195 2A000000 		.4byte	.LFE17
 16003 0199 0400     		.2byte	0x4
 16004 019b F3       		.byte	0xf3
 16005 019c 01       		.uleb128 0x1
 16006 019d 52       		.byte	0x52
 16007 019e 9F       		.byte	0x9f
 16008 019f 00000000 		.4byte	0
 16009 01a3 00000000 		.4byte	0
 16010              	.LLST12:
 16011 01a7 00000000 		.4byte	.LVL31
 16012 01ab 0C000000 		.4byte	.LVL32
 16013 01af 0100     		.2byte	0x1
 16014 01b1 50       		.byte	0x50
 16015 01b2 0C000000 		.4byte	.LVL32
 16016 01b6 40010000 		.4byte	.LVL61
 16017 01ba 0100     		.2byte	0x1
 16018 01bc 55       		.byte	0x55
 16019 01bd 40010000 		.4byte	.LVL61
 16020 01c1 48010000 		.4byte	.LFE18
 16021 01c5 0400     		.2byte	0x4
 16022 01c7 F3       		.byte	0xf3
 16023 01c8 01       		.uleb128 0x1
 16024 01c9 50       		.byte	0x50
 16025 01ca 9F       		.byte	0x9f
 16026 01cb 00000000 		.4byte	0
 16027 01cf 00000000 		.4byte	0
 16028              	.LLST13:
 16029 01d3 00000000 		.4byte	.LVL31
 16030 01d7 0F000000 		.4byte	.LVL33-1
 16031 01db 0100     		.2byte	0x1
 16032 01dd 51       		.byte	0x51
 16033 01de 0F000000 		.4byte	.LVL33-1
 16034 01e2 40010000 		.4byte	.LVL62
 16035 01e6 0100     		.2byte	0x1
 16036 01e8 57       		.byte	0x57
 16037 01e9 40010000 		.4byte	.LVL62
 16038 01ed 48010000 		.4byte	.LFE18
 16039 01f1 0400     		.2byte	0x4
 16040 01f3 F3       		.byte	0xf3
 16041 01f4 01       		.uleb128 0x1
 16042 01f5 51       		.byte	0x51
 16043 01f6 9F       		.byte	0x9f
 16044 01f7 00000000 		.4byte	0
 16045 01fb 00000000 		.4byte	0
 16046              	.LLST14:
 16047 01ff 00000000 		.4byte	.LVL31
ARM GAS  C:\Users\NIGHDR~1\AppData\Local\Temp\ccrnUt9g.s 			page 294


 16048 0203 0F000000 		.4byte	.LVL33-1
 16049 0207 0100     		.2byte	0x1
 16050 0209 52       		.byte	0x52
 16051 020a 0F000000 		.4byte	.LVL33-1
 16052 020e 48010000 		.4byte	.LFE18
 16053 0212 0400     		.2byte	0x4
 16054 0214 F3       		.byte	0xf3
 16055 0215 01       		.uleb128 0x1
 16056 0216 52       		.byte	0x52
 16057 0217 9F       		.byte	0x9f
 16058 0218 00000000 		.4byte	0
 16059 021c 00000000 		.4byte	0
 16060              	.LLST15:
 16061 0220 10000000 		.4byte	.LVL33
 16062 0224 1E000000 		.4byte	.LVL35
 16063 0228 0100     		.2byte	0x1
 16064 022a 50       		.byte	0x50
 16065 022b 00000000 		.4byte	0
 16066 022f 00000000 		.4byte	0
 16067              	.LLST16:
 16068 0233 1C000000 		.4byte	.LVL34
 16069 0237 52000000 		.4byte	.LVL40
 16070 023b 0100     		.2byte	0x1
 16071 023d 54       		.byte	0x54
 16072 023e 52000000 		.4byte	.LVL40
 16073 0242 40010000 		.4byte	.LVL60
 16074 0246 0200     		.2byte	0x2
 16075 0248 7D       		.byte	0x7d
 16076 0249 00       		.sleb128 0
 16077 024a 40010000 		.4byte	.LVL60
 16078 024e 48010000 		.4byte	.LFE18
 16079 0252 0300     		.2byte	0x3
 16080 0254 91       		.byte	0x91
 16081 0255 E07E     		.sleb128 -160
 16082 0257 00000000 		.4byte	0
 16083 025b 00000000 		.4byte	0
 16084              	.LLST17:
 16085 025f 00000000 		.4byte	.LVL63
 16086 0263 15000000 		.4byte	.LVL66-1
 16087 0267 0100     		.2byte	0x1
 16088 0269 50       		.byte	0x50
 16089 026a 15000000 		.4byte	.LVL66-1
 16090 026e A2000000 		.4byte	.LVL79
 16091 0272 0100     		.2byte	0x1
 16092 0274 54       		.byte	0x54
 16093 0275 A2000000 		.4byte	.LVL79
 16094 0279 A4000000 		.4byte	.LFE0
 16095 027d 0400     		.2byte	0x4
 16096 027f F3       		.byte	0xf3
 16097 0280 01       		.uleb128 0x1
 16098 0281 50       		.byte	0x50
 16099 0282 9F       		.byte	0x9f
 16100 0283 00000000 		.4byte	0
 16101 0287 00000000 		.4byte	0
 16102              	.LLST18:
 16103 028b 00000000 		.4byte	.LVL63
 16104 028f 12000000 		.4byte	.LVL65
ARM GAS  C:\Users\NIGHDR~1\AppData\Local\Temp\ccrnUt9g.s 			page 295


 16105 0293 0100     		.2byte	0x1
 16106 0295 51       		.byte	0x51
 16107 0296 12000000 		.4byte	.LVL65
 16108 029a 15000000 		.4byte	.LVL66-1
 16109 029e 0100     		.2byte	0x1
 16110 02a0 52       		.byte	0x52
 16111 02a1 15000000 		.4byte	.LVL66-1
 16112 02a5 76000000 		.4byte	.LVL73
 16113 02a9 0100     		.2byte	0x1
 16114 02ab 55       		.byte	0x55
 16115 02ac 76000000 		.4byte	.LVL73
 16116 02b0 A4000000 		.4byte	.LFE0
 16117 02b4 0400     		.2byte	0x4
 16118 02b6 F3       		.byte	0xf3
 16119 02b7 01       		.uleb128 0x1
 16120 02b8 51       		.byte	0x51
 16121 02b9 9F       		.byte	0x9f
 16122 02ba 00000000 		.4byte	0
 16123 02be 00000000 		.4byte	0
 16124              	.LLST19:
 16125 02c2 00000000 		.4byte	.LVL63
 16126 02c6 10000000 		.4byte	.LVL64
 16127 02ca 0100     		.2byte	0x1
 16128 02cc 52       		.byte	0x52
 16129 02cd 10000000 		.4byte	.LVL64
 16130 02d1 7A000000 		.4byte	.LVL74
 16131 02d5 0100     		.2byte	0x1
 16132 02d7 57       		.byte	0x57
 16133 02d8 7A000000 		.4byte	.LVL74
 16134 02dc A4000000 		.4byte	.LFE0
 16135 02e0 0400     		.2byte	0x4
 16136 02e2 F3       		.byte	0xf3
 16137 02e3 01       		.uleb128 0x1
 16138 02e4 52       		.byte	0x52
 16139 02e5 9F       		.byte	0x9f
 16140 02e6 00000000 		.4byte	0
 16141 02ea 00000000 		.4byte	0
 16142              	.LLST20:
 16143 02ee 00000000 		.4byte	.LVL80
 16144 02f2 0E000000 		.4byte	.LVL81
 16145 02f6 0100     		.2byte	0x1
 16146 02f8 50       		.byte	0x50
 16147 02f9 0E000000 		.4byte	.LVL81
 16148 02fd FE000000 		.4byte	.LVL106
 16149 0301 0100     		.2byte	0x1
 16150 0303 54       		.byte	0x54
 16151 0304 FE000000 		.4byte	.LVL106
 16152 0308 FE000000 		.4byte	.LVL107
 16153 030c 0400     		.2byte	0x4
 16154 030e 75       		.byte	0x75
 16155 030f B07F     		.sleb128 -80
 16156 0311 9F       		.byte	0x9f
 16157 0312 FE000000 		.4byte	.LVL107
 16158 0316 FE000000 		.4byte	.LVL108
 16159 031a 0300     		.2byte	0x3
 16160 031c 76       		.byte	0x76
 16161 031d 58       		.sleb128 -40
ARM GAS  C:\Users\NIGHDR~1\AppData\Local\Temp\ccrnUt9g.s 			page 296


 16162 031e 9F       		.byte	0x9f
 16163 031f FE000000 		.4byte	.LVL108
 16164 0323 04010000 		.4byte	.LFE3
 16165 0327 0400     		.2byte	0x4
 16166 0329 F3       		.byte	0xf3
 16167 032a 01       		.uleb128 0x1
 16168 032b 50       		.byte	0x50
 16169 032c 9F       		.byte	0x9f
 16170 032d 00000000 		.4byte	0
 16171 0331 00000000 		.4byte	0
 16172              	.LLST21:
 16173 0335 00000000 		.4byte	.LVL80
 16174 0339 11000000 		.4byte	.LVL82-1
 16175 033d 0100     		.2byte	0x1
 16176 033f 51       		.byte	0x51
 16177 0340 11000000 		.4byte	.LVL82-1
 16178 0344 FE000000 		.4byte	.LVL109
 16179 0348 0100     		.2byte	0x1
 16180 034a 57       		.byte	0x57
 16181 034b FE000000 		.4byte	.LVL109
 16182 034f 04010000 		.4byte	.LFE3
 16183 0353 0400     		.2byte	0x4
 16184 0355 F3       		.byte	0xf3
 16185 0356 01       		.uleb128 0x1
 16186 0357 51       		.byte	0x51
 16187 0358 9F       		.byte	0x9f
 16188 0359 00000000 		.4byte	0
 16189 035d 00000000 		.4byte	0
 16190              	.LLST22:
 16191 0361 00000000 		.4byte	.LVL110
 16192 0365 15000000 		.4byte	.LVL113-1
 16193 0369 0100     		.2byte	0x1
 16194 036b 50       		.byte	0x50
 16195 036c 15000000 		.4byte	.LVL113-1
 16196 0370 96000000 		.4byte	.LVL125
 16197 0374 0100     		.2byte	0x1
 16198 0376 57       		.byte	0x57
 16199 0377 96000000 		.4byte	.LVL125
 16200 037b 98000000 		.4byte	.LFE4
 16201 037f 0400     		.2byte	0x4
 16202 0381 F3       		.byte	0xf3
 16203 0382 01       		.uleb128 0x1
 16204 0383 50       		.byte	0x50
 16205 0384 9F       		.byte	0x9f
 16206 0385 00000000 		.4byte	0
 16207 0389 00000000 		.4byte	0
 16208              	.LLST23:
 16209 038d 00000000 		.4byte	.LVL110
 16210 0391 12000000 		.4byte	.LVL112
 16211 0395 0100     		.2byte	0x1
 16212 0397 51       		.byte	0x51
 16213 0398 12000000 		.4byte	.LVL112
 16214 039c 15000000 		.4byte	.LVL113-1
 16215 03a0 0100     		.2byte	0x1
 16216 03a2 52       		.byte	0x52
 16217 03a3 15000000 		.4byte	.LVL113-1
 16218 03a7 6A000000 		.4byte	.LVL119
ARM GAS  C:\Users\NIGHDR~1\AppData\Local\Temp\ccrnUt9g.s 			page 297


 16219 03ab 0100     		.2byte	0x1
 16220 03ad 54       		.byte	0x54
 16221 03ae 6A000000 		.4byte	.LVL119
 16222 03b2 98000000 		.4byte	.LFE4
 16223 03b6 0400     		.2byte	0x4
 16224 03b8 F3       		.byte	0xf3
 16225 03b9 01       		.uleb128 0x1
 16226 03ba 51       		.byte	0x51
 16227 03bb 9F       		.byte	0x9f
 16228 03bc 00000000 		.4byte	0
 16229 03c0 00000000 		.4byte	0
 16230              	.LLST24:
 16231 03c4 00000000 		.4byte	.LVL110
 16232 03c8 10000000 		.4byte	.LVL111
 16233 03cc 0100     		.2byte	0x1
 16234 03ce 52       		.byte	0x52
 16235 03cf 10000000 		.4byte	.LVL111
 16236 03d3 6E000000 		.4byte	.LVL120
 16237 03d7 0100     		.2byte	0x1
 16238 03d9 55       		.byte	0x55
 16239 03da 6E000000 		.4byte	.LVL120
 16240 03de 98000000 		.4byte	.LFE4
 16241 03e2 0400     		.2byte	0x4
 16242 03e4 F3       		.byte	0xf3
 16243 03e5 01       		.uleb128 0x1
 16244 03e6 52       		.byte	0x52
 16245 03e7 9F       		.byte	0x9f
 16246 03e8 00000000 		.4byte	0
 16247 03ec 00000000 		.4byte	0
 16248              	.LLST25:
 16249 03f0 00000000 		.4byte	.LVL126
 16250 03f4 15000000 		.4byte	.LVL129-1
 16251 03f8 0100     		.2byte	0x1
 16252 03fa 50       		.byte	0x50
 16253 03fb 15000000 		.4byte	.LVL129-1
 16254 03ff 96000000 		.4byte	.LVL141
 16255 0403 0100     		.2byte	0x1
 16256 0405 57       		.byte	0x57
 16257 0406 96000000 		.4byte	.LVL141
 16258 040a 98000000 		.4byte	.LFE5
 16259 040e 0400     		.2byte	0x4
 16260 0410 F3       		.byte	0xf3
 16261 0411 01       		.uleb128 0x1
 16262 0412 50       		.byte	0x50
 16263 0413 9F       		.byte	0x9f
 16264 0414 00000000 		.4byte	0
 16265 0418 00000000 		.4byte	0
 16266              	.LLST26:
 16267 041c 00000000 		.4byte	.LVL126
 16268 0420 12000000 		.4byte	.LVL128
 16269 0424 0100     		.2byte	0x1
 16270 0426 51       		.byte	0x51
 16271 0427 12000000 		.4byte	.LVL128
 16272 042b 15000000 		.4byte	.LVL129-1
 16273 042f 0100     		.2byte	0x1
 16274 0431 52       		.byte	0x52
 16275 0432 15000000 		.4byte	.LVL129-1
ARM GAS  C:\Users\NIGHDR~1\AppData\Local\Temp\ccrnUt9g.s 			page 298


 16276 0436 6A000000 		.4byte	.LVL135
 16277 043a 0100     		.2byte	0x1
 16278 043c 54       		.byte	0x54
 16279 043d 6A000000 		.4byte	.LVL135
 16280 0441 98000000 		.4byte	.LFE5
 16281 0445 0400     		.2byte	0x4
 16282 0447 F3       		.byte	0xf3
 16283 0448 01       		.uleb128 0x1
 16284 0449 51       		.byte	0x51
 16285 044a 9F       		.byte	0x9f
 16286 044b 00000000 		.4byte	0
 16287 044f 00000000 		.4byte	0
 16288              	.LLST27:
 16289 0453 00000000 		.4byte	.LVL126
 16290 0457 10000000 		.4byte	.LVL127
 16291 045b 0100     		.2byte	0x1
 16292 045d 52       		.byte	0x52
 16293 045e 10000000 		.4byte	.LVL127
 16294 0462 6E000000 		.4byte	.LVL136
 16295 0466 0100     		.2byte	0x1
 16296 0468 55       		.byte	0x55
 16297 0469 6E000000 		.4byte	.LVL136
 16298 046d 98000000 		.4byte	.LFE5
 16299 0471 0400     		.2byte	0x4
 16300 0473 F3       		.byte	0xf3
 16301 0474 01       		.uleb128 0x1
 16302 0475 52       		.byte	0x52
 16303 0476 9F       		.byte	0x9f
 16304 0477 00000000 		.4byte	0
 16305 047b 00000000 		.4byte	0
 16306              	.LLST28:
 16307 047f 00000000 		.4byte	.LVL142
 16308 0483 0F000000 		.4byte	.LVL143-1
 16309 0487 0100     		.2byte	0x1
 16310 0489 50       		.byte	0x50
 16311 048a 0F000000 		.4byte	.LVL143-1
 16312 048e 2C000000 		.4byte	.LVL147
 16313 0492 0100     		.2byte	0x1
 16314 0494 54       		.byte	0x54
 16315 0495 2C000000 		.4byte	.LVL147
 16316 0499 2E000000 		.4byte	.LFE6
 16317 049d 0400     		.2byte	0x4
 16318 049f F3       		.byte	0xf3
 16319 04a0 01       		.uleb128 0x1
 16320 04a1 50       		.byte	0x50
 16321 04a2 9F       		.byte	0x9f
 16322 04a3 00000000 		.4byte	0
 16323 04a7 00000000 		.4byte	0
 16324              	.LLST29:
 16325 04ab 00000000 		.4byte	.LVL142
 16326 04af 0F000000 		.4byte	.LVL143-1
 16327 04b3 0100     		.2byte	0x1
 16328 04b5 51       		.byte	0x51
 16329 04b6 0F000000 		.4byte	.LVL143-1
 16330 04ba 1A000000 		.4byte	.LVL144
 16331 04be 0100     		.2byte	0x1
 16332 04c0 55       		.byte	0x55
ARM GAS  C:\Users\NIGHDR~1\AppData\Local\Temp\ccrnUt9g.s 			page 299


 16333 04c1 1A000000 		.4byte	.LVL144
 16334 04c5 2C000000 		.4byte	.LVL148
 16335 04c9 0400     		.2byte	0x4
 16336 04cb 75       		.byte	0x75
 16337 04cc B07F     		.sleb128 -80
 16338 04ce 9F       		.byte	0x9f
 16339 04cf 2C000000 		.4byte	.LVL148
 16340 04d3 2C000000 		.4byte	.LVL149
 16341 04d7 0400     		.2byte	0x4
 16342 04d9 76       		.byte	0x76
 16343 04da 887F     		.sleb128 -120
 16344 04dc 9F       		.byte	0x9f
 16345 04dd 2C000000 		.4byte	.LVL149
 16346 04e1 2E000000 		.4byte	.LFE6
 16347 04e5 0400     		.2byte	0x4
 16348 04e7 F3       		.byte	0xf3
 16349 04e8 01       		.uleb128 0x1
 16350 04e9 51       		.byte	0x51
 16351 04ea 9F       		.byte	0x9f
 16352 04eb 00000000 		.4byte	0
 16353 04ef 00000000 		.4byte	0
 16354              	.LLST30:
 16355 04f3 00000000 		.4byte	.LVL150
 16356 04f7 11000000 		.4byte	.LVL151-1
 16357 04fb 0100     		.2byte	0x1
 16358 04fd 50       		.byte	0x50
 16359 04fe 11000000 		.4byte	.LVL151-1
 16360 0502 46000000 		.4byte	.LVL155
 16361 0506 0100     		.2byte	0x1
 16362 0508 54       		.byte	0x54
 16363 0509 46000000 		.4byte	.LVL155
 16364 050d 48000000 		.4byte	.LFE7
 16365 0511 0400     		.2byte	0x4
 16366 0513 F3       		.byte	0xf3
 16367 0514 01       		.uleb128 0x1
 16368 0515 50       		.byte	0x50
 16369 0516 9F       		.byte	0x9f
 16370 0517 00000000 		.4byte	0
 16371 051b 00000000 		.4byte	0
 16372              	.LLST31:
 16373 051f 00000000 		.4byte	.LVL150
 16374 0523 11000000 		.4byte	.LVL151-1
 16375 0527 0100     		.2byte	0x1
 16376 0529 51       		.byte	0x51
 16377 052a 11000000 		.4byte	.LVL151-1
 16378 052e 46000000 		.4byte	.LVL156
 16379 0532 0100     		.2byte	0x1
 16380 0534 55       		.byte	0x55
 16381 0535 46000000 		.4byte	.LVL156
 16382 0539 46000000 		.4byte	.LVL157
 16383 053d 0400     		.2byte	0x4
 16384 053f 76       		.byte	0x76
 16385 0540 B07F     		.sleb128 -80
 16386 0542 9F       		.byte	0x9f
 16387 0543 46000000 		.4byte	.LVL157
 16388 0547 46000000 		.4byte	.LVL158
 16389 054b 0400     		.2byte	0x4
ARM GAS  C:\Users\NIGHDR~1\AppData\Local\Temp\ccrnUt9g.s 			page 300


 16390 054d 77       		.byte	0x77
 16391 054e 887F     		.sleb128 -120
 16392 0550 9F       		.byte	0x9f
 16393 0551 46000000 		.4byte	.LVL158
 16394 0555 48000000 		.4byte	.LFE7
 16395 0559 0400     		.2byte	0x4
 16396 055b F3       		.byte	0xf3
 16397 055c 01       		.uleb128 0x1
 16398 055d 51       		.byte	0x51
 16399 055e 9F       		.byte	0x9f
 16400 055f 00000000 		.4byte	0
 16401 0563 00000000 		.4byte	0
 16402              	.LLST32:
 16403 0567 00000000 		.4byte	.LVL159
 16404 056b 07000000 		.4byte	.LVL160-1
 16405 056f 0100     		.2byte	0x1
 16406 0571 50       		.byte	0x50
 16407 0572 07000000 		.4byte	.LVL160-1
 16408 0576 18000000 		.4byte	.LVL163
 16409 057a 0100     		.2byte	0x1
 16410 057c 54       		.byte	0x54
 16411 057d 18000000 		.4byte	.LVL163
 16412 0581 1A000000 		.4byte	.LFE8
 16413 0585 0400     		.2byte	0x4
 16414 0587 F3       		.byte	0xf3
 16415 0588 01       		.uleb128 0x1
 16416 0589 50       		.byte	0x50
 16417 058a 9F       		.byte	0x9f
 16418 058b 00000000 		.4byte	0
 16419 058f 00000000 		.4byte	0
 16420              	.LLST33:
 16421 0593 00000000 		.4byte	.LVL164
 16422 0597 0B000000 		.4byte	.LVL165-1
 16423 059b 0100     		.2byte	0x1
 16424 059d 50       		.byte	0x50
 16425 059e 0B000000 		.4byte	.LVL165-1
 16426 05a2 76000000 		.4byte	.LVL174
 16427 05a6 0100     		.2byte	0x1
 16428 05a8 54       		.byte	0x54
 16429 05a9 76000000 		.4byte	.LVL174
 16430 05ad 76000000 		.4byte	.LVL175
 16431 05b1 0300     		.2byte	0x3
 16432 05b3 76       		.byte	0x76
 16433 05b4 58       		.sleb128 -40
 16434 05b5 9F       		.byte	0x9f
 16435 05b6 76000000 		.4byte	.LVL175
 16436 05ba 78000000 		.4byte	.LFE9
 16437 05be 0400     		.2byte	0x4
 16438 05c0 F3       		.byte	0xf3
 16439 05c1 01       		.uleb128 0x1
 16440 05c2 50       		.byte	0x50
 16441 05c3 9F       		.byte	0x9f
 16442 05c4 00000000 		.4byte	0
 16443 05c8 00000000 		.4byte	0
 16444              	.LLST34:
 16445 05cc 00000000 		.4byte	.LVL164
 16446 05d0 0B000000 		.4byte	.LVL165-1
ARM GAS  C:\Users\NIGHDR~1\AppData\Local\Temp\ccrnUt9g.s 			page 301


 16447 05d4 0100     		.2byte	0x1
 16448 05d6 51       		.byte	0x51
 16449 05d7 0B000000 		.4byte	.LVL165-1
 16450 05db 76000000 		.4byte	.LVL176
 16451 05df 0100     		.2byte	0x1
 16452 05e1 57       		.byte	0x57
 16453 05e2 76000000 		.4byte	.LVL176
 16454 05e6 78000000 		.4byte	.LFE9
 16455 05ea 0400     		.2byte	0x4
 16456 05ec F3       		.byte	0xf3
 16457 05ed 01       		.uleb128 0x1
 16458 05ee 51       		.byte	0x51
 16459 05ef 9F       		.byte	0x9f
 16460 05f0 00000000 		.4byte	0
 16461 05f4 00000000 		.4byte	0
 16462              	.LLST35:
 16463 05f8 00000000 		.4byte	.LVL177
 16464 05fc 07000000 		.4byte	.LVL178-1
 16465 0600 0100     		.2byte	0x1
 16466 0602 50       		.byte	0x50
 16467 0603 07000000 		.4byte	.LVL178-1
 16468 0607 20000000 		.4byte	.LVL182
 16469 060b 0100     		.2byte	0x1
 16470 060d 54       		.byte	0x54
 16471 060e 20000000 		.4byte	.LVL182
 16472 0612 22000000 		.4byte	.LFE10
 16473 0616 0400     		.2byte	0x4
 16474 0618 F3       		.byte	0xf3
 16475 0619 01       		.uleb128 0x1
 16476 061a 50       		.byte	0x50
 16477 061b 9F       		.byte	0x9f
 16478 061c 00000000 		.4byte	0
 16479 0620 00000000 		.4byte	0
 16480              	.LLST36:
 16481 0624 00000000 		.4byte	.LVL183
 16482 0628 11000000 		.4byte	.LVL185-1
 16483 062c 0100     		.2byte	0x1
 16484 062e 50       		.byte	0x50
 16485 062f 11000000 		.4byte	.LVL185-1
 16486 0633 3A000000 		.4byte	.LVL190
 16487 0637 0100     		.2byte	0x1
 16488 0639 55       		.byte	0x55
 16489 063a 3A000000 		.4byte	.LVL190
 16490 063e 40000000 		.4byte	.LFE12
 16491 0642 0400     		.2byte	0x4
 16492 0644 F3       		.byte	0xf3
 16493 0645 01       		.uleb128 0x1
 16494 0646 50       		.byte	0x50
 16495 0647 9F       		.byte	0x9f
 16496 0648 00000000 		.4byte	0
 16497 064c 00000000 		.4byte	0
 16498              	.LLST37:
 16499 0650 00000000 		.4byte	.LVL183
 16500 0654 0E000000 		.4byte	.LVL184
 16501 0658 0100     		.2byte	0x1
 16502 065a 51       		.byte	0x51
 16503 065b 0E000000 		.4byte	.LVL184
ARM GAS  C:\Users\NIGHDR~1\AppData\Local\Temp\ccrnUt9g.s 			page 302


 16504 065f 11000000 		.4byte	.LVL185-1
 16505 0663 0100     		.2byte	0x1
 16506 0665 52       		.byte	0x52
 16507 0666 11000000 		.4byte	.LVL185-1
 16508 066a 3A000000 		.4byte	.LVL189
 16509 066e 0100     		.2byte	0x1
 16510 0670 54       		.byte	0x54
 16511 0671 3A000000 		.4byte	.LVL189
 16512 0675 3A000000 		.4byte	.LVL191
 16513 0679 0300     		.2byte	0x3
 16514 067b 76       		.byte	0x76
 16515 067c 58       		.sleb128 -40
 16516 067d 9F       		.byte	0x9f
 16517 067e 3A000000 		.4byte	.LVL191
 16518 0682 40000000 		.4byte	.LFE12
 16519 0686 0400     		.2byte	0x4
 16520 0688 F3       		.byte	0xf3
 16521 0689 01       		.uleb128 0x1
 16522 068a 51       		.byte	0x51
 16523 068b 9F       		.byte	0x9f
 16524 068c 00000000 		.4byte	0
 16525 0690 00000000 		.4byte	0
 16526              	.LLST38:
 16527 0694 00000000 		.4byte	.LVL192
 16528 0698 09000000 		.4byte	.LVL193-1
 16529 069c 0100     		.2byte	0x1
 16530 069e 50       		.byte	0x50
 16531 069f 09000000 		.4byte	.LVL193-1
 16532 06a3 22000000 		.4byte	.LVL196
 16533 06a7 0100     		.2byte	0x1
 16534 06a9 54       		.byte	0x54
 16535 06aa 22000000 		.4byte	.LVL196
 16536 06ae 24000000 		.4byte	.LFE13
 16537 06b2 0400     		.2byte	0x4
 16538 06b4 F3       		.byte	0xf3
 16539 06b5 01       		.uleb128 0x1
 16540 06b6 50       		.byte	0x50
 16541 06b7 9F       		.byte	0x9f
 16542 06b8 00000000 		.4byte	0
 16543 06bc 00000000 		.4byte	0
 16544              	.LLST39:
 16545 06c0 00000000 		.4byte	.LVL192
 16546 06c4 09000000 		.4byte	.LVL193-1
 16547 06c8 0100     		.2byte	0x1
 16548 06ca 51       		.byte	0x51
 16549 06cb 09000000 		.4byte	.LVL193-1
 16550 06cf 22000000 		.4byte	.LVL197
 16551 06d3 0100     		.2byte	0x1
 16552 06d5 55       		.byte	0x55
 16553 06d6 22000000 		.4byte	.LVL197
 16554 06da 24000000 		.4byte	.LFE13
 16555 06de 0400     		.2byte	0x4
 16556 06e0 F3       		.byte	0xf3
 16557 06e1 01       		.uleb128 0x1
 16558 06e2 51       		.byte	0x51
 16559 06e3 9F       		.byte	0x9f
 16560 06e4 00000000 		.4byte	0
ARM GAS  C:\Users\NIGHDR~1\AppData\Local\Temp\ccrnUt9g.s 			page 303


 16561 06e8 00000000 		.4byte	0
 16562              	.LLST40:
 16563 06ec 00000000 		.4byte	.LVL198
 16564 06f0 08000000 		.4byte	.LVL199
 16565 06f4 0100     		.2byte	0x1
 16566 06f6 50       		.byte	0x50
 16567 06f7 08000000 		.4byte	.LVL199
 16568 06fb 16000000 		.4byte	.LVL202
 16569 06ff 0100     		.2byte	0x1
 16570 0701 54       		.byte	0x54
 16571 0702 16000000 		.4byte	.LVL202
 16572 0706 18000000 		.4byte	.LFE11
 16573 070a 0400     		.2byte	0x4
 16574 070c F3       		.byte	0xf3
 16575 070d 01       		.uleb128 0x1
 16576 070e 50       		.byte	0x50
 16577 070f 9F       		.byte	0x9f
 16578 0710 00000000 		.4byte	0
 16579 0714 00000000 		.4byte	0
 16580              	.LLST41:
 16581 0718 00000000 		.4byte	.LVL198
 16582 071c 0B000000 		.4byte	.LVL200-1
 16583 0720 0100     		.2byte	0x1
 16584 0722 51       		.byte	0x51
 16585 0723 0B000000 		.4byte	.LVL200-1
 16586 0727 18000000 		.4byte	.LFE11
 16587 072b 0400     		.2byte	0x4
 16588 072d F3       		.byte	0xf3
 16589 072e 01       		.uleb128 0x1
 16590 072f 51       		.byte	0x51
 16591 0730 9F       		.byte	0x9f
 16592 0731 00000000 		.4byte	0
 16593 0735 00000000 		.4byte	0
 16594              	.LLST42:
 16595 0739 00000000 		.4byte	.LVL203
 16596 073d 0C000000 		.4byte	.LVL205
 16597 0741 0100     		.2byte	0x1
 16598 0743 50       		.byte	0x50
 16599 0744 0C000000 		.4byte	.LVL205
 16600 0748 3E000000 		.4byte	.LVL212
 16601 074c 0100     		.2byte	0x1
 16602 074e 55       		.byte	0x55
 16603 074f 3E000000 		.4byte	.LVL212
 16604 0753 40000000 		.4byte	.LFE14
 16605 0757 0400     		.2byte	0x4
 16606 0759 F3       		.byte	0xf3
 16607 075a 01       		.uleb128 0x1
 16608 075b 50       		.byte	0x50
 16609 075c 9F       		.byte	0x9f
 16610 075d 00000000 		.4byte	0
 16611 0761 00000000 		.4byte	0
 16612              	.LLST43:
 16613 0765 00000000 		.4byte	.LVL203
 16614 0769 0A000000 		.4byte	.LVL204
 16615 076d 0100     		.2byte	0x1
 16616 076f 51       		.byte	0x51
 16617 0770 0A000000 		.4byte	.LVL204
ARM GAS  C:\Users\NIGHDR~1\AppData\Local\Temp\ccrnUt9g.s 			page 304


 16618 0774 3E000000 		.4byte	.LVL211
 16619 0778 0100     		.2byte	0x1
 16620 077a 54       		.byte	0x54
 16621 077b 3E000000 		.4byte	.LVL211
 16622 077f 40000000 		.4byte	.LFE14
 16623 0783 0400     		.2byte	0x4
 16624 0785 F3       		.byte	0xf3
 16625 0786 01       		.uleb128 0x1
 16626 0787 51       		.byte	0x51
 16627 0788 9F       		.byte	0x9f
 16628 0789 00000000 		.4byte	0
 16629 078d 00000000 		.4byte	0
 16630              	.LLST44:
 16631 0791 00000000 		.4byte	.LVL213
 16632 0795 0A000000 		.4byte	.LVL215
 16633 0799 0100     		.2byte	0x1
 16634 079b 50       		.byte	0x50
 16635 079c 0A000000 		.4byte	.LVL215
 16636 07a0 EE000000 		.4byte	.LVL244
 16637 07a4 0100     		.2byte	0x1
 16638 07a6 54       		.byte	0x54
 16639 07a7 EE000000 		.4byte	.LVL244
 16640 07ab F0000000 		.4byte	.LFE19
 16641 07af 0400     		.2byte	0x4
 16642 07b1 F3       		.byte	0xf3
 16643 07b2 01       		.uleb128 0x1
 16644 07b3 50       		.byte	0x50
 16645 07b4 9F       		.byte	0x9f
 16646 07b5 00000000 		.4byte	0
 16647 07b9 00000000 		.4byte	0
 16648              	.LLST45:
 16649 07bd 00000000 		.4byte	.LVL213
 16650 07c1 28000000 		.4byte	.LVL218
 16651 07c5 0100     		.2byte	0x1
 16652 07c7 51       		.byte	0x51
 16653 07c8 28000000 		.4byte	.LVL218
 16654 07cc F0000000 		.4byte	.LFE19
 16655 07d0 0400     		.2byte	0x4
 16656 07d2 F3       		.byte	0xf3
 16657 07d3 01       		.uleb128 0x1
 16658 07d4 51       		.byte	0x51
 16659 07d5 9F       		.byte	0x9f
 16660 07d6 00000000 		.4byte	0
 16661 07da 00000000 		.4byte	0
 16662              	.LLST46:
 16663 07de 28000000 		.4byte	.LVL218
 16664 07e2 2E000000 		.4byte	.LVL219
 16665 07e6 0100     		.2byte	0x1
 16666 07e8 53       		.byte	0x53
 16667 07e9 36000000 		.4byte	.LVL220
 16668 07ed 4C000000 		.4byte	.LVL224
 16669 07f1 0100     		.2byte	0x1
 16670 07f3 53       		.byte	0x53
 16671 07f4 00000000 		.4byte	0
 16672 07f8 00000000 		.4byte	0
 16673              	.LLST47:
 16674 07fc 06000000 		.4byte	.LVL214
ARM GAS  C:\Users\NIGHDR~1\AppData\Local\Temp\ccrnUt9g.s 			page 305


 16675 0800 0A000000 		.4byte	.LVL215
 16676 0804 0200     		.2byte	0x2
 16677 0806 30       		.byte	0x30
 16678 0807 9F       		.byte	0x9f
 16679 0808 0A000000 		.4byte	.LVL215
 16680 080c 26000000 		.4byte	.LVL217
 16681 0810 0100     		.2byte	0x1
 16682 0812 53       		.byte	0x53
 16683 0813 28000000 		.4byte	.LVL218
 16684 0817 48000000 		.4byte	.LVL223
 16685 081b 0100     		.2byte	0x1
 16686 081d 52       		.byte	0x52
 16687 081e 54000000 		.4byte	.LVL225
 16688 0822 58000000 		.4byte	.LVL226
 16689 0826 0200     		.2byte	0x2
 16690 0828 31       		.byte	0x31
 16691 0829 9F       		.byte	0x9f
 16692 082a 58000000 		.4byte	.LVL226
 16693 082e C0000000 		.4byte	.LVL238
 16694 0832 0100     		.2byte	0x1
 16695 0834 55       		.byte	0x55
 16696 0835 C0000000 		.4byte	.LVL238
 16697 0839 C4000000 		.4byte	.LVL239
 16698 083d 0200     		.2byte	0x2
 16699 083f 30       		.byte	0x30
 16700 0840 9F       		.byte	0x9f
 16701 0841 C4000000 		.4byte	.LVL239
 16702 0845 EE000000 		.4byte	.LVL245
 16703 0849 0100     		.2byte	0x1
 16704 084b 55       		.byte	0x55
 16705 084c 00000000 		.4byte	0
 16706 0850 00000000 		.4byte	0
 16707              	.LLST48:
 16708 0854 00000000 		.4byte	.LVL246
 16709 0858 15000000 		.4byte	.LVL249-1
 16710 085c 0100     		.2byte	0x1
 16711 085e 50       		.byte	0x50
 16712 085f 15000000 		.4byte	.LVL249-1
 16713 0863 A2000000 		.4byte	.LVL262
 16714 0867 0100     		.2byte	0x1
 16715 0869 54       		.byte	0x54
 16716 086a A2000000 		.4byte	.LVL262
 16717 086e A4000000 		.4byte	.LFE20
 16718 0872 0400     		.2byte	0x4
 16719 0874 F3       		.byte	0xf3
 16720 0875 01       		.uleb128 0x1
 16721 0876 50       		.byte	0x50
 16722 0877 9F       		.byte	0x9f
 16723 0878 00000000 		.4byte	0
 16724 087c 00000000 		.4byte	0
 16725              	.LLST49:
 16726 0880 00000000 		.4byte	.LVL246
 16727 0884 12000000 		.4byte	.LVL248
 16728 0888 0100     		.2byte	0x1
 16729 088a 51       		.byte	0x51
 16730 088b 12000000 		.4byte	.LVL248
 16731 088f 15000000 		.4byte	.LVL249-1
ARM GAS  C:\Users\NIGHDR~1\AppData\Local\Temp\ccrnUt9g.s 			page 306


 16732 0893 0100     		.2byte	0x1
 16733 0895 52       		.byte	0x52
 16734 0896 15000000 		.4byte	.LVL249-1
 16735 089a 76000000 		.4byte	.LVL256
 16736 089e 0100     		.2byte	0x1
 16737 08a0 55       		.byte	0x55
 16738 08a1 76000000 		.4byte	.LVL256
 16739 08a5 A4000000 		.4byte	.LFE20
 16740 08a9 0400     		.2byte	0x4
 16741 08ab F3       		.byte	0xf3
 16742 08ac 01       		.uleb128 0x1
 16743 08ad 51       		.byte	0x51
 16744 08ae 9F       		.byte	0x9f
 16745 08af 00000000 		.4byte	0
 16746 08b3 00000000 		.4byte	0
 16747              	.LLST50:
 16748 08b7 00000000 		.4byte	.LVL246
 16749 08bb 10000000 		.4byte	.LVL247
 16750 08bf 0100     		.2byte	0x1
 16751 08c1 52       		.byte	0x52
 16752 08c2 10000000 		.4byte	.LVL247
 16753 08c6 7A000000 		.4byte	.LVL257
 16754 08ca 0100     		.2byte	0x1
 16755 08cc 57       		.byte	0x57
 16756 08cd 7A000000 		.4byte	.LVL257
 16757 08d1 A4000000 		.4byte	.LFE20
 16758 08d5 0400     		.2byte	0x4
 16759 08d7 F3       		.byte	0xf3
 16760 08d8 01       		.uleb128 0x1
 16761 08d9 52       		.byte	0x52
 16762 08da 9F       		.byte	0x9f
 16763 08db 00000000 		.4byte	0
 16764 08df 00000000 		.4byte	0
 16765              	.LLST51:
 16766 08e3 00000000 		.4byte	.LVL263
 16767 08e7 0E000000 		.4byte	.LVL264
 16768 08eb 0100     		.2byte	0x1
 16769 08ed 50       		.byte	0x50
 16770 08ee 0E000000 		.4byte	.LVL264
 16771 08f2 28020000 		.4byte	.LVL307
 16772 08f6 0100     		.2byte	0x1
 16773 08f8 55       		.byte	0x55
 16774 08f9 28020000 		.4byte	.LVL307
 16775 08fd 34020000 		.4byte	.LFE2
 16776 0901 0400     		.2byte	0x4
 16777 0903 F3       		.byte	0xf3
 16778 0904 01       		.uleb128 0x1
 16779 0905 50       		.byte	0x50
 16780 0906 9F       		.byte	0x9f
 16781 0907 00000000 		.4byte	0
 16782 090b 00000000 		.4byte	0
 16783              	.LLST52:
 16784 090f 00000000 		.4byte	.LVL263
 16785 0913 15000000 		.4byte	.LVL265-1
 16786 0917 0100     		.2byte	0x1
 16787 0919 51       		.byte	0x51
 16788 091a 15000000 		.4byte	.LVL265-1
ARM GAS  C:\Users\NIGHDR~1\AppData\Local\Temp\ccrnUt9g.s 			page 307


 16789 091e 34020000 		.4byte	.LFE2
 16790 0922 0400     		.2byte	0x4
 16791 0924 F3       		.byte	0xf3
 16792 0925 01       		.uleb128 0x1
 16793 0926 51       		.byte	0x51
 16794 0927 9F       		.byte	0x9f
 16795 0928 00000000 		.4byte	0
 16796 092c 00000000 		.4byte	0
 16797              	.LLST53:
 16798 0930 00000000 		.4byte	.LVL263
 16799 0934 15000000 		.4byte	.LVL265-1
 16800 0938 0100     		.2byte	0x1
 16801 093a 52       		.byte	0x52
 16802 093b 15000000 		.4byte	.LVL265-1
 16803 093f 18010000 		.4byte	.LVL292
 16804 0943 0100     		.2byte	0x1
 16805 0945 54       		.byte	0x54
 16806 0946 18010000 		.4byte	.LVL292
 16807 094a 34020000 		.4byte	.LFE2
 16808 094e 0400     		.2byte	0x4
 16809 0950 F3       		.byte	0xf3
 16810 0951 01       		.uleb128 0x1
 16811 0952 52       		.byte	0x52
 16812 0953 9F       		.byte	0x9f
 16813 0954 00000000 		.4byte	0
 16814 0958 00000000 		.4byte	0
 16815              	.LLST54:
 16816 095c 00000000 		.4byte	.LVL263
 16817 0960 15000000 		.4byte	.LVL265-1
 16818 0964 0100     		.2byte	0x1
 16819 0966 53       		.byte	0x53
 16820 0967 15000000 		.4byte	.LVL265-1
 16821 096b 28020000 		.4byte	.LVL308
 16822 096f 0100     		.2byte	0x1
 16823 0971 56       		.byte	0x56
 16824 0972 28020000 		.4byte	.LVL308
 16825 0976 34020000 		.4byte	.LFE2
 16826 097a 0400     		.2byte	0x4
 16827 097c F3       		.byte	0xf3
 16828 097d 01       		.uleb128 0x1
 16829 097e 53       		.byte	0x53
 16830 097f 9F       		.byte	0x9f
 16831 0980 00000000 		.4byte	0
 16832 0984 00000000 		.4byte	0
 16833              	.LLST55:
 16834 0988 16010000 		.4byte	.LVL291
 16835 098c 1A010000 		.4byte	.LVL293
 16836 0990 0300     		.2byte	0x3
 16837 0992 08       		.byte	0x8
 16838 0993 FF       		.byte	0xff
 16839 0994 9F       		.byte	0x9f
 16840 0995 1A010000 		.4byte	.LVL293
 16841 0999 28020000 		.4byte	.LVL306
 16842 099d 0100     		.2byte	0x1
 16843 099f 54       		.byte	0x54
 16844 09a0 00000000 		.4byte	0
 16845 09a4 00000000 		.4byte	0
ARM GAS  C:\Users\NIGHDR~1\AppData\Local\Temp\ccrnUt9g.s 			page 308


 16846              	.LLST56:
 16847 09a8 00000000 		.4byte	.LVL309
 16848 09ac 0C000000 		.4byte	.LVL311
 16849 09b0 0100     		.2byte	0x1
 16850 09b2 50       		.byte	0x50
 16851 09b3 0C000000 		.4byte	.LVL311
 16852 09b7 3E000000 		.4byte	.LVL318
 16853 09bb 0100     		.2byte	0x1
 16854 09bd 55       		.byte	0x55
 16855 09be 3E000000 		.4byte	.LVL318
 16856 09c2 40000000 		.4byte	.LFE21
 16857 09c6 0400     		.2byte	0x4
 16858 09c8 F3       		.byte	0xf3
 16859 09c9 01       		.uleb128 0x1
 16860 09ca 50       		.byte	0x50
 16861 09cb 9F       		.byte	0x9f
 16862 09cc 00000000 		.4byte	0
 16863 09d0 00000000 		.4byte	0
 16864              	.LLST57:
 16865 09d4 00000000 		.4byte	.LVL309
 16866 09d8 0A000000 		.4byte	.LVL310
 16867 09dc 0100     		.2byte	0x1
 16868 09de 51       		.byte	0x51
 16869 09df 0A000000 		.4byte	.LVL310
 16870 09e3 3E000000 		.4byte	.LVL317
 16871 09e7 0100     		.2byte	0x1
 16872 09e9 54       		.byte	0x54
 16873 09ea 3E000000 		.4byte	.LVL317
 16874 09ee 40000000 		.4byte	.LFE21
 16875 09f2 0400     		.2byte	0x4
 16876 09f4 F3       		.byte	0xf3
 16877 09f5 01       		.uleb128 0x1
 16878 09f6 51       		.byte	0x51
 16879 09f7 9F       		.byte	0x9f
 16880 09f8 00000000 		.4byte	0
 16881 09fc 00000000 		.4byte	0
 16882              		.section	.debug_aranges,"",%progbits
 16883 0000 C4000000 		.4byte	0xc4
 16884 0004 0200     		.2byte	0x2
 16885 0006 00000000 		.4byte	.Ldebug_info0
 16886 000a 04       		.byte	0x4
 16887 000b 00       		.byte	0
 16888 000c 0000     		.2byte	0
 16889 000e 0000     		.2byte	0
 16890 0010 00000000 		.4byte	.LFB1
 16891 0014 98000000 		.4byte	.LFE1-.LFB1
 16892 0018 00000000 		.4byte	.LFB15
 16893 001c 1A000000 		.4byte	.LFE15-.LFB15
 16894 0020 00000000 		.4byte	.LFB16
 16895 0024 04000000 		.4byte	.LFE16-.LFB16
 16896 0028 00000000 		.4byte	.LFB17
 16897 002c 2A000000 		.4byte	.LFE17-.LFB17
 16898 0030 00000000 		.4byte	.LFB18
 16899 0034 48010000 		.4byte	.LFE18-.LFB18
 16900 0038 00000000 		.4byte	.LFB0
 16901 003c A4000000 		.4byte	.LFE0-.LFB0
 16902 0040 00000000 		.4byte	.LFB3
ARM GAS  C:\Users\NIGHDR~1\AppData\Local\Temp\ccrnUt9g.s 			page 309


 16903 0044 04010000 		.4byte	.LFE3-.LFB3
 16904 0048 00000000 		.4byte	.LFB4
 16905 004c 98000000 		.4byte	.LFE4-.LFB4
 16906 0050 00000000 		.4byte	.LFB5
 16907 0054 98000000 		.4byte	.LFE5-.LFB5
 16908 0058 00000000 		.4byte	.LFB6
 16909 005c 2E000000 		.4byte	.LFE6-.LFB6
 16910 0060 00000000 		.4byte	.LFB7
 16911 0064 48000000 		.4byte	.LFE7-.LFB7
 16912 0068 00000000 		.4byte	.LFB8
 16913 006c 1A000000 		.4byte	.LFE8-.LFB8
 16914 0070 00000000 		.4byte	.LFB9
 16915 0074 78000000 		.4byte	.LFE9-.LFB9
 16916 0078 00000000 		.4byte	.LFB10
 16917 007c 22000000 		.4byte	.LFE10-.LFB10
 16918 0080 00000000 		.4byte	.LFB12
 16919 0084 40000000 		.4byte	.LFE12-.LFB12
 16920 0088 00000000 		.4byte	.LFB13
 16921 008c 24000000 		.4byte	.LFE13-.LFB13
 16922 0090 00000000 		.4byte	.LFB11
 16923 0094 18000000 		.4byte	.LFE11-.LFB11
 16924 0098 00000000 		.4byte	.LFB14
 16925 009c 40000000 		.4byte	.LFE14-.LFB14
 16926 00a0 00000000 		.4byte	.LFB19
 16927 00a4 F0000000 		.4byte	.LFE19-.LFB19
 16928 00a8 00000000 		.4byte	.LFB20
 16929 00ac A4000000 		.4byte	.LFE20-.LFB20
 16930 00b0 00000000 		.4byte	.LFB2
 16931 00b4 34020000 		.4byte	.LFE2-.LFB2
 16932 00b8 00000000 		.4byte	.LFB21
 16933 00bc 40000000 		.4byte	.LFE21-.LFB21
 16934 00c0 00000000 		.4byte	0
 16935 00c4 00000000 		.4byte	0
 16936              		.section	.debug_ranges,"",%progbits
 16937              	.Ldebug_ranges0:
 16938 0000 00000000 		.4byte	.LFB1
 16939 0004 98000000 		.4byte	.LFE1
 16940 0008 00000000 		.4byte	.LFB15
 16941 000c 1A000000 		.4byte	.LFE15
 16942 0010 00000000 		.4byte	.LFB16
 16943 0014 04000000 		.4byte	.LFE16
 16944 0018 00000000 		.4byte	.LFB17
 16945 001c 2A000000 		.4byte	.LFE17
 16946 0020 00000000 		.4byte	.LFB18
 16947 0024 48010000 		.4byte	.LFE18
 16948 0028 00000000 		.4byte	.LFB0
 16949 002c A4000000 		.4byte	.LFE0
 16950 0030 00000000 		.4byte	.LFB3
 16951 0034 04010000 		.4byte	.LFE3
 16952 0038 00000000 		.4byte	.LFB4
 16953 003c 98000000 		.4byte	.LFE4
 16954 0040 00000000 		.4byte	.LFB5
 16955 0044 98000000 		.4byte	.LFE5
 16956 0048 00000000 		.4byte	.LFB6
 16957 004c 2E000000 		.4byte	.LFE6
 16958 0050 00000000 		.4byte	.LFB7
 16959 0054 48000000 		.4byte	.LFE7
ARM GAS  C:\Users\NIGHDR~1\AppData\Local\Temp\ccrnUt9g.s 			page 310


 16960 0058 00000000 		.4byte	.LFB8
 16961 005c 1A000000 		.4byte	.LFE8
 16962 0060 00000000 		.4byte	.LFB9
 16963 0064 78000000 		.4byte	.LFE9
 16964 0068 00000000 		.4byte	.LFB10
 16965 006c 22000000 		.4byte	.LFE10
 16966 0070 00000000 		.4byte	.LFB12
 16967 0074 40000000 		.4byte	.LFE12
 16968 0078 00000000 		.4byte	.LFB13
 16969 007c 24000000 		.4byte	.LFE13
 16970 0080 00000000 		.4byte	.LFB11
 16971 0084 18000000 		.4byte	.LFE11
 16972 0088 00000000 		.4byte	.LFB14
 16973 008c 40000000 		.4byte	.LFE14
 16974 0090 00000000 		.4byte	.LFB19
 16975 0094 F0000000 		.4byte	.LFE19
 16976 0098 00000000 		.4byte	.LFB20
 16977 009c A4000000 		.4byte	.LFE20
 16978 00a0 00000000 		.4byte	.LFB2
 16979 00a4 34020000 		.4byte	.LFE2
 16980 00a8 00000000 		.4byte	.LFB21
 16981 00ac 40000000 		.4byte	.LFE21
 16982 00b0 00000000 		.4byte	0
 16983 00b4 00000000 		.4byte	0
 16984              		.section	.debug_line,"",%progbits
 16985              	.Ldebug_line0:
 16986 0000 58040000 		.section	.debug_str,"MS",%progbits,1
 16986      02003A01 
 16986      00000201 
 16986      FB0E0D00 
 16986      01010101 
 16987              	.LASF19:
 16988 0000 78793264 		.ascii	"xy2d\000"
 16988      00
 16989              	.LASF12:
 16990 0005 75696E74 		.ascii	"uint64_t\000"
 16990      36345F74 
 16990      00
 16991              	.LASF2:
 16992 000e 73686F72 		.ascii	"short int\000"
 16992      7420696E 
 16992      7400
 16993              	.LASF13:
 16994 0018 73697A65 		.ascii	"sizetype\000"
 16994      74797065 
 16994      00
 16995              	.LASF21:
 16996 0021 59706C75 		.ascii	"YplusX\000"
 16996      735800
 16997              	.LASF34:
 16998 0028 67655F6D 		.ascii	"ge_madd\000"
 16998      61646400 
 16999              	.LASF28:
 17000 0030 73656C65 		.ascii	"select\000"
 17000      637400
 17001              	.LASF69:
 17002 0037 66655F69 		.ascii	"fe_invert\000"
ARM GAS  C:\Users\NIGHDR~1\AppData\Local\Temp\ccrnUt9g.s 			page 311


 17002      6E766572 
 17002      7400
 17003              	.LASF62:
 17004 0041 66655F6D 		.ascii	"fe_mul\000"
 17004      756C00
 17005              	.LASF68:
 17006 0048 66655F73 		.ascii	"fe_sq2\000"
 17006      713200
 17007              	.LASF71:
 17008 004f 474E5520 		.ascii	"GNU C11 5.4.1 20160609 (release) [ARM/embedded-5-br"
 17008      43313120 
 17008      352E342E 
 17008      31203230 
 17008      31363036 
 17009 0082 616E6368 		.ascii	"anch revision 237715] -mcpu=cortex-m0 -mthumb -g -O"
 17009      20726576 
 17009      6973696F 
 17009      6E203233 
 17009      37373135 
 17010 00b5 67202D66 		.ascii	"g -ffunction-sections -ffat-lto-objects\000"
 17010      66756E63 
 17010      74696F6E 
 17010      2D736563 
 17010      74696F6E 
 17011              	.LASF65:
 17012 00dd 66655F70 		.ascii	"fe_pow22523\000"
 17012      6F773232 
 17012      35323300 
 17013              	.LASF37:
 17014 00e9 67655F70 		.ascii	"ge_p1p1_to_p3\000"
 17014      3170315F 
 17014      746F5F70 
 17014      3300
 17015              	.LASF31:
 17016 00f7 62616273 		.ascii	"babs\000"
 17016      00
 17017              	.LASF60:
 17018 00fc 66655F61 		.ascii	"fe_add\000"
 17018      646400
 17019              	.LASF43:
 17020 0103 67655F70 		.ascii	"ge_p3_dbl\000"
 17020      335F6462 
 17020      6C00
 17021              	.LASF6:
 17022 010d 6C6F6E67 		.ascii	"long long int\000"
 17022      206C6F6E 
 17022      6720696E 
 17022      7400
 17023              	.LASF72:
 17024 011b 67652E63 		.ascii	"ge.c\000"
 17024      00
 17025              	.LASF55:
 17026 0120 66655F63 		.ascii	"fe_cmov\000"
 17026      6D6F7600 
 17027              	.LASF74:
 17028 0128 67655F66 		.ascii	"ge_frombytes_negate_vartime\000"
 17028      726F6D62 
ARM GAS  C:\Users\NIGHDR~1\AppData\Local\Temp\ccrnUt9g.s 			page 312


 17028      79746573 
 17028      5F6E6567 
 17028      6174655F 
 17029              	.LASF4:
 17030 0144 6C6F6E67 		.ascii	"long int\000"
 17030      20696E74 
 17030      00
 17031              	.LASF18:
 17032 014d 796D696E 		.ascii	"yminusx\000"
 17032      75737800 
 17033              	.LASF23:
 17034 0155 67655F63 		.ascii	"ge_cached\000"
 17034      61636865 
 17034      6400
 17035              	.LASF41:
 17036 015f 67655F70 		.ascii	"ge_p3_to_cached\000"
 17036      335F746F 
 17036      5F636163 
 17036      68656400 
 17037              	.LASF14:
 17038 016f 67655F70 		.ascii	"ge_p2\000"
 17038      3200
 17039              	.LASF15:
 17040 0175 67655F70 		.ascii	"ge_p3\000"
 17040      3300
 17041              	.LASF16:
 17042 017b 67655F70 		.ascii	"ge_p1p1\000"
 17042      31703100 
 17043              	.LASF70:
 17044 0183 66655F74 		.ascii	"fe_tobytes\000"
 17044      6F627974 
 17044      657300
 17045              	.LASF61:
 17046 018e 66655F73 		.ascii	"fe_sub\000"
 17046      756200
 17047              	.LASF46:
 17048 0195 67655F73 		.ascii	"ge_scalarmult_base\000"
 17048      63616C61 
 17048      726D756C 
 17048      745F6261 
 17048      736500
 17049              	.LASF1:
 17050 01a8 756E7369 		.ascii	"unsigned char\000"
 17050      676E6564 
 17050      20636861 
 17050      7200
 17051              	.LASF29:
 17052 01b6 6D696E75 		.ascii	"minust\000"
 17052      737400
 17053              	.LASF73:
 17054 01bd 433A5C55 		.ascii	"C:\\Users\\Nighdragon\\Documents\\GitHub\\ectf\\CAR"
 17054      73657273 
 17054      5C4E6967 
 17054      68647261 
 17054      676F6E5C 
 17055 01ea 442E6379 		.ascii	"D.cydsn\000"
 17055      64736E00 
ARM GAS  C:\Users\NIGHDR~1\AppData\Local\Temp\ccrnUt9g.s 			page 313


 17056              	.LASF0:
 17057 01f2 7369676E 		.ascii	"signed char\000"
 17057      65642063 
 17057      68617200 
 17058              	.LASF9:
 17059 01fe 6C6F6E67 		.ascii	"long long unsigned int\000"
 17059      206C6F6E 
 17059      6720756E 
 17059      7369676E 
 17059      65642069 
 17060              	.LASF10:
 17061 0215 756E7369 		.ascii	"unsigned int\000"
 17061      676E6564 
 17061      20696E74 
 17061      00
 17062              	.LASF51:
 17063 0222 62736C69 		.ascii	"bslide\000"
 17063      646500
 17064              	.LASF54:
 17065 0229 73717274 		.ascii	"sqrtm1\000"
 17065      6D3100
 17066              	.LASF35:
 17067 0230 67655F6D 		.ascii	"ge_msub\000"
 17067      73756200 
 17068              	.LASF24:
 17069 0238 65717561 		.ascii	"equal\000"
 17069      6C00
 17070              	.LASF3:
 17071 023e 73686F72 		.ascii	"short unsigned int\000"
 17071      7420756E 
 17071      7369676E 
 17071      65642069 
 17071      6E7400
 17072              	.LASF36:
 17073 0251 67655F70 		.ascii	"ge_p1p1_to_p2\000"
 17073      3170315F 
 17073      746F5F70 
 17073      3200
 17074              	.LASF20:
 17075 025f 67655F70 		.ascii	"ge_precomp\000"
 17075      7265636F 
 17075      6D7000
 17076              	.LASF17:
 17077 026a 79706C75 		.ascii	"yplusx\000"
 17077      737800
 17078              	.LASF11:
 17079 0271 696E7433 		.ascii	"int32_t\000"
 17079      325F7400 
 17080              	.LASF67:
 17081 0279 66655F69 		.ascii	"fe_isnegative\000"
 17081      736E6567 
 17081      61746976 
 17081      6500
 17082              	.LASF58:
 17083 0287 66655F63 		.ascii	"fe_copy\000"
 17083      6F707900 
 17084              	.LASF40:
ARM GAS  C:\Users\NIGHDR~1\AppData\Local\Temp\ccrnUt9g.s 			page 314


 17085 028f 67655F70 		.ascii	"ge_p3_0\000"
 17085      335F3000 
 17086              	.LASF8:
 17087 0297 5F5F7569 		.ascii	"__uint64_t\000"
 17087      6E743634 
 17087      5F7400
 17088              	.LASF63:
 17089 02a2 66655F66 		.ascii	"fe_frombytes\000"
 17089      726F6D62 
 17089      79746573 
 17089      00
 17090              	.LASF45:
 17091 02af 72656369 		.ascii	"recip\000"
 17091      7000
 17092              	.LASF27:
 17093 02b5 636D6F76 		.ascii	"cmov\000"
 17093      00
 17094              	.LASF42:
 17095 02ba 67655F70 		.ascii	"ge_p3_to_p2\000"
 17095      335F746F 
 17095      5F703200 
 17096              	.LASF39:
 17097 02c6 67655F70 		.ascii	"ge_p2_dbl\000"
 17097      325F6462 
 17097      6C00
 17098              	.LASF5:
 17099 02d0 6C6F6E67 		.ascii	"long unsigned int\000"
 17099      20756E73 
 17099      69676E65 
 17099      6420696E 
 17099      7400
 17100              	.LASF44:
 17101 02e2 67655F70 		.ascii	"ge_p3_tobytes\000"
 17101      335F746F 
 17101      62797465 
 17101      7300
 17102              	.LASF66:
 17103 02f0 66655F69 		.ascii	"fe_isnonzero\000"
 17103      736E6F6E 
 17103      7A65726F 
 17103      00
 17104              	.LASF47:
 17105 02fd 63617272 		.ascii	"carry\000"
 17105      7900
 17106              	.LASF38:
 17107 0303 67655F70 		.ascii	"ge_p2_0\000"
 17107      325F3000 
 17108              	.LASF59:
 17109 030b 66655F6E 		.ascii	"fe_neg\000"
 17109      656700
 17110              	.LASF26:
 17111 0312 736C6964 		.ascii	"slide\000"
 17111      6500
 17112              	.LASF7:
 17113 0318 5F5F696E 		.ascii	"__int32_t\000"
 17113      7433325F 
 17113      7400
ARM GAS  C:\Users\NIGHDR~1\AppData\Local\Temp\ccrnUt9g.s 			page 315


 17114              	.LASF52:
 17115 0322 67655F74 		.ascii	"ge_tobytes\000"
 17115      6F627974 
 17115      657300
 17116              	.LASF25:
 17117 032d 6E656761 		.ascii	"negative\000"
 17117      74697665 
 17117      00
 17118              	.LASF30:
 17119 0336 626E6567 		.ascii	"bnegative\000"
 17119      61746976 
 17119      6500
 17120              	.LASF32:
 17121 0340 63686563 		.ascii	"check\000"
 17121      6B00
 17122              	.LASF56:
 17123 0346 66655F31 		.ascii	"fe_1\000"
 17123      00
 17124              	.LASF22:
 17125 034b 596D696E 		.ascii	"YminusX\000"
 17125      75735800 
 17126              	.LASF49:
 17127 0353 67655F64 		.ascii	"ge_double_scalarmult_vartime\000"
 17127      6F75626C 
 17127      655F7363 
 17127      616C6172 
 17127      6D756C74 
 17128              	.LASF50:
 17129 0370 61736C69 		.ascii	"aslide\000"
 17129      646500
 17130              	.LASF53:
 17131 0377 62617365 		.ascii	"base\000"
 17131      00
 17132              	.LASF64:
 17133 037c 66655F73 		.ascii	"fe_sq\000"
 17133      7100
 17134              	.LASF57:
 17135 0382 66655F30 		.ascii	"fe_0\000"
 17135      00
 17136              	.LASF48:
 17137 0387 67655F73 		.ascii	"ge_sub\000"
 17137      756200
 17138              	.LASF33:
 17139 038e 67655F61 		.ascii	"ge_add\000"
 17139      646400
 17140              		.ident	"GCC: (GNU Tools for ARM Embedded Processors) 5.4.1 20160609 (release) [ARM/embedded-5-bran
