ARM GAS  C:\Users\NIGHDR~1\AppData\Local\Temp\ccHPIrVV.s 			page 1


   1              		.syntax unified
   2              		.cpu cortex-m0
   3              		.fpu softvfp
   4              		.eabi_attribute 20, 1
   5              		.eabi_attribute 21, 1
   6              		.eabi_attribute 23, 3
   7              		.eabi_attribute 24, 1
   8              		.eabi_attribute 25, 1
   9              		.eabi_attribute 26, 1
  10              		.eabi_attribute 30, 1
  11              		.eabi_attribute 34, 0
  12              		.eabi_attribute 18, 4
  13              		.thumb
  14              		.syntax unified
  15              		.file	"key_exchange.c"
  16              		.text
  17              	.Ltext0:
  18              		.cfi_sections	.debug_frame
  19              		.section	.text.ed25519_key_exchange,"ax",%progbits
  20              		.align	2
  21              		.global	ed25519_key_exchange
  22              		.code	16
  23              		.thumb_func
  24              		.type	ed25519_key_exchange, %function
  25              	ed25519_key_exchange:
  26              	.LFB0:
  27              		.file 1 "key_exchange.c"
   1:key_exchange.c **** #include "ed25519.h"
   2:key_exchange.c **** #include "fe.h"
   3:key_exchange.c **** 
   4:key_exchange.c **** void ed25519_key_exchange(unsigned char *shared_secret, const unsigned char *public_key, const unsi
  28              		.loc 1 4 0
  29              		.cfi_startproc
  30              		@ args = 0, pretend = 0, frame = 312
  31              		@ frame_needed = 0, uses_anonymous_args = 0
  32              	.LVL0:
  33 0000 F0B5     		push	{r4, r5, r6, r7, lr}
  34              		.cfi_def_cfa_offset 20
  35              		.cfi_offset 4, -20
  36              		.cfi_offset 5, -16
  37              		.cfi_offset 6, -12
  38              		.cfi_offset 7, -8
  39              		.cfi_offset 14, -4
  40 0002 CFB0     		sub	sp, sp, #316
  41              		.cfi_def_cfa_offset 336
  42 0004 0400     		movs	r4, r0
  43              	.LVL1:
   5:key_exchange.c ****     unsigned char e[32];
   6:key_exchange.c ****     unsigned int i;
   7:key_exchange.c ****     
   8:key_exchange.c ****     fe x1;
   9:key_exchange.c ****     fe x2;
  10:key_exchange.c ****     fe z2;
  11:key_exchange.c ****     fe x3;
  12:key_exchange.c ****     fe z3;
  13:key_exchange.c ****     fe tmp0;
  14:key_exchange.c ****     fe tmp1;
ARM GAS  C:\Users\NIGHDR~1\AppData\Local\Temp\ccHPIrVV.s 			page 2


  15:key_exchange.c **** 
  16:key_exchange.c ****     int pos;
  17:key_exchange.c ****     unsigned int swap;
  18:key_exchange.c ****     unsigned int b;
  19:key_exchange.c **** 
  20:key_exchange.c ****     /* copy the private key and make sure it's valid */
  21:key_exchange.c ****     for (i = 0; i < 32; ++i) {
  44              		.loc 1 21 0
  45 0006 0023     		movs	r3, #0
  46 0008 03E0     		b	.L2
  47              	.LVL2:
  48              	.L3:
  22:key_exchange.c ****         e[i] = private_key[i];
  49              		.loc 1 22 0 discriminator 3
  50 000a D55C     		ldrb	r5, [r2, r3]
  51 000c 46A8     		add	r0, sp, #280
  52 000e C554     		strb	r5, [r0, r3]
  21:key_exchange.c ****         e[i] = private_key[i];
  53              		.loc 1 21 0 discriminator 3
  54 0010 0133     		adds	r3, r3, #1
  55              	.LVL3:
  56              	.L2:
  21:key_exchange.c ****         e[i] = private_key[i];
  57              		.loc 1 21 0 is_stmt 0 discriminator 1
  58 0012 1F2B     		cmp	r3, #31
  59 0014 F9D9     		bls	.L3
  23:key_exchange.c ****     }
  24:key_exchange.c **** 
  25:key_exchange.c ****     e[0] &= 248;
  60              		.loc 1 25 0 is_stmt 1
  61 0016 46AB     		add	r3, sp, #280
  62              	.LVL4:
  63 0018 1A78     		ldrb	r2, [r3]
  64              	.LVL5:
  65 001a 0720     		movs	r0, #7
  66 001c 8243     		bics	r2, r0
  67 001e 1A70     		strb	r2, [r3]
  26:key_exchange.c ****     e[31] &= 63;
  68              		.loc 1 26 0
  69 0020 DA7F     		ldrb	r2, [r3, #31]
  70 0022 3830     		adds	r0, r0, #56
  71 0024 0240     		ands	r2, r0
  27:key_exchange.c ****     e[31] |= 64;
  72              		.loc 1 27 0
  73 0026 4020     		movs	r0, #64
  74 0028 0243     		orrs	r2, r0
  75 002a DA77     		strb	r2, [r3, #31]
  28:key_exchange.c **** 
  29:key_exchange.c ****     /* unpack the public key and convert edwards to montgomery */
  30:key_exchange.c ****     /* due to CodesInChaos: montgomeryX = (edwardsY + 1)*inverse(1 - edwardsY) mod p */
  31:key_exchange.c ****     fe_frombytes(x1, public_key);
  76              		.loc 1 31 0
  77 002c 3CA8     		add	r0, sp, #240
  78 002e FFF7FEFF 		bl	fe_frombytes
  79              	.LVL6:
  32:key_exchange.c ****     fe_1(tmp1);
  80              		.loc 1 32 0
ARM GAS  C:\Users\NIGHDR~1\AppData\Local\Temp\ccHPIrVV.s 			page 3


  81 0032 6846     		mov	r0, sp
  82 0034 FFF7FEFF 		bl	fe_1
  83              	.LVL7:
  33:key_exchange.c ****     fe_add(tmp0, x1, tmp1);
  84              		.loc 1 33 0
  85 0038 6A46     		mov	r2, sp
  86 003a 3CA9     		add	r1, sp, #240
  87 003c 0AA8     		add	r0, sp, #40
  88 003e FFF7FEFF 		bl	fe_add
  89              	.LVL8:
  34:key_exchange.c ****     fe_sub(tmp1, tmp1, x1);
  90              		.loc 1 34 0
  91 0042 3CAA     		add	r2, sp, #240
  92 0044 6946     		mov	r1, sp
  93 0046 6846     		mov	r0, sp
  94 0048 FFF7FEFF 		bl	fe_sub
  95              	.LVL9:
  35:key_exchange.c ****     fe_invert(tmp1, tmp1);
  96              		.loc 1 35 0
  97 004c 6946     		mov	r1, sp
  98 004e 6846     		mov	r0, sp
  99 0050 FFF7FEFF 		bl	fe_invert
 100              	.LVL10:
  36:key_exchange.c ****     fe_mul(x1, tmp0, tmp1);
 101              		.loc 1 36 0
 102 0054 6A46     		mov	r2, sp
 103 0056 0AA9     		add	r1, sp, #40
 104 0058 3CA8     		add	r0, sp, #240
 105 005a FFF7FEFF 		bl	fe_mul
 106              	.LVL11:
  37:key_exchange.c **** 
  38:key_exchange.c ****     fe_1(x2);
 107              		.loc 1 38 0
 108 005e 32A8     		add	r0, sp, #200
 109 0060 FFF7FEFF 		bl	fe_1
 110              	.LVL12:
  39:key_exchange.c ****     fe_0(z2);
 111              		.loc 1 39 0
 112 0064 28A8     		add	r0, sp, #160
 113 0066 FFF7FEFF 		bl	fe_0
 114              	.LVL13:
  40:key_exchange.c ****     fe_copy(x3, x1);
 115              		.loc 1 40 0
 116 006a 3CA9     		add	r1, sp, #240
 117 006c 1EA8     		add	r0, sp, #120
 118 006e FFF7FEFF 		bl	fe_copy
 119              	.LVL14:
  41:key_exchange.c ****     fe_1(z3);
 120              		.loc 1 41 0
 121 0072 14A8     		add	r0, sp, #80
 122 0074 FFF7FEFF 		bl	fe_1
 123              	.LVL15:
  42:key_exchange.c **** 
  43:key_exchange.c ****     swap = 0;
 124              		.loc 1 43 0
 125 0078 0027     		movs	r7, #0
  44:key_exchange.c ****     for (pos = 254; pos >= 0; --pos) {
ARM GAS  C:\Users\NIGHDR~1\AppData\Local\Temp\ccHPIrVV.s 			page 4


 126              		.loc 1 44 0
 127 007a FE26     		movs	r6, #254
 128 007c 6CE0     		b	.L4
 129              	.LVL16:
 130              	.L5:
  45:key_exchange.c ****         b = e[pos / 8] >> (pos & 7);
 131              		.loc 1 45 0 discriminator 3
 132 007e F317     		asrs	r3, r6, #31
 133 0080 0722     		movs	r2, #7
 134 0082 1340     		ands	r3, r2
 135 0084 9B19     		adds	r3, r3, r6
 136 0086 DB10     		asrs	r3, r3, #3
 137 0088 46A9     		add	r1, sp, #280
 138 008a CD5C     		ldrb	r5, [r1, r3]
 139 008c 3240     		ands	r2, r6
 140 008e 1541     		asrs	r5, r5, r2
 141              	.LVL17:
  46:key_exchange.c ****         b &= 1;
 142              		.loc 1 46 0 discriminator 3
 143 0090 0123     		movs	r3, #1
 144 0092 1D40     		ands	r5, r3
 145              	.LVL18:
  47:key_exchange.c ****         swap ^= b;
 146              		.loc 1 47 0 discriminator 3
 147 0094 6F40     		eors	r7, r5
 148              	.LVL19:
  48:key_exchange.c ****         fe_cswap(x2, x3, swap);
 149              		.loc 1 48 0 discriminator 3
 150 0096 3A00     		movs	r2, r7
 151 0098 1EA9     		add	r1, sp, #120
 152 009a 32A8     		add	r0, sp, #200
 153 009c FFF7FEFF 		bl	fe_cswap
 154              	.LVL20:
  49:key_exchange.c ****         fe_cswap(z2, z3, swap);
 155              		.loc 1 49 0 discriminator 3
 156 00a0 3A00     		movs	r2, r7
 157 00a2 14A9     		add	r1, sp, #80
 158 00a4 28A8     		add	r0, sp, #160
 159 00a6 FFF7FEFF 		bl	fe_cswap
 160              	.LVL21:
  50:key_exchange.c ****         swap = b;
  51:key_exchange.c **** 
  52:key_exchange.c ****         /* from montgomery.h */
  53:key_exchange.c ****         fe_sub(tmp0, x3, z3);
 161              		.loc 1 53 0 discriminator 3
 162 00aa 14AA     		add	r2, sp, #80
 163 00ac 1EA9     		add	r1, sp, #120
 164 00ae 0AA8     		add	r0, sp, #40
 165 00b0 FFF7FEFF 		bl	fe_sub
 166              	.LVL22:
  54:key_exchange.c ****         fe_sub(tmp1, x2, z2);
 167              		.loc 1 54 0 discriminator 3
 168 00b4 28AA     		add	r2, sp, #160
 169 00b6 32A9     		add	r1, sp, #200
 170 00b8 6846     		mov	r0, sp
 171 00ba FFF7FEFF 		bl	fe_sub
 172              	.LVL23:
ARM GAS  C:\Users\NIGHDR~1\AppData\Local\Temp\ccHPIrVV.s 			page 5


  55:key_exchange.c ****         fe_add(x2, x2, z2);
 173              		.loc 1 55 0 discriminator 3
 174 00be 28AA     		add	r2, sp, #160
 175 00c0 32A9     		add	r1, sp, #200
 176 00c2 0800     		movs	r0, r1
 177 00c4 FFF7FEFF 		bl	fe_add
 178              	.LVL24:
  56:key_exchange.c ****         fe_add(z2, x3, z3);
 179              		.loc 1 56 0 discriminator 3
 180 00c8 14AA     		add	r2, sp, #80
 181 00ca 1EA9     		add	r1, sp, #120
 182 00cc 28A8     		add	r0, sp, #160
 183 00ce FFF7FEFF 		bl	fe_add
 184              	.LVL25:
  57:key_exchange.c ****         fe_mul(z3, tmp0, x2);
 185              		.loc 1 57 0 discriminator 3
 186 00d2 32AA     		add	r2, sp, #200
 187 00d4 0AA9     		add	r1, sp, #40
 188 00d6 14A8     		add	r0, sp, #80
 189 00d8 FFF7FEFF 		bl	fe_mul
 190              	.LVL26:
  58:key_exchange.c ****         fe_mul(z2, z2, tmp1);
 191              		.loc 1 58 0 discriminator 3
 192 00dc 6A46     		mov	r2, sp
 193 00de 28A9     		add	r1, sp, #160
 194 00e0 0800     		movs	r0, r1
 195 00e2 FFF7FEFF 		bl	fe_mul
 196              	.LVL27:
  59:key_exchange.c ****         fe_sq(tmp0, tmp1);
 197              		.loc 1 59 0 discriminator 3
 198 00e6 6946     		mov	r1, sp
 199 00e8 0AA8     		add	r0, sp, #40
 200 00ea FFF7FEFF 		bl	fe_sq
 201              	.LVL28:
  60:key_exchange.c ****         fe_sq(tmp1, x2);
 202              		.loc 1 60 0 discriminator 3
 203 00ee 32A9     		add	r1, sp, #200
 204 00f0 6846     		mov	r0, sp
 205 00f2 FFF7FEFF 		bl	fe_sq
 206              	.LVL29:
  61:key_exchange.c ****         fe_add(x3, z3, z2);
 207              		.loc 1 61 0 discriminator 3
 208 00f6 28AA     		add	r2, sp, #160
 209 00f8 14A9     		add	r1, sp, #80
 210 00fa 1EA8     		add	r0, sp, #120
 211 00fc FFF7FEFF 		bl	fe_add
 212              	.LVL30:
  62:key_exchange.c ****         fe_sub(z2, z3, z2);
 213              		.loc 1 62 0 discriminator 3
 214 0100 28AA     		add	r2, sp, #160
 215 0102 14A9     		add	r1, sp, #80
 216 0104 1000     		movs	r0, r2
 217 0106 FFF7FEFF 		bl	fe_sub
 218              	.LVL31:
  63:key_exchange.c ****         fe_mul(x2, tmp1, tmp0);
 219              		.loc 1 63 0 discriminator 3
 220 010a 0AAA     		add	r2, sp, #40
ARM GAS  C:\Users\NIGHDR~1\AppData\Local\Temp\ccHPIrVV.s 			page 6


 221 010c 6946     		mov	r1, sp
 222 010e 32A8     		add	r0, sp, #200
 223 0110 FFF7FEFF 		bl	fe_mul
 224              	.LVL32:
  64:key_exchange.c ****         fe_sub(tmp1, tmp1, tmp0);
 225              		.loc 1 64 0 discriminator 3
 226 0114 0AAA     		add	r2, sp, #40
 227 0116 6946     		mov	r1, sp
 228 0118 6846     		mov	r0, sp
 229 011a FFF7FEFF 		bl	fe_sub
 230              	.LVL33:
  65:key_exchange.c ****         fe_sq(z2, z2);
 231              		.loc 1 65 0 discriminator 3
 232 011e 28A9     		add	r1, sp, #160
 233 0120 0800     		movs	r0, r1
 234 0122 FFF7FEFF 		bl	fe_sq
 235              	.LVL34:
  66:key_exchange.c ****         fe_mul121666(z3, tmp1);
 236              		.loc 1 66 0 discriminator 3
 237 0126 6946     		mov	r1, sp
 238 0128 14A8     		add	r0, sp, #80
 239 012a FFF7FEFF 		bl	fe_mul121666
 240              	.LVL35:
  67:key_exchange.c ****         fe_sq(x3, x3);
 241              		.loc 1 67 0 discriminator 3
 242 012e 1EA9     		add	r1, sp, #120
 243 0130 0800     		movs	r0, r1
 244 0132 FFF7FEFF 		bl	fe_sq
 245              	.LVL36:
  68:key_exchange.c ****         fe_add(tmp0, tmp0, z3);
 246              		.loc 1 68 0 discriminator 3
 247 0136 14AA     		add	r2, sp, #80
 248 0138 0AA9     		add	r1, sp, #40
 249 013a 0800     		movs	r0, r1
 250 013c FFF7FEFF 		bl	fe_add
 251              	.LVL37:
  69:key_exchange.c ****         fe_mul(z3, x1, z2);
 252              		.loc 1 69 0 discriminator 3
 253 0140 28AA     		add	r2, sp, #160
 254 0142 3CA9     		add	r1, sp, #240
 255 0144 14A8     		add	r0, sp, #80
 256 0146 FFF7FEFF 		bl	fe_mul
 257              	.LVL38:
  70:key_exchange.c ****         fe_mul(z2, tmp1, tmp0);
 258              		.loc 1 70 0 discriminator 3
 259 014a 0AAA     		add	r2, sp, #40
 260 014c 6946     		mov	r1, sp
 261 014e 28A8     		add	r0, sp, #160
 262 0150 FFF7FEFF 		bl	fe_mul
 263              	.LVL39:
  44:key_exchange.c ****         b = e[pos / 8] >> (pos & 7);
 264              		.loc 1 44 0 discriminator 3
 265 0154 013E     		subs	r6, r6, #1
 266              	.LVL40:
  50:key_exchange.c **** 
 267              		.loc 1 50 0 discriminator 3
 268 0156 2F00     		movs	r7, r5
ARM GAS  C:\Users\NIGHDR~1\AppData\Local\Temp\ccHPIrVV.s 			page 7


 269              	.LVL41:
 270              	.L4:
  44:key_exchange.c ****         b = e[pos / 8] >> (pos & 7);
 271              		.loc 1 44 0 discriminator 1
 272 0158 002E     		cmp	r6, #0
 273 015a 90DA     		bge	.L5
  71:key_exchange.c ****     }
  72:key_exchange.c **** 
  73:key_exchange.c ****     fe_cswap(x2, x3, swap);
 274              		.loc 1 73 0
 275 015c 3A00     		movs	r2, r7
 276 015e 1EA9     		add	r1, sp, #120
 277 0160 32A8     		add	r0, sp, #200
 278 0162 FFF7FEFF 		bl	fe_cswap
 279              	.LVL42:
  74:key_exchange.c ****     fe_cswap(z2, z3, swap);
 280              		.loc 1 74 0
 281 0166 3A00     		movs	r2, r7
 282 0168 14A9     		add	r1, sp, #80
 283 016a 28A8     		add	r0, sp, #160
 284 016c FFF7FEFF 		bl	fe_cswap
 285              	.LVL43:
  75:key_exchange.c **** 
  76:key_exchange.c ****     fe_invert(z2, z2);
 286              		.loc 1 76 0
 287 0170 28A9     		add	r1, sp, #160
 288 0172 0800     		movs	r0, r1
 289 0174 FFF7FEFF 		bl	fe_invert
 290              	.LVL44:
  77:key_exchange.c ****     fe_mul(x2, x2, z2);
 291              		.loc 1 77 0
 292 0178 28AA     		add	r2, sp, #160
 293 017a 32A9     		add	r1, sp, #200
 294 017c 0800     		movs	r0, r1
 295 017e FFF7FEFF 		bl	fe_mul
 296              	.LVL45:
  78:key_exchange.c ****     fe_tobytes(shared_secret, x2);
 297              		.loc 1 78 0
 298 0182 32A9     		add	r1, sp, #200
 299 0184 2000     		movs	r0, r4
 300 0186 FFF7FEFF 		bl	fe_tobytes
 301              	.LVL46:
  79:key_exchange.c **** }
 302              		.loc 1 79 0
 303 018a 4FB0     		add	sp, sp, #316
 304              		@ sp needed
 305              	.LVL47:
 306              	.LVL48:
 307              	.LVL49:
 308 018c F0BD     		pop	{r4, r5, r6, r7, pc}
 309              		.cfi_endproc
 310              	.LFE0:
 311              		.size	ed25519_key_exchange, .-ed25519_key_exchange
 312 018e C046     		.text
 313              	.Letext0:
 314              		.file 2 "c:\\program files (x86)\\cypress\\psoc creator\\4.1\\psoc creator\\import\\gnu\\arm\\5.4.
 315              		.file 3 "c:\\program files (x86)\\cypress\\psoc creator\\4.1\\psoc creator\\import\\gnu\\arm\\5.4.
ARM GAS  C:\Users\NIGHDR~1\AppData\Local\Temp\ccHPIrVV.s 			page 8


 316              		.file 4 "fe.h"