ARM GAS  C:\Users\NIGHDR~1\AppData\Local\Temp\ccjOq5nf.s 			page 1


   1              		.syntax unified
   2              		.cpu cortex-m0
   3              		.fpu softvfp
   4              		.eabi_attribute 20, 1
   5              		.eabi_attribute 21, 1
   6              		.eabi_attribute 23, 3
   7              		.eabi_attribute 24, 1
   8              		.eabi_attribute 25, 1
   9              		.eabi_attribute 26, 1
  10              		.eabi_attribute 30, 1
  11              		.eabi_attribute 34, 0
  12              		.eabi_attribute 18, 4
  13              		.thumb
  14              		.syntax unified
  15              		.file	"keypair.c"
  16              		.text
  17              	.Ltext0:
  18              		.cfi_sections	.debug_frame
  19              		.section	.text.ed25519_create_keypair,"ax",%progbits
  20              		.align	2
  21              		.global	ed25519_create_keypair
  22              		.code	16
  23              		.thumb_func
  24              		.type	ed25519_create_keypair, %function
  25              	ed25519_create_keypair:
  26              	.LFB0:
  27              		.file 1 "keypair.c"
   1:keypair.c     **** #include "ed25519.h"
   2:keypair.c     **** #include "sha512.h"
   3:keypair.c     **** #include "ge.h"
   4:keypair.c     **** 
   5:keypair.c     **** 
   6:keypair.c     **** void ed25519_create_keypair(unsigned char *public_key, unsigned char *private_key, const unsigned c
  28              		.loc 1 6 0
  29              		.cfi_startproc
  30              		@ args = 0, pretend = 0, frame = 160
  31              		@ frame_needed = 0, uses_anonymous_args = 0
  32              	.LVL0:
  33 0000 30B5     		push	{r4, r5, lr}
  34              		.cfi_def_cfa_offset 12
  35              		.cfi_offset 4, -12
  36              		.cfi_offset 5, -8
  37              		.cfi_offset 14, -4
  38 0002 A9B0     		sub	sp, sp, #164
  39              		.cfi_def_cfa_offset 176
  40 0004 0500     		movs	r5, r0
  41 0006 0C00     		movs	r4, r1
  42 0008 1000     		movs	r0, r2
  43              	.LVL1:
   7:keypair.c     ****     ge_p3 A;
   8:keypair.c     **** 
   9:keypair.c     ****     sha512(seed, 32, private_key);
  44              		.loc 1 9 0
  45 000a 0A00     		movs	r2, r1
  46              	.LVL2:
  47 000c 2021     		movs	r1, #32
  48              	.LVL3:
ARM GAS  C:\Users\NIGHDR~1\AppData\Local\Temp\ccjOq5nf.s 			page 2


  49 000e FFF7FEFF 		bl	sha512
  50              	.LVL4:
  10:keypair.c     ****     private_key[0] &= 248;
  51              		.loc 1 10 0
  52 0012 2378     		ldrb	r3, [r4]
  53 0014 0722     		movs	r2, #7
  54 0016 9343     		bics	r3, r2
  55 0018 2370     		strb	r3, [r4]
  11:keypair.c     ****     private_key[31] &= 63;
  56              		.loc 1 11 0
  57 001a E37F     		ldrb	r3, [r4, #31]
  58 001c 3832     		adds	r2, r2, #56
  59 001e 1340     		ands	r3, r2
  12:keypair.c     ****     private_key[31] |= 64;
  60              		.loc 1 12 0
  61 0020 4022     		movs	r2, #64
  62 0022 1343     		orrs	r3, r2
  63 0024 E377     		strb	r3, [r4, #31]
  13:keypair.c     **** 
  14:keypair.c     ****     ge_scalarmult_base(&A, private_key);
  64              		.loc 1 14 0
  65 0026 2100     		movs	r1, r4
  66 0028 6846     		mov	r0, sp
  67 002a FFF7FEFF 		bl	ge_scalarmult_base
  68              	.LVL5:
  15:keypair.c     ****     ge_p3_tobytes(public_key, &A);
  69              		.loc 1 15 0
  70 002e 6946     		mov	r1, sp
  71 0030 2800     		movs	r0, r5
  72 0032 FFF7FEFF 		bl	ge_p3_tobytes
  73              	.LVL6:
  16:keypair.c     **** }
  74              		.loc 1 16 0
  75 0036 29B0     		add	sp, sp, #164
  76              		@ sp needed
  77              	.LVL7:
  78              	.LVL8:
  79 0038 30BD     		pop	{r4, r5, pc}
  80              		.cfi_endproc
  81              	.LFE0:
  82              		.size	ed25519_create_keypair, .-ed25519_create_keypair
  83 003a C046     		.text
  84              	.Letext0:
  85              		.file 2 "c:\\program files (x86)\\cypress\\psoc creator\\4.1\\psoc creator\\import\\gnu\\arm\\5.4.
  86              		.file 3 "c:\\program files (x86)\\cypress\\psoc creator\\4.1\\psoc creator\\import\\gnu\\arm\\5.4.
  87              		.file 4 "ge.h"
  88              		.file 5 "sha512.h"
  89              		.file 6 "fe.h"