ARM GAS  C:\Users\Admin\AppData\Local\Temp\ccgW1Y8c.s 			page 1


   1              		.syntax unified
   2              		.cpu cortex-m0
   3              		.fpu softvfp
   4              		.eabi_attribute 20, 1
   5              		.eabi_attribute 21, 1
   6              		.eabi_attribute 23, 3
   7              		.eabi_attribute 24, 1
   8              		.eabi_attribute 25, 1
   9              		.eabi_attribute 26, 1
  10              		.eabi_attribute 30, 1
  11              		.eabi_attribute 34, 0
  12              		.eabi_attribute 18, 4
  13              		.thumb
  14              		.syntax unified
  15              		.file	"main.c"
  16              		.text
  17              	.Ltext0:
  18              		.cfi_sections	.debug_frame
  19              		.section	.text.Reset_ISR,"ax",%progbits
  20              		.align	2
  21              		.global	Reset_ISR
  22              		.code	16
  23              		.thumb_func
  24              		.type	Reset_ISR, %function
  25              	Reset_ISR:
  26              	.LFB35:
  27              		.file 1 "main.c"
   1:main.c        **** /* ========================================
   2:main.c        ****  *
   3:main.c        ****  * Copyright YOUR COMPANY, THE YEAR
   4:main.c        ****  * All Rights Reserved
   5:main.c        ****  * UNPUBLISHED, LICENSED SOFTWARE.
   6:main.c        ****  *
   7:main.c        ****  * CONFIDENTIAL AND PROPRIETARY INFORMATION
   8:main.c        ****  * WHICH IS THE PROPERTY OF your company.
   9:main.c        ****  *
  10:main.c        ****  * ========================================
  11:main.c        **** */
  12:main.c        **** 
  13:main.c        **** #include "project.h"
  14:main.c        **** #include <stdlib.h>
  15:main.c        **** #include "usbserialprotocol.h"
  16:main.c        **** #include "SW1.h"
  17:main.c        **** #include "Reset_isr.h"
  18:main.c        **** #include "aes.h"
  19:main.c        **** #include "SuperSecretHash.h"
  20:main.c        **** 
  21:main.c        **** #define CARD_ID_LEN 36
  22:main.c        **** #define PROV_MSG "P"
  23:main.c        **** #define RECV_K "K"
  24:main.c        **** #define GIVE_CARD_ID '1'
  25:main.c        **** #define GIVE_SIG '2'
  26:main.c        **** #define GIVE_PUB '3'
  27:main.c        **** 
  28:main.c        **** //CARD
  29:main.c        **** 
  30:main.c        **** /* 
ARM GAS  C:\Users\Admin\AppData\Local\Temp\ccgW1Y8c.s 			page 2


  31:main.c        ****  * How to read from EEPROM (persistent memory):
  32:main.c        ****  * 
  33:main.c        ****  * // read variable:
  34:main.c        ****  * static const uint8 EEPROM_BUF_VAR[len] = { val1, val2, ... };
  35:main.c        ****  * // write variable:
  36:main.c        ****  * volatile const uint8 *ptr = EEPROM_BUF_VAR;
  37:main.c        ****  * 
  38:main.c        ****  * uint8 val1 = *ptr;
  39:main.c        ****  * uint8 buf[4] = { 0x01, 0x02, 0x03, 0x04 };
  40:main.c        ****  * USER_INFO_Write(message, EEPROM_BUF_VAR, 4u); 
  41:main.c        ****  */
  42:main.c        **** 
  43:main.c        **** // global EEPROM read variables
  44:main.c        **** static const uint8 CARD_ID[CARD_ID_LEN] = {}; //security
  45:main.c        **** 
  46:main.c        **** 
  47:main.c        **** // reset interrupt on button press
  48:main.c        **** CY_ISR(Reset_ISR)
  49:main.c        **** {
  28              		.loc 1 49 0
  29              		.cfi_startproc
  30              		@ args = 0, pretend = 0, frame = 0
  31              		@ frame_needed = 0, uses_anonymous_args = 0
  32 0000 10B5     		push	{r4, lr}
  33              		.cfi_def_cfa_offset 8
  34              		.cfi_offset 4, -8
  35              		.cfi_offset 14, -4
  50:main.c        ****     pushMessage((uint8*)"In interrupt\n", strlen("In interrupt\n"));
  36              		.loc 1 50 0
  37 0002 0D21     		movs	r1, #13
  38 0004 0348     		ldr	r0, .L2
  39 0006 FFF7FEFF 		bl	pushMessage
  40              	.LVL0:
  51:main.c        ****     SW1_ClearInterrupt();
  41              		.loc 1 51 0
  42 000a FFF7FEFF 		bl	SW1_ClearInterrupt
  43              	.LVL1:
  52:main.c        ****     CySoftwareReset();
  44              		.loc 1 52 0
  45 000e FFF7FEFF 		bl	CySoftwareReset
  46              	.LVL2:
  53:main.c        **** }
  47              		.loc 1 53 0
  48              		@ sp needed
  49 0012 10BD     		pop	{r4, pc}
  50              	.L3:
  51              		.align	2
  52              	.L2:
  53 0014 00000000 		.word	.LC0
  54              		.cfi_endproc
  55              	.LFE35:
  56              		.size	Reset_ISR, .-Reset_ISR
  57              		.section	.text.SALT_HAsaltH_SALT,"ax",%progbits
  58              		.align	2
  59              		.global	SALT_HAsaltH_SALT
  60              		.code	16
  61              		.thumb_func
ARM GAS  C:\Users\Admin\AppData\Local\Temp\ccgW1Y8c.s 			page 3


  62              		.type	SALT_HAsaltH_SALT, %function
  63              	SALT_HAsaltH_SALT:
  64              	.LFB34:
  65              		.file 2 "SuperSecretHash.h"
   1:SuperSecretHash.h **** #include "SuperFastHash.h"
   2:SuperSecretHash.h **** #include "project.h"
   3:SuperSecretHash.h **** #include <stdlib.h>
   4:SuperSecretHash.h **** #include "usbserialprotocol.h"
   5:SuperSecretHash.h **** #include "SW1.h"
   6:SuperSecretHash.h **** #include "Reset_isr.h"
   7:SuperSecretHash.h **** 
   8:SuperSecretHash.h **** void SALT_HAsaltH_SALT(char* data, char* extra_data, int extra_data_len, int len){
  66              		.loc 2 8 0
  67              		.cfi_startproc
  68              		@ args = 0, pretend = 0, frame = 8
  69              		@ frame_needed = 0, uses_anonymous_args = 0
  70              	.LVL3:
  71 0000 70B5     		push	{r4, r5, r6, lr}
  72              		.cfi_def_cfa_offset 16
  73              		.cfi_offset 4, -16
  74              		.cfi_offset 5, -12
  75              		.cfi_offset 6, -8
  76              		.cfi_offset 14, -4
  77 0002 82B0     		sub	sp, sp, #8
  78              		.cfi_def_cfa_offset 24
  79 0004 0400     		movs	r4, r0
  80 0006 0D00     		movs	r5, r1
  81 0008 1E00     		movs	r6, r3
   9:SuperSecretHash.h ****     uint32 output;
  10:SuperSecretHash.h ****     char empty[4] = "";
  82              		.loc 2 10 0
  83 000a 0023     		movs	r3, #0
  84              	.LVL4:
  85 000c 0093     		str	r3, [sp]
  11:SuperSecretHash.h ****     strncat(data, extra_data,  extra_data_len);
  86              		.loc 2 11 0
  87 000e FFF7FEFF 		bl	strncat
  88              	.LVL5:
  12:SuperSecretHash.h ****     output = hash(data, len);
  89              		.loc 2 12 0
  90 0012 3100     		movs	r1, r6
  91 0014 2000     		movs	r0, r4
  92 0016 FFF7FEFF 		bl	hash
  93              	.LVL6:
  94 001a 0190     		str	r0, [sp, #4]
  13:SuperSecretHash.h ****     memcpy(data, &output, 4);
  95              		.loc 2 13 0
  96 001c 0422     		movs	r2, #4
  97 001e 01A9     		add	r1, sp, #4
  98 0020 2000     		movs	r0, r4
  99 0022 FFF7FEFF 		bl	memcpy
 100              	.LVL7:
  14:SuperSecretHash.h ****     memcpy(&data[4], empty, 4);
 101              		.loc 2 14 0
 102 0026 201D     		adds	r0, r4, #4
 103 0028 0422     		movs	r2, #4
 104 002a 6946     		mov	r1, sp
ARM GAS  C:\Users\Admin\AppData\Local\Temp\ccgW1Y8c.s 			page 4


 105 002c FFF7FEFF 		bl	memcpy
 106              	.LVL8:
  15:SuperSecretHash.h ****     memcpy(extra_data, empty,4);
 107              		.loc 2 15 0
 108 0030 0422     		movs	r2, #4
 109 0032 6946     		mov	r1, sp
 110 0034 2800     		movs	r0, r5
 111 0036 FFF7FEFF 		bl	memcpy
 112              	.LVL9:
  16:SuperSecretHash.h **** }
 113              		.loc 2 16 0
 114 003a 02B0     		add	sp, sp, #8
 115              		@ sp needed
 116              	.LVL10:
 117              	.LVL11:
 118              	.LVL12:
 119 003c 70BD     		pop	{r4, r5, r6, pc}
 120              		.cfi_endproc
 121              	.LFE34:
 122              		.size	SALT_HAsaltH_SALT, .-SALT_HAsaltH_SALT
 123 003e C046     		.section	.text.provision,"ax",%progbits
 124              		.align	2
 125              		.global	provision
 126              		.code	16
 127              		.thumb_func
 128              		.type	provision, %function
 129              	provision:
 130              	.LFB36:
  54:main.c        **** 
  55:main.c        **** // provisions card (should only ever be called once)
  56:main.c        **** void provision()
  57:main.c        **** {
 131              		.loc 1 57 0
 132              		.cfi_startproc
 133              		@ args = 0, pretend = 0, frame = 72
 134              		@ frame_needed = 0, uses_anonymous_args = 0
 135 0000 10B5     		push	{r4, lr}
 136              		.cfi_def_cfa_offset 8
 137              		.cfi_offset 4, -8
 138              		.cfi_offset 14, -4
 139 0002 92B0     		sub	sp, sp, #72
 140              		.cfi_def_cfa_offset 80
  58:main.c        ****     uint8 message[64];
  59:main.c        ****     unsigned int KEY;
  60:main.c        ****     
  61:main.c        ****     // synchronize with bank
  62:main.c        ****     syncConnection(SYNC_PROV);
 141              		.loc 1 62 0
 142 0004 0120     		movs	r0, #1
 143 0006 FFF7FEFF 		bl	syncConnection
 144              	.LVL13:
  63:main.c        ****  
  64:main.c        ****     pushMessage((uint8*)PROV_MSG, (uint8)strlen(PROV_MSG));
 145              		.loc 1 64 0
 146 000a 0121     		movs	r1, #1
 147 000c 1048     		ldr	r0, .L7
 148 000e FFF7FEFF 		bl	pushMessage
ARM GAS  C:\Users\Admin\AppData\Local\Temp\ccgW1Y8c.s 			page 5


 149              	.LVL14:
  65:main.c        ****     
  66:main.c        ****     // set account number
  67:main.c        ****     pullMessage(message);
 150              		.loc 1 67 0
 151 0012 02AC     		add	r4, sp, #8
 152 0014 2000     		movs	r0, r4
 153 0016 FFF7FEFF 		bl	pullMessage
 154              	.LVL15:
  68:main.c        ****     USER_INFO_Write(message, CARD_ID, CARD_ID_LEN);
 155              		.loc 1 68 0
 156 001a 2422     		movs	r2, #36
 157 001c 0D49     		ldr	r1, .L7+4
 158 001e 2000     		movs	r0, r4
 159 0020 FFF7FEFF 		bl	USER_INFO_Write
 160              	.LVL16:
  69:main.c        **** 
  70:main.c        ****     // Send back K
  71:main.c        ****     pushMessage((uint8*)RECV_K, strlen(RECV_K));
 161              		.loc 1 71 0
 162 0024 0121     		movs	r1, #1
 163 0026 0C48     		ldr	r0, .L7+8
 164 0028 FFF7FEFF 		bl	pushMessage
 165              	.LVL17:
  72:main.c        ****     
  73:main.c        ****     // Pull 3
  74:main.c        ****     pullMessage(message);
 166              		.loc 1 74 0
 167 002c 2000     		movs	r0, r4
 168 002e FFF7FEFF 		bl	pullMessage
 169              	.LVL18:
  75:main.c        ****     
  76:main.c        ****     //Generate Public/Private Key.
  77:main.c        ****     
  78:main.c        **** 
  79:main.c        ****     //Check the message that was received
  80:main.c        ****     if(message[0] == '3')
 170              		.loc 1 80 0
 171 0032 2378     		ldrb	r3, [r4]
 172 0034 332B     		cmp	r3, #51
 173 0036 03D1     		bne	.L6
  81:main.c        ****     {
  82:main.c        ****         pushMessage((uint8*)KEY, 32); // Public Key
 174              		.loc 1 82 0
 175 0038 2021     		movs	r1, #32
 176 003a 0198     		ldr	r0, [sp, #4]
 177 003c FFF7FEFF 		bl	pushMessage
 178              	.LVL19:
 179              	.L6:
  83:main.c        ****     }
  84:main.c        ****     //Memset Public Key    
  85:main.c        ****     memset(&KEY, 0, 64);
 180              		.loc 1 85 0
 181 0040 4022     		movs	r2, #64
 182 0042 0021     		movs	r1, #0
 183 0044 01A8     		add	r0, sp, #4
 184 0046 FFF7FEFF 		bl	memset
ARM GAS  C:\Users\Admin\AppData\Local\Temp\ccgW1Y8c.s 			page 6


 185              	.LVL20:
  86:main.c        **** }
 186              		.loc 1 86 0
 187 004a 12B0     		add	sp, sp, #72
 188              		@ sp needed
 189 004c 10BD     		pop	{r4, pc}
 190              	.L8:
 191 004e C046     		.align	2
 192              	.L7:
 193 0050 10000000 		.word	.LC2
 194 0054 00000000 		.word	.LANCHOR0
 195 0058 14000000 		.word	.LC5
 196              		.cfi_endproc
 197              	.LFE36:
 198              		.size	provision, .-provision
 199              		.section	.text.main,"ax",%progbits
 200              		.align	2
 201              		.global	main
 202              		.code	16
 203              		.thumb_func
 204              		.type	main, %function
 205              	main:
 206              	.LFB37:
  87:main.c        **** 
  88:main.c        **** int main(void)
  89:main.c        **** {
 207              		.loc 1 89 0
 208              		.cfi_startproc
 209              		@ args = 0, pretend = 0, frame = 464
 210              		@ frame_needed = 0, uses_anonymous_args = 0
 211 0000 F0B5     		push	{r4, r5, r6, r7, lr}
 212              		.cfi_def_cfa_offset 20
 213              		.cfi_offset 4, -20
 214              		.cfi_offset 5, -16
 215              		.cfi_offset 6, -12
 216              		.cfi_offset 7, -8
 217              		.cfi_offset 14, -4
 218 0002 4746     		mov	r7, r8
 219 0004 80B4     		push	{r7}
 220              		.cfi_def_cfa_offset 24
 221              		.cfi_offset 8, -24
 222 0006 F4B0     		sub	sp, sp, #464
 223              		.cfi_def_cfa_offset 488
  90:main.c        ****     // enable global interrupts -- DO NOT DELETE
  91:main.c        ****     CyGlobalIntEnable;
 224              		.loc 1 91 0
 225              		.syntax divided
 226              	@ 91 "main.c" 1
 227 0008 62B6     		CPSIE   i
 228              	@ 0 "" 2
  92:main.c        ****     
  93:main.c        ****     // start reset button
  94:main.c        ****     Reset_isr_StartEx(Reset_ISR);
 229              		.loc 1 94 0
 230              		.thumb
 231              		.syntax unified
 232 000a 5348     		ldr	r0, .L23
ARM GAS  C:\Users\Admin\AppData\Local\Temp\ccgW1Y8c.s 			page 7


 233 000c FFF7FEFF 		bl	Reset_isr_StartEx
 234              	.LVL21:
  95:main.c        ****     
  96:main.c        ****     /* Declare vairables here */
  97:main.c        ****     uint8 i;
  98:main.c        ****     uint8 message[128];
  99:main.c        ****     //AES shit
 100:main.c        ****     struct AES_ctx ctx;
 101:main.c        ****     unsigned char AESkey[32];
 102:main.c        ****     uint8_t iv = 21;
 235              		.loc 1 102 0
 236 0010 1522     		movs	r2, #21
 237 0012 2323     		movs	r3, #35
 238 0014 02A9     		add	r1, sp, #8
 239 0016 8C46     		mov	ip, r1
 240 0018 6344     		add	r3, r3, ip
 241 001a 1A70     		strb	r2, [r3]
 103:main.c        ****     //Hashing shit
 104:main.c        ****     char *buf = malloc(8*sizeof(char));
 242              		.loc 1 104 0
 243 001c 0820     		movs	r0, #8
 244 001e FFF7FEFF 		bl	malloc
 245              	.LVL22:
 246 0022 0190     		str	r0, [sp, #4]
 247              	.LVL23:
 105:main.c        ****     char *temp = malloc(4*sizeof(char));
 248              		.loc 1 105 0
 249 0024 0420     		movs	r0, #4
 250              	.LVL24:
 251 0026 FFF7FEFF 		bl	malloc
 252              	.LVL25:
 253 002a 0400     		movs	r4, r0
 254              	.LVL26:
 106:main.c        ****     unsigned char keyValues[32];
 107:main.c        ****     
 108:main.c        ****     // local EEPROM read variable
 109:main.c        ****     static const uint8 PROVISIONED[1] = {0x00};
 110:main.c        ****     
 111:main.c        ****     // EEPROM write variable
 112:main.c        ****     volatile const uint8 *ptr;
 113:main.c        ****     
 114:main.c        ****     /* Place your initialization/startup code here (e.g. MyInst_Start()) */
 115:main.c        ****     USER_INFO_Start();
 255              		.loc 1 115 0
 256 002c FFF7FEFF 		bl	USER_INFO_Start
 257              	.LVL27:
 116:main.c        ****     USB_UART_Start();
 258              		.loc 1 116 0
 259 0030 FFF7FEFF 		bl	USB_UART_Start
 260              	.LVL28:
 117:main.c        ****     // Provision card if on first boot
 118:main.c        ****     ptr = PROVISIONED;
 119:main.c        ****     if (*ptr == 0x00) {
 261              		.loc 1 119 0
 262 0034 2423     		movs	r3, #36
 263 0036 494A     		ldr	r2, .L23+4
 264 0038 D35C     		ldrb	r3, [r2, r3]
ARM GAS  C:\Users\Admin\AppData\Local\Temp\ccgW1Y8c.s 			page 8


 265 003a 002B     		cmp	r3, #0
 266 003c 0DD1     		bne	.L12
 120:main.c        ****         provision();
 267              		.loc 1 120 0
 268 003e FFF7FEFF 		bl	provision
 269              	.LVL29:
 121:main.c        ****         
 122:main.c        ****         // Mark as provisioned
 123:main.c        ****         i = 0x01;
 270              		.loc 1 123 0
 271 0042 C820     		movs	r0, #200
 272 0044 FF30     		adds	r0, r0, #255
 273 0046 02AB     		add	r3, sp, #8
 274 0048 9C46     		mov	ip, r3
 275 004a 6044     		add	r0, r0, ip
 276 004c 0123     		movs	r3, #1
 277 004e 0370     		strb	r3, [r0]
 124:main.c        ****         USER_INFO_Write(&i,PROVISIONED, 1u);
 278              		.loc 1 124 0
 279 0050 0122     		movs	r2, #1
 280 0052 4249     		ldr	r1, .L23+4
 281 0054 2431     		adds	r1, r1, #36
 282 0056 FFF7FEFF 		bl	USER_INFO_Write
 283              	.LVL30:
 284              	.L12:
 125:main.c        ****     }
 126:main.c        ****     
 127:main.c        ****     // Go into infinite loop
 128:main.c        ****     while (1) {
 129:main.c        ****         /* Place your application code here. */
 130:main.c        ****         
 131:main.c        ****         // syncronize communication with bank
 132:main.c        ****         syncConnection(SYNC_NORM);
 285              		.loc 1 132 0
 286 005a 0020     		movs	r0, #0
 287 005c FFF7FEFF 		bl	syncConnection
 288              	.LVL31:
 133:main.c        ****         
 134:main.c        ****         // receive pin number from ATM
 135:main.c        ****         pullMessage(message);
 289              		.loc 1 135 0
 290 0060 53AD     		add	r5, sp, #332
 291 0062 2800     		movs	r0, r5
 292 0064 FFF7FEFF 		bl	pullMessage
 293              	.LVL32:
 136:main.c        ****         // change PIN or broadcast UUID
 137:main.c        ****         if(message[0] == GIVE_CARD_ID)
 294              		.loc 1 137 0
 295 0068 2B78     		ldrb	r3, [r5]
 296 006a 312B     		cmp	r3, #49
 297 006c 03D1     		bne	.L11
 138:main.c        ****         {
 139:main.c        ****             pushMessage(CARD_ID, CARD_ID_LEN);
 298              		.loc 1 139 0
 299 006e 2421     		movs	r1, #36
 300 0070 3A48     		ldr	r0, .L23+4
 301 0072 FFF7FEFF 		bl	pushMessage
ARM GAS  C:\Users\Admin\AppData\Local\Temp\ccgW1Y8c.s 			page 9


 302              	.LVL33:
 303              	.L11:
 140:main.c        ****         }
 141:main.c        ****         if(message[1] == GIVE_SIG)
 304              		.loc 1 141 0
 305 0076 53AB     		add	r3, sp, #332
 306 0078 5B78     		ldrb	r3, [r3, #1]
 307 007a 322B     		cmp	r3, #50
 308 007c EDD1     		bne	.L12
 142:main.c        ****         {
 143:main.c        ****             //pullMessage(message);
 144:main.c        ****             keyValues[0]  =  (unsigned char)(* (reg8 *) CYREG_SFLASH_DIE_LOT0) ;
 309              		.loc 1 144 0
 310 007e 384B     		ldr	r3, .L23+8
 311 0080 1B78     		ldrb	r3, [r3]
 312 0082 02AA     		add	r2, sp, #8
 313 0084 1370     		strb	r3, [r2]
 145:main.c        ****             keyValues[1] = (unsigned char)(* (reg8 *) CYREG_SFLASH_DIE_LOT1  ) ;
 314              		.loc 1 145 0
 315 0086 374B     		ldr	r3, .L23+12
 316 0088 1B78     		ldrb	r3, [r3]
 317 008a 5370     		strb	r3, [r2, #1]
 146:main.c        ****             keyValues[2] = (unsigned char)(* (reg8 *) CYREG_SFLASH_DIE_LOT2  ) ;
 318              		.loc 1 146 0
 319 008c 364B     		ldr	r3, .L23+16
 320 008e 1B78     		ldrb	r3, [r3]
 321 0090 9370     		strb	r3, [r2, #2]
 147:main.c        ****             keyValues[3] = (unsigned char)(* (reg8 *) CYREG_SFLASH_DIE_WAFER ) ;
 322              		.loc 1 147 0
 323 0092 364B     		ldr	r3, .L23+20
 324 0094 1B78     		ldrb	r3, [r3]
 325 0096 D370     		strb	r3, [r2, #3]
 148:main.c        **** 
 149:main.c        ****             keyValues[4]  =  (unsigned char)(* (reg8 *) CYREG_SFLASH_DIE_X   ) ;
 326              		.loc 1 149 0
 327 0098 354B     		ldr	r3, .L23+24
 328 009a 1B78     		ldrb	r3, [r3]
 329 009c 1371     		strb	r3, [r2, #4]
 150:main.c        ****             keyValues[5] = (unsigned char)(* (reg8 *) CYREG_SFLASH_DIE_Y     ) ;
 330              		.loc 1 150 0
 331 009e 354B     		ldr	r3, .L23+28
 332 00a0 1B78     		ldrb	r3, [r3]
 333 00a2 5371     		strb	r3, [r2, #5]
 151:main.c        ****             keyValues[6] = (unsigned char)(* (reg8 *) CYREG_SFLASH_DIE_SORT  ) ;
 334              		.loc 1 151 0
 335 00a4 344B     		ldr	r3, .L23+32
 336 00a6 1B78     		ldrb	r3, [r3]
 337 00a8 9371     		strb	r3, [r2, #6]
 152:main.c        ****             keyValues[7] = (unsigned char)(* (reg8 *) CYREG_SFLASH_DIE_MINOR ) ;
 338              		.loc 1 152 0
 339 00aa 344B     		ldr	r3, .L23+36
 340 00ac 1B78     		ldrb	r3, [r3]
 341 00ae D371     		strb	r3, [r2, #7]
 153:main.c        ****             //Take UniqueId and grab the eight bytes and store them somehow and then hash stuff to 
 154:main.c        ****             memcpy(buf, CARD_ID, 4);
 342              		.loc 1 154 0
 343 00b0 0422     		movs	r2, #4
ARM GAS  C:\Users\Admin\AppData\Local\Temp\ccgW1Y8c.s 			page 10


 344 00b2 2A49     		ldr	r1, .L23+4
 345 00b4 0198     		ldr	r0, [sp, #4]
 346 00b6 FFF7FEFF 		bl	memcpy
 347              	.LVL34:
 348              	.LBB2:
 155:main.c        ****             for(int x=0; x < 8; x=x+1)
 349              		.loc 1 155 0
 350 00ba 0026     		movs	r6, #0
 351 00bc 2FE0     		b	.L13
 352              	.LVL35:
 353              	.L14:
 354              	.LBB3:
 355              	.LBB4:
 356              	.LBB5:
 156:main.c        ****             {
 157:main.c        ****                 for(int y=0; y < 8; y=y+1)
 158:main.c        ****                 {
 159:main.c        ****                     for(int z=0; z < 8; z=z+1)
 160:main.c        ****                     {
 161:main.c        ****                         for(int w=0; w < 8; w=w+1)
 162:main.c        ****                         {
 163:main.c        ****                             memcpy(&temp[0], &keyValues[x],1);
 357              		.loc 1 163 0 discriminator 3
 358 00be 02AB     		add	r3, sp, #8
 359 00c0 9B5D     		ldrb	r3, [r3, r6]
 360 00c2 2370     		strb	r3, [r4]
 164:main.c        ****                             memcpy(&temp[2], &keyValues[y],1);
 361              		.loc 1 164 0 discriminator 3
 362 00c4 02AB     		add	r3, sp, #8
 363 00c6 4246     		mov	r2, r8
 364 00c8 9B5C     		ldrb	r3, [r3, r2]
 365 00ca A370     		strb	r3, [r4, #2]
 165:main.c        ****                             memcpy(&temp[3], &keyValues[z],1);
 366              		.loc 1 165 0 discriminator 3
 367 00cc 02AB     		add	r3, sp, #8
 368 00ce DB5D     		ldrb	r3, [r3, r7]
 369 00d0 E370     		strb	r3, [r4, #3]
 166:main.c        ****                             memcpy(&temp[4], &keyValues[w],1);
 370              		.loc 1 166 0 discriminator 3
 371 00d2 02AB     		add	r3, sp, #8
 372 00d4 5B5D     		ldrb	r3, [r3, r5]
 373 00d6 2371     		strb	r3, [r4, #4]
 167:main.c        ****                             SALT_HAsaltH_SALT(buf, temp, 4, 32);
 374              		.loc 1 167 0 discriminator 3
 375 00d8 2023     		movs	r3, #32
 376 00da 0422     		movs	r2, #4
 377 00dc 2100     		movs	r1, r4
 378 00de 0198     		ldr	r0, [sp, #4]
 379 00e0 FFF7FEFF 		bl	SALT_HAsaltH_SALT
 380              	.LVL36:
 161:main.c        ****                         {
 381              		.loc 1 161 0 discriminator 3
 382 00e4 0135     		adds	r5, r5, #1
 383              	.LVL37:
 384 00e6 00E0     		b	.L15
 385              	.LVL38:
 386              	.L20:
ARM GAS  C:\Users\Admin\AppData\Local\Temp\ccgW1Y8c.s 			page 11


 387              	.LBE5:
 388 00e8 0025     		movs	r5, #0
 389              	.L15:
 390              	.LVL39:
 391              	.LBB6:
 161:main.c        ****                         {
 392              		.loc 1 161 0 is_stmt 0 discriminator 1
 393 00ea 072D     		cmp	r5, #7
 394 00ec E7DD     		ble	.L14
 395              	.LBE6:
 159:main.c        ****                     {
 396              		.loc 1 159 0 is_stmt 1 discriminator 2
 397 00ee 0137     		adds	r7, r7, #1
 398              	.LVL40:
 399 00f0 00E0     		b	.L16
 400              	.LVL41:
 401              	.L21:
 402              	.LBE4:
 403 00f2 0027     		movs	r7, #0
 404              	.LVL42:
 405              	.L16:
 406              	.LBB7:
 159:main.c        ****                     {
 407              		.loc 1 159 0 is_stmt 0 discriminator 1
 408 00f4 072F     		cmp	r7, #7
 409 00f6 F7DD     		ble	.L20
 410              	.LBE7:
 157:main.c        ****                 {
 411              		.loc 1 157 0 is_stmt 1 discriminator 2
 412 00f8 0123     		movs	r3, #1
 413 00fa 9C46     		mov	ip, r3
 414 00fc E044     		add	r8, r8, ip
 415              	.LVL43:
 416 00fe 01E0     		b	.L18
 417              	.LVL44:
 418              	.L22:
 419              	.LBE3:
 420 0100 0023     		movs	r3, #0
 421 0102 9846     		mov	r8, r3
 422              	.L18:
 423              	.LVL45:
 424              	.LBB8:
 157:main.c        ****                 {
 425              		.loc 1 157 0 is_stmt 0 discriminator 1
 426 0104 4346     		mov	r3, r8
 427 0106 072B     		cmp	r3, #7
 428 0108 F3DD     		ble	.L21
 429              	.LBE8:
 168:main.c        ****                         }
 169:main.c        ****                         
 170:main.c        ****                     }
 171:main.c        ****                 }
 172:main.c        ****                 if(x % 4 == 0)
 430              		.loc 1 172 0 is_stmt 1
 431 010a B307     		lsls	r3, r6, #30
 432 010c 06D1     		bne	.L17
 173:main.c        ****                 {
ARM GAS  C:\Users\Admin\AppData\Local\Temp\ccgW1Y8c.s 			page 12


 174:main.c        ****                     memcpy(&AESkey[x*4], buf, 4);
 433              		.loc 1 174 0
 434 010e B300     		lsls	r3, r6, #2
 435 0110 0BAA     		add	r2, sp, #44
 436 0112 D018     		adds	r0, r2, r3
 437 0114 0422     		movs	r2, #4
 438 0116 0199     		ldr	r1, [sp, #4]
 439 0118 FFF7FEFF 		bl	memcpy
 440              	.LVL46:
 441              	.L17:
 155:main.c        ****             {
 442              		.loc 1 155 0 discriminator 2
 443 011c 0136     		adds	r6, r6, #1
 444              	.LVL47:
 445              	.L13:
 155:main.c        ****             {
 446              		.loc 1 155 0 is_stmt 0 discriminator 1
 447 011e 072E     		cmp	r6, #7
 448 0120 EEDD     		ble	.L22
 449              	.LBE2:
 175:main.c        ****                 }
 176:main.c        ****             }
 177:main.c        ****             //Do AES
 178:main.c        ****             AES_init_ctx(&ctx, AESkey);
 450              		.loc 1 178 0 is_stmt 1
 451 0122 0BA9     		add	r1, sp, #44
 452 0124 13A8     		add	r0, sp, #76
 453 0126 FFF7FEFF 		bl	AES_init_ctx
 454              	.LVL48:
 179:main.c        ****             AES_ctx_set_iv(&ctx, &iv);
 455              		.loc 1 179 0
 456 012a 2321     		movs	r1, #35
 457 012c 02AB     		add	r3, sp, #8
 458 012e 9C46     		mov	ip, r3
 459 0130 6144     		add	r1, r1, ip
 460 0132 13A8     		add	r0, sp, #76
 461 0134 FFF7FEFF 		bl	AES_ctx_set_iv
 462              	.LVL49:
 180:main.c        ****             AES_CBC_encrypt_buffer(&ctx, message, strlen((char*) message));
 463              		.loc 1 180 0
 464 0138 53A8     		add	r0, sp, #332
 465 013a FFF7FEFF 		bl	strlen
 466              	.LVL50:
 467 013e 0200     		movs	r2, r0
 468 0140 53A9     		add	r1, sp, #332
 469 0142 13A8     		add	r0, sp, #76
 470 0144 FFF7FEFF 		bl	AES_CBC_encrypt_buffer
 471              	.LVL51:
 181:main.c        ****             //Send Message
 182:main.c        ****             pushMessage(message, strlen((char *) message));
 472              		.loc 1 182 0
 473 0148 53A8     		add	r0, sp, #332
 474 014a FFF7FEFF 		bl	strlen
 475              	.LVL52:
 476 014e C1B2     		uxtb	r1, r0
 477 0150 53A8     		add	r0, sp, #332
 478 0152 FFF7FEFF 		bl	pushMessage
ARM GAS  C:\Users\Admin\AppData\Local\Temp\ccgW1Y8c.s 			page 13


 479              	.LVL53:
 480 0156 80E7     		b	.L12
 481              	.L24:
 482              		.align	2
 483              	.L23:
 484 0158 00000000 		.word	Reset_ISR
 485 015c 00000000 		.word	.LANCHOR0
 486 0160 78F1FF0F 		.word	268431736
 487 0164 79F1FF0F 		.word	268431737
 488 0168 7AF1FF0F 		.word	268431738
 489 016c 7BF1FF0F 		.word	268431739
 490 0170 7CF1FF0F 		.word	268431740
 491 0174 7DF1FF0F 		.word	268431741
 492 0178 7EF1FF0F 		.word	268431742
 493 017c 7FF1FF0F 		.word	268431743
 494              		.cfi_endproc
 495              	.LFE37:
 496              		.size	main, .-main
 497              		.section	.rodata
 498              		.align	2
 499              		.set	.LANCHOR0,. + 0
 500              		.type	CARD_ID, %object
 501              		.size	CARD_ID, 36
 502              	CARD_ID:
 503 0000 00000000 		.space	36
 503      00000000 
 503      00000000 
 503      00000000 
 503      00000000 
 504              		.type	PROVISIONED.5862, %object
 505              		.size	PROVISIONED.5862, 1
 506              	PROVISIONED.5862:
 507 0024 00       		.space	1
 508              		.section	.rodata.str1.4,"aMS",%progbits,1
 509              		.align	2
 510              	.LC0:
 511 0000 496E2069 		.ascii	"In interrupt\012\000"
 511      6E746572 
 511      72757074 
 511      0A00
 512 000e 0000     		.space	2
 513              	.LC2:
 514 0010 5000     		.ascii	"P\000"
 515 0012 0000     		.space	2
 516              	.LC5:
 517 0014 4B00     		.ascii	"K\000"
 518              		.text
 519              	.Letext0:
 520              		.file 3 "c:\\program files (x86)\\cypress\\psoc creator\\4.1\\psoc creator\\import\\gnu\\arm\\5.4.
 521              		.file 4 "c:\\program files (x86)\\cypress\\psoc creator\\4.1\\psoc creator\\import\\gnu\\arm\\5.4.
 522              		.file 5 "Generated_Source\\PSoC4/cytypes.h"
 523              		.file 6 "usbserialprotocol.h"
 524              		.file 7 "Generated_Source\\PSoC4/SW1.h"
 525              		.file 8 "Generated_Source\\PSoC4/CyLib.h"
 526              		.file 9 "c:\\program files (x86)\\cypress\\psoc creator\\4.1\\psoc creator\\import\\gnu\\arm\\5.4.
 527              		.file 10 "SuperFastHash.h"
 528              		.file 11 "Generated_Source\\PSoC4/USER_INFO.h"
ARM GAS  C:\Users\Admin\AppData\Local\Temp\ccgW1Y8c.s 			page 14


 529              		.file 12 "Generated_Source\\PSoC4/Reset_isr.h"
 530              		.file 13 "c:\\program files (x86)\\cypress\\psoc creator\\4.1\\psoc creator\\import\\gnu\\arm\\5.4
 531              		.file 14 "Generated_Source\\PSoC4/USB_UART.h"
 532              		.file 15 "aes.h"