ARM GAS  C:\Users\NIGHDR~1\AppData\Local\Temp\ccvJ0Ig2.s 			page 1


   1              		.syntax unified
   2              		.cpu cortex-m0
   3              		.fpu softvfp
   4              		.eabi_attribute 20, 1
   5              		.eabi_attribute 21, 1
   6              		.eabi_attribute 23, 3
   7              		.eabi_attribute 24, 1
   8              		.eabi_attribute 25, 1
   9              		.eabi_attribute 26, 1
  10              		.eabi_attribute 30, 1
  11              		.eabi_attribute 34, 0
  12              		.eabi_attribute 18, 4
  13              		.thumb
  14              		.syntax unified
  15              		.file	"sc.c"
  16              		.text
  17              	.Ltext0:
  18              		.cfi_sections	.debug_frame
  19              		.section	.text.load_3,"ax",%progbits
  20              		.align	2
  21              		.code	16
  22              		.thumb_func
  23              		.type	load_3, %function
  24              	load_3:
  25              	.LFB0:
  26              		.file 1 "sc.c"
   1:sc.c          **** #include "fixedint.h"
   2:sc.c          **** #include "sc.h"
   3:sc.c          **** 
   4:sc.c          **** static uint64_t load_3(const unsigned char *in) {
  27              		.loc 1 4 0
  28              		.cfi_startproc
  29              		@ args = 0, pretend = 0, frame = 0
  30              		@ frame_needed = 0, uses_anonymous_args = 0
  31              	.LVL0:
  32 0000 10B5     		push	{r4, lr}
  33              		.cfi_def_cfa_offset 8
  34              		.cfi_offset 4, -8
  35              		.cfi_offset 14, -4
   5:sc.c          ****     uint64_t result;
   6:sc.c          **** 
   7:sc.c          ****     result = (uint64_t) in[0];
  36              		.loc 1 7 0
  37 0002 0378     		ldrb	r3, [r0]
  38              	.LVL1:
   8:sc.c          ****     result |= ((uint64_t) in[1]) << 8;
  39              		.loc 1 8 0
  40 0004 4278     		ldrb	r2, [r0, #1]
  41 0006 140E     		lsrs	r4, r2, #24
  42 0008 1202     		lsls	r2, r2, #8
  43 000a 1A43     		orrs	r2, r3
  44              	.LVL2:
   9:sc.c          ****     result |= ((uint64_t) in[2]) << 16;
  45              		.loc 1 9 0
  46 000c 8378     		ldrb	r3, [r0, #2]
  47 000e 190C     		lsrs	r1, r3, #16
  48 0010 1B04     		lsls	r3, r3, #16
ARM GAS  C:\Users\NIGHDR~1\AppData\Local\Temp\ccvJ0Ig2.s 			page 2


  49 0012 1A43     		orrs	r2, r3
  50              	.LVL3:
  51 0014 1000     		movs	r0, r2
  52              	.LVL4:
  53 0016 2143     		orrs	r1, r4
  54              	.LVL5:
  10:sc.c          **** 
  11:sc.c          ****     return result;
  12:sc.c          **** }
  55              		.loc 1 12 0
  56              		@ sp needed
  57 0018 10BD     		pop	{r4, pc}
  58              		.cfi_endproc
  59              	.LFE0:
  60              		.size	load_3, .-load_3
  61 001a C046     		.section	.text.load_4,"ax",%progbits
  62              		.align	2
  63              		.code	16
  64              		.thumb_func
  65              		.type	load_4, %function
  66              	load_4:
  67              	.LFB1:
  13:sc.c          **** 
  14:sc.c          **** static uint64_t load_4(const unsigned char *in) {
  68              		.loc 1 14 0
  69              		.cfi_startproc
  70              		@ args = 0, pretend = 0, frame = 0
  71              		@ frame_needed = 0, uses_anonymous_args = 0
  72              		@ link register save eliminated.
  73              	.LVL6:
  15:sc.c          ****     uint64_t result;
  16:sc.c          **** 
  17:sc.c          ****     result = (uint64_t) in[0];
  74              		.loc 1 17 0
  75 0000 0378     		ldrb	r3, [r0]
  76              	.LVL7:
  18:sc.c          ****     result |= ((uint64_t) in[1]) << 8;
  77              		.loc 1 18 0
  78 0002 4278     		ldrb	r2, [r0, #1]
  79 0004 1202     		lsls	r2, r2, #8
  80 0006 1A43     		orrs	r2, r3
  81              	.LVL8:
  19:sc.c          ****     result |= ((uint64_t) in[2]) << 16;
  82              		.loc 1 19 0
  83 0008 8378     		ldrb	r3, [r0, #2]
  84 000a 1B04     		lsls	r3, r3, #16
  85 000c 1A43     		orrs	r2, r3
  20:sc.c          ****     result |= ((uint64_t) in[3]) << 24;
  86              		.loc 1 20 0
  87 000e C378     		ldrb	r3, [r0, #3]
  88 0010 1B06     		lsls	r3, r3, #24
  89 0012 1A43     		orrs	r2, r3
  90 0014 1000     		movs	r0, r2
  91              	.LVL9:
  21:sc.c          ****     
  22:sc.c          ****     return result;
  23:sc.c          **** }
ARM GAS  C:\Users\NIGHDR~1\AppData\Local\Temp\ccvJ0Ig2.s 			page 3


  92              		.loc 1 23 0
  93 0016 0021     		movs	r1, #0
  94              		@ sp needed
  95 0018 7047     		bx	lr
  96              		.cfi_endproc
  97              	.LFE1:
  98              		.size	load_4, .-load_4
  99              		.global	__aeabi_lmul
 100 001a C046     		.section	.text.sc_reduce,"ax",%progbits
 101              		.align	2
 102              		.global	sc_reduce
 103              		.code	16
 104              		.thumb_func
 105              		.type	sc_reduce, %function
 106              	sc_reduce:
 107              	.LFB2:
  24:sc.c          **** 
  25:sc.c          **** /*
  26:sc.c          **** Input:
  27:sc.c          ****   s[0]+256*s[1]+...+256^63*s[63] = s
  28:sc.c          **** 
  29:sc.c          **** Output:
  30:sc.c          ****   s[0]+256*s[1]+...+256^31*s[31] = s mod l
  31:sc.c          ****   where l = 2^252 + 27742317777372353535851937790883648493.
  32:sc.c          ****   Overwrites s in place.
  33:sc.c          **** */
  34:sc.c          **** 
  35:sc.c          **** void sc_reduce(unsigned char *s) {
 108              		.loc 1 35 0
 109              		.cfi_startproc
 110              		@ args = 0, pretend = 0, frame = 184
 111              		@ frame_needed = 0, uses_anonymous_args = 0
 112              	.LVL10:
 113 0000 F0B5     		push	{r4, r5, r6, r7, lr}
 114              		.cfi_def_cfa_offset 20
 115              		.cfi_offset 4, -20
 116              		.cfi_offset 5, -16
 117              		.cfi_offset 6, -12
 118              		.cfi_offset 7, -8
 119              		.cfi_offset 14, -4
 120 0002 4746     		mov	r7, r8
 121 0004 80B4     		push	{r7}
 122              		.cfi_def_cfa_offset 24
 123              		.cfi_offset 8, -24
 124 0006 AEB0     		sub	sp, sp, #184
 125              		.cfi_def_cfa_offset 208
 126 0008 8046     		mov	r8, r0
  36:sc.c          ****     int64_t s0 = 2097151 & load_3(s);
 127              		.loc 1 36 0
 128 000a FFF7FEFF 		bl	load_3
 129              	.LVL11:
 130 000e C002     		lsls	r0, r0, #11
 131 0010 C30A     		lsrs	r3, r0, #11
 132 0012 0A93     		str	r3, [sp, #40]
 133 0014 0023     		movs	r3, #0
 134 0016 0B93     		str	r3, [sp, #44]
 135              	.LVL12:
ARM GAS  C:\Users\NIGHDR~1\AppData\Local\Temp\ccvJ0Ig2.s 			page 4


  37:sc.c          ****     int64_t s1 = 2097151 & (load_4(s + 2) >> 5);
 136              		.loc 1 37 0
 137 0018 4346     		mov	r3, r8
 138 001a 981C     		adds	r0, r3, #2
 139 001c FFF7FEFF 		bl	load_4
 140              	.LVL13:
 141 0020 4009     		lsrs	r0, r0, #5
 142 0022 C002     		lsls	r0, r0, #11
 143 0024 C30A     		lsrs	r3, r0, #11
 144 0026 0C93     		str	r3, [sp, #48]
 145 0028 0023     		movs	r3, #0
 146 002a 0D93     		str	r3, [sp, #52]
 147              	.LVL14:
  38:sc.c          ****     int64_t s2 = 2097151 & (load_3(s + 5) >> 2);
 148              		.loc 1 38 0
 149 002c 4346     		mov	r3, r8
 150 002e 581D     		adds	r0, r3, #5
 151 0030 FFF7FEFF 		bl	load_3
 152              	.LVL15:
 153 0034 8008     		lsrs	r0, r0, #2
 154 0036 C002     		lsls	r0, r0, #11
 155 0038 C30A     		lsrs	r3, r0, #11
 156 003a 0E93     		str	r3, [sp, #56]
 157 003c 0023     		movs	r3, #0
 158 003e 0F93     		str	r3, [sp, #60]
 159              	.LVL16:
  39:sc.c          ****     int64_t s3 = 2097151 & (load_4(s + 7) >> 7);
 160              		.loc 1 39 0
 161 0040 4346     		mov	r3, r8
 162 0042 D81D     		adds	r0, r3, #7
 163 0044 FFF7FEFF 		bl	load_4
 164              	.LVL17:
 165 0048 C009     		lsrs	r0, r0, #7
 166 004a C002     		lsls	r0, r0, #11
 167 004c C30A     		lsrs	r3, r0, #11
 168 004e 1093     		str	r3, [sp, #64]
 169 0050 0023     		movs	r3, #0
 170 0052 1193     		str	r3, [sp, #68]
 171              	.LVL18:
  40:sc.c          ****     int64_t s4 = 2097151 & (load_4(s + 10) >> 4);
 172              		.loc 1 40 0
 173 0054 4046     		mov	r0, r8
 174 0056 0A30     		adds	r0, r0, #10
 175 0058 FFF7FEFF 		bl	load_4
 176              	.LVL19:
 177 005c 0009     		lsrs	r0, r0, #4
 178 005e C002     		lsls	r0, r0, #11
 179 0060 C30A     		lsrs	r3, r0, #11
 180 0062 1293     		str	r3, [sp, #72]
 181 0064 0023     		movs	r3, #0
 182 0066 1393     		str	r3, [sp, #76]
 183              	.LVL20:
  41:sc.c          ****     int64_t s5 = 2097151 & (load_3(s + 13) >> 1);
 184              		.loc 1 41 0
 185 0068 4046     		mov	r0, r8
 186 006a 0D30     		adds	r0, r0, #13
 187 006c FFF7FEFF 		bl	load_3
ARM GAS  C:\Users\NIGHDR~1\AppData\Local\Temp\ccvJ0Ig2.s 			page 5


 188              	.LVL21:
 189 0070 4008     		lsrs	r0, r0, #1
 190 0072 C002     		lsls	r0, r0, #11
 191 0074 C30A     		lsrs	r3, r0, #11
 192 0076 1493     		str	r3, [sp, #80]
 193 0078 0023     		movs	r3, #0
 194 007a 1593     		str	r3, [sp, #84]
 195              	.LVL22:
  42:sc.c          ****     int64_t s6 = 2097151 & (load_4(s + 15) >> 6);
 196              		.loc 1 42 0
 197 007c 4046     		mov	r0, r8
 198 007e 0F30     		adds	r0, r0, #15
 199 0080 FFF7FEFF 		bl	load_4
 200              	.LVL23:
 201 0084 8009     		lsrs	r0, r0, #6
 202 0086 C002     		lsls	r0, r0, #11
 203 0088 C30A     		lsrs	r3, r0, #11
 204 008a 0693     		str	r3, [sp, #24]
 205 008c 0023     		movs	r3, #0
 206 008e 0793     		str	r3, [sp, #28]
 207              	.LVL24:
  43:sc.c          ****     int64_t s7 = 2097151 & (load_3(s + 18) >> 3);
 208              		.loc 1 43 0
 209 0090 4046     		mov	r0, r8
 210 0092 1230     		adds	r0, r0, #18
 211 0094 FFF7FEFF 		bl	load_3
 212              	.LVL25:
 213 0098 C008     		lsrs	r0, r0, #3
 214 009a C002     		lsls	r0, r0, #11
 215 009c C30A     		lsrs	r3, r0, #11
 216 009e 0893     		str	r3, [sp, #32]
 217 00a0 0023     		movs	r3, #0
 218 00a2 0993     		str	r3, [sp, #36]
 219              	.LVL26:
  44:sc.c          ****     int64_t s8 = 2097151 & load_3(s + 21);
 220              		.loc 1 44 0
 221 00a4 4046     		mov	r0, r8
 222 00a6 1530     		adds	r0, r0, #21
 223 00a8 FFF7FEFF 		bl	load_3
 224              	.LVL27:
 225 00ac C002     		lsls	r0, r0, #11
 226 00ae C30A     		lsrs	r3, r0, #11
 227 00b0 1693     		str	r3, [sp, #88]
 228 00b2 0023     		movs	r3, #0
 229 00b4 1793     		str	r3, [sp, #92]
 230              	.LVL28:
  45:sc.c          ****     int64_t s9 = 2097151 & (load_4(s + 23) >> 5);
 231              		.loc 1 45 0
 232 00b6 4046     		mov	r0, r8
 233 00b8 1730     		adds	r0, r0, #23
 234 00ba FFF7FEFF 		bl	load_4
 235              	.LVL29:
 236 00be 4009     		lsrs	r0, r0, #5
 237 00c0 C002     		lsls	r0, r0, #11
 238 00c2 C30A     		lsrs	r3, r0, #11
 239 00c4 1893     		str	r3, [sp, #96]
 240 00c6 0023     		movs	r3, #0
ARM GAS  C:\Users\NIGHDR~1\AppData\Local\Temp\ccvJ0Ig2.s 			page 6


 241 00c8 1993     		str	r3, [sp, #100]
 242              	.LVL30:
  46:sc.c          ****     int64_t s10 = 2097151 & (load_3(s + 26) >> 2);
 243              		.loc 1 46 0
 244 00ca 4046     		mov	r0, r8
 245 00cc 1A30     		adds	r0, r0, #26
 246 00ce FFF7FEFF 		bl	load_3
 247              	.LVL31:
 248 00d2 8008     		lsrs	r0, r0, #2
 249 00d4 C002     		lsls	r0, r0, #11
 250 00d6 C30A     		lsrs	r3, r0, #11
 251 00d8 1A93     		str	r3, [sp, #104]
 252 00da 0023     		movs	r3, #0
 253 00dc 1B93     		str	r3, [sp, #108]
 254              	.LVL32:
  47:sc.c          ****     int64_t s11 = 2097151 & (load_4(s + 28) >> 7);
 255              		.loc 1 47 0
 256 00de 4046     		mov	r0, r8
 257 00e0 1C30     		adds	r0, r0, #28
 258 00e2 FFF7FEFF 		bl	load_4
 259              	.LVL33:
 260 00e6 C009     		lsrs	r0, r0, #7
 261 00e8 C002     		lsls	r0, r0, #11
 262 00ea C30A     		lsrs	r3, r0, #11
 263 00ec 1C93     		str	r3, [sp, #112]
 264 00ee 0023     		movs	r3, #0
 265 00f0 1D93     		str	r3, [sp, #116]
 266              	.LVL34:
  48:sc.c          ****     int64_t s12 = 2097151 & (load_4(s + 31) >> 4);
 267              		.loc 1 48 0
 268 00f2 4046     		mov	r0, r8
 269 00f4 1F30     		adds	r0, r0, #31
 270 00f6 FFF7FEFF 		bl	load_4
 271              	.LVL35:
 272 00fa 0009     		lsrs	r0, r0, #4
 273 00fc C002     		lsls	r0, r0, #11
 274 00fe C30A     		lsrs	r3, r0, #11
 275 0100 1E93     		str	r3, [sp, #120]
 276 0102 0023     		movs	r3, #0
 277 0104 1F93     		str	r3, [sp, #124]
 278              	.LVL36:
  49:sc.c          ****     int64_t s13 = 2097151 & (load_3(s + 34) >> 1);
 279              		.loc 1 49 0
 280 0106 4046     		mov	r0, r8
 281 0108 2230     		adds	r0, r0, #34
 282 010a FFF7FEFF 		bl	load_3
 283              	.LVL37:
 284 010e 4008     		lsrs	r0, r0, #1
 285 0110 C002     		lsls	r0, r0, #11
 286 0112 C30A     		lsrs	r3, r0, #11
 287 0114 2093     		str	r3, [sp, #128]
 288 0116 0023     		movs	r3, #0
 289 0118 2193     		str	r3, [sp, #132]
 290              	.LVL38:
  50:sc.c          ****     int64_t s14 = 2097151 & (load_4(s + 36) >> 6);
 291              		.loc 1 50 0
 292 011a 4046     		mov	r0, r8
ARM GAS  C:\Users\NIGHDR~1\AppData\Local\Temp\ccvJ0Ig2.s 			page 7


 293 011c 2430     		adds	r0, r0, #36
 294 011e FFF7FEFF 		bl	load_4
 295              	.LVL39:
 296 0122 8009     		lsrs	r0, r0, #6
 297 0124 C002     		lsls	r0, r0, #11
 298 0126 C30A     		lsrs	r3, r0, #11
 299 0128 2293     		str	r3, [sp, #136]
 300 012a 0023     		movs	r3, #0
 301 012c 2393     		str	r3, [sp, #140]
 302              	.LVL40:
  51:sc.c          ****     int64_t s15 = 2097151 & (load_3(s + 39) >> 3);
 303              		.loc 1 51 0
 304 012e 4046     		mov	r0, r8
 305 0130 2730     		adds	r0, r0, #39
 306 0132 FFF7FEFF 		bl	load_3
 307              	.LVL41:
 308 0136 C008     		lsrs	r0, r0, #3
 309 0138 C002     		lsls	r0, r0, #11
 310 013a C30A     		lsrs	r3, r0, #11
 311 013c 2493     		str	r3, [sp, #144]
 312 013e 0023     		movs	r3, #0
 313 0140 2593     		str	r3, [sp, #148]
 314              	.LVL42:
  52:sc.c          ****     int64_t s16 = 2097151 & load_3(s + 42);
 315              		.loc 1 52 0
 316 0142 4046     		mov	r0, r8
 317 0144 2A30     		adds	r0, r0, #42
 318 0146 FFF7FEFF 		bl	load_3
 319              	.LVL43:
 320 014a C002     		lsls	r0, r0, #11
 321 014c C30A     		lsrs	r3, r0, #11
 322 014e 2693     		str	r3, [sp, #152]
 323 0150 0023     		movs	r3, #0
 324 0152 2793     		str	r3, [sp, #156]
 325              	.LVL44:
  53:sc.c          ****     int64_t s17 = 2097151 & (load_4(s + 44) >> 5);
 326              		.loc 1 53 0
 327 0154 4046     		mov	r0, r8
 328 0156 2C30     		adds	r0, r0, #44
 329 0158 FFF7FEFF 		bl	load_4
 330              	.LVL45:
 331 015c 4009     		lsrs	r0, r0, #5
 332 015e C002     		lsls	r0, r0, #11
 333 0160 C30A     		lsrs	r3, r0, #11
 334 0162 2893     		str	r3, [sp, #160]
 335 0164 0023     		movs	r3, #0
 336 0166 2993     		str	r3, [sp, #164]
 337              	.LVL46:
  54:sc.c          ****     int64_t s18 = 2097151 & (load_3(s + 47) >> 2);
 338              		.loc 1 54 0
 339 0168 4046     		mov	r0, r8
 340 016a 2F30     		adds	r0, r0, #47
 341 016c FFF7FEFF 		bl	load_3
 342              	.LVL47:
 343 0170 8008     		lsrs	r0, r0, #2
 344 0172 C002     		lsls	r0, r0, #11
 345 0174 C30A     		lsrs	r3, r0, #11
ARM GAS  C:\Users\NIGHDR~1\AppData\Local\Temp\ccvJ0Ig2.s 			page 8


 346 0176 2A93     		str	r3, [sp, #168]
 347              	.LVL48:
  55:sc.c          ****     int64_t s19 = 2097151 & (load_4(s + 49) >> 7);
 348              		.loc 1 55 0
 349 0178 4046     		mov	r0, r8
 350 017a 3130     		adds	r0, r0, #49
 351 017c FFF7FEFF 		bl	load_4
 352              	.LVL49:
 353 0180 C009     		lsrs	r0, r0, #7
 354 0182 C002     		lsls	r0, r0, #11
 355 0184 C50A     		lsrs	r5, r0, #11
 356 0186 2B95     		str	r5, [sp, #172]
 357              	.LVL50:
  56:sc.c          ****     int64_t s20 = 2097151 & (load_4(s + 52) >> 4);
 358              		.loc 1 56 0
 359 0188 4046     		mov	r0, r8
 360 018a 3430     		adds	r0, r0, #52
 361 018c FFF7FEFF 		bl	load_4
 362              	.LVL51:
 363 0190 0009     		lsrs	r0, r0, #4
 364 0192 C002     		lsls	r0, r0, #11
 365 0194 C20A     		lsrs	r2, r0, #11
 366 0196 0092     		str	r2, [sp]
 367              	.LVL52:
  57:sc.c          ****     int64_t s21 = 2097151 & (load_3(s + 55) >> 1);
 368              		.loc 1 57 0
 369 0198 4046     		mov	r0, r8
 370 019a 3730     		adds	r0, r0, #55
 371 019c FFF7FEFF 		bl	load_3
 372              	.LVL53:
 373 01a0 4408     		lsrs	r4, r0, #1
 374 01a2 E402     		lsls	r4, r4, #11
 375 01a4 E10A     		lsrs	r1, r4, #11
 376 01a6 0291     		str	r1, [sp, #8]
 377              	.LVL54:
  58:sc.c          ****     int64_t s22 = 2097151 & (load_4(s + 57) >> 6);
 378              		.loc 1 58 0
 379 01a8 4046     		mov	r0, r8
 380 01aa 3930     		adds	r0, r0, #57
 381 01ac FFF7FEFF 		bl	load_4
 382              	.LVL55:
 383 01b0 8509     		lsrs	r5, r0, #6
 384              	.LVL56:
 385 01b2 ED02     		lsls	r5, r5, #11
 386 01b4 E80A     		lsrs	r0, r5, #11
 387 01b6 0490     		str	r0, [sp, #16]
 388              	.LVL57:
  59:sc.c          ****     int64_t s23 = (load_4(s + 60) >> 3);
 389              		.loc 1 59 0
 390 01b8 4046     		mov	r0, r8
 391              	.LVL58:
 392 01ba 3C30     		adds	r0, r0, #60
 393 01bc FFF7FEFF 		bl	load_4
 394              	.LVL59:
 395 01c0 4B07     		lsls	r3, r1, #29
 396 01c2 C608     		lsrs	r6, r0, #3
 397 01c4 1E43     		orrs	r6, r3
ARM GAS  C:\Users\NIGHDR~1\AppData\Local\Temp\ccvJ0Ig2.s 			page 9


 398 01c6 CF08     		lsrs	r7, r1, #3
 399              	.LVL60:
  60:sc.c          ****     int64_t carry0;
  61:sc.c          ****     int64_t carry1;
  62:sc.c          ****     int64_t carry2;
  63:sc.c          ****     int64_t carry3;
  64:sc.c          ****     int64_t carry4;
  65:sc.c          ****     int64_t carry5;
  66:sc.c          ****     int64_t carry6;
  67:sc.c          ****     int64_t carry7;
  68:sc.c          ****     int64_t carry8;
  69:sc.c          ****     int64_t carry9;
  70:sc.c          ****     int64_t carry10;
  71:sc.c          ****     int64_t carry11;
  72:sc.c          ****     int64_t carry12;
  73:sc.c          ****     int64_t carry13;
  74:sc.c          ****     int64_t carry14;
  75:sc.c          ****     int64_t carry15;
  76:sc.c          ****     int64_t carry16;
  77:sc.c          **** 
  78:sc.c          ****     s11 += s23 * 666643;
 400              		.loc 1 78 0
 401 01c8 ED4A     		ldr	r2, .L4
 402 01ca 0023     		movs	r3, #0
 403 01cc 3000     		movs	r0, r6
 404 01ce 3900     		movs	r1, r7
 405 01d0 FFF7FEFF 		bl	__aeabi_lmul
 406              	.LVL61:
 407 01d4 1C9B     		ldr	r3, [sp, #112]
 408 01d6 1D9C     		ldr	r4, [sp, #116]
 409 01d8 1B18     		adds	r3, r3, r0
 410 01da 4C41     		adcs	r4, r4, r1
 411 01dc 2C93     		str	r3, [sp, #176]
 412 01de 2D94     		str	r4, [sp, #180]
 413              	.LVL62:
  79:sc.c          ****     s12 += s23 * 470296;
 414              		.loc 1 79 0
 415 01e0 E84A     		ldr	r2, .L4+4
 416 01e2 0023     		movs	r3, #0
 417              	.LVL63:
 418 01e4 3000     		movs	r0, r6
 419 01e6 3900     		movs	r1, r7
 420 01e8 FFF7FEFF 		bl	__aeabi_lmul
 421              	.LVL64:
 422 01ec 1E9B     		ldr	r3, [sp, #120]
 423 01ee 1F9C     		ldr	r4, [sp, #124]
 424 01f0 1B18     		adds	r3, r3, r0
 425 01f2 4C41     		adcs	r4, r4, r1
 426 01f4 1E93     		str	r3, [sp, #120]
 427 01f6 1F94     		str	r4, [sp, #124]
 428              	.LVL65:
  80:sc.c          ****     s13 += s23 * 654183;
 429              		.loc 1 80 0
 430 01f8 E34A     		ldr	r2, .L4+8
 431 01fa 0023     		movs	r3, #0
 432              	.LVL66:
 433 01fc 3000     		movs	r0, r6
ARM GAS  C:\Users\NIGHDR~1\AppData\Local\Temp\ccvJ0Ig2.s 			page 10


 434 01fe 3900     		movs	r1, r7
 435 0200 FFF7FEFF 		bl	__aeabi_lmul
 436              	.LVL67:
 437 0204 209C     		ldr	r4, [sp, #128]
 438 0206 219D     		ldr	r5, [sp, #132]
 439 0208 2418     		adds	r4, r4, r0
 440 020a 4D41     		adcs	r5, r5, r1
 441 020c 2094     		str	r4, [sp, #128]
 442 020e 2195     		str	r5, [sp, #132]
 443              	.LVL68:
  81:sc.c          ****     s14 -= s23 * 997805;
 444              		.loc 1 81 0
 445 0210 DE4A     		ldr	r2, .L4+12
 446 0212 0123     		movs	r3, #1
 447 0214 5B42     		rsbs	r3, r3, #0
 448 0216 3000     		movs	r0, r6
 449 0218 3900     		movs	r1, r7
 450 021a FFF7FEFF 		bl	__aeabi_lmul
 451              	.LVL69:
 452 021e 229C     		ldr	r4, [sp, #136]
 453 0220 239D     		ldr	r5, [sp, #140]
 454              	.LVL70:
 455 0222 2418     		adds	r4, r4, r0
 456 0224 4D41     		adcs	r5, r5, r1
 457              	.LVL71:
  82:sc.c          ****     s15 += s23 * 136657;
 458              		.loc 1 82 0
 459 0226 DA4A     		ldr	r2, .L4+16
 460 0228 0023     		movs	r3, #0
 461 022a 3000     		movs	r0, r6
 462 022c 3900     		movs	r1, r7
 463 022e FFF7FEFF 		bl	__aeabi_lmul
 464              	.LVL72:
 465 0232 249A     		ldr	r2, [sp, #144]
 466 0234 259B     		ldr	r3, [sp, #148]
 467 0236 1218     		adds	r2, r2, r0
 468 0238 4B41     		adcs	r3, r3, r1
 469 023a 2292     		str	r2, [sp, #136]
 470 023c 2393     		str	r3, [sp, #140]
 471              	.LVL73:
  83:sc.c          ****     s16 -= s23 * 683901;
 472              		.loc 1 83 0
 473 023e D54A     		ldr	r2, .L4+20
 474              	.LVL74:
 475 0240 0123     		movs	r3, #1
 476 0242 5B42     		rsbs	r3, r3, #0
 477 0244 3000     		movs	r0, r6
 478 0246 3900     		movs	r1, r7
 479 0248 FFF7FEFF 		bl	__aeabi_lmul
 480              	.LVL75:
 481 024c 269E     		ldr	r6, [sp, #152]
 482 024e 279F     		ldr	r7, [sp, #156]
 483              	.LVL76:
 484 0250 3618     		adds	r6, r6, r0
 485 0252 4F41     		adcs	r7, r7, r1
 486 0254 1C96     		str	r6, [sp, #112]
 487 0256 1D97     		str	r7, [sp, #116]
ARM GAS  C:\Users\NIGHDR~1\AppData\Local\Temp\ccvJ0Ig2.s 			page 11


 488              	.LVL77:
  84:sc.c          ****     s23 = 0;
  85:sc.c          ****     s10 += s22 * 666643;
 489              		.loc 1 85 0
 490 0258 C94A     		ldr	r2, .L4
 491 025a 0023     		movs	r3, #0
 492 025c 0498     		ldr	r0, [sp, #16]
 493 025e 0021     		movs	r1, #0
 494 0260 FFF7FEFF 		bl	__aeabi_lmul
 495              	.LVL78:
 496 0264 1A9E     		ldr	r6, [sp, #104]
 497 0266 1B9F     		ldr	r7, [sp, #108]
 498              	.LVL79:
 499 0268 3618     		adds	r6, r6, r0
 500 026a 4F41     		adcs	r7, r7, r1
 501              	.LVL80:
  86:sc.c          ****     s11 += s22 * 470296;
 502              		.loc 1 86 0
 503 026c C54A     		ldr	r2, .L4+4
 504 026e 0023     		movs	r3, #0
 505 0270 0498     		ldr	r0, [sp, #16]
 506 0272 0021     		movs	r1, #0
 507 0274 FFF7FEFF 		bl	__aeabi_lmul
 508              	.LVL81:
 509 0278 2C9A     		ldr	r2, [sp, #176]
 510 027a 2D9B     		ldr	r3, [sp, #180]
 511 027c 1218     		adds	r2, r2, r0
 512 027e 4B41     		adcs	r3, r3, r1
 513 0280 1A92     		str	r2, [sp, #104]
 514 0282 1B93     		str	r3, [sp, #108]
 515              	.LVL82:
  87:sc.c          ****     s12 += s22 * 654183;
 516              		.loc 1 87 0
 517 0284 C04A     		ldr	r2, .L4+8
 518              	.LVL83:
 519 0286 0023     		movs	r3, #0
 520 0288 0498     		ldr	r0, [sp, #16]
 521 028a 0021     		movs	r1, #0
 522 028c FFF7FEFF 		bl	__aeabi_lmul
 523              	.LVL84:
 524 0290 1E9A     		ldr	r2, [sp, #120]
 525 0292 1F9B     		ldr	r3, [sp, #124]
 526 0294 1218     		adds	r2, r2, r0
 527 0296 4B41     		adcs	r3, r3, r1
 528 0298 1E92     		str	r2, [sp, #120]
 529 029a 1F93     		str	r3, [sp, #124]
 530              	.LVL85:
  88:sc.c          ****     s13 -= s22 * 997805;
 531              		.loc 1 88 0
 532 029c BB4A     		ldr	r2, .L4+12
 533              	.LVL86:
 534 029e 0123     		movs	r3, #1
 535 02a0 5B42     		rsbs	r3, r3, #0
 536 02a2 0498     		ldr	r0, [sp, #16]
 537 02a4 0021     		movs	r1, #0
 538 02a6 FFF7FEFF 		bl	__aeabi_lmul
 539              	.LVL87:
ARM GAS  C:\Users\NIGHDR~1\AppData\Local\Temp\ccvJ0Ig2.s 			page 12


 540 02aa 209A     		ldr	r2, [sp, #128]
 541 02ac 219B     		ldr	r3, [sp, #132]
 542 02ae 1218     		adds	r2, r2, r0
 543 02b0 4B41     		adcs	r3, r3, r1
 544 02b2 2092     		str	r2, [sp, #128]
 545 02b4 2193     		str	r3, [sp, #132]
 546              	.LVL88:
  89:sc.c          ****     s14 += s22 * 136657;
 547              		.loc 1 89 0
 548 02b6 B64A     		ldr	r2, .L4+16
 549              	.LVL89:
 550 02b8 0023     		movs	r3, #0
 551 02ba 0498     		ldr	r0, [sp, #16]
 552 02bc 0021     		movs	r1, #0
 553 02be FFF7FEFF 		bl	__aeabi_lmul
 554              	.LVL90:
 555 02c2 2418     		adds	r4, r4, r0
 556 02c4 4D41     		adcs	r5, r5, r1
 557              	.LVL91:
  90:sc.c          ****     s15 -= s22 * 683901;
 558              		.loc 1 90 0
 559 02c6 B34A     		ldr	r2, .L4+20
 560 02c8 0123     		movs	r3, #1
 561 02ca 5B42     		rsbs	r3, r3, #0
 562 02cc 0498     		ldr	r0, [sp, #16]
 563 02ce 0021     		movs	r1, #0
 564 02d0 FFF7FEFF 		bl	__aeabi_lmul
 565              	.LVL92:
 566 02d4 229A     		ldr	r2, [sp, #136]
 567 02d6 239B     		ldr	r3, [sp, #140]
 568 02d8 1218     		adds	r2, r2, r0
 569 02da 4B41     		adcs	r3, r3, r1
 570 02dc 2292     		str	r2, [sp, #136]
 571 02de 2393     		str	r3, [sp, #140]
 572              	.LVL93:
  91:sc.c          ****     s22 = 0;
  92:sc.c          ****     s9 += s21 * 666643;
 573              		.loc 1 92 0
 574 02e0 A74A     		ldr	r2, .L4
 575              	.LVL94:
 576 02e2 0023     		movs	r3, #0
 577 02e4 0298     		ldr	r0, [sp, #8]
 578 02e6 0021     		movs	r1, #0
 579 02e8 FFF7FEFF 		bl	__aeabi_lmul
 580              	.LVL95:
 581 02ec 189A     		ldr	r2, [sp, #96]
 582 02ee 199B     		ldr	r3, [sp, #100]
 583 02f0 1218     		adds	r2, r2, r0
 584 02f2 4B41     		adcs	r3, r3, r1
 585 02f4 0492     		str	r2, [sp, #16]
 586 02f6 0593     		str	r3, [sp, #20]
 587              	.LVL96:
  93:sc.c          ****     s10 += s21 * 470296;
 588              		.loc 1 93 0
 589 02f8 A24A     		ldr	r2, .L4+4
 590              	.LVL97:
 591 02fa 0023     		movs	r3, #0
ARM GAS  C:\Users\NIGHDR~1\AppData\Local\Temp\ccvJ0Ig2.s 			page 13


 592 02fc 0298     		ldr	r0, [sp, #8]
 593 02fe 0021     		movs	r1, #0
 594 0300 FFF7FEFF 		bl	__aeabi_lmul
 595              	.LVL98:
 596 0304 3618     		adds	r6, r6, r0
 597 0306 4F41     		adcs	r7, r7, r1
 598              	.LVL99:
  94:sc.c          ****     s11 += s21 * 654183;
 599              		.loc 1 94 0
 600 0308 9F4A     		ldr	r2, .L4+8
 601 030a 0023     		movs	r3, #0
 602 030c 0298     		ldr	r0, [sp, #8]
 603 030e 0021     		movs	r1, #0
 604 0310 FFF7FEFF 		bl	__aeabi_lmul
 605              	.LVL100:
 606 0314 1A9A     		ldr	r2, [sp, #104]
 607 0316 1B9B     		ldr	r3, [sp, #108]
 608 0318 1218     		adds	r2, r2, r0
 609 031a 4B41     		adcs	r3, r3, r1
 610 031c 1892     		str	r2, [sp, #96]
 611 031e 1993     		str	r3, [sp, #100]
 612              	.LVL101:
  95:sc.c          ****     s12 -= s21 * 997805;
 613              		.loc 1 95 0
 614 0320 9A4A     		ldr	r2, .L4+12
 615              	.LVL102:
 616 0322 0123     		movs	r3, #1
 617 0324 5B42     		rsbs	r3, r3, #0
 618 0326 0298     		ldr	r0, [sp, #8]
 619 0328 0021     		movs	r1, #0
 620 032a FFF7FEFF 		bl	__aeabi_lmul
 621              	.LVL103:
 622 032e 1E9A     		ldr	r2, [sp, #120]
 623 0330 1F9B     		ldr	r3, [sp, #124]
 624 0332 1218     		adds	r2, r2, r0
 625 0334 4B41     		adcs	r3, r3, r1
 626 0336 1A92     		str	r2, [sp, #104]
 627 0338 1B93     		str	r3, [sp, #108]
 628              	.LVL104:
  96:sc.c          ****     s13 += s21 * 136657;
 629              		.loc 1 96 0
 630 033a 954A     		ldr	r2, .L4+16
 631              	.LVL105:
 632 033c 0023     		movs	r3, #0
 633 033e 0298     		ldr	r0, [sp, #8]
 634 0340 0021     		movs	r1, #0
 635 0342 FFF7FEFF 		bl	__aeabi_lmul
 636              	.LVL106:
 637 0346 209A     		ldr	r2, [sp, #128]
 638 0348 219B     		ldr	r3, [sp, #132]
 639 034a 1218     		adds	r2, r2, r0
 640 034c 4B41     		adcs	r3, r3, r1
 641 034e 1E92     		str	r2, [sp, #120]
 642 0350 1F93     		str	r3, [sp, #124]
 643              	.LVL107:
  97:sc.c          ****     s14 -= s21 * 683901;
 644              		.loc 1 97 0
ARM GAS  C:\Users\NIGHDR~1\AppData\Local\Temp\ccvJ0Ig2.s 			page 14


 645 0352 904A     		ldr	r2, .L4+20
 646              	.LVL108:
 647 0354 0123     		movs	r3, #1
 648 0356 5B42     		rsbs	r3, r3, #0
 649 0358 0298     		ldr	r0, [sp, #8]
 650 035a 0021     		movs	r1, #0
 651 035c FFF7FEFF 		bl	__aeabi_lmul
 652              	.LVL109:
 653 0360 2418     		adds	r4, r4, r0
 654 0362 4D41     		adcs	r5, r5, r1
 655              	.LVL110:
 656 0364 0294     		str	r4, [sp, #8]
 657 0366 0395     		str	r5, [sp, #12]
 658              	.LVL111:
  98:sc.c          ****     s21 = 0;
  99:sc.c          ****     s8 += s20 * 666643;
 659              		.loc 1 99 0
 660 0368 854A     		ldr	r2, .L4
 661 036a 0023     		movs	r3, #0
 662 036c 0098     		ldr	r0, [sp]
 663 036e 0021     		movs	r1, #0
 664 0370 FFF7FEFF 		bl	__aeabi_lmul
 665              	.LVL112:
 666 0374 169C     		ldr	r4, [sp, #88]
 667 0376 179D     		ldr	r5, [sp, #92]
 668              	.LVL113:
 669 0378 2418     		adds	r4, r4, r0
 670 037a 4D41     		adcs	r5, r5, r1
 671              	.LVL114:
 100:sc.c          ****     s9 += s20 * 470296;
 672              		.loc 1 100 0
 673 037c 814A     		ldr	r2, .L4+4
 674 037e 0023     		movs	r3, #0
 675 0380 0098     		ldr	r0, [sp]
 676 0382 0021     		movs	r1, #0
 677 0384 FFF7FEFF 		bl	__aeabi_lmul
 678              	.LVL115:
 679 0388 049A     		ldr	r2, [sp, #16]
 680 038a 059B     		ldr	r3, [sp, #20]
 681 038c 1218     		adds	r2, r2, r0
 682 038e 4B41     		adcs	r3, r3, r1
 683 0390 0492     		str	r2, [sp, #16]
 684 0392 0593     		str	r3, [sp, #20]
 685              	.LVL116:
 101:sc.c          ****     s10 += s20 * 654183;
 686              		.loc 1 101 0
 687 0394 7C4A     		ldr	r2, .L4+8
 688              	.LVL117:
 689 0396 0023     		movs	r3, #0
 690 0398 0098     		ldr	r0, [sp]
 691 039a 0021     		movs	r1, #0
 692 039c FFF7FEFF 		bl	__aeabi_lmul
 693              	.LVL118:
 694 03a0 3618     		adds	r6, r6, r0
 695 03a2 4F41     		adcs	r7, r7, r1
 696              	.LVL119:
 102:sc.c          ****     s11 -= s20 * 997805;
ARM GAS  C:\Users\NIGHDR~1\AppData\Local\Temp\ccvJ0Ig2.s 			page 15


 697              		.loc 1 102 0
 698 03a4 794A     		ldr	r2, .L4+12
 699 03a6 0123     		movs	r3, #1
 700 03a8 5B42     		rsbs	r3, r3, #0
 701 03aa 0098     		ldr	r0, [sp]
 702 03ac 0021     		movs	r1, #0
 703 03ae FFF7FEFF 		bl	__aeabi_lmul
 704              	.LVL120:
 705 03b2 189A     		ldr	r2, [sp, #96]
 706 03b4 199B     		ldr	r3, [sp, #100]
 707 03b6 1218     		adds	r2, r2, r0
 708 03b8 4B41     		adcs	r3, r3, r1
 709 03ba 1692     		str	r2, [sp, #88]
 710 03bc 1793     		str	r3, [sp, #92]
 711              	.LVL121:
 103:sc.c          ****     s12 += s20 * 136657;
 712              		.loc 1 103 0
 713 03be 744A     		ldr	r2, .L4+16
 714              	.LVL122:
 715 03c0 0023     		movs	r3, #0
 716 03c2 0098     		ldr	r0, [sp]
 717 03c4 0021     		movs	r1, #0
 718 03c6 FFF7FEFF 		bl	__aeabi_lmul
 719              	.LVL123:
 720 03ca 1A9A     		ldr	r2, [sp, #104]
 721 03cc 1B9B     		ldr	r3, [sp, #108]
 722 03ce 1218     		adds	r2, r2, r0
 723 03d0 4B41     		adcs	r3, r3, r1
 724 03d2 1892     		str	r2, [sp, #96]
 725 03d4 1993     		str	r3, [sp, #100]
 726              	.LVL124:
 104:sc.c          ****     s13 -= s20 * 683901;
 727              		.loc 1 104 0
 728 03d6 6F4A     		ldr	r2, .L4+20
 729              	.LVL125:
 730 03d8 0123     		movs	r3, #1
 731 03da 5B42     		rsbs	r3, r3, #0
 732 03dc 0098     		ldr	r0, [sp]
 733 03de 0021     		movs	r1, #0
 734 03e0 FFF7FEFF 		bl	__aeabi_lmul
 735              	.LVL126:
 736 03e4 1E9A     		ldr	r2, [sp, #120]
 737 03e6 1F9B     		ldr	r3, [sp, #124]
 738 03e8 1218     		adds	r2, r2, r0
 739 03ea 4B41     		adcs	r3, r3, r1
 740 03ec 1A92     		str	r2, [sp, #104]
 741 03ee 1B93     		str	r3, [sp, #108]
 742              	.LVL127:
 105:sc.c          ****     s20 = 0;
 106:sc.c          ****     s7 += s19 * 666643;
 743              		.loc 1 106 0
 744 03f0 634A     		ldr	r2, .L4
 745              	.LVL128:
 746 03f2 0023     		movs	r3, #0
 747 03f4 2B98     		ldr	r0, [sp, #172]
 748 03f6 0021     		movs	r1, #0
 749 03f8 FFF7FEFF 		bl	__aeabi_lmul
ARM GAS  C:\Users\NIGHDR~1\AppData\Local\Temp\ccvJ0Ig2.s 			page 16


 750              	.LVL129:
 751 03fc 089A     		ldr	r2, [sp, #32]
 752 03fe 099B     		ldr	r3, [sp, #36]
 753 0400 1218     		adds	r2, r2, r0
 754 0402 4B41     		adcs	r3, r3, r1
 755 0404 0892     		str	r2, [sp, #32]
 756 0406 0993     		str	r3, [sp, #36]
 757              	.LVL130:
 107:sc.c          ****     s8 += s19 * 470296;
 758              		.loc 1 107 0
 759 0408 5E4A     		ldr	r2, .L4+4
 760              	.LVL131:
 761 040a 0023     		movs	r3, #0
 762 040c 2B98     		ldr	r0, [sp, #172]
 763 040e 0021     		movs	r1, #0
 764 0410 FFF7FEFF 		bl	__aeabi_lmul
 765              	.LVL132:
 766 0414 2418     		adds	r4, r4, r0
 767 0416 4D41     		adcs	r5, r5, r1
 768              	.LVL133:
 769 0418 1E94     		str	r4, [sp, #120]
 770 041a 1F95     		str	r5, [sp, #124]
 771              	.LVL134:
 108:sc.c          ****     s9 += s19 * 654183;
 772              		.loc 1 108 0
 773 041c 5A4A     		ldr	r2, .L4+8
 774 041e 0023     		movs	r3, #0
 775 0420 2B9D     		ldr	r5, [sp, #172]
 776 0422 2800     		movs	r0, r5
 777 0424 0021     		movs	r1, #0
 778 0426 FFF7FEFF 		bl	__aeabi_lmul
 779              	.LVL135:
 780 042a 049B     		ldr	r3, [sp, #16]
 781 042c 059C     		ldr	r4, [sp, #20]
 782 042e 1B18     		adds	r3, r3, r0
 783 0430 4C41     		adcs	r4, r4, r1
 784 0432 0493     		str	r3, [sp, #16]
 785 0434 0594     		str	r4, [sp, #20]
 786              	.LVL136:
 109:sc.c          ****     s10 -= s19 * 997805;
 787              		.loc 1 109 0
 788 0436 554A     		ldr	r2, .L4+12
 789 0438 0123     		movs	r3, #1
 790              	.LVL137:
 791 043a 5B42     		rsbs	r3, r3, #0
 792 043c 2800     		movs	r0, r5
 793 043e 0021     		movs	r1, #0
 794 0440 FFF7FEFF 		bl	__aeabi_lmul
 795              	.LVL138:
 796 0444 3618     		adds	r6, r6, r0
 797 0446 4F41     		adcs	r7, r7, r1
 798              	.LVL139:
 799 0448 2096     		str	r6, [sp, #128]
 800 044a 2197     		str	r7, [sp, #132]
 801              	.LVL140:
 110:sc.c          ****     s11 += s19 * 136657;
 802              		.loc 1 110 0
ARM GAS  C:\Users\NIGHDR~1\AppData\Local\Temp\ccvJ0Ig2.s 			page 17


 803 044c 504A     		ldr	r2, .L4+16
 804 044e 0023     		movs	r3, #0
 805 0450 2C00     		movs	r4, r5
 806              	.LVL141:
 807 0452 2800     		movs	r0, r5
 808 0454 0021     		movs	r1, #0
 809 0456 FFF7FEFF 		bl	__aeabi_lmul
 810              	.LVL142:
 811 045a 169D     		ldr	r5, [sp, #88]
 812 045c 179E     		ldr	r6, [sp, #92]
 813 045e 2D18     		adds	r5, r5, r0
 814 0460 4E41     		adcs	r6, r6, r1
 815 0462 1695     		str	r5, [sp, #88]
 816 0464 1796     		str	r6, [sp, #92]
 817              	.LVL143:
 111:sc.c          ****     s12 -= s19 * 683901;
 818              		.loc 1 111 0
 819 0466 4B4A     		ldr	r2, .L4+20
 820 0468 0123     		movs	r3, #1
 821 046a 5B42     		rsbs	r3, r3, #0
 822 046c 2000     		movs	r0, r4
 823 046e 0021     		movs	r1, #0
 824 0470 FFF7FEFF 		bl	__aeabi_lmul
 825              	.LVL144:
 826 0474 189B     		ldr	r3, [sp, #96]
 827 0476 199C     		ldr	r4, [sp, #100]
 828 0478 1B18     		adds	r3, r3, r0
 829 047a 4C41     		adcs	r4, r4, r1
 830 047c 0093     		str	r3, [sp]
 831 047e 0194     		str	r4, [sp, #4]
 832              	.LVL145:
 112:sc.c          ****     s19 = 0;
 113:sc.c          ****     s6 += s18 * 666643;
 833              		.loc 1 113 0
 834 0480 3F4A     		ldr	r2, .L4
 835 0482 0023     		movs	r3, #0
 836              	.LVL146:
 837 0484 2A9F     		ldr	r7, [sp, #168]
 838 0486 3800     		movs	r0, r7
 839 0488 0021     		movs	r1, #0
 840 048a FFF7FEFF 		bl	__aeabi_lmul
 841              	.LVL147:
 842 048e 069C     		ldr	r4, [sp, #24]
 843 0490 079D     		ldr	r5, [sp, #28]
 844 0492 2418     		adds	r4, r4, r0
 845 0494 4D41     		adcs	r5, r5, r1
 846              	.LVL148:
 114:sc.c          ****     s7 += s18 * 470296;
 847              		.loc 1 114 0
 848 0496 3B4A     		ldr	r2, .L4+4
 849 0498 0023     		movs	r3, #0
 850 049a 3800     		movs	r0, r7
 851 049c 0021     		movs	r1, #0
 852 049e FFF7FEFF 		bl	__aeabi_lmul
 853              	.LVL149:
 854 04a2 089A     		ldr	r2, [sp, #32]
 855 04a4 099B     		ldr	r3, [sp, #36]
ARM GAS  C:\Users\NIGHDR~1\AppData\Local\Temp\ccvJ0Ig2.s 			page 18


 856 04a6 1218     		adds	r2, r2, r0
 857 04a8 4B41     		adcs	r3, r3, r1
 858 04aa 0692     		str	r2, [sp, #24]
 859 04ac 0793     		str	r3, [sp, #28]
 860              	.LVL150:
 115:sc.c          ****     s8 += s18 * 654183;
 861              		.loc 1 115 0
 862 04ae 364A     		ldr	r2, .L4+8
 863              	.LVL151:
 864 04b0 0023     		movs	r3, #0
 865 04b2 2A97     		str	r7, [sp, #168]
 866              	.LVL152:
 867 04b4 3800     		movs	r0, r7
 868 04b6 0021     		movs	r1, #0
 869 04b8 FFF7FEFF 		bl	__aeabi_lmul
 870              	.LVL153:
 871 04bc 1E9E     		ldr	r6, [sp, #120]
 872 04be 1F9F     		ldr	r7, [sp, #124]
 873              	.LVL154:
 874 04c0 3618     		adds	r6, r6, r0
 875 04c2 4F41     		adcs	r7, r7, r1
 876 04c4 0896     		str	r6, [sp, #32]
 877 04c6 0997     		str	r7, [sp, #36]
 878              	.LVL155:
 116:sc.c          ****     s9 -= s18 * 997805;
 879              		.loc 1 116 0
 880 04c8 304A     		ldr	r2, .L4+12
 881 04ca 0123     		movs	r3, #1
 882 04cc 5B42     		rsbs	r3, r3, #0
 883 04ce 2A9F     		ldr	r7, [sp, #168]
 884 04d0 3800     		movs	r0, r7
 885 04d2 0021     		movs	r1, #0
 886 04d4 FFF7FEFF 		bl	__aeabi_lmul
 887              	.LVL156:
 888 04d8 049A     		ldr	r2, [sp, #16]
 889 04da 059B     		ldr	r3, [sp, #20]
 890 04dc 1218     		adds	r2, r2, r0
 891 04de 4B41     		adcs	r3, r3, r1
 892 04e0 1892     		str	r2, [sp, #96]
 893 04e2 1993     		str	r3, [sp, #100]
 894              	.LVL157:
 117:sc.c          ****     s10 += s18 * 136657;
 895              		.loc 1 117 0
 896 04e4 2A4A     		ldr	r2, .L4+16
 897              	.LVL158:
 898 04e6 0023     		movs	r3, #0
 899 04e8 3800     		movs	r0, r7
 900 04ea 0021     		movs	r1, #0
 901 04ec FFF7FEFF 		bl	__aeabi_lmul
 902              	.LVL159:
 903 04f0 209A     		ldr	r2, [sp, #128]
 904 04f2 219B     		ldr	r3, [sp, #132]
 905 04f4 1218     		adds	r2, r2, r0
 906 04f6 4B41     		adcs	r3, r3, r1
 907 04f8 0492     		str	r2, [sp, #16]
 908 04fa 0593     		str	r3, [sp, #20]
 909              	.LVL160:
ARM GAS  C:\Users\NIGHDR~1\AppData\Local\Temp\ccvJ0Ig2.s 			page 19


 118:sc.c          ****     s11 -= s18 * 683901;
 910              		.loc 1 118 0
 911 04fc 254A     		ldr	r2, .L4+20
 912              	.LVL161:
 913 04fe 0123     		movs	r3, #1
 914 0500 5B42     		rsbs	r3, r3, #0
 915 0502 3800     		movs	r0, r7
 916 0504 0021     		movs	r1, #0
 917 0506 FFF7FEFF 		bl	__aeabi_lmul
 918              	.LVL162:
 919 050a 169A     		ldr	r2, [sp, #88]
 920 050c 179B     		ldr	r3, [sp, #92]
 921 050e 1218     		adds	r2, r2, r0
 922 0510 4B41     		adcs	r3, r3, r1
 923 0512 1692     		str	r2, [sp, #88]
 924 0514 1793     		str	r3, [sp, #92]
 925              	.LVL163:
 119:sc.c          ****     s18 = 0;
 120:sc.c          ****     carry6 = (s6 + (1 << 20)) >> 21;
 926              		.loc 1 120 0
 927 0516 8021     		movs	r1, #128
 928 0518 4903     		lsls	r1, r1, #13
 929 051a 0022     		movs	r2, #0
 930              	.LVL164:
 931 051c 0919     		adds	r1, r1, r4
 932 051e 6A41     		adcs	r2, r2, r5
 933 0520 0800     		movs	r0, r1
 934 0522 1100     		movs	r1, r2
 935 0524 D302     		lsls	r3, r2, #11
 936 0526 9C46     		mov	ip, r3
 937 0528 420D     		lsrs	r2, r0, #21
 938 052a 6746     		mov	r7, ip
 939 052c 3A43     		orrs	r2, r7
 940 052e 4B15     		asrs	r3, r1, #21
 941              	.LVL165:
 121:sc.c          ****     s7 += carry6;
 942              		.loc 1 121 0
 943 0530 0698     		ldr	r0, [sp, #24]
 944 0532 0799     		ldr	r1, [sp, #28]
 945 0534 8018     		adds	r0, r0, r2
 946 0536 5941     		adcs	r1, r1, r3
 947 0538 0690     		str	r0, [sp, #24]
 948 053a 0791     		str	r1, [sp, #28]
 949              	.LVL166:
 122:sc.c          ****     s6 -= carry6 << 21;
 950              		.loc 1 122 0
 951 053c D70A     		lsrs	r7, r2, #11
 952 053e 5905     		lsls	r1, r3, #21
 953 0540 3943     		orrs	r1, r7
 954 0542 5005     		lsls	r0, r2, #21
 955              	.LVL167:
 956 0544 2300     		movs	r3, r4
 957 0546 2C00     		movs	r4, r5
 958              	.LVL168:
 959 0548 1B1A     		subs	r3, r3, r0
 960 054a 8C41     		sbcs	r4, r4, r1
 961 054c 1E93     		str	r3, [sp, #120]
ARM GAS  C:\Users\NIGHDR~1\AppData\Local\Temp\ccvJ0Ig2.s 			page 20


 962 054e 1F94     		str	r4, [sp, #124]
 963              	.LVL169:
 123:sc.c          ****     carry8 = (s8 + (1 << 20)) >> 21;
 964              		.loc 1 123 0
 965 0550 8021     		movs	r1, #128
 966 0552 4903     		lsls	r1, r1, #13
 967 0554 0022     		movs	r2, #0
 968              	.LVL170:
 969 0556 089E     		ldr	r6, [sp, #32]
 970 0558 099F     		ldr	r7, [sp, #36]
 971 055a 3300     		movs	r3, r6
 972              	.LVL171:
 973 055c 3C00     		movs	r4, r7
 974 055e C918     		adds	r1, r1, r3
 975 0560 6241     		adcs	r2, r2, r4
 976 0562 0800     		movs	r0, r1
 977 0564 1100     		movs	r1, r2
 978 0566 D402     		lsls	r4, r2, #11
 979 0568 420D     		lsrs	r2, r0, #21
 980 056a 2243     		orrs	r2, r4
 981 056c 4B15     		asrs	r3, r1, #21
 982              	.LVL172:
 124:sc.c          ****     s9 += carry8;
 983              		.loc 1 124 0
 984 056e 189C     		ldr	r4, [sp, #96]
 985 0570 199D     		ldr	r5, [sp, #100]
 986 0572 A418     		adds	r4, r4, r2
 987 0574 5D41     		adcs	r5, r5, r3
 988 0576 0894     		str	r4, [sp, #32]
 989 0578 0995     		str	r5, [sp, #36]
 990              	.LVL173:
 125:sc.c          ****     s8 -= carry8 << 21;
 991              		.loc 1 125 0
 992 057a D50A     		lsrs	r5, r2, #11
 993 057c 5905     		lsls	r1, r3, #21
 994 057e 0BE0     		b	.L5
 995              	.L6:
 996              		.align	2
 997              	.L4:
 998 0580 132C0A00 		.word	666643
 999 0584 182D0700 		.word	470296
 1000 0588 67FB0900 		.word	654183
 1001 058c 53C6F0FF 		.word	-997805
 1002 0590 D1150200 		.word	136657
 1003 0594 8390F5FF 		.word	-683901
 1004              	.L5:
 1005 0598 2943     		orrs	r1, r5
 1006 059a 5005     		lsls	r0, r2, #21
 1007 059c 361A     		subs	r6, r6, r0
 1008 059e 8F41     		sbcs	r7, r7, r1
 1009              	.LVL174:
 1010 05a0 1896     		str	r6, [sp, #96]
 1011 05a2 1997     		str	r7, [sp, #100]
 1012              	.LVL175:
 126:sc.c          ****     carry10 = (s10 + (1 << 20)) >> 21;
 1013              		.loc 1 126 0
 1014 05a4 8021     		movs	r1, #128
ARM GAS  C:\Users\NIGHDR~1\AppData\Local\Temp\ccvJ0Ig2.s 			page 21


 1015 05a6 4903     		lsls	r1, r1, #13
 1016 05a8 0022     		movs	r2, #0
 1017              	.LVL176:
 1018 05aa 049E     		ldr	r6, [sp, #16]
 1019 05ac 059F     		ldr	r7, [sp, #20]
 1020              	.LVL177:
 1021 05ae 8919     		adds	r1, r1, r6
 1022 05b0 7A41     		adcs	r2, r2, r7
 1023 05b2 0800     		movs	r0, r1
 1024 05b4 1100     		movs	r1, r2
 1025 05b6 D602     		lsls	r6, r2, #11
 1026 05b8 420D     		lsrs	r2, r0, #21
 1027 05ba 3243     		orrs	r2, r6
 1028 05bc 4B15     		asrs	r3, r1, #21
 1029              	.LVL178:
 127:sc.c          ****     s11 += carry10;
 1030              		.loc 1 127 0
 1031 05be 169E     		ldr	r6, [sp, #88]
 1032 05c0 179F     		ldr	r7, [sp, #92]
 1033 05c2 B618     		adds	r6, r6, r2
 1034 05c4 5F41     		adcs	r7, r7, r3
 1035 05c6 1696     		str	r6, [sp, #88]
 1036 05c8 1797     		str	r7, [sp, #92]
 1037              	.LVL179:
 128:sc.c          ****     s10 -= carry10 << 21;
 1038              		.loc 1 128 0
 1039 05ca D50A     		lsrs	r5, r2, #11
 1040 05cc 5905     		lsls	r1, r3, #21
 1041 05ce 2943     		orrs	r1, r5
 1042 05d0 5005     		lsls	r0, r2, #21
 1043 05d2 049A     		ldr	r2, [sp, #16]
 1044 05d4 059B     		ldr	r3, [sp, #20]
 1045              	.LVL180:
 1046 05d6 121A     		subs	r2, r2, r0
 1047 05d8 8B41     		sbcs	r3, r3, r1
 1048 05da 0492     		str	r2, [sp, #16]
 1049 05dc 0593     		str	r3, [sp, #20]
 1050              	.LVL181:
 129:sc.c          ****     carry12 = (s12 + (1 << 20)) >> 21;
 1051              		.loc 1 129 0
 1052 05de 8025     		movs	r5, #128
 1053 05e0 6D03     		lsls	r5, r5, #13
 1054 05e2 0026     		movs	r6, #0
 1055              	.LVL182:
 1056 05e4 0099     		ldr	r1, [sp]
 1057 05e6 019A     		ldr	r2, [sp, #4]
 1058 05e8 6D18     		adds	r5, r5, r1
 1059 05ea 5641     		adcs	r6, r6, r2
 1060 05ec 2800     		movs	r0, r5
 1061 05ee F502     		lsls	r5, r6, #11
 1062 05f0 420D     		lsrs	r2, r0, #21
 1063              	.LVL183:
 1064 05f2 2A43     		orrs	r2, r5
 1065 05f4 7315     		asrs	r3, r6, #21
 1066              	.LVL184:
 130:sc.c          ****     s13 += carry12;
 1067              		.loc 1 130 0
ARM GAS  C:\Users\NIGHDR~1\AppData\Local\Temp\ccvJ0Ig2.s 			page 22


 1068 05f6 1A98     		ldr	r0, [sp, #104]
 1069 05f8 1B99     		ldr	r1, [sp, #108]
 1070 05fa 8018     		adds	r0, r0, r2
 1071 05fc 5941     		adcs	r1, r1, r3
 1072 05fe 1A90     		str	r0, [sp, #104]
 1073 0600 1B91     		str	r1, [sp, #108]
 1074              	.LVL185:
 131:sc.c          ****     s12 -= carry12 << 21;
 1075              		.loc 1 131 0
 1076 0602 D50A     		lsrs	r5, r2, #11
 1077 0604 5905     		lsls	r1, r3, #21
 1078 0606 2943     		orrs	r1, r5
 1079 0608 5005     		lsls	r0, r2, #21
 1080              	.LVL186:
 1081 060a 009A     		ldr	r2, [sp]
 1082 060c 019B     		ldr	r3, [sp, #4]
 1083              	.LVL187:
 1084 060e 121A     		subs	r2, r2, r0
 1085 0610 8B41     		sbcs	r3, r3, r1
 1086 0612 2092     		str	r2, [sp, #128]
 1087 0614 2193     		str	r3, [sp, #132]
 1088              	.LVL188:
 132:sc.c          ****     carry14 = (s14 + (1 << 20)) >> 21;
 1089              		.loc 1 132 0
 1090 0616 8025     		movs	r5, #128
 1091 0618 6D03     		lsls	r5, r5, #13
 1092 061a 0026     		movs	r6, #0
 1093 061c 0299     		ldr	r1, [sp, #8]
 1094 061e 039A     		ldr	r2, [sp, #12]
 1095 0620 6D18     		adds	r5, r5, r1
 1096 0622 5641     		adcs	r6, r6, r2
 1097 0624 2800     		movs	r0, r5
 1098 0626 F502     		lsls	r5, r6, #11
 1099 0628 420D     		lsrs	r2, r0, #21
 1100              	.LVL189:
 1101 062a 2A43     		orrs	r2, r5
 1102 062c 7315     		asrs	r3, r6, #21
 1103              	.LVL190:
 133:sc.c          ****     s15 += carry14;
 1104              		.loc 1 133 0
 1105 062e 2298     		ldr	r0, [sp, #136]
 1106 0630 2399     		ldr	r1, [sp, #140]
 1107 0632 8018     		adds	r0, r0, r2
 1108 0634 5941     		adcs	r1, r1, r3
 1109 0636 2290     		str	r0, [sp, #136]
 1110 0638 2391     		str	r1, [sp, #140]
 1111              	.LVL191:
 134:sc.c          ****     s14 -= carry14 << 21;
 1112              		.loc 1 134 0
 1113 063a D70A     		lsrs	r7, r2, #11
 1114 063c 5905     		lsls	r1, r3, #21
 1115 063e 3943     		orrs	r1, r7
 1116 0640 5005     		lsls	r0, r2, #21
 1117              	.LVL192:
 1118 0642 029A     		ldr	r2, [sp, #8]
 1119 0644 039B     		ldr	r3, [sp, #12]
 1120              	.LVL193:
ARM GAS  C:\Users\NIGHDR~1\AppData\Local\Temp\ccvJ0Ig2.s 			page 23


 1121 0646 121A     		subs	r2, r2, r0
 1122 0648 8B41     		sbcs	r3, r3, r1
 1123 064a 0292     		str	r2, [sp, #8]
 1124 064c 0393     		str	r3, [sp, #12]
 1125              	.LVL194:
 135:sc.c          ****     carry16 = (s16 + (1 << 20)) >> 21;
 1126              		.loc 1 135 0
 1127 064e 8024     		movs	r4, #128
 1128              	.LVL195:
 1129 0650 6403     		lsls	r4, r4, #13
 1130 0652 0025     		movs	r5, #0
 1131 0654 1C99     		ldr	r1, [sp, #112]
 1132 0656 1D9A     		ldr	r2, [sp, #116]
 1133 0658 6418     		adds	r4, r4, r1
 1134 065a 5541     		adcs	r5, r5, r2
 1135 065c EF02     		lsls	r7, r5, #11
 1136 065e 620D     		lsrs	r2, r4, #21
 1137              	.LVL196:
 1138 0660 3A43     		orrs	r2, r7
 1139 0662 6B15     		asrs	r3, r5, #21
 1140              	.LVL197:
 136:sc.c          ****     s17 += carry16;
 1141              		.loc 1 136 0
 1142 0664 2898     		ldr	r0, [sp, #160]
 1143 0666 2999     		ldr	r1, [sp, #164]
 1144 0668 8018     		adds	r0, r0, r2
 1145 066a 5941     		adcs	r1, r1, r3
 1146 066c 0090     		str	r0, [sp]
 1147 066e 0191     		str	r1, [sp, #4]
 1148              	.LVL198:
 137:sc.c          ****     s16 -= carry16 << 21;
 1149              		.loc 1 137 0
 1150 0670 D70A     		lsrs	r7, r2, #11
 1151 0672 5905     		lsls	r1, r3, #21
 1152 0674 3943     		orrs	r1, r7
 1153 0676 5005     		lsls	r0, r2, #21
 1154              	.LVL199:
 1155 0678 1C9A     		ldr	r2, [sp, #112]
 1156 067a 1D9B     		ldr	r3, [sp, #116]
 1157              	.LVL200:
 1158 067c 121A     		subs	r2, r2, r0
 1159 067e 8B41     		sbcs	r3, r3, r1
 1160 0680 1C92     		str	r2, [sp, #112]
 1161 0682 1D93     		str	r3, [sp, #116]
 1162              	.LVL201:
 138:sc.c          ****     carry7 = (s7 + (1 << 20)) >> 21;
 1163              		.loc 1 138 0
 1164 0684 8025     		movs	r5, #128
 1165 0686 6D03     		lsls	r5, r5, #13
 1166 0688 0026     		movs	r6, #0
 1167 068a 069A     		ldr	r2, [sp, #24]
 1168 068c 079B     		ldr	r3, [sp, #28]
 1169              	.LVL202:
 1170 068e AD18     		adds	r5, r5, r2
 1171 0690 5E41     		adcs	r6, r6, r3
 1172 0692 F702     		lsls	r7, r6, #11
 1173 0694 6A0D     		lsrs	r2, r5, #21
ARM GAS  C:\Users\NIGHDR~1\AppData\Local\Temp\ccvJ0Ig2.s 			page 24


 1174 0696 3A43     		orrs	r2, r7
 1175 0698 7315     		asrs	r3, r6, #21
 1176              	.LVL203:
 139:sc.c          ****     s8 += carry7;
 1177              		.loc 1 139 0
 1178 069a 1898     		ldr	r0, [sp, #96]
 1179 069c 1999     		ldr	r1, [sp, #100]
 1180 069e 8018     		adds	r0, r0, r2
 1181 06a0 5941     		adcs	r1, r1, r3
 1182 06a2 1890     		str	r0, [sp, #96]
 1183 06a4 1991     		str	r1, [sp, #100]
 1184              	.LVL204:
 140:sc.c          ****     s7 -= carry7 << 21;
 1185              		.loc 1 140 0
 1186 06a6 D10A     		lsrs	r1, r2, #11
 1187 06a8 8C46     		mov	ip, r1
 1188 06aa 5905     		lsls	r1, r3, #21
 1189 06ac 6646     		mov	r6, ip
 1190 06ae 3143     		orrs	r1, r6
 1191 06b0 5005     		lsls	r0, r2, #21
 1192              	.LVL205:
 1193 06b2 069A     		ldr	r2, [sp, #24]
 1194 06b4 079B     		ldr	r3, [sp, #28]
 1195              	.LVL206:
 1196 06b6 121A     		subs	r2, r2, r0
 1197 06b8 8B41     		sbcs	r3, r3, r1
 1198 06ba 2492     		str	r2, [sp, #144]
 1199 06bc 2593     		str	r3, [sp, #148]
 1200              	.LVL207:
 141:sc.c          ****     carry9 = (s9 + (1 << 20)) >> 21;
 1201              		.loc 1 141 0
 1202 06be 8021     		movs	r1, #128
 1203 06c0 4903     		lsls	r1, r1, #13
 1204 06c2 0022     		movs	r2, #0
 1205              	.LVL208:
 1206 06c4 089C     		ldr	r4, [sp, #32]
 1207 06c6 099D     		ldr	r5, [sp, #36]
 1208 06c8 0919     		adds	r1, r1, r4
 1209 06ca 6A41     		adcs	r2, r2, r5
 1210 06cc 0800     		movs	r0, r1
 1211 06ce 1100     		movs	r1, r2
 1212 06d0 D602     		lsls	r6, r2, #11
 1213 06d2 420D     		lsrs	r2, r0, #21
 1214 06d4 3243     		orrs	r2, r6
 1215 06d6 4B15     		asrs	r3, r1, #21
 1216              	.LVL209:
 142:sc.c          ****     s10 += carry9;
 1217              		.loc 1 142 0
 1218 06d8 0498     		ldr	r0, [sp, #16]
 1219 06da 0599     		ldr	r1, [sp, #20]
 1220 06dc 8018     		adds	r0, r0, r2
 1221 06de 5941     		adcs	r1, r1, r3
 1222 06e0 2690     		str	r0, [sp, #152]
 1223 06e2 2791     		str	r1, [sp, #156]
 1224              	.LVL210:
 143:sc.c          ****     s9 -= carry9 << 21;
 1225              		.loc 1 143 0
ARM GAS  C:\Users\NIGHDR~1\AppData\Local\Temp\ccvJ0Ig2.s 			page 25


 1226 06e4 D10A     		lsrs	r1, r2, #11
 1227 06e6 8C46     		mov	ip, r1
 1228 06e8 5905     		lsls	r1, r3, #21
 1229 06ea 6646     		mov	r6, ip
 1230 06ec 3143     		orrs	r1, r6
 1231 06ee 5005     		lsls	r0, r2, #21
 1232              	.LVL211:
 1233 06f0 241A     		subs	r4, r4, r0
 1234 06f2 8D41     		sbcs	r5, r5, r1
 1235 06f4 2894     		str	r4, [sp, #160]
 1236 06f6 2995     		str	r5, [sp, #164]
 1237              	.LVL212:
 144:sc.c          ****     carry11 = (s11 + (1 << 20)) >> 21;
 1238              		.loc 1 144 0
 1239 06f8 8021     		movs	r1, #128
 1240 06fa 4903     		lsls	r1, r1, #13
 1241 06fc 0022     		movs	r2, #0
 1242              	.LVL213:
 1243 06fe 169E     		ldr	r6, [sp, #88]
 1244 0700 179F     		ldr	r7, [sp, #92]
 1245 0702 3300     		movs	r3, r6
 1246 0704 3C00     		movs	r4, r7
 1247              	.LVL214:
 1248 0706 C918     		adds	r1, r1, r3
 1249 0708 6241     		adcs	r2, r2, r4
 1250 070a 0800     		movs	r0, r1
 1251 070c 1100     		movs	r1, r2
 1252 070e D402     		lsls	r4, r2, #11
 1253 0710 420D     		lsrs	r2, r0, #21
 1254 0712 2243     		orrs	r2, r4
 1255 0714 4B15     		asrs	r3, r1, #21
 1256              	.LVL215:
 145:sc.c          ****     s12 += carry11;
 1257              		.loc 1 145 0
 1258 0716 209C     		ldr	r4, [sp, #128]
 1259 0718 219D     		ldr	r5, [sp, #132]
 1260 071a A418     		adds	r4, r4, r2
 1261 071c 5D41     		adcs	r5, r5, r3
 1262 071e 1694     		str	r4, [sp, #88]
 1263 0720 1795     		str	r5, [sp, #92]
 1264              	.LVL216:
 146:sc.c          ****     s11 -= carry11 << 21;
 1265              		.loc 1 146 0
 1266 0722 D40A     		lsrs	r4, r2, #11
 1267              	.LVL217:
 1268 0724 5905     		lsls	r1, r3, #21
 1269 0726 2143     		orrs	r1, r4
 1270 0728 5005     		lsls	r0, r2, #21
 1271 072a 361A     		subs	r6, r6, r0
 1272 072c 8F41     		sbcs	r7, r7, r1
 1273              	.LVL218:
 1274 072e 2096     		str	r6, [sp, #128]
 1275 0730 2197     		str	r7, [sp, #132]
 1276              	.LVL219:
 147:sc.c          ****     carry13 = (s13 + (1 << 20)) >> 21;
 1277              		.loc 1 147 0
 1278 0732 8021     		movs	r1, #128
ARM GAS  C:\Users\NIGHDR~1\AppData\Local\Temp\ccvJ0Ig2.s 			page 26


 1279 0734 4903     		lsls	r1, r1, #13
 1280 0736 0022     		movs	r2, #0
 1281              	.LVL220:
 1282 0738 1A9D     		ldr	r5, [sp, #104]
 1283 073a 1B9E     		ldr	r6, [sp, #108]
 1284 073c 2B00     		movs	r3, r5
 1285 073e 3400     		movs	r4, r6
 1286 0740 C918     		adds	r1, r1, r3
 1287 0742 6241     		adcs	r2, r2, r4
 1288 0744 0800     		movs	r0, r1
 1289 0746 1100     		movs	r1, r2
 1290 0748 D402     		lsls	r4, r2, #11
 1291 074a 420D     		lsrs	r2, r0, #21
 1292 074c 2243     		orrs	r2, r4
 1293 074e 4B15     		asrs	r3, r1, #21
 1294              	.LVL221:
 148:sc.c          ****     s14 += carry13;
 1295              		.loc 1 148 0
 1296 0750 0298     		ldr	r0, [sp, #8]
 1297 0752 0399     		ldr	r1, [sp, #12]
 1298 0754 8018     		adds	r0, r0, r2
 1299 0756 5941     		adcs	r1, r1, r3
 1300 0758 0290     		str	r0, [sp, #8]
 1301 075a 0391     		str	r1, [sp, #12]
 1302              	.LVL222:
 149:sc.c          ****     s13 -= carry13 << 21;
 1303              		.loc 1 149 0
 1304 075c D40A     		lsrs	r4, r2, #11
 1305 075e 5905     		lsls	r1, r3, #21
 1306 0760 2143     		orrs	r1, r4
 1307 0762 5005     		lsls	r0, r2, #21
 1308              	.LVL223:
 1309 0764 2B00     		movs	r3, r5
 1310 0766 3400     		movs	r4, r6
 1311 0768 1B1A     		subs	r3, r3, r0
 1312 076a 8C41     		sbcs	r4, r4, r1
 1313 076c 0493     		str	r3, [sp, #16]
 1314 076e 0594     		str	r4, [sp, #20]
 1315              	.LVL224:
 150:sc.c          ****     carry15 = (s15 + (1 << 20)) >> 21;
 1316              		.loc 1 150 0
 1317 0770 8023     		movs	r3, #128
 1318              	.LVL225:
 1319 0772 5B03     		lsls	r3, r3, #13
 1320 0774 0024     		movs	r4, #0
 1321 0776 229D     		ldr	r5, [sp, #136]
 1322 0778 239E     		ldr	r6, [sp, #140]
 1323 077a 2900     		movs	r1, r5
 1324 077c 3200     		movs	r2, r6
 1325              	.LVL226:
 1326 077e 5B18     		adds	r3, r3, r1
 1327 0780 5441     		adcs	r4, r4, r2
 1328 0782 1800     		movs	r0, r3
 1329 0784 2100     		movs	r1, r4
 1330 0786 E402     		lsls	r4, r4, #11
 1331 0788 420D     		lsrs	r2, r0, #21
 1332 078a 2243     		orrs	r2, r4
ARM GAS  C:\Users\NIGHDR~1\AppData\Local\Temp\ccvJ0Ig2.s 			page 27


 1333 078c 4B15     		asrs	r3, r1, #21
 1334              	.LVL227:
 151:sc.c          ****     s16 += carry15;
 1335              		.loc 1 151 0
 1336 078e 1C98     		ldr	r0, [sp, #112]
 1337 0790 1D99     		ldr	r1, [sp, #116]
 1338 0792 8018     		adds	r0, r0, r2
 1339 0794 5941     		adcs	r1, r1, r3
 1340 0796 0690     		str	r0, [sp, #24]
 1341 0798 0791     		str	r1, [sp, #28]
 1342              	.LVL228:
 152:sc.c          ****     s15 -= carry15 << 21;
 1343              		.loc 1 152 0
 1344 079a D40A     		lsrs	r4, r2, #11
 1345 079c 5905     		lsls	r1, r3, #21
 1346 079e 2143     		orrs	r1, r4
 1347 07a0 5005     		lsls	r0, r2, #21
 1348              	.LVL229:
 1349 07a2 2D1A     		subs	r5, r5, r0
 1350 07a4 8E41     		sbcs	r6, r6, r1
 1351 07a6 0895     		str	r5, [sp, #32]
 1352 07a8 0996     		str	r6, [sp, #36]
 1353              	.LVL230:
 153:sc.c          ****     s5 += s17 * 666643;
 1354              		.loc 1 153 0
 1355 07aa E04A     		ldr	r2, .L7
 1356              	.LVL231:
 1357 07ac 0023     		movs	r3, #0
 1358 07ae 009C     		ldr	r4, [sp]
 1359 07b0 019D     		ldr	r5, [sp, #4]
 1360 07b2 2000     		movs	r0, r4
 1361 07b4 2900     		movs	r1, r5
 1362 07b6 FFF7FEFF 		bl	__aeabi_lmul
 1363              	.LVL232:
 1364 07ba 149E     		ldr	r6, [sp, #80]
 1365 07bc 159F     		ldr	r7, [sp, #84]
 1366              	.LVL233:
 1367 07be 3618     		adds	r6, r6, r0
 1368 07c0 4F41     		adcs	r7, r7, r1
 1369              	.LVL234:
 154:sc.c          ****     s6 += s17 * 470296;
 1370              		.loc 1 154 0
 1371 07c2 DB4A     		ldr	r2, .L7+4
 1372 07c4 0023     		movs	r3, #0
 1373 07c6 0094     		str	r4, [sp]
 1374 07c8 0195     		str	r5, [sp, #4]
 1375              	.LVL235:
 1376 07ca 2000     		movs	r0, r4
 1377 07cc 2900     		movs	r1, r5
 1378 07ce FFF7FEFF 		bl	__aeabi_lmul
 1379              	.LVL236:
 1380 07d2 1E9B     		ldr	r3, [sp, #120]
 1381 07d4 1F9C     		ldr	r4, [sp, #124]
 1382 07d6 1B18     		adds	r3, r3, r0
 1383 07d8 4C41     		adcs	r4, r4, r1
 1384 07da 2500     		movs	r5, r4
 1385              	.LVL237:
ARM GAS  C:\Users\NIGHDR~1\AppData\Local\Temp\ccvJ0Ig2.s 			page 28


 1386 07dc 1C00     		movs	r4, r3
 1387              	.LVL238:
 155:sc.c          ****     s7 += s17 * 654183;
 1388              		.loc 1 155 0
 1389 07de D54A     		ldr	r2, .L7+8
 1390 07e0 0023     		movs	r3, #0
 1391 07e2 0098     		ldr	r0, [sp]
 1392 07e4 0199     		ldr	r1, [sp, #4]
 1393 07e6 FFF7FEFF 		bl	__aeabi_lmul
 1394              	.LVL239:
 1395 07ea 249A     		ldr	r2, [sp, #144]
 1396 07ec 259B     		ldr	r3, [sp, #148]
 1397 07ee 1218     		adds	r2, r2, r0
 1398 07f0 4B41     		adcs	r3, r3, r1
 1399 07f2 1492     		str	r2, [sp, #80]
 1400 07f4 1593     		str	r3, [sp, #84]
 1401              	.LVL240:
 156:sc.c          ****     s8 -= s17 * 997805;
 1402              		.loc 1 156 0
 1403 07f6 D04A     		ldr	r2, .L7+12
 1404              	.LVL241:
 1405 07f8 0123     		movs	r3, #1
 1406 07fa 5B42     		rsbs	r3, r3, #0
 1407 07fc 0098     		ldr	r0, [sp]
 1408 07fe 0199     		ldr	r1, [sp, #4]
 1409 0800 FFF7FEFF 		bl	__aeabi_lmul
 1410              	.LVL242:
 1411 0804 189A     		ldr	r2, [sp, #96]
 1412 0806 199B     		ldr	r3, [sp, #100]
 1413 0808 1218     		adds	r2, r2, r0
 1414 080a 4B41     		adcs	r3, r3, r1
 1415 080c 1892     		str	r2, [sp, #96]
 1416 080e 1993     		str	r3, [sp, #100]
 1417              	.LVL243:
 157:sc.c          ****     s9 += s17 * 136657;
 1418              		.loc 1 157 0
 1419 0810 CA4A     		ldr	r2, .L7+16
 1420              	.LVL244:
 1421 0812 0023     		movs	r3, #0
 1422 0814 0098     		ldr	r0, [sp]
 1423 0816 0199     		ldr	r1, [sp, #4]
 1424 0818 FFF7FEFF 		bl	__aeabi_lmul
 1425              	.LVL245:
 1426 081c 289A     		ldr	r2, [sp, #160]
 1427 081e 299B     		ldr	r3, [sp, #164]
 1428 0820 1218     		adds	r2, r2, r0
 1429 0822 4B41     		adcs	r3, r3, r1
 1430 0824 1A92     		str	r2, [sp, #104]
 1431 0826 1B93     		str	r3, [sp, #108]
 1432              	.LVL246:
 158:sc.c          ****     s10 -= s17 * 683901;
 1433              		.loc 1 158 0
 1434 0828 C54A     		ldr	r2, .L7+20
 1435              	.LVL247:
 1436 082a 0123     		movs	r3, #1
 1437 082c 5B42     		rsbs	r3, r3, #0
 1438 082e 0098     		ldr	r0, [sp]
ARM GAS  C:\Users\NIGHDR~1\AppData\Local\Temp\ccvJ0Ig2.s 			page 29


 1439 0830 0199     		ldr	r1, [sp, #4]
 1440 0832 FFF7FEFF 		bl	__aeabi_lmul
 1441              	.LVL248:
 1442 0836 269A     		ldr	r2, [sp, #152]
 1443 0838 279B     		ldr	r3, [sp, #156]
 1444 083a 1218     		adds	r2, r2, r0
 1445 083c 4B41     		adcs	r3, r3, r1
 1446 083e 0092     		str	r2, [sp]
 1447 0840 0193     		str	r3, [sp, #4]
 1448              	.LVL249:
 159:sc.c          ****     s17 = 0;
 160:sc.c          ****     s4 += s16 * 666643;
 1449              		.loc 1 160 0
 1450 0842 BA4A     		ldr	r2, .L7
 1451              	.LVL250:
 1452 0844 0023     		movs	r3, #0
 1453 0846 0698     		ldr	r0, [sp, #24]
 1454 0848 0799     		ldr	r1, [sp, #28]
 1455 084a FFF7FEFF 		bl	__aeabi_lmul
 1456              	.LVL251:
 1457 084e 129A     		ldr	r2, [sp, #72]
 1458 0850 139B     		ldr	r3, [sp, #76]
 1459 0852 1218     		adds	r2, r2, r0
 1460 0854 4B41     		adcs	r3, r3, r1
 1461 0856 1292     		str	r2, [sp, #72]
 1462 0858 1393     		str	r3, [sp, #76]
 1463              	.LVL252:
 161:sc.c          ****     s5 += s16 * 470296;
 1464              		.loc 1 161 0
 1465 085a B54A     		ldr	r2, .L7+4
 1466              	.LVL253:
 1467 085c 0023     		movs	r3, #0
 1468 085e 0698     		ldr	r0, [sp, #24]
 1469 0860 0799     		ldr	r1, [sp, #28]
 1470 0862 FFF7FEFF 		bl	__aeabi_lmul
 1471              	.LVL254:
 1472 0866 3618     		adds	r6, r6, r0
 1473 0868 4F41     		adcs	r7, r7, r1
 1474              	.LVL255:
 162:sc.c          ****     s6 += s16 * 654183;
 1475              		.loc 1 162 0
 1476 086a B24A     		ldr	r2, .L7+8
 1477 086c 0023     		movs	r3, #0
 1478 086e 0698     		ldr	r0, [sp, #24]
 1479 0870 0799     		ldr	r1, [sp, #28]
 1480 0872 FFF7FEFF 		bl	__aeabi_lmul
 1481              	.LVL256:
 1482 0876 2418     		adds	r4, r4, r0
 1483 0878 4D41     		adcs	r5, r5, r1
 1484              	.LVL257:
 163:sc.c          ****     s7 -= s16 * 997805;
 1485              		.loc 1 163 0
 1486 087a AF4A     		ldr	r2, .L7+12
 1487 087c 0123     		movs	r3, #1
 1488 087e 5B42     		rsbs	r3, r3, #0
 1489 0880 0698     		ldr	r0, [sp, #24]
 1490 0882 0799     		ldr	r1, [sp, #28]
ARM GAS  C:\Users\NIGHDR~1\AppData\Local\Temp\ccvJ0Ig2.s 			page 30


 1491 0884 FFF7FEFF 		bl	__aeabi_lmul
 1492              	.LVL258:
 1493 0888 149A     		ldr	r2, [sp, #80]
 1494 088a 159B     		ldr	r3, [sp, #84]
 1495 088c 1218     		adds	r2, r2, r0
 1496 088e 4B41     		adcs	r3, r3, r1
 1497 0890 1492     		str	r2, [sp, #80]
 1498 0892 1593     		str	r3, [sp, #84]
 1499              	.LVL259:
 164:sc.c          ****     s8 += s16 * 136657;
 1500              		.loc 1 164 0
 1501 0894 A94A     		ldr	r2, .L7+16
 1502              	.LVL260:
 1503 0896 0023     		movs	r3, #0
 1504 0898 0698     		ldr	r0, [sp, #24]
 1505 089a 0799     		ldr	r1, [sp, #28]
 1506 089c FFF7FEFF 		bl	__aeabi_lmul
 1507              	.LVL261:
 1508 08a0 189A     		ldr	r2, [sp, #96]
 1509 08a2 199B     		ldr	r3, [sp, #100]
 1510 08a4 1218     		adds	r2, r2, r0
 1511 08a6 4B41     		adcs	r3, r3, r1
 1512 08a8 1892     		str	r2, [sp, #96]
 1513 08aa 1993     		str	r3, [sp, #100]
 1514              	.LVL262:
 165:sc.c          ****     s9 -= s16 * 683901;
 1515              		.loc 1 165 0
 1516 08ac A44A     		ldr	r2, .L7+20
 1517              	.LVL263:
 1518 08ae 0123     		movs	r3, #1
 1519 08b0 5B42     		rsbs	r3, r3, #0
 1520 08b2 0698     		ldr	r0, [sp, #24]
 1521 08b4 0799     		ldr	r1, [sp, #28]
 1522 08b6 FFF7FEFF 		bl	__aeabi_lmul
 1523              	.LVL264:
 1524 08ba 1A9A     		ldr	r2, [sp, #104]
 1525 08bc 1B9B     		ldr	r3, [sp, #108]
 1526 08be 1218     		adds	r2, r2, r0
 1527 08c0 4B41     		adcs	r3, r3, r1
 1528 08c2 1A92     		str	r2, [sp, #104]
 1529 08c4 1B93     		str	r3, [sp, #108]
 1530              	.LVL265:
 166:sc.c          ****     s16 = 0;
 167:sc.c          ****     s3 += s15 * 666643;
 1531              		.loc 1 167 0
 1532 08c6 994A     		ldr	r2, .L7
 1533              	.LVL266:
 1534 08c8 0023     		movs	r3, #0
 1535 08ca 0898     		ldr	r0, [sp, #32]
 1536 08cc 0999     		ldr	r1, [sp, #36]
 1537 08ce FFF7FEFF 		bl	__aeabi_lmul
 1538              	.LVL267:
 1539 08d2 109A     		ldr	r2, [sp, #64]
 1540 08d4 119B     		ldr	r3, [sp, #68]
 1541 08d6 1218     		adds	r2, r2, r0
 1542 08d8 4B41     		adcs	r3, r3, r1
 1543 08da 0692     		str	r2, [sp, #24]
ARM GAS  C:\Users\NIGHDR~1\AppData\Local\Temp\ccvJ0Ig2.s 			page 31


 1544 08dc 0793     		str	r3, [sp, #28]
 1545              	.LVL268:
 168:sc.c          ****     s4 += s15 * 470296;
 1546              		.loc 1 168 0
 1547 08de 944A     		ldr	r2, .L7+4
 1548              	.LVL269:
 1549 08e0 0023     		movs	r3, #0
 1550 08e2 0898     		ldr	r0, [sp, #32]
 1551 08e4 0999     		ldr	r1, [sp, #36]
 1552 08e6 FFF7FEFF 		bl	__aeabi_lmul
 1553              	.LVL270:
 1554 08ea 129A     		ldr	r2, [sp, #72]
 1555 08ec 139B     		ldr	r3, [sp, #76]
 1556 08ee 1218     		adds	r2, r2, r0
 1557 08f0 4B41     		adcs	r3, r3, r1
 1558 08f2 1092     		str	r2, [sp, #64]
 1559 08f4 1193     		str	r3, [sp, #68]
 1560              	.LVL271:
 169:sc.c          ****     s5 += s15 * 654183;
 1561              		.loc 1 169 0
 1562 08f6 8F4A     		ldr	r2, .L7+8
 1563              	.LVL272:
 1564 08f8 0023     		movs	r3, #0
 1565 08fa 0898     		ldr	r0, [sp, #32]
 1566 08fc 0999     		ldr	r1, [sp, #36]
 1567 08fe FFF7FEFF 		bl	__aeabi_lmul
 1568              	.LVL273:
 1569 0902 3618     		adds	r6, r6, r0
 1570 0904 4F41     		adcs	r7, r7, r1
 1571              	.LVL274:
 170:sc.c          ****     s6 -= s15 * 997805;
 1572              		.loc 1 170 0
 1573 0906 8C4A     		ldr	r2, .L7+12
 1574 0908 0123     		movs	r3, #1
 1575 090a 5B42     		rsbs	r3, r3, #0
 1576 090c 0898     		ldr	r0, [sp, #32]
 1577 090e 0999     		ldr	r1, [sp, #36]
 1578 0910 FFF7FEFF 		bl	__aeabi_lmul
 1579              	.LVL275:
 1580 0914 2418     		adds	r4, r4, r0
 1581 0916 4D41     		adcs	r5, r5, r1
 1582              	.LVL276:
 171:sc.c          ****     s7 += s15 * 136657;
 1583              		.loc 1 171 0
 1584 0918 884A     		ldr	r2, .L7+16
 1585 091a 0023     		movs	r3, #0
 1586 091c 0898     		ldr	r0, [sp, #32]
 1587 091e 0999     		ldr	r1, [sp, #36]
 1588 0920 FFF7FEFF 		bl	__aeabi_lmul
 1589              	.LVL277:
 1590 0924 149A     		ldr	r2, [sp, #80]
 1591 0926 159B     		ldr	r3, [sp, #84]
 1592 0928 1218     		adds	r2, r2, r0
 1593 092a 4B41     		adcs	r3, r3, r1
 1594 092c 1292     		str	r2, [sp, #72]
 1595 092e 1393     		str	r3, [sp, #76]
 1596              	.LVL278:
ARM GAS  C:\Users\NIGHDR~1\AppData\Local\Temp\ccvJ0Ig2.s 			page 32


 172:sc.c          ****     s8 -= s15 * 683901;
 1597              		.loc 1 172 0
 1598 0930 834A     		ldr	r2, .L7+20
 1599              	.LVL279:
 1600 0932 0123     		movs	r3, #1
 1601 0934 5B42     		rsbs	r3, r3, #0
 1602 0936 0898     		ldr	r0, [sp, #32]
 1603 0938 0999     		ldr	r1, [sp, #36]
 1604 093a FFF7FEFF 		bl	__aeabi_lmul
 1605              	.LVL280:
 1606 093e 189A     		ldr	r2, [sp, #96]
 1607 0940 199B     		ldr	r3, [sp, #100]
 1608 0942 1218     		adds	r2, r2, r0
 1609 0944 4B41     		adcs	r3, r3, r1
 1610 0946 0892     		str	r2, [sp, #32]
 1611 0948 0993     		str	r3, [sp, #36]
 1612              	.LVL281:
 173:sc.c          ****     s15 = 0;
 174:sc.c          ****     s2 += s14 * 666643;
 1613              		.loc 1 174 0
 1614 094a 784A     		ldr	r2, .L7
 1615              	.LVL282:
 1616 094c 0023     		movs	r3, #0
 1617 094e 0298     		ldr	r0, [sp, #8]
 1618 0950 0399     		ldr	r1, [sp, #12]
 1619 0952 FFF7FEFF 		bl	__aeabi_lmul
 1620              	.LVL283:
 1621 0956 0E9A     		ldr	r2, [sp, #56]
 1622 0958 0F9B     		ldr	r3, [sp, #60]
 1623 095a 1218     		adds	r2, r2, r0
 1624 095c 4B41     		adcs	r3, r3, r1
 1625 095e 0E92     		str	r2, [sp, #56]
 1626 0960 0F93     		str	r3, [sp, #60]
 1627              	.LVL284:
 175:sc.c          ****     s3 += s14 * 470296;
 1628              		.loc 1 175 0
 1629 0962 734A     		ldr	r2, .L7+4
 1630              	.LVL285:
 1631 0964 0023     		movs	r3, #0
 1632 0966 0298     		ldr	r0, [sp, #8]
 1633 0968 0399     		ldr	r1, [sp, #12]
 1634 096a FFF7FEFF 		bl	__aeabi_lmul
 1635              	.LVL286:
 1636 096e 069A     		ldr	r2, [sp, #24]
 1637 0970 079B     		ldr	r3, [sp, #28]
 1638 0972 1218     		adds	r2, r2, r0
 1639 0974 4B41     		adcs	r3, r3, r1
 1640 0976 0692     		str	r2, [sp, #24]
 1641 0978 0793     		str	r3, [sp, #28]
 1642              	.LVL287:
 176:sc.c          ****     s4 += s14 * 654183;
 1643              		.loc 1 176 0
 1644 097a 6E4A     		ldr	r2, .L7+8
 1645              	.LVL288:
 1646 097c 0023     		movs	r3, #0
 1647 097e 0298     		ldr	r0, [sp, #8]
 1648 0980 0399     		ldr	r1, [sp, #12]
ARM GAS  C:\Users\NIGHDR~1\AppData\Local\Temp\ccvJ0Ig2.s 			page 33


 1649 0982 FFF7FEFF 		bl	__aeabi_lmul
 1650              	.LVL289:
 1651 0986 109A     		ldr	r2, [sp, #64]
 1652 0988 119B     		ldr	r3, [sp, #68]
 1653 098a 1218     		adds	r2, r2, r0
 1654 098c 4B41     		adcs	r3, r3, r1
 1655 098e 1092     		str	r2, [sp, #64]
 1656 0990 1193     		str	r3, [sp, #68]
 1657              	.LVL290:
 177:sc.c          ****     s5 -= s14 * 997805;
 1658              		.loc 1 177 0
 1659 0992 694A     		ldr	r2, .L7+12
 1660              	.LVL291:
 1661 0994 0123     		movs	r3, #1
 1662 0996 5B42     		rsbs	r3, r3, #0
 1663 0998 0298     		ldr	r0, [sp, #8]
 1664 099a 0399     		ldr	r1, [sp, #12]
 1665 099c FFF7FEFF 		bl	__aeabi_lmul
 1666              	.LVL292:
 1667 09a0 3618     		adds	r6, r6, r0
 1668 09a2 4F41     		adcs	r7, r7, r1
 1669              	.LVL293:
 178:sc.c          ****     s6 += s14 * 136657;
 1670              		.loc 1 178 0
 1671 09a4 654A     		ldr	r2, .L7+16
 1672 09a6 0023     		movs	r3, #0
 1673 09a8 0298     		ldr	r0, [sp, #8]
 1674 09aa 0399     		ldr	r1, [sp, #12]
 1675 09ac FFF7FEFF 		bl	__aeabi_lmul
 1676              	.LVL294:
 1677 09b0 2418     		adds	r4, r4, r0
 1678 09b2 4D41     		adcs	r5, r5, r1
 1679              	.LVL295:
 179:sc.c          ****     s7 -= s14 * 683901;
 1680              		.loc 1 179 0
 1681 09b4 624A     		ldr	r2, .L7+20
 1682 09b6 0123     		movs	r3, #1
 1683 09b8 5B42     		rsbs	r3, r3, #0
 1684 09ba 0298     		ldr	r0, [sp, #8]
 1685 09bc 0399     		ldr	r1, [sp, #12]
 1686 09be FFF7FEFF 		bl	__aeabi_lmul
 1687              	.LVL296:
 1688 09c2 129A     		ldr	r2, [sp, #72]
 1689 09c4 139B     		ldr	r3, [sp, #76]
 1690 09c6 1218     		adds	r2, r2, r0
 1691 09c8 4B41     		adcs	r3, r3, r1
 1692 09ca 1292     		str	r2, [sp, #72]
 1693 09cc 1393     		str	r3, [sp, #76]
 1694              	.LVL297:
 180:sc.c          ****     s14 = 0;
 181:sc.c          ****     s1 += s13 * 666643;
 1695              		.loc 1 181 0
 1696 09ce 574A     		ldr	r2, .L7
 1697              	.LVL298:
 1698 09d0 0023     		movs	r3, #0
 1699 09d2 0498     		ldr	r0, [sp, #16]
 1700 09d4 0599     		ldr	r1, [sp, #20]
ARM GAS  C:\Users\NIGHDR~1\AppData\Local\Temp\ccvJ0Ig2.s 			page 34


 1701 09d6 FFF7FEFF 		bl	__aeabi_lmul
 1702              	.LVL299:
 1703 09da 0C9A     		ldr	r2, [sp, #48]
 1704 09dc 0D9B     		ldr	r3, [sp, #52]
 1705 09de 1218     		adds	r2, r2, r0
 1706 09e0 4B41     		adcs	r3, r3, r1
 1707 09e2 0292     		str	r2, [sp, #8]
 1708 09e4 0393     		str	r3, [sp, #12]
 1709              	.LVL300:
 182:sc.c          ****     s2 += s13 * 470296;
 1710              		.loc 1 182 0
 1711 09e6 524A     		ldr	r2, .L7+4
 1712              	.LVL301:
 1713 09e8 0023     		movs	r3, #0
 1714 09ea 0498     		ldr	r0, [sp, #16]
 1715 09ec 0599     		ldr	r1, [sp, #20]
 1716 09ee FFF7FEFF 		bl	__aeabi_lmul
 1717              	.LVL302:
 1718 09f2 0E9A     		ldr	r2, [sp, #56]
 1719 09f4 0F9B     		ldr	r3, [sp, #60]
 1720 09f6 1218     		adds	r2, r2, r0
 1721 09f8 4B41     		adcs	r3, r3, r1
 1722 09fa 0C92     		str	r2, [sp, #48]
 1723 09fc 0D93     		str	r3, [sp, #52]
 1724              	.LVL303:
 183:sc.c          ****     s3 += s13 * 654183;
 1725              		.loc 1 183 0
 1726 09fe 4D4A     		ldr	r2, .L7+8
 1727              	.LVL304:
 1728 0a00 0023     		movs	r3, #0
 1729 0a02 0498     		ldr	r0, [sp, #16]
 1730 0a04 0599     		ldr	r1, [sp, #20]
 1731 0a06 FFF7FEFF 		bl	__aeabi_lmul
 1732              	.LVL305:
 1733 0a0a 069A     		ldr	r2, [sp, #24]
 1734 0a0c 079B     		ldr	r3, [sp, #28]
 1735 0a0e 1218     		adds	r2, r2, r0
 1736 0a10 4B41     		adcs	r3, r3, r1
 1737 0a12 0692     		str	r2, [sp, #24]
 1738 0a14 0793     		str	r3, [sp, #28]
 1739              	.LVL306:
 184:sc.c          ****     s4 -= s13 * 997805;
 1740              		.loc 1 184 0
 1741 0a16 484A     		ldr	r2, .L7+12
 1742              	.LVL307:
 1743 0a18 0123     		movs	r3, #1
 1744 0a1a 5B42     		rsbs	r3, r3, #0
 1745 0a1c 0498     		ldr	r0, [sp, #16]
 1746 0a1e 0599     		ldr	r1, [sp, #20]
 1747 0a20 FFF7FEFF 		bl	__aeabi_lmul
 1748              	.LVL308:
 1749 0a24 109A     		ldr	r2, [sp, #64]
 1750 0a26 119B     		ldr	r3, [sp, #68]
 1751 0a28 1218     		adds	r2, r2, r0
 1752 0a2a 4B41     		adcs	r3, r3, r1
 1753 0a2c 0E92     		str	r2, [sp, #56]
 1754 0a2e 0F93     		str	r3, [sp, #60]
ARM GAS  C:\Users\NIGHDR~1\AppData\Local\Temp\ccvJ0Ig2.s 			page 35


 1755              	.LVL309:
 185:sc.c          ****     s5 += s13 * 136657;
 1756              		.loc 1 185 0
 1757 0a30 424A     		ldr	r2, .L7+16
 1758              	.LVL310:
 1759 0a32 0023     		movs	r3, #0
 1760 0a34 0498     		ldr	r0, [sp, #16]
 1761 0a36 0599     		ldr	r1, [sp, #20]
 1762 0a38 FFF7FEFF 		bl	__aeabi_lmul
 1763              	.LVL311:
 1764 0a3c 3618     		adds	r6, r6, r0
 1765 0a3e 4F41     		adcs	r7, r7, r1
 1766              	.LVL312:
 1767 0a40 1096     		str	r6, [sp, #64]
 1768 0a42 1197     		str	r7, [sp, #68]
 1769              	.LVL313:
 186:sc.c          ****     s6 -= s13 * 683901;
 1770              		.loc 1 186 0
 1771 0a44 3E4A     		ldr	r2, .L7+20
 1772 0a46 0123     		movs	r3, #1
 1773 0a48 5B42     		rsbs	r3, r3, #0
 1774 0a4a 0498     		ldr	r0, [sp, #16]
 1775 0a4c 0599     		ldr	r1, [sp, #20]
 1776 0a4e FFF7FEFF 		bl	__aeabi_lmul
 1777              	.LVL314:
 1778 0a52 2300     		movs	r3, r4
 1779 0a54 2C00     		movs	r4, r5
 1780              	.LVL315:
 1781 0a56 1B18     		adds	r3, r3, r0
 1782 0a58 4C41     		adcs	r4, r4, r1
 1783 0a5a 1493     		str	r3, [sp, #80]
 1784 0a5c 1594     		str	r4, [sp, #84]
 1785              	.LVL316:
 187:sc.c          ****     s13 = 0;
 188:sc.c          ****     s0 += s12 * 666643;
 1786              		.loc 1 188 0
 1787 0a5e 334A     		ldr	r2, .L7
 1788 0a60 0023     		movs	r3, #0
 1789              	.LVL317:
 1790 0a62 169C     		ldr	r4, [sp, #88]
 1791 0a64 179D     		ldr	r5, [sp, #92]
 1792 0a66 2000     		movs	r0, r4
 1793 0a68 2900     		movs	r1, r5
 1794 0a6a FFF7FEFF 		bl	__aeabi_lmul
 1795              	.LVL318:
 1796 0a6e 0A9E     		ldr	r6, [sp, #40]
 1797 0a70 0B9F     		ldr	r7, [sp, #44]
 1798              	.LVL319:
 1799 0a72 3618     		adds	r6, r6, r0
 1800 0a74 4F41     		adcs	r7, r7, r1
 1801              	.LVL320:
 189:sc.c          ****     s1 += s12 * 470296;
 1802              		.loc 1 189 0
 1803 0a76 2E4A     		ldr	r2, .L7+4
 1804 0a78 0023     		movs	r3, #0
 1805 0a7a 1694     		str	r4, [sp, #88]
 1806 0a7c 1795     		str	r5, [sp, #92]
ARM GAS  C:\Users\NIGHDR~1\AppData\Local\Temp\ccvJ0Ig2.s 			page 36


 1807              	.LVL321:
 1808 0a7e 2000     		movs	r0, r4
 1809 0a80 2900     		movs	r1, r5
 1810 0a82 FFF7FEFF 		bl	__aeabi_lmul
 1811              	.LVL322:
 1812 0a86 029C     		ldr	r4, [sp, #8]
 1813 0a88 039D     		ldr	r5, [sp, #12]
 1814              	.LVL323:
 1815 0a8a 2418     		adds	r4, r4, r0
 1816 0a8c 4D41     		adcs	r5, r5, r1
 1817 0a8e 0294     		str	r4, [sp, #8]
 1818 0a90 0395     		str	r5, [sp, #12]
 1819              	.LVL324:
 190:sc.c          ****     s2 += s12 * 654183;
 1820              		.loc 1 190 0
 1821 0a92 284A     		ldr	r2, .L7+8
 1822 0a94 0023     		movs	r3, #0
 1823 0a96 169C     		ldr	r4, [sp, #88]
 1824 0a98 179D     		ldr	r5, [sp, #92]
 1825              	.LVL325:
 1826 0a9a 2000     		movs	r0, r4
 1827 0a9c 2900     		movs	r1, r5
 1828 0a9e FFF7FEFF 		bl	__aeabi_lmul
 1829              	.LVL326:
 1830 0aa2 0C9A     		ldr	r2, [sp, #48]
 1831 0aa4 0D9B     		ldr	r3, [sp, #52]
 1832 0aa6 1218     		adds	r2, r2, r0
 1833 0aa8 4B41     		adcs	r3, r3, r1
 1834 0aaa 0492     		str	r2, [sp, #16]
 1835 0aac 0593     		str	r3, [sp, #20]
 1836              	.LVL327:
 191:sc.c          ****     s3 -= s12 * 997805;
 1837              		.loc 1 191 0
 1838 0aae 224A     		ldr	r2, .L7+12
 1839              	.LVL328:
 1840 0ab0 0123     		movs	r3, #1
 1841 0ab2 5B42     		rsbs	r3, r3, #0
 1842 0ab4 2000     		movs	r0, r4
 1843 0ab6 2900     		movs	r1, r5
 1844 0ab8 FFF7FEFF 		bl	__aeabi_lmul
 1845              	.LVL329:
 1846 0abc 069A     		ldr	r2, [sp, #24]
 1847 0abe 079B     		ldr	r3, [sp, #28]
 1848 0ac0 1218     		adds	r2, r2, r0
 1849 0ac2 4B41     		adcs	r3, r3, r1
 1850 0ac4 0692     		str	r2, [sp, #24]
 1851 0ac6 0793     		str	r3, [sp, #28]
 1852              	.LVL330:
 192:sc.c          ****     s4 += s12 * 136657;
 1853              		.loc 1 192 0
 1854 0ac8 1C4A     		ldr	r2, .L7+16
 1855              	.LVL331:
 1856 0aca 0023     		movs	r3, #0
 1857 0acc 2000     		movs	r0, r4
 1858 0ace 2900     		movs	r1, r5
 1859 0ad0 FFF7FEFF 		bl	__aeabi_lmul
 1860              	.LVL332:
ARM GAS  C:\Users\NIGHDR~1\AppData\Local\Temp\ccvJ0Ig2.s 			page 37


 1861 0ad4 0E9A     		ldr	r2, [sp, #56]
 1862 0ad6 0F9B     		ldr	r3, [sp, #60]
 1863 0ad8 1218     		adds	r2, r2, r0
 1864 0ada 4B41     		adcs	r3, r3, r1
 1865 0adc 0A92     		str	r2, [sp, #40]
 1866 0ade 0B93     		str	r3, [sp, #44]
 1867              	.LVL333:
 193:sc.c          ****     s5 -= s12 * 683901;
 1868              		.loc 1 193 0
 1869 0ae0 174A     		ldr	r2, .L7+20
 1870              	.LVL334:
 1871 0ae2 0123     		movs	r3, #1
 1872 0ae4 5B42     		rsbs	r3, r3, #0
 1873 0ae6 2000     		movs	r0, r4
 1874 0ae8 2900     		movs	r1, r5
 1875 0aea FFF7FEFF 		bl	__aeabi_lmul
 1876              	.LVL335:
 1877 0aee 109A     		ldr	r2, [sp, #64]
 1878 0af0 119B     		ldr	r3, [sp, #68]
 1879 0af2 1218     		adds	r2, r2, r0
 1880 0af4 4B41     		adcs	r3, r3, r1
 1881 0af6 0C92     		str	r2, [sp, #48]
 1882 0af8 0D93     		str	r3, [sp, #52]
 1883              	.LVL336:
 194:sc.c          ****     s12 = 0;
 195:sc.c          ****     carry0 = (s0 + (1 << 20)) >> 21;
 1884              		.loc 1 195 0
 1885 0afa 8020     		movs	r0, #128
 1886 0afc 4003     		lsls	r0, r0, #13
 1887 0afe 0021     		movs	r1, #0
 1888 0b00 8019     		adds	r0, r0, r6
 1889 0b02 7941     		adcs	r1, r1, r7
 1890 0b04 CB02     		lsls	r3, r1, #11
 1891 0b06 9C46     		mov	ip, r3
 1892 0b08 420D     		lsrs	r2, r0, #21
 1893              	.LVL337:
 1894 0b0a 6446     		mov	r4, ip
 1895 0b0c 2243     		orrs	r2, r4
 1896 0b0e 4B15     		asrs	r3, r1, #21
 1897              	.LVL338:
 196:sc.c          ****     s1 += carry0;
 1898              		.loc 1 196 0
 1899 0b10 0298     		ldr	r0, [sp, #8]
 1900 0b12 0399     		ldr	r1, [sp, #12]
 1901 0b14 8018     		adds	r0, r0, r2
 1902 0b16 5941     		adcs	r1, r1, r3
 1903 0b18 0E90     		str	r0, [sp, #56]
 1904 0b1a 0F91     		str	r1, [sp, #60]
 1905              	.LVL339:
 197:sc.c          ****     s0 -= carry0 << 21;
 1906              		.loc 1 197 0
 1907 0b1c D10A     		lsrs	r1, r2, #11
 1908 0b1e 8C46     		mov	ip, r1
 1909 0b20 5905     		lsls	r1, r3, #21
 1910 0b22 6446     		mov	r4, ip
 1911 0b24 2143     		orrs	r1, r4
 1912 0b26 5005     		lsls	r0, r2, #21
ARM GAS  C:\Users\NIGHDR~1\AppData\Local\Temp\ccvJ0Ig2.s 			page 38


 1913 0b28 0CE0     		b	.L8
 1914              	.L9:
 1915 0b2a C046     		.align	2
 1916              	.L7:
 1917 0b2c 132C0A00 		.word	666643
 1918 0b30 182D0700 		.word	470296
 1919 0b34 67FB0900 		.word	654183
 1920 0b38 53C6F0FF 		.word	-997805
 1921 0b3c D1150200 		.word	136657
 1922 0b40 8390F5FF 		.word	-683901
 1923              	.L8:
 1924              	.LVL340:
 1925 0b44 361A     		subs	r6, r6, r0
 1926 0b46 8F41     		sbcs	r7, r7, r1
 1927              	.LVL341:
 1928 0b48 1096     		str	r6, [sp, #64]
 1929 0b4a 1197     		str	r7, [sp, #68]
 1930              	.LVL342:
 198:sc.c          ****     carry2 = (s2 + (1 << 20)) >> 21;
 1931              		.loc 1 198 0
 1932 0b4c 8026     		movs	r6, #128
 1933              	.LVL343:
 1934 0b4e 7603     		lsls	r6, r6, #13
 1935 0b50 0027     		movs	r7, #0
 1936 0b52 049C     		ldr	r4, [sp, #16]
 1937 0b54 059D     		ldr	r5, [sp, #20]
 1938 0b56 2100     		movs	r1, r4
 1939 0b58 2A00     		movs	r2, r5
 1940              	.LVL344:
 1941 0b5a 7618     		adds	r6, r6, r1
 1942 0b5c 5741     		adcs	r7, r7, r2
 1943 0b5e 3000     		movs	r0, r6
 1944 0b60 FE02     		lsls	r6, r7, #11
 1945 0b62 420D     		lsrs	r2, r0, #21
 1946 0b64 3243     		orrs	r2, r6
 1947 0b66 7B15     		asrs	r3, r7, #21
 1948              	.LVL345:
 199:sc.c          ****     s3 += carry2;
 1949              		.loc 1 199 0
 1950 0b68 069E     		ldr	r6, [sp, #24]
 1951 0b6a 079F     		ldr	r7, [sp, #28]
 1952 0b6c B618     		adds	r6, r6, r2
 1953 0b6e 5F41     		adcs	r7, r7, r3
 1954 0b70 0296     		str	r6, [sp, #8]
 1955 0b72 0397     		str	r7, [sp, #12]
 1956              	.LVL346:
 200:sc.c          ****     s2 -= carry2 << 21;
 1957              		.loc 1 200 0
 1958 0b74 D60A     		lsrs	r6, r2, #11
 1959              	.LVL347:
 1960 0b76 5905     		lsls	r1, r3, #21
 1961 0b78 3143     		orrs	r1, r6
 1962 0b7a 5005     		lsls	r0, r2, #21
 1963 0b7c 2600     		movs	r6, r4
 1964 0b7e 2F00     		movs	r7, r5
 1965 0b80 361A     		subs	r6, r6, r0
 1966 0b82 8F41     		sbcs	r7, r7, r1
ARM GAS  C:\Users\NIGHDR~1\AppData\Local\Temp\ccvJ0Ig2.s 			page 39


 1967 0b84 1696     		str	r6, [sp, #88]
 1968 0b86 1797     		str	r7, [sp, #92]
 1969              	.LVL348:
 201:sc.c          ****     carry4 = (s4 + (1 << 20)) >> 21;
 1970              		.loc 1 201 0
 1971 0b88 8026     		movs	r6, #128
 1972              	.LVL349:
 1973 0b8a 7603     		lsls	r6, r6, #13
 1974 0b8c 0027     		movs	r7, #0
 1975 0b8e 0A9C     		ldr	r4, [sp, #40]
 1976 0b90 0B9D     		ldr	r5, [sp, #44]
 1977 0b92 2100     		movs	r1, r4
 1978 0b94 2A00     		movs	r2, r5
 1979              	.LVL350:
 1980 0b96 7618     		adds	r6, r6, r1
 1981 0b98 5741     		adcs	r7, r7, r2
 1982 0b9a 3000     		movs	r0, r6
 1983 0b9c FE02     		lsls	r6, r7, #11
 1984 0b9e 420D     		lsrs	r2, r0, #21
 1985 0ba0 3243     		orrs	r2, r6
 1986 0ba2 7B15     		asrs	r3, r7, #21
 1987              	.LVL351:
 202:sc.c          ****     s5 += carry4;
 1988              		.loc 1 202 0
 1989 0ba4 0C98     		ldr	r0, [sp, #48]
 1990 0ba6 0D99     		ldr	r1, [sp, #52]
 1991 0ba8 8018     		adds	r0, r0, r2
 1992 0baa 5941     		adcs	r1, r1, r3
 1993 0bac 0490     		str	r0, [sp, #16]
 1994 0bae 0591     		str	r1, [sp, #20]
 1995              	.LVL352:
 203:sc.c          ****     s4 -= carry4 << 21;
 1996              		.loc 1 203 0
 1997 0bb0 D60A     		lsrs	r6, r2, #11
 1998 0bb2 5905     		lsls	r1, r3, #21
 1999 0bb4 3143     		orrs	r1, r6
 2000 0bb6 5005     		lsls	r0, r2, #21
 2001              	.LVL353:
 2002 0bb8 2600     		movs	r6, r4
 2003 0bba 2F00     		movs	r7, r5
 2004 0bbc 361A     		subs	r6, r6, r0
 2005 0bbe 8F41     		sbcs	r7, r7, r1
 2006 0bc0 0A96     		str	r6, [sp, #40]
 2007 0bc2 0B97     		str	r7, [sp, #44]
 2008              	.LVL354:
 204:sc.c          ****     carry6 = (s6 + (1 << 20)) >> 21;
 2009              		.loc 1 204 0
 2010 0bc4 8026     		movs	r6, #128
 2011              	.LVL355:
 2012 0bc6 7603     		lsls	r6, r6, #13
 2013 0bc8 0027     		movs	r7, #0
 2014 0bca 149C     		ldr	r4, [sp, #80]
 2015 0bcc 159D     		ldr	r5, [sp, #84]
 2016 0bce 2100     		movs	r1, r4
 2017 0bd0 2A00     		movs	r2, r5
 2018              	.LVL356:
 2019 0bd2 7618     		adds	r6, r6, r1
ARM GAS  C:\Users\NIGHDR~1\AppData\Local\Temp\ccvJ0Ig2.s 			page 40


 2020 0bd4 5741     		adcs	r7, r7, r2
 2021 0bd6 3000     		movs	r0, r6
 2022 0bd8 FE02     		lsls	r6, r7, #11
 2023 0bda 420D     		lsrs	r2, r0, #21
 2024 0bdc 3243     		orrs	r2, r6
 2025 0bde 7B15     		asrs	r3, r7, #21
 2026              	.LVL357:
 205:sc.c          ****     s7 += carry6;
 2027              		.loc 1 205 0
 2028 0be0 1298     		ldr	r0, [sp, #72]
 2029 0be2 1399     		ldr	r1, [sp, #76]
 2030 0be4 8018     		adds	r0, r0, r2
 2031 0be6 5941     		adcs	r1, r1, r3
 2032 0be8 0690     		str	r0, [sp, #24]
 2033 0bea 0791     		str	r1, [sp, #28]
 2034              	.LVL358:
 206:sc.c          ****     s6 -= carry6 << 21;
 2035              		.loc 1 206 0
 2036 0bec D60A     		lsrs	r6, r2, #11
 2037 0bee 5905     		lsls	r1, r3, #21
 2038 0bf0 3143     		orrs	r1, r6
 2039 0bf2 5005     		lsls	r0, r2, #21
 2040              	.LVL359:
 2041 0bf4 2600     		movs	r6, r4
 2042 0bf6 2F00     		movs	r7, r5
 2043 0bf8 361A     		subs	r6, r6, r0
 2044 0bfa 8F41     		sbcs	r7, r7, r1
 2045 0bfc 0C96     		str	r6, [sp, #48]
 2046 0bfe 0D97     		str	r7, [sp, #52]
 2047              	.LVL360:
 207:sc.c          ****     carry8 = (s8 + (1 << 20)) >> 21;
 2048              		.loc 1 207 0
 2049 0c00 8026     		movs	r6, #128
 2050              	.LVL361:
 2051 0c02 7603     		lsls	r6, r6, #13
 2052 0c04 0027     		movs	r7, #0
 2053 0c06 089C     		ldr	r4, [sp, #32]
 2054 0c08 099D     		ldr	r5, [sp, #36]
 2055 0c0a 2100     		movs	r1, r4
 2056 0c0c 2A00     		movs	r2, r5
 2057              	.LVL362:
 2058 0c0e 7618     		adds	r6, r6, r1
 2059 0c10 5741     		adcs	r7, r7, r2
 2060 0c12 3000     		movs	r0, r6
 2061 0c14 FE02     		lsls	r6, r7, #11
 2062 0c16 420D     		lsrs	r2, r0, #21
 2063 0c18 3243     		orrs	r2, r6
 2064 0c1a 7B15     		asrs	r3, r7, #21
 2065              	.LVL363:
 208:sc.c          ****     s9 += carry8;
 2066              		.loc 1 208 0
 2067 0c1c 1A9E     		ldr	r6, [sp, #104]
 2068 0c1e 1B9F     		ldr	r7, [sp, #108]
 2069 0c20 B618     		adds	r6, r6, r2
 2070 0c22 5F41     		adcs	r7, r7, r3
 2071 0c24 0896     		str	r6, [sp, #32]
 2072 0c26 0997     		str	r7, [sp, #36]
ARM GAS  C:\Users\NIGHDR~1\AppData\Local\Temp\ccvJ0Ig2.s 			page 41


 2073              	.LVL364:
 209:sc.c          ****     s8 -= carry8 << 21;
 2074              		.loc 1 209 0
 2075 0c28 D60A     		lsrs	r6, r2, #11
 2076              	.LVL365:
 2077 0c2a 5905     		lsls	r1, r3, #21
 2078 0c2c 3143     		orrs	r1, r6
 2079 0c2e 5005     		lsls	r0, r2, #21
 2080 0c30 2200     		movs	r2, r4
 2081              	.LVL366:
 2082 0c32 2B00     		movs	r3, r5
 2083 0c34 121A     		subs	r2, r2, r0
 2084 0c36 8B41     		sbcs	r3, r3, r1
 2085 0c38 1292     		str	r2, [sp, #72]
 2086 0c3a 1393     		str	r3, [sp, #76]
 2087              	.LVL367:
 210:sc.c          ****     carry10 = (s10 + (1 << 20)) >> 21;
 2088              		.loc 1 210 0
 2089 0c3c 8020     		movs	r0, #128
 2090 0c3e 4003     		lsls	r0, r0, #13
 2091 0c40 0021     		movs	r1, #0
 2092 0c42 009A     		ldr	r2, [sp]
 2093 0c44 019B     		ldr	r3, [sp, #4]
 2094              	.LVL368:
 2095 0c46 8018     		adds	r0, r0, r2
 2096 0c48 5941     		adcs	r1, r1, r3
 2097 0c4a CE02     		lsls	r6, r1, #11
 2098 0c4c 420D     		lsrs	r2, r0, #21
 2099 0c4e 3243     		orrs	r2, r6
 2100 0c50 4B15     		asrs	r3, r1, #21
 2101              	.LVL369:
 211:sc.c          ****     s11 += carry10;
 2102              		.loc 1 211 0
 2103 0c52 209E     		ldr	r6, [sp, #128]
 2104 0c54 219F     		ldr	r7, [sp, #132]
 2105 0c56 B618     		adds	r6, r6, r2
 2106 0c58 5F41     		adcs	r7, r7, r3
 2107 0c5a 1496     		str	r6, [sp, #80]
 2108 0c5c 1597     		str	r7, [sp, #84]
 2109              	.LVL370:
 212:sc.c          ****     s10 -= carry10 << 21;
 2110              		.loc 1 212 0
 2111 0c5e D10A     		lsrs	r1, r2, #11
 2112 0c60 8C46     		mov	ip, r1
 2113 0c62 5905     		lsls	r1, r3, #21
 2114 0c64 6546     		mov	r5, ip
 2115 0c66 2943     		orrs	r1, r5
 2116 0c68 5005     		lsls	r0, r2, #21
 2117 0c6a 009A     		ldr	r2, [sp]
 2118 0c6c 019B     		ldr	r3, [sp, #4]
 2119              	.LVL371:
 2120 0c6e 121A     		subs	r2, r2, r0
 2121 0c70 8B41     		sbcs	r3, r3, r1
 2122 0c72 0092     		str	r2, [sp]
 2123 0c74 0193     		str	r3, [sp, #4]
 2124              	.LVL372:
 213:sc.c          ****     carry1 = (s1 + (1 << 20)) >> 21;
ARM GAS  C:\Users\NIGHDR~1\AppData\Local\Temp\ccvJ0Ig2.s 			page 42


 2125              		.loc 1 213 0
 2126 0c76 8021     		movs	r1, #128
 2127 0c78 4903     		lsls	r1, r1, #13
 2128 0c7a 0022     		movs	r2, #0
 2129              	.LVL373:
 2130 0c7c 0E9E     		ldr	r6, [sp, #56]
 2131 0c7e 0F9F     		ldr	r7, [sp, #60]
 2132              	.LVL374:
 2133 0c80 3300     		movs	r3, r6
 2134 0c82 3C00     		movs	r4, r7
 2135 0c84 C918     		adds	r1, r1, r3
 2136 0c86 6241     		adcs	r2, r2, r4
 2137 0c88 1300     		movs	r3, r2
 2138 0c8a 0A00     		movs	r2, r1
 2139 0c8c D902     		lsls	r1, r3, #11
 2140 0c8e 8C46     		mov	ip, r1
 2141 0c90 500D     		lsrs	r0, r2, #21
 2142 0c92 6546     		mov	r5, ip
 2143 0c94 2843     		orrs	r0, r5
 2144 0c96 5915     		asrs	r1, r3, #21
 2145              	.LVL375:
 214:sc.c          ****     s2 += carry1;
 2146              		.loc 1 214 0
 2147 0c98 169A     		ldr	r2, [sp, #88]
 2148 0c9a 179B     		ldr	r3, [sp, #92]
 2149 0c9c 1218     		adds	r2, r2, r0
 2150 0c9e 4B41     		adcs	r3, r3, r1
 2151 0ca0 0E92     		str	r2, [sp, #56]
 2152 0ca2 0F93     		str	r3, [sp, #60]
 2153              	.LVL376:
 215:sc.c          ****     s1 -= carry1 << 21;
 2154              		.loc 1 215 0
 2155 0ca4 C30A     		lsrs	r3, r0, #11
 2156 0ca6 9C46     		mov	ip, r3
 2157 0ca8 4B05     		lsls	r3, r1, #21
 2158 0caa 6546     		mov	r5, ip
 2159 0cac 2B43     		orrs	r3, r5
 2160 0cae 4205     		lsls	r2, r0, #21
 2161              	.LVL377:
 2162 0cb0 3400     		movs	r4, r6
 2163 0cb2 3D00     		movs	r5, r7
 2164 0cb4 A41A     		subs	r4, r4, r2
 2165 0cb6 9D41     		sbcs	r5, r5, r3
 2166 0cb8 1694     		str	r4, [sp, #88]
 2167 0cba 1795     		str	r5, [sp, #92]
 2168              	.LVL378:
 216:sc.c          ****     carry3 = (s3 + (1 << 20)) >> 21;
 2169              		.loc 1 216 0
 2170 0cbc 8022     		movs	r2, #128
 2171 0cbe 5203     		lsls	r2, r2, #13
 2172 0cc0 0023     		movs	r3, #0
 2173 0cc2 0298     		ldr	r0, [sp, #8]
 2174 0cc4 0399     		ldr	r1, [sp, #12]
 2175              	.LVL379:
 2176 0cc6 8018     		adds	r0, r0, r2
 2177 0cc8 5941     		adcs	r1, r1, r3
 2178 0cca 0400     		movs	r4, r0
ARM GAS  C:\Users\NIGHDR~1\AppData\Local\Temp\ccvJ0Ig2.s 			page 43


 2179              	.LVL380:
 2180 0ccc 0D00     		movs	r5, r1
 2181 0cce C902     		lsls	r1, r1, #11
 2182 0cd0 8C46     		mov	ip, r1
 2183 0cd2 2900     		movs	r1, r5
 2184 0cd4 660D     		lsrs	r6, r4, #21
 2185 0cd6 6546     		mov	r5, ip
 2186 0cd8 2E43     		orrs	r6, r5
 2187 0cda 4F15     		asrs	r7, r1, #21
 2188              	.LVL381:
 217:sc.c          ****     s4 += carry3;
 2189              		.loc 1 217 0
 2190 0cdc 0A9C     		ldr	r4, [sp, #40]
 2191 0cde 0B9D     		ldr	r5, [sp, #44]
 2192 0ce0 A419     		adds	r4, r4, r6
 2193 0ce2 7D41     		adcs	r5, r5, r7
 2194 0ce4 0A94     		str	r4, [sp, #40]
 2195 0ce6 0B95     		str	r5, [sp, #44]
 2196              	.LVL382:
 218:sc.c          ****     s3 -= carry3 << 21;
 2197              		.loc 1 218 0
 2198 0ce8 F50A     		lsrs	r5, r6, #11
 2199 0cea AC46     		mov	ip, r5
 2200 0cec 7D05     		lsls	r5, r7, #21
 2201 0cee 6146     		mov	r1, ip
 2202 0cf0 0D43     		orrs	r5, r1
 2203 0cf2 7405     		lsls	r4, r6, #21
 2204              	.LVL383:
 2205 0cf4 0298     		ldr	r0, [sp, #8]
 2206 0cf6 0399     		ldr	r1, [sp, #12]
 2207 0cf8 001B     		subs	r0, r0, r4
 2208 0cfa A941     		sbcs	r1, r1, r5
 2209 0cfc 0290     		str	r0, [sp, #8]
 2210 0cfe 0391     		str	r1, [sp, #12]
 2211              	.LVL384:
 219:sc.c          ****     carry5 = (s5 + (1 << 20)) >> 21;
 2212              		.loc 1 219 0
 2213 0d00 0498     		ldr	r0, [sp, #16]
 2214 0d02 0599     		ldr	r1, [sp, #20]
 2215              	.LVL385:
 2216 0d04 8018     		adds	r0, r0, r2
 2217 0d06 5941     		adcs	r1, r1, r3
 2218 0d08 0600     		movs	r6, r0
 2219              	.LVL386:
 2220 0d0a 0F00     		movs	r7, r1
 2221 0d0c C902     		lsls	r1, r1, #11
 2222 0d0e 8C46     		mov	ip, r1
 2223 0d10 700D     		lsrs	r0, r6, #21
 2224 0d12 6546     		mov	r5, ip
 2225 0d14 2843     		orrs	r0, r5
 2226 0d16 7915     		asrs	r1, r7, #21
 2227              	.LVL387:
 220:sc.c          ****     s6 += carry5;
 2228              		.loc 1 220 0
 2229 0d18 0C9C     		ldr	r4, [sp, #48]
 2230 0d1a 0D9D     		ldr	r5, [sp, #52]
 2231 0d1c 2418     		adds	r4, r4, r0
ARM GAS  C:\Users\NIGHDR~1\AppData\Local\Temp\ccvJ0Ig2.s 			page 44


 2232 0d1e 4D41     		adcs	r5, r5, r1
 2233 0d20 0C94     		str	r4, [sp, #48]
 2234 0d22 0D95     		str	r5, [sp, #52]
 2235              	.LVL388:
 221:sc.c          ****     s5 -= carry5 << 21;
 2236              		.loc 1 221 0
 2237 0d24 C50A     		lsrs	r5, r0, #11
 2238 0d26 AC46     		mov	ip, r5
 2239 0d28 4D05     		lsls	r5, r1, #21
 2240 0d2a 6746     		mov	r7, ip
 2241 0d2c 3D43     		orrs	r5, r7
 2242 0d2e 4405     		lsls	r4, r0, #21
 2243              	.LVL389:
 2244 0d30 0498     		ldr	r0, [sp, #16]
 2245 0d32 0599     		ldr	r1, [sp, #20]
 2246              	.LVL390:
 2247 0d34 001B     		subs	r0, r0, r4
 2248 0d36 A941     		sbcs	r1, r1, r5
 2249 0d38 0490     		str	r0, [sp, #16]
 2250 0d3a 0591     		str	r1, [sp, #20]
 2251              	.LVL391:
 222:sc.c          ****     carry7 = (s7 + (1 << 20)) >> 21;
 2252              		.loc 1 222 0
 2253 0d3c 069C     		ldr	r4, [sp, #24]
 2254 0d3e 079D     		ldr	r5, [sp, #28]
 2255 0d40 A418     		adds	r4, r4, r2
 2256 0d42 5D41     		adcs	r5, r5, r3
 2257 0d44 E902     		lsls	r1, r5, #11
 2258 0d46 8C46     		mov	ip, r1
 2259 0d48 600D     		lsrs	r0, r4, #21
 2260              	.LVL392:
 2261 0d4a 6746     		mov	r7, ip
 2262 0d4c 3843     		orrs	r0, r7
 2263 0d4e 6915     		asrs	r1, r5, #21
 2264              	.LVL393:
 223:sc.c          ****     s8 += carry7;
 2265              		.loc 1 223 0
 2266 0d50 129C     		ldr	r4, [sp, #72]
 2267 0d52 139D     		ldr	r5, [sp, #76]
 2268 0d54 2418     		adds	r4, r4, r0
 2269 0d56 4D41     		adcs	r5, r5, r1
 2270 0d58 1294     		str	r4, [sp, #72]
 2271 0d5a 1395     		str	r5, [sp, #76]
 2272              	.LVL394:
 224:sc.c          ****     s7 -= carry7 << 21;
 2273              		.loc 1 224 0
 2274 0d5c C50A     		lsrs	r5, r0, #11
 2275 0d5e AC46     		mov	ip, r5
 2276 0d60 4D05     		lsls	r5, r1, #21
 2277 0d62 6746     		mov	r7, ip
 2278 0d64 3D43     		orrs	r5, r7
 2279 0d66 4405     		lsls	r4, r0, #21
 2280              	.LVL395:
 2281 0d68 0698     		ldr	r0, [sp, #24]
 2282 0d6a 0799     		ldr	r1, [sp, #28]
 2283              	.LVL396:
 2284 0d6c 001B     		subs	r0, r0, r4
ARM GAS  C:\Users\NIGHDR~1\AppData\Local\Temp\ccvJ0Ig2.s 			page 45


 2285 0d6e A941     		sbcs	r1, r1, r5
 2286 0d70 0690     		str	r0, [sp, #24]
 2287 0d72 0791     		str	r1, [sp, #28]
 2288              	.LVL397:
 225:sc.c          ****     carry9 = (s9 + (1 << 20)) >> 21;
 2289              		.loc 1 225 0
 2290 0d74 089C     		ldr	r4, [sp, #32]
 2291 0d76 099D     		ldr	r5, [sp, #36]
 2292 0d78 A418     		adds	r4, r4, r2
 2293 0d7a 5D41     		adcs	r5, r5, r3
 2294 0d7c E902     		lsls	r1, r5, #11
 2295 0d7e 8C46     		mov	ip, r1
 2296 0d80 600D     		lsrs	r0, r4, #21
 2297              	.LVL398:
 2298 0d82 6746     		mov	r7, ip
 2299 0d84 3843     		orrs	r0, r7
 2300 0d86 6915     		asrs	r1, r5, #21
 2301              	.LVL399:
 226:sc.c          ****     s10 += carry9;
 2302              		.loc 1 226 0
 2303 0d88 009C     		ldr	r4, [sp]
 2304 0d8a 019D     		ldr	r5, [sp, #4]
 2305 0d8c 2418     		adds	r4, r4, r0
 2306 0d8e 4D41     		adcs	r5, r5, r1
 2307 0d90 1894     		str	r4, [sp, #96]
 2308 0d92 1995     		str	r5, [sp, #100]
 2309              	.LVL400:
 227:sc.c          ****     s9 -= carry9 << 21;
 2310              		.loc 1 227 0
 2311 0d94 C50A     		lsrs	r5, r0, #11
 2312 0d96 AC46     		mov	ip, r5
 2313 0d98 4D05     		lsls	r5, r1, #21
 2314 0d9a 6746     		mov	r7, ip
 2315 0d9c 3D43     		orrs	r5, r7
 2316 0d9e 4405     		lsls	r4, r0, #21
 2317              	.LVL401:
 2318 0da0 0898     		ldr	r0, [sp, #32]
 2319 0da2 0999     		ldr	r1, [sp, #36]
 2320              	.LVL402:
 2321 0da4 001B     		subs	r0, r0, r4
 2322 0da6 A941     		sbcs	r1, r1, r5
 2323 0da8 0890     		str	r0, [sp, #32]
 2324 0daa 0991     		str	r1, [sp, #36]
 2325              	.LVL403:
 228:sc.c          ****     carry11 = (s11 + (1 << 20)) >> 21;
 2326              		.loc 1 228 0
 2327 0dac 149E     		ldr	r6, [sp, #80]
 2328 0dae 159F     		ldr	r7, [sp, #84]
 2329 0db0 3000     		movs	r0, r6
 2330              	.LVL404:
 2331 0db2 3900     		movs	r1, r7
 2332 0db4 1218     		adds	r2, r2, r0
 2333 0db6 4B41     		adcs	r3, r3, r1
 2334 0db8 D902     		lsls	r1, r3, #11
 2335 0dba 540D     		lsrs	r4, r2, #21
 2336 0dbc 0C43     		orrs	r4, r1
 2337 0dbe 5D15     		asrs	r5, r3, #21
ARM GAS  C:\Users\NIGHDR~1\AppData\Local\Temp\ccvJ0Ig2.s 			page 46


 2338              	.LVL405:
 229:sc.c          ****     s12 += carry11;
 230:sc.c          ****     s11 -= carry11 << 21;
 2339              		.loc 1 230 0
 2340 0dc0 E10A     		lsrs	r1, r4, #11
 2341 0dc2 6B05     		lsls	r3, r5, #21
 2342 0dc4 0B43     		orrs	r3, r1
 2343 0dc6 6205     		lsls	r2, r4, #21
 2344 0dc8 B61A     		subs	r6, r6, r2
 2345 0dca 9F41     		sbcs	r7, r7, r3
 2346 0dcc 1496     		str	r6, [sp, #80]
 2347 0dce 1597     		str	r7, [sp, #84]
 2348              	.LVL406:
 231:sc.c          ****     s0 += s12 * 666643;
 2349              		.loc 1 231 0
 2350 0dd0 E94A     		ldr	r2, .L10
 2351 0dd2 0023     		movs	r3, #0
 2352 0dd4 2000     		movs	r0, r4
 2353 0dd6 2900     		movs	r1, r5
 2354 0dd8 FFF7FEFF 		bl	__aeabi_lmul
 2355              	.LVL407:
 2356 0ddc 109E     		ldr	r6, [sp, #64]
 2357 0dde 119F     		ldr	r7, [sp, #68]
 2358              	.LVL408:
 2359 0de0 3618     		adds	r6, r6, r0
 2360 0de2 4F41     		adcs	r7, r7, r1
 2361              	.LVL409:
 232:sc.c          ****     s1 += s12 * 470296;
 2362              		.loc 1 232 0
 2363 0de4 E54A     		ldr	r2, .L10+4
 2364 0de6 0023     		movs	r3, #0
 2365 0de8 2000     		movs	r0, r4
 2366 0dea 2900     		movs	r1, r5
 2367 0dec FFF7FEFF 		bl	__aeabi_lmul
 2368              	.LVL410:
 2369 0df0 169A     		ldr	r2, [sp, #88]
 2370 0df2 179B     		ldr	r3, [sp, #92]
 2371 0df4 1218     		adds	r2, r2, r0
 2372 0df6 4B41     		adcs	r3, r3, r1
 2373 0df8 0092     		str	r2, [sp]
 2374 0dfa 0193     		str	r3, [sp, #4]
 2375              	.LVL411:
 233:sc.c          ****     s2 += s12 * 654183;
 2376              		.loc 1 233 0
 2377 0dfc E04A     		ldr	r2, .L10+8
 2378              	.LVL412:
 2379 0dfe 0023     		movs	r3, #0
 2380 0e00 2000     		movs	r0, r4
 2381 0e02 2900     		movs	r1, r5
 2382 0e04 FFF7FEFF 		bl	__aeabi_lmul
 2383              	.LVL413:
 2384 0e08 0E9A     		ldr	r2, [sp, #56]
 2385 0e0a 0F9B     		ldr	r3, [sp, #60]
 2386 0e0c 1218     		adds	r2, r2, r0
 2387 0e0e 4B41     		adcs	r3, r3, r1
 2388 0e10 0E92     		str	r2, [sp, #56]
 2389 0e12 0F93     		str	r3, [sp, #60]
ARM GAS  C:\Users\NIGHDR~1\AppData\Local\Temp\ccvJ0Ig2.s 			page 47


 2390              	.LVL414:
 234:sc.c          ****     s3 -= s12 * 997805;
 2391              		.loc 1 234 0
 2392 0e14 DB4A     		ldr	r2, .L10+12
 2393              	.LVL415:
 2394 0e16 0123     		movs	r3, #1
 2395 0e18 5B42     		rsbs	r3, r3, #0
 2396 0e1a 2000     		movs	r0, r4
 2397 0e1c 2900     		movs	r1, r5
 2398 0e1e FFF7FEFF 		bl	__aeabi_lmul
 2399              	.LVL416:
 2400 0e22 029A     		ldr	r2, [sp, #8]
 2401 0e24 039B     		ldr	r3, [sp, #12]
 2402 0e26 1218     		adds	r2, r2, r0
 2403 0e28 4B41     		adcs	r3, r3, r1
 2404 0e2a 0292     		str	r2, [sp, #8]
 2405 0e2c 0393     		str	r3, [sp, #12]
 2406              	.LVL417:
 235:sc.c          ****     s4 += s12 * 136657;
 2407              		.loc 1 235 0
 2408 0e2e D64A     		ldr	r2, .L10+16
 2409              	.LVL418:
 2410 0e30 0023     		movs	r3, #0
 2411 0e32 2000     		movs	r0, r4
 2412 0e34 2900     		movs	r1, r5
 2413 0e36 FFF7FEFF 		bl	__aeabi_lmul
 2414              	.LVL419:
 2415 0e3a 0A9A     		ldr	r2, [sp, #40]
 2416 0e3c 0B9B     		ldr	r3, [sp, #44]
 2417 0e3e 1218     		adds	r2, r2, r0
 2418 0e40 4B41     		adcs	r3, r3, r1
 2419 0e42 0A92     		str	r2, [sp, #40]
 2420 0e44 0B93     		str	r3, [sp, #44]
 2421              	.LVL420:
 236:sc.c          ****     s5 -= s12 * 683901;
 2422              		.loc 1 236 0
 2423 0e46 D14A     		ldr	r2, .L10+20
 2424              	.LVL421:
 2425 0e48 0123     		movs	r3, #1
 2426 0e4a 5B42     		rsbs	r3, r3, #0
 2427 0e4c 2000     		movs	r0, r4
 2428 0e4e 2900     		movs	r1, r5
 2429 0e50 FFF7FEFF 		bl	__aeabi_lmul
 2430              	.LVL422:
 2431 0e54 049B     		ldr	r3, [sp, #16]
 2432 0e56 059C     		ldr	r4, [sp, #20]
 2433 0e58 1B18     		adds	r3, r3, r0
 2434 0e5a 4C41     		adcs	r4, r4, r1
 2435 0e5c 0493     		str	r3, [sp, #16]
 2436 0e5e 0594     		str	r4, [sp, #20]
 2437              	.LVL423:
 237:sc.c          ****     s12 = 0;
 238:sc.c          ****     carry0 = s0 >> 21;
 2438              		.loc 1 238 0
 2439 0e60 F902     		lsls	r1, r7, #11
 2440 0e62 720D     		lsrs	r2, r6, #21
 2441 0e64 0A43     		orrs	r2, r1
ARM GAS  C:\Users\NIGHDR~1\AppData\Local\Temp\ccvJ0Ig2.s 			page 48


 2442 0e66 7B15     		asrs	r3, r7, #21
 2443              	.LVL424:
 239:sc.c          ****     s1 += carry0;
 2444              		.loc 1 239 0
 2445 0e68 0098     		ldr	r0, [sp]
 2446 0e6a 0199     		ldr	r1, [sp, #4]
 2447 0e6c 8018     		adds	r0, r0, r2
 2448 0e6e 5941     		adcs	r1, r1, r3
 2449 0e70 0090     		str	r0, [sp]
 2450 0e72 0191     		str	r1, [sp, #4]
 2451              	.LVL425:
 240:sc.c          ****     s0 -= carry0 << 21;
 2452              		.loc 1 240 0
 2453 0e74 D50A     		lsrs	r5, r2, #11
 2454              	.LVL426:
 2455 0e76 AC46     		mov	ip, r5
 2456 0e78 5D05     		lsls	r5, r3, #21
 2457 0e7a 6146     		mov	r1, ip
 2458 0e7c 0D43     		orrs	r5, r1
 2459 0e7e 5405     		lsls	r4, r2, #21
 2460              	.LVL427:
 2461 0e80 3200     		movs	r2, r6
 2462              	.LVL428:
 2463 0e82 3B00     		movs	r3, r7
 2464 0e84 121B     		subs	r2, r2, r4
 2465 0e86 AB41     		sbcs	r3, r3, r5
 2466 0e88 1092     		str	r2, [sp, #64]
 2467 0e8a 1193     		str	r3, [sp, #68]
 2468              	.LVL429:
 241:sc.c          ****     carry1 = s1 >> 21;
 2469              		.loc 1 241 0
 2470 0e8c 0098     		ldr	r0, [sp]
 2471 0e8e 0199     		ldr	r1, [sp, #4]
 2472 0e90 CC02     		lsls	r4, r1, #11
 2473 0e92 420D     		lsrs	r2, r0, #21
 2474              	.LVL430:
 2475 0e94 2243     		orrs	r2, r4
 2476 0e96 4B15     		asrs	r3, r1, #21
 2477              	.LVL431:
 242:sc.c          ****     s2 += carry1;
 2478              		.loc 1 242 0
 2479 0e98 0E9D     		ldr	r5, [sp, #56]
 2480 0e9a 0F9E     		ldr	r6, [sp, #60]
 2481 0e9c AD18     		adds	r5, r5, r2
 2482 0e9e 5E41     		adcs	r6, r6, r3
 2483 0ea0 3700     		movs	r7, r6
 2484 0ea2 2E00     		movs	r6, r5
 2485              	.LVL432:
 243:sc.c          ****     s1 -= carry1 << 21;
 2486              		.loc 1 243 0
 2487 0ea4 D10A     		lsrs	r1, r2, #11
 2488 0ea6 5D05     		lsls	r5, r3, #21
 2489 0ea8 0D43     		orrs	r5, r1
 2490 0eaa 5405     		lsls	r4, r2, #21
 2491 0eac 0099     		ldr	r1, [sp]
 2492 0eae 019A     		ldr	r2, [sp, #4]
 2493 0eb0 091B     		subs	r1, r1, r4
ARM GAS  C:\Users\NIGHDR~1\AppData\Local\Temp\ccvJ0Ig2.s 			page 49


 2494 0eb2 AA41     		sbcs	r2, r2, r5
 2495 0eb4 0E91     		str	r1, [sp, #56]
 2496 0eb6 0F92     		str	r2, [sp, #60]
 2497              	.LVL433:
 244:sc.c          ****     carry2 = s2 >> 21;
 2498              		.loc 1 244 0
 2499 0eb8 F902     		lsls	r1, r7, #11
 2500              	.LVL434:
 2501 0eba 720D     		lsrs	r2, r6, #21
 2502              	.LVL435:
 2503 0ebc 0A43     		orrs	r2, r1
 2504 0ebe 7B15     		asrs	r3, r7, #21
 2505              	.LVL436:
 245:sc.c          ****     s3 += carry2;
 2506              		.loc 1 245 0
 2507 0ec0 0298     		ldr	r0, [sp, #8]
 2508 0ec2 0399     		ldr	r1, [sp, #12]
 2509 0ec4 8018     		adds	r0, r0, r2
 2510 0ec6 5941     		adcs	r1, r1, r3
 2511 0ec8 0090     		str	r0, [sp]
 2512 0eca 0191     		str	r1, [sp, #4]
 2513              	.LVL437:
 246:sc.c          ****     s2 -= carry2 << 21;
 2514              		.loc 1 246 0
 2515 0ecc D10A     		lsrs	r1, r2, #11
 2516 0ece 8C46     		mov	ip, r1
 2517 0ed0 5905     		lsls	r1, r3, #21
 2518 0ed2 6546     		mov	r5, ip
 2519 0ed4 2943     		orrs	r1, r5
 2520 0ed6 5005     		lsls	r0, r2, #21
 2521              	.LVL438:
 2522 0ed8 3200     		movs	r2, r6
 2523              	.LVL439:
 2524 0eda 3B00     		movs	r3, r7
 2525 0edc 121A     		subs	r2, r2, r0
 2526 0ede 8B41     		sbcs	r3, r3, r1
 2527 0ee0 0292     		str	r2, [sp, #8]
 2528 0ee2 0393     		str	r3, [sp, #12]
 2529              	.LVL440:
 247:sc.c          ****     carry3 = s3 >> 21;
 2530              		.loc 1 247 0
 2531 0ee4 009C     		ldr	r4, [sp]
 2532 0ee6 019D     		ldr	r5, [sp, #4]
 2533 0ee8 E902     		lsls	r1, r5, #11
 2534 0eea 620D     		lsrs	r2, r4, #21
 2535              	.LVL441:
 2536 0eec 0A43     		orrs	r2, r1
 2537 0eee 6B15     		asrs	r3, r5, #21
 2538              	.LVL442:
 248:sc.c          ****     s4 += carry3;
 2539              		.loc 1 248 0
 2540 0ef0 0A9E     		ldr	r6, [sp, #40]
 2541 0ef2 0B9F     		ldr	r7, [sp, #44]
 2542 0ef4 B618     		adds	r6, r6, r2
 2543 0ef6 5F41     		adcs	r7, r7, r3
 2544              	.LVL443:
 249:sc.c          ****     s3 -= carry3 << 21;
ARM GAS  C:\Users\NIGHDR~1\AppData\Local\Temp\ccvJ0Ig2.s 			page 50


 2545              		.loc 1 249 0
 2546 0ef8 D50A     		lsrs	r5, r2, #11
 2547 0efa 5905     		lsls	r1, r3, #21
 2548 0efc 2943     		orrs	r1, r5
 2549 0efe 5005     		lsls	r0, r2, #21
 2550 0f00 009B     		ldr	r3, [sp]
 2551 0f02 019C     		ldr	r4, [sp, #4]
 2552 0f04 1B1A     		subs	r3, r3, r0
 2553 0f06 8C41     		sbcs	r4, r4, r1
 2554 0f08 0A93     		str	r3, [sp, #40]
 2555 0f0a 0B94     		str	r4, [sp, #44]
 2556              	.LVL444:
 250:sc.c          ****     carry4 = s4 >> 21;
 2557              		.loc 1 250 0
 2558 0f0c F902     		lsls	r1, r7, #11
 2559 0f0e 720D     		lsrs	r2, r6, #21
 2560              	.LVL445:
 2561 0f10 0A43     		orrs	r2, r1
 2562 0f12 7B15     		asrs	r3, r7, #21
 2563              	.LVL446:
 251:sc.c          ****     s5 += carry4;
 2564              		.loc 1 251 0
 2565 0f14 049C     		ldr	r4, [sp, #16]
 2566 0f16 059D     		ldr	r5, [sp, #20]
 2567 0f18 A418     		adds	r4, r4, r2
 2568 0f1a 5D41     		adcs	r5, r5, r3
 2569 0f1c 0094     		str	r4, [sp]
 2570 0f1e 0195     		str	r5, [sp, #4]
 2571              	.LVL447:
 252:sc.c          ****     s4 -= carry4 << 21;
 2572              		.loc 1 252 0
 2573 0f20 D10A     		lsrs	r1, r2, #11
 2574 0f22 8C46     		mov	ip, r1
 2575 0f24 5905     		lsls	r1, r3, #21
 2576 0f26 6546     		mov	r5, ip
 2577 0f28 2943     		orrs	r1, r5
 2578 0f2a 5005     		lsls	r0, r2, #21
 2579 0f2c 361A     		subs	r6, r6, r0
 2580 0f2e 8F41     		sbcs	r7, r7, r1
 2581              	.LVL448:
 2582 0f30 0496     		str	r6, [sp, #16]
 2583 0f32 0597     		str	r7, [sp, #20]
 2584              	.LVL449:
 253:sc.c          ****     carry5 = s5 >> 21;
 2585              		.loc 1 253 0
 2586 0f34 009C     		ldr	r4, [sp]
 2587 0f36 019D     		ldr	r5, [sp, #4]
 2588 0f38 E902     		lsls	r1, r5, #11
 2589 0f3a 620D     		lsrs	r2, r4, #21
 2590              	.LVL450:
 2591 0f3c 0A43     		orrs	r2, r1
 2592 0f3e 6B15     		asrs	r3, r5, #21
 2593              	.LVL451:
 254:sc.c          ****     s6 += carry5;
 2594              		.loc 1 254 0
 2595 0f40 0C9E     		ldr	r6, [sp, #48]
 2596 0f42 0D9F     		ldr	r7, [sp, #52]
ARM GAS  C:\Users\NIGHDR~1\AppData\Local\Temp\ccvJ0Ig2.s 			page 51


 2597              	.LVL452:
 2598 0f44 B618     		adds	r6, r6, r2
 2599 0f46 5F41     		adcs	r7, r7, r3
 2600              	.LVL453:
 255:sc.c          ****     s5 -= carry5 << 21;
 2601              		.loc 1 255 0
 2602 0f48 D50A     		lsrs	r5, r2, #11
 2603 0f4a 5905     		lsls	r1, r3, #21
 2604 0f4c 2943     		orrs	r1, r5
 2605 0f4e 5005     		lsls	r0, r2, #21
 2606 0f50 009B     		ldr	r3, [sp]
 2607 0f52 019C     		ldr	r4, [sp, #4]
 2608 0f54 1B1A     		subs	r3, r3, r0
 2609 0f56 8C41     		sbcs	r4, r4, r1
 2610 0f58 0C93     		str	r3, [sp, #48]
 2611 0f5a 0D94     		str	r4, [sp, #52]
 2612              	.LVL454:
 256:sc.c          ****     carry6 = s6 >> 21;
 2613              		.loc 1 256 0
 2614 0f5c F902     		lsls	r1, r7, #11
 2615 0f5e 720D     		lsrs	r2, r6, #21
 2616              	.LVL455:
 2617 0f60 0A43     		orrs	r2, r1
 2618 0f62 7B15     		asrs	r3, r7, #21
 2619              	.LVL456:
 257:sc.c          ****     s7 += carry6;
 2620              		.loc 1 257 0
 2621 0f64 069C     		ldr	r4, [sp, #24]
 2622 0f66 079D     		ldr	r5, [sp, #28]
 2623 0f68 A418     		adds	r4, r4, r2
 2624 0f6a 5D41     		adcs	r5, r5, r3
 2625 0f6c 0094     		str	r4, [sp]
 2626 0f6e 0195     		str	r5, [sp, #4]
 2627              	.LVL457:
 258:sc.c          ****     s6 -= carry6 << 21;
 2628              		.loc 1 258 0
 2629 0f70 D10A     		lsrs	r1, r2, #11
 2630 0f72 8C46     		mov	ip, r1
 2631 0f74 5905     		lsls	r1, r3, #21
 2632 0f76 6546     		mov	r5, ip
 2633 0f78 2943     		orrs	r1, r5
 2634 0f7a 5005     		lsls	r0, r2, #21
 2635 0f7c 361A     		subs	r6, r6, r0
 2636 0f7e 8F41     		sbcs	r7, r7, r1
 2637              	.LVL458:
 2638 0f80 0696     		str	r6, [sp, #24]
 2639 0f82 0797     		str	r7, [sp, #28]
 2640              	.LVL459:
 259:sc.c          ****     carry7 = s7 >> 21;
 2641              		.loc 1 259 0
 2642 0f84 009C     		ldr	r4, [sp]
 2643 0f86 019D     		ldr	r5, [sp, #4]
 2644 0f88 E902     		lsls	r1, r5, #11
 2645 0f8a 620D     		lsrs	r2, r4, #21
 2646              	.LVL460:
 2647 0f8c 0A43     		orrs	r2, r1
 2648 0f8e 6B15     		asrs	r3, r5, #21
ARM GAS  C:\Users\NIGHDR~1\AppData\Local\Temp\ccvJ0Ig2.s 			page 52


 2649              	.LVL461:
 260:sc.c          ****     s8 += carry7;
 2650              		.loc 1 260 0
 2651 0f90 1298     		ldr	r0, [sp, #72]
 2652 0f92 1399     		ldr	r1, [sp, #76]
 2653 0f94 8018     		adds	r0, r0, r2
 2654 0f96 5941     		adcs	r1, r1, r3
 2655 0f98 0600     		movs	r6, r0
 2656              	.LVL462:
 2657 0f9a 0F00     		movs	r7, r1
 2658              	.LVL463:
 261:sc.c          ****     s7 -= carry7 << 21;
 2659              		.loc 1 261 0
 2660 0f9c D50A     		lsrs	r5, r2, #11
 2661 0f9e 5905     		lsls	r1, r3, #21
 2662 0fa0 2943     		orrs	r1, r5
 2663 0fa2 5005     		lsls	r0, r2, #21
 2664 0fa4 009C     		ldr	r4, [sp]
 2665 0fa6 019D     		ldr	r5, [sp, #4]
 2666 0fa8 241A     		subs	r4, r4, r0
 2667 0faa 8D41     		sbcs	r5, r5, r1
 2668              	.LVL464:
 2669 0fac 1294     		str	r4, [sp, #72]
 2670 0fae 1395     		str	r5, [sp, #76]
 2671              	.LVL465:
 262:sc.c          ****     carry8 = s8 >> 21;
 2672              		.loc 1 262 0
 2673 0fb0 F902     		lsls	r1, r7, #11
 2674 0fb2 720D     		lsrs	r2, r6, #21
 2675              	.LVL466:
 2676 0fb4 0A43     		orrs	r2, r1
 2677 0fb6 7B15     		asrs	r3, r7, #21
 2678              	.LVL467:
 263:sc.c          ****     s9 += carry8;
 2679              		.loc 1 263 0
 2680 0fb8 0898     		ldr	r0, [sp, #32]
 2681 0fba 0999     		ldr	r1, [sp, #36]
 2682 0fbc 8018     		adds	r0, r0, r2
 2683 0fbe 5941     		adcs	r1, r1, r3
 2684 0fc0 0090     		str	r0, [sp]
 2685 0fc2 0191     		str	r1, [sp, #4]
 2686              	.LVL468:
 264:sc.c          ****     s8 -= carry8 << 21;
 2687              		.loc 1 264 0
 2688 0fc4 D10A     		lsrs	r1, r2, #11
 2689 0fc6 8C46     		mov	ip, r1
 2690 0fc8 5905     		lsls	r1, r3, #21
 2691 0fca 6546     		mov	r5, ip
 2692 0fcc 2943     		orrs	r1, r5
 2693 0fce 5005     		lsls	r0, r2, #21
 2694              	.LVL469:
 2695 0fd0 361A     		subs	r6, r6, r0
 2696 0fd2 8F41     		sbcs	r7, r7, r1
 2697              	.LVL470:
 2698 0fd4 0896     		str	r6, [sp, #32]
 2699 0fd6 0997     		str	r7, [sp, #36]
 2700              	.LVL471:
ARM GAS  C:\Users\NIGHDR~1\AppData\Local\Temp\ccvJ0Ig2.s 			page 53


 265:sc.c          ****     carry9 = s9 >> 21;
 2701              		.loc 1 265 0
 2702 0fd8 009C     		ldr	r4, [sp]
 2703 0fda 019D     		ldr	r5, [sp, #4]
 2704              	.LVL472:
 2705 0fdc E902     		lsls	r1, r5, #11
 2706 0fde 620D     		lsrs	r2, r4, #21
 2707              	.LVL473:
 2708 0fe0 0A43     		orrs	r2, r1
 2709 0fe2 6B15     		asrs	r3, r5, #21
 2710              	.LVL474:
 266:sc.c          ****     s10 += carry9;
 2711              		.loc 1 266 0
 2712 0fe4 189E     		ldr	r6, [sp, #96]
 2713 0fe6 199F     		ldr	r7, [sp, #100]
 2714              	.LVL475:
 2715 0fe8 B618     		adds	r6, r6, r2
 2716 0fea 5F41     		adcs	r7, r7, r3
 2717              	.LVL476:
 267:sc.c          ****     s9 -= carry9 << 21;
 2718              		.loc 1 267 0
 2719 0fec D50A     		lsrs	r5, r2, #11
 2720 0fee 5905     		lsls	r1, r3, #21
 2721 0ff0 2943     		orrs	r1, r5
 2722 0ff2 5005     		lsls	r0, r2, #21
 2723 0ff4 009C     		ldr	r4, [sp]
 2724 0ff6 019D     		ldr	r5, [sp, #4]
 2725 0ff8 241A     		subs	r4, r4, r0
 2726 0ffa 8D41     		sbcs	r5, r5, r1
 2727 0ffc 1694     		str	r4, [sp, #88]
 2728 0ffe 1795     		str	r5, [sp, #92]
 2729              	.LVL477:
 268:sc.c          ****     carry10 = s10 >> 21;
 2730              		.loc 1 268 0
 2731 1000 F902     		lsls	r1, r7, #11
 2732 1002 3400     		movs	r4, r6
 2733              	.LVL478:
 2734 1004 3D00     		movs	r5, r7
 2735 1006 720D     		lsrs	r2, r6, #21
 2736              	.LVL479:
 2737 1008 0A43     		orrs	r2, r1
 2738 100a 0094     		str	r4, [sp]
 2739 100c 0195     		str	r5, [sp, #4]
 2740 100e 7B15     		asrs	r3, r7, #21
 2741              	.LVL480:
 269:sc.c          ****     s11 += carry10;
 2742              		.loc 1 269 0
 2743 1010 1498     		ldr	r0, [sp, #80]
 2744 1012 1599     		ldr	r1, [sp, #84]
 2745 1014 8018     		adds	r0, r0, r2
 2746 1016 5941     		adcs	r1, r1, r3
 2747              	.LVL481:
 270:sc.c          ****     s10 -= carry10 << 21;
 2748              		.loc 1 270 0
 2749 1018 D50A     		lsrs	r5, r2, #11
 2750 101a AC46     		mov	ip, r5
 2751 101c 5D05     		lsls	r5, r3, #21
ARM GAS  C:\Users\NIGHDR~1\AppData\Local\Temp\ccvJ0Ig2.s 			page 54


 2752 101e 6746     		mov	r7, ip
 2753 1020 3D43     		orrs	r5, r7
 2754 1022 5405     		lsls	r4, r2, #21
 2755 1024 009E     		ldr	r6, [sp]
 2756 1026 019F     		ldr	r7, [sp, #4]
 2757              	.LVL482:
 2758 1028 361B     		subs	r6, r6, r4
 2759 102a AF41     		sbcs	r7, r7, r5
 2760 102c 1496     		str	r6, [sp, #80]
 2761 102e 1597     		str	r7, [sp, #84]
 2762              	.LVL483:
 271:sc.c          ****     carry11 = s11 >> 21;
 2763              		.loc 1 271 0
 2764 1030 CB02     		lsls	r3, r1, #11
 2765 1032 440D     		lsrs	r4, r0, #21
 2766 1034 1C43     		orrs	r4, r3
 2767 1036 4D15     		asrs	r5, r1, #21
 2768              	.LVL484:
 272:sc.c          ****     s12 += carry11;
 273:sc.c          ****     s11 -= carry11 << 21;
 2769              		.loc 1 273 0
 2770 1038 E60A     		lsrs	r6, r4, #11
 2771              	.LVL485:
 2772 103a 6B05     		lsls	r3, r5, #21
 2773 103c 3343     		orrs	r3, r6
 2774 103e 6205     		lsls	r2, r4, #21
 2775              	.LVL486:
 2776 1040 801A     		subs	r0, r0, r2
 2777 1042 9941     		sbcs	r1, r1, r3
 2778              	.LVL487:
 2779 1044 1890     		str	r0, [sp, #96]
 2780 1046 1991     		str	r1, [sp, #100]
 2781              	.LVL488:
 274:sc.c          ****     s0 += s12 * 666643;
 2782              		.loc 1 274 0
 2783 1048 4B4A     		ldr	r2, .L10
 2784 104a 0023     		movs	r3, #0
 2785 104c 2000     		movs	r0, r4
 2786              	.LVL489:
 2787 104e 2900     		movs	r1, r5
 2788 1050 FFF7FEFF 		bl	__aeabi_lmul
 2789              	.LVL490:
 2790 1054 109E     		ldr	r6, [sp, #64]
 2791 1056 119F     		ldr	r7, [sp, #68]
 2792 1058 3618     		adds	r6, r6, r0
 2793 105a 4F41     		adcs	r7, r7, r1
 2794              	.LVL491:
 275:sc.c          ****     s1 += s12 * 470296;
 2795              		.loc 1 275 0
 2796 105c 474A     		ldr	r2, .L10+4
 2797 105e 0023     		movs	r3, #0
 2798 1060 2000     		movs	r0, r4
 2799 1062 2900     		movs	r1, r5
 2800 1064 FFF7FEFF 		bl	__aeabi_lmul
 2801              	.LVL492:
 2802 1068 0E9A     		ldr	r2, [sp, #56]
 2803 106a 0F9B     		ldr	r3, [sp, #60]
ARM GAS  C:\Users\NIGHDR~1\AppData\Local\Temp\ccvJ0Ig2.s 			page 55


 2804 106c 1218     		adds	r2, r2, r0
 2805 106e 4B41     		adcs	r3, r3, r1
 2806 1070 0092     		str	r2, [sp]
 2807 1072 0193     		str	r3, [sp, #4]
 2808              	.LVL493:
 276:sc.c          ****     s2 += s12 * 654183;
 2809              		.loc 1 276 0
 2810 1074 424A     		ldr	r2, .L10+8
 2811              	.LVL494:
 2812 1076 0023     		movs	r3, #0
 2813 1078 2000     		movs	r0, r4
 2814 107a 2900     		movs	r1, r5
 2815 107c FFF7FEFF 		bl	__aeabi_lmul
 2816              	.LVL495:
 2817 1080 029A     		ldr	r2, [sp, #8]
 2818 1082 039B     		ldr	r3, [sp, #12]
 2819 1084 1218     		adds	r2, r2, r0
 2820 1086 4B41     		adcs	r3, r3, r1
 2821 1088 0292     		str	r2, [sp, #8]
 2822 108a 0393     		str	r3, [sp, #12]
 2823              	.LVL496:
 277:sc.c          ****     s3 -= s12 * 997805;
 2824              		.loc 1 277 0
 2825 108c 3D4A     		ldr	r2, .L10+12
 2826              	.LVL497:
 2827 108e 0123     		movs	r3, #1
 2828 1090 5B42     		rsbs	r3, r3, #0
 2829 1092 2000     		movs	r0, r4
 2830 1094 2900     		movs	r1, r5
 2831 1096 FFF7FEFF 		bl	__aeabi_lmul
 2832              	.LVL498:
 2833 109a 0A9A     		ldr	r2, [sp, #40]
 2834 109c 0B9B     		ldr	r3, [sp, #44]
 2835 109e 1218     		adds	r2, r2, r0
 2836 10a0 4B41     		adcs	r3, r3, r1
 2837 10a2 0A92     		str	r2, [sp, #40]
 2838 10a4 0B93     		str	r3, [sp, #44]
 2839              	.LVL499:
 278:sc.c          ****     s4 += s12 * 136657;
 2840              		.loc 1 278 0
 2841 10a6 384A     		ldr	r2, .L10+16
 2842              	.LVL500:
 2843 10a8 0023     		movs	r3, #0
 2844 10aa 2000     		movs	r0, r4
 2845 10ac 2900     		movs	r1, r5
 2846 10ae FFF7FEFF 		bl	__aeabi_lmul
 2847              	.LVL501:
 2848 10b2 049A     		ldr	r2, [sp, #16]
 2849 10b4 059B     		ldr	r3, [sp, #20]
 2850 10b6 1218     		adds	r2, r2, r0
 2851 10b8 4B41     		adcs	r3, r3, r1
 2852 10ba 0492     		str	r2, [sp, #16]
 2853 10bc 0593     		str	r3, [sp, #20]
 2854              	.LVL502:
 279:sc.c          ****     s5 -= s12 * 683901;
 2855              		.loc 1 279 0
 2856 10be 334A     		ldr	r2, .L10+20
ARM GAS  C:\Users\NIGHDR~1\AppData\Local\Temp\ccvJ0Ig2.s 			page 56


 2857              	.LVL503:
 2858 10c0 0123     		movs	r3, #1
 2859 10c2 5B42     		rsbs	r3, r3, #0
 2860 10c4 2000     		movs	r0, r4
 2861 10c6 2900     		movs	r1, r5
 2862 10c8 FFF7FEFF 		bl	__aeabi_lmul
 2863              	.LVL504:
 2864 10cc 0C9B     		ldr	r3, [sp, #48]
 2865 10ce 0D9C     		ldr	r4, [sp, #52]
 2866 10d0 1B18     		adds	r3, r3, r0
 2867 10d2 4C41     		adcs	r4, r4, r1
 2868 10d4 0C93     		str	r3, [sp, #48]
 2869 10d6 0D94     		str	r4, [sp, #52]
 2870              	.LVL505:
 280:sc.c          ****     s12 = 0;
 281:sc.c          ****     carry0 = s0 >> 21;
 2871              		.loc 1 281 0
 2872 10d8 F902     		lsls	r1, r7, #11
 2873 10da 720D     		lsrs	r2, r6, #21
 2874 10dc 0A43     		orrs	r2, r1
 2875 10de 7B15     		asrs	r3, r7, #21
 2876              	.LVL506:
 282:sc.c          ****     s1 += carry0;
 2877              		.loc 1 282 0
 2878 10e0 009C     		ldr	r4, [sp]
 2879 10e2 019D     		ldr	r5, [sp, #4]
 2880              	.LVL507:
 2881 10e4 A418     		adds	r4, r4, r2
 2882 10e6 5D41     		adcs	r5, r5, r3
 2883 10e8 0094     		str	r4, [sp]
 2884 10ea 0195     		str	r5, [sp, #4]
 2885              	.LVL508:
 283:sc.c          ****     s0 -= carry0 << 21;
 2886              		.loc 1 283 0
 2887 10ec D50A     		lsrs	r5, r2, #11
 2888 10ee AC46     		mov	ip, r5
 2889 10f0 5D05     		lsls	r5, r3, #21
 2890 10f2 6146     		mov	r1, ip
 2891 10f4 0D43     		orrs	r5, r1
 2892 10f6 5405     		lsls	r4, r2, #21
 2893              	.LVL509:
 2894 10f8 361B     		subs	r6, r6, r4
 2895 10fa AF41     		sbcs	r7, r7, r5
 2896              	.LVL510:
 2897 10fc 0E96     		str	r6, [sp, #56]
 2898 10fe 0F97     		str	r7, [sp, #60]
 2899              	.LVL511:
 284:sc.c          ****     carry1 = s1 >> 21;
 2900              		.loc 1 284 0
 2901 1100 0098     		ldr	r0, [sp]
 2902 1102 0199     		ldr	r1, [sp, #4]
 2903 1104 CC02     		lsls	r4, r1, #11
 2904 1106 420D     		lsrs	r2, r0, #21
 2905              	.LVL512:
 2906 1108 2243     		orrs	r2, r4
 2907 110a 4B15     		asrs	r3, r1, #21
 2908              	.LVL513:
ARM GAS  C:\Users\NIGHDR~1\AppData\Local\Temp\ccvJ0Ig2.s 			page 57


 285:sc.c          ****     s2 += carry1;
 2909              		.loc 1 285 0
 2910 110c 029C     		ldr	r4, [sp, #8]
 2911 110e 039D     		ldr	r5, [sp, #12]
 2912 1110 A418     		adds	r4, r4, r2
 2913 1112 5D41     		adcs	r5, r5, r3
 2914 1114 2600     		movs	r6, r4
 2915              	.LVL514:
 2916 1116 2F00     		movs	r7, r5
 2917              	.LVL515:
 286:sc.c          ****     s1 -= carry1 << 21;
 2918              		.loc 1 286 0
 2919 1118 D10A     		lsrs	r1, r2, #11
 2920 111a 5D05     		lsls	r5, r3, #21
 2921 111c 0D43     		orrs	r5, r1
 2922 111e 5405     		lsls	r4, r2, #21
 2923 1120 009A     		ldr	r2, [sp]
 2924 1122 019B     		ldr	r3, [sp, #4]
 2925              	.LVL516:
 2926 1124 121B     		subs	r2, r2, r4
 2927 1126 AB41     		sbcs	r3, r3, r5
 2928 1128 0292     		str	r2, [sp, #8]
 2929 112a 0393     		str	r3, [sp, #12]
 2930              	.LVL517:
 287:sc.c          ****     carry2 = s2 >> 21;
 2931              		.loc 1 287 0
 2932 112c F902     		lsls	r1, r7, #11
 2933 112e 3400     		movs	r4, r6
 2934 1130 3D00     		movs	r5, r7
 2935 1132 720D     		lsrs	r2, r6, #21
 2936              	.LVL518:
 2937 1134 0A43     		orrs	r2, r1
 2938 1136 0094     		str	r4, [sp]
 2939 1138 0195     		str	r5, [sp, #4]
 2940 113a 7B15     		asrs	r3, r7, #21
 2941              	.LVL519:
 288:sc.c          ****     s3 += carry2;
 2942              		.loc 1 288 0
 2943 113c 0A9C     		ldr	r4, [sp, #40]
 2944 113e 0B9D     		ldr	r5, [sp, #44]
 2945 1140 A418     		adds	r4, r4, r2
 2946 1142 5D41     		adcs	r5, r5, r3
 2947              	.LVL520:
 289:sc.c          ****     s2 -= carry2 << 21;
 2948              		.loc 1 289 0
 2949 1144 D10A     		lsrs	r1, r2, #11
 2950 1146 8C46     		mov	ip, r1
 2951 1148 5905     		lsls	r1, r3, #21
 2952 114a 6746     		mov	r7, ip
 2953 114c 3943     		orrs	r1, r7
 2954 114e 5005     		lsls	r0, r2, #21
 2955 1150 009E     		ldr	r6, [sp]
 2956 1152 019F     		ldr	r7, [sp, #4]
 2957              	.LVL521:
 2958 1154 361A     		subs	r6, r6, r0
 2959 1156 8F41     		sbcs	r7, r7, r1
 2960 1158 0A96     		str	r6, [sp, #40]
ARM GAS  C:\Users\NIGHDR~1\AppData\Local\Temp\ccvJ0Ig2.s 			page 58


 2961 115a 0B97     		str	r7, [sp, #44]
 2962              	.LVL522:
 290:sc.c          ****     carry3 = s3 >> 21;
 2963              		.loc 1 290 0
 2964 115c E902     		lsls	r1, r5, #11
 2965 115e 620D     		lsrs	r2, r4, #21
 2966              	.LVL523:
 2967 1160 0A43     		orrs	r2, r1
 2968 1162 6B15     		asrs	r3, r5, #21
 2969              	.LVL524:
 291:sc.c          ****     s4 += carry3;
 2970              		.loc 1 291 0
 2971 1164 049E     		ldr	r6, [sp, #16]
 2972 1166 059F     		ldr	r7, [sp, #20]
 2973              	.LVL525:
 2974 1168 B618     		adds	r6, r6, r2
 2975 116a 5F41     		adcs	r7, r7, r3
 2976 116c 0096     		str	r6, [sp]
 2977 116e 0197     		str	r7, [sp, #4]
 2978              	.LVL526:
 292:sc.c          ****     s3 -= carry3 << 21;
 2979              		.loc 1 292 0
 2980 1170 D10A     		lsrs	r1, r2, #11
 2981 1172 8C46     		mov	ip, r1
 2982 1174 5905     		lsls	r1, r3, #21
 2983 1176 0BE0     		b	.L11
 2984              	.L12:
 2985              		.align	2
 2986              	.L10:
 2987 1178 132C0A00 		.word	666643
 2988 117c 182D0700 		.word	470296
 2989 1180 67FB0900 		.word	654183
 2990 1184 53C6F0FF 		.word	-997805
 2991 1188 D1150200 		.word	136657
 2992 118c 8390F5FF 		.word	-683901
 2993              	.L11:
 2994 1190 6746     		mov	r7, ip
 2995 1192 3943     		orrs	r1, r7
 2996 1194 5005     		lsls	r0, r2, #21
 2997 1196 2300     		movs	r3, r4
 2998 1198 2C00     		movs	r4, r5
 2999              	.LVL527:
 3000 119a 1B1A     		subs	r3, r3, r0
 3001 119c 8C41     		sbcs	r4, r4, r1
 3002 119e 0493     		str	r3, [sp, #16]
 3003 11a0 0594     		str	r4, [sp, #20]
 3004              	.LVL528:
 293:sc.c          ****     carry4 = s4 >> 21;
 3005              		.loc 1 293 0
 3006 11a2 009C     		ldr	r4, [sp]
 3007 11a4 019D     		ldr	r5, [sp, #4]
 3008 11a6 E902     		lsls	r1, r5, #11
 3009 11a8 620D     		lsrs	r2, r4, #21
 3010              	.LVL529:
 3011 11aa 0A43     		orrs	r2, r1
 3012 11ac 6B15     		asrs	r3, r5, #21
 3013              	.LVL530:
ARM GAS  C:\Users\NIGHDR~1\AppData\Local\Temp\ccvJ0Ig2.s 			page 59


 294:sc.c          ****     s5 += carry4;
 3014              		.loc 1 294 0
 3015 11ae 0C9C     		ldr	r4, [sp, #48]
 3016 11b0 0D9D     		ldr	r5, [sp, #52]
 3017 11b2 A418     		adds	r4, r4, r2
 3018 11b4 5D41     		adcs	r5, r5, r3
 3019              	.LVL531:
 295:sc.c          ****     s4 -= carry4 << 21;
 3020              		.loc 1 295 0
 3021 11b6 D10A     		lsrs	r1, r2, #11
 3022 11b8 8C46     		mov	ip, r1
 3023 11ba 5905     		lsls	r1, r3, #21
 3024 11bc 6746     		mov	r7, ip
 3025 11be 3943     		orrs	r1, r7
 3026 11c0 5005     		lsls	r0, r2, #21
 3027 11c2 009E     		ldr	r6, [sp]
 3028 11c4 019F     		ldr	r7, [sp, #4]
 3029 11c6 361A     		subs	r6, r6, r0
 3030 11c8 8F41     		sbcs	r7, r7, r1
 3031              	.LVL532:
 3032 11ca 0C96     		str	r6, [sp, #48]
 3033 11cc 0D97     		str	r7, [sp, #52]
 3034              	.LVL533:
 296:sc.c          ****     carry5 = s5 >> 21;
 3035              		.loc 1 296 0
 3036 11ce E902     		lsls	r1, r5, #11
 3037 11d0 620D     		lsrs	r2, r4, #21
 3038              	.LVL534:
 3039 11d2 0A43     		orrs	r2, r1
 3040 11d4 6B15     		asrs	r3, r5, #21
 3041              	.LVL535:
 297:sc.c          ****     s6 += carry5;
 3042              		.loc 1 297 0
 3043 11d6 0698     		ldr	r0, [sp, #24]
 3044 11d8 0799     		ldr	r1, [sp, #28]
 3045 11da 8018     		adds	r0, r0, r2
 3046 11dc 5941     		adcs	r1, r1, r3
 3047 11de 0090     		str	r0, [sp]
 3048 11e0 0191     		str	r1, [sp, #4]
 3049              	.LVL536:
 298:sc.c          ****     s5 -= carry5 << 21;
 3050              		.loc 1 298 0
 3051 11e2 D10A     		lsrs	r1, r2, #11
 3052 11e4 8C46     		mov	ip, r1
 3053 11e6 5905     		lsls	r1, r3, #21
 3054 11e8 6746     		mov	r7, ip
 3055 11ea 3943     		orrs	r1, r7
 3056 11ec 5005     		lsls	r0, r2, #21
 3057              	.LVL537:
 3058 11ee 241A     		subs	r4, r4, r0
 3059 11f0 8D41     		sbcs	r5, r5, r1
 3060              	.LVL538:
 3061 11f2 0694     		str	r4, [sp, #24]
 3062 11f4 0795     		str	r5, [sp, #28]
 3063              	.LVL539:
 299:sc.c          ****     carry6 = s6 >> 21;
 3064              		.loc 1 299 0
ARM GAS  C:\Users\NIGHDR~1\AppData\Local\Temp\ccvJ0Ig2.s 			page 60


 3065 11f6 009C     		ldr	r4, [sp]
 3066 11f8 019D     		ldr	r5, [sp, #4]
 3067              	.LVL540:
 3068 11fa E902     		lsls	r1, r5, #11
 3069 11fc 620D     		lsrs	r2, r4, #21
 3070              	.LVL541:
 3071 11fe 0A43     		orrs	r2, r1
 3072 1200 6B15     		asrs	r3, r5, #21
 3073              	.LVL542:
 300:sc.c          ****     s7 += carry6;
 3074              		.loc 1 300 0
 3075 1202 129C     		ldr	r4, [sp, #72]
 3076 1204 139D     		ldr	r5, [sp, #76]
 3077 1206 A418     		adds	r4, r4, r2
 3078 1208 5D41     		adcs	r5, r5, r3
 3079              	.LVL543:
 301:sc.c          ****     s6 -= carry6 << 21;
 3080              		.loc 1 301 0
 3081 120a D10A     		lsrs	r1, r2, #11
 3082 120c 8C46     		mov	ip, r1
 3083 120e 5905     		lsls	r1, r3, #21
 3084 1210 6746     		mov	r7, ip
 3085 1212 3943     		orrs	r1, r7
 3086 1214 5005     		lsls	r0, r2, #21
 3087 1216 009A     		ldr	r2, [sp]
 3088 1218 019B     		ldr	r3, [sp, #4]
 3089              	.LVL544:
 3090 121a 121A     		subs	r2, r2, r0
 3091 121c 8B41     		sbcs	r3, r3, r1
 3092 121e 1092     		str	r2, [sp, #64]
 3093 1220 1193     		str	r3, [sp, #68]
 3094              	.LVL545:
 302:sc.c          ****     carry7 = s7 >> 21;
 3095              		.loc 1 302 0
 3096 1222 E902     		lsls	r1, r5, #11
 3097 1224 620D     		lsrs	r2, r4, #21
 3098              	.LVL546:
 3099 1226 0A43     		orrs	r2, r1
 3100 1228 6B15     		asrs	r3, r5, #21
 3101              	.LVL547:
 303:sc.c          ****     s8 += carry7;
 3102              		.loc 1 303 0
 3103 122a 089E     		ldr	r6, [sp, #32]
 3104 122c 099F     		ldr	r7, [sp, #36]
 3105              	.LVL548:
 3106 122e B618     		adds	r6, r6, r2
 3107 1230 5F41     		adcs	r7, r7, r3
 3108 1232 0096     		str	r6, [sp]
 3109 1234 0197     		str	r7, [sp, #4]
 3110              	.LVL549:
 304:sc.c          ****     s7 -= carry7 << 21;
 3111              		.loc 1 304 0
 3112 1236 D10A     		lsrs	r1, r2, #11
 3113 1238 8C46     		mov	ip, r1
 3114 123a 5905     		lsls	r1, r3, #21
 3115 123c 6746     		mov	r7, ip
 3116 123e 3943     		orrs	r1, r7
ARM GAS  C:\Users\NIGHDR~1\AppData\Local\Temp\ccvJ0Ig2.s 			page 61


 3117 1240 5005     		lsls	r0, r2, #21
 3118 1242 2300     		movs	r3, r4
 3119 1244 2C00     		movs	r4, r5
 3120              	.LVL550:
 3121 1246 1B1A     		subs	r3, r3, r0
 3122 1248 8C41     		sbcs	r4, r4, r1
 3123 124a 0893     		str	r3, [sp, #32]
 3124 124c 0994     		str	r4, [sp, #36]
 3125              	.LVL551:
 305:sc.c          ****     carry8 = s8 >> 21;
 3126              		.loc 1 305 0
 3127 124e 009C     		ldr	r4, [sp]
 3128 1250 019D     		ldr	r5, [sp, #4]
 3129 1252 E902     		lsls	r1, r5, #11
 3130 1254 620D     		lsrs	r2, r4, #21
 3131              	.LVL552:
 3132 1256 0A43     		orrs	r2, r1
 3133 1258 6B15     		asrs	r3, r5, #21
 3134              	.LVL553:
 306:sc.c          ****     s9 += carry8;
 3135              		.loc 1 306 0
 3136 125a 169C     		ldr	r4, [sp, #88]
 3137 125c 179D     		ldr	r5, [sp, #92]
 3138 125e A418     		adds	r4, r4, r2
 3139 1260 5D41     		adcs	r5, r5, r3
 3140              	.LVL554:
 307:sc.c          ****     s8 -= carry8 << 21;
 3141              		.loc 1 307 0
 3142 1262 D10A     		lsrs	r1, r2, #11
 3143 1264 8C46     		mov	ip, r1
 3144 1266 5905     		lsls	r1, r3, #21
 3145 1268 6746     		mov	r7, ip
 3146 126a 3943     		orrs	r1, r7
 3147 126c 5005     		lsls	r0, r2, #21
 3148 126e 009A     		ldr	r2, [sp]
 3149 1270 019B     		ldr	r3, [sp, #4]
 3150              	.LVL555:
 3151 1272 121A     		subs	r2, r2, r0
 3152 1274 8B41     		sbcs	r3, r3, r1
 3153 1276 0092     		str	r2, [sp]
 3154 1278 0193     		str	r3, [sp, #4]
 3155              	.LVL556:
 308:sc.c          ****     carry9 = s9 >> 21;
 3156              		.loc 1 308 0
 3157 127a E902     		lsls	r1, r5, #11
 3158 127c 620D     		lsrs	r2, r4, #21
 3159              	.LVL557:
 3160 127e 0A43     		orrs	r2, r1
 3161 1280 6B15     		asrs	r3, r5, #21
 3162              	.LVL558:
 309:sc.c          ****     s10 += carry9;
 3163              		.loc 1 309 0
 3164 1282 149E     		ldr	r6, [sp, #80]
 3165 1284 159F     		ldr	r7, [sp, #84]
 3166 1286 B618     		adds	r6, r6, r2
 3167 1288 5F41     		adcs	r7, r7, r3
 3168 128a 1296     		str	r6, [sp, #72]
ARM GAS  C:\Users\NIGHDR~1\AppData\Local\Temp\ccvJ0Ig2.s 			page 62


 3169 128c 1397     		str	r7, [sp, #76]
 3170              	.LVL559:
 310:sc.c          ****     s9 -= carry9 << 21;
 3171              		.loc 1 310 0
 3172 128e D10A     		lsrs	r1, r2, #11
 3173 1290 8C46     		mov	ip, r1
 3174 1292 5905     		lsls	r1, r3, #21
 3175 1294 6746     		mov	r7, ip
 3176 1296 3943     		orrs	r1, r7
 3177 1298 5005     		lsls	r0, r2, #21
 3178 129a 2300     		movs	r3, r4
 3179 129c 2C00     		movs	r4, r5
 3180              	.LVL560:
 3181 129e 1B1A     		subs	r3, r3, r0
 3182 12a0 8C41     		sbcs	r4, r4, r1
 3183 12a2 1493     		str	r3, [sp, #80]
 3184 12a4 1594     		str	r4, [sp, #84]
 3185              	.LVL561:
 311:sc.c          ****     carry10 = s10 >> 21;
 3186              		.loc 1 311 0
 3187 12a6 129D     		ldr	r5, [sp, #72]
 3188 12a8 139E     		ldr	r6, [sp, #76]
 3189 12aa F102     		lsls	r1, r6, #11
 3190 12ac 6A0D     		lsrs	r2, r5, #21
 3191              	.LVL562:
 3192 12ae 0A43     		orrs	r2, r1
 3193 12b0 7315     		asrs	r3, r6, #21
 3194              	.LVL563:
 312:sc.c          ****     s11 += carry10;
 3195              		.loc 1 312 0
 3196 12b2 1898     		ldr	r0, [sp, #96]
 3197 12b4 1999     		ldr	r1, [sp, #100]
 3198 12b6 8018     		adds	r0, r0, r2
 3199 12b8 5941     		adcs	r1, r1, r3
 3200 12ba 1290     		str	r0, [sp, #72]
 3201 12bc 1391     		str	r1, [sp, #76]
 3202              	.LVL564:
 313:sc.c          ****     s10 -= carry10 << 21;
 3203              		.loc 1 313 0
 3204 12be D40A     		lsrs	r4, r2, #11
 3205 12c0 5905     		lsls	r1, r3, #21
 3206 12c2 2143     		orrs	r1, r4
 3207 12c4 5005     		lsls	r0, r2, #21
 3208              	.LVL565:
 3209 12c6 2A00     		movs	r2, r5
 3210              	.LVL566:
 3211 12c8 3300     		movs	r3, r6
 3212 12ca 121A     		subs	r2, r2, r0
 3213 12cc 8B41     		sbcs	r3, r3, r1
 3214              	.LVL567:
 314:sc.c          **** 
 315:sc.c          ****     s[0] = (unsigned char) (s0 >> 0);
 3215              		.loc 1 315 0
 3216 12ce 4146     		mov	r1, r8
 3217 12d0 0E9D     		ldr	r5, [sp, #56]
 3218 12d2 0F9E     		ldr	r6, [sp, #60]
 3219 12d4 0D70     		strb	r5, [r1]
ARM GAS  C:\Users\NIGHDR~1\AppData\Local\Temp\ccvJ0Ig2.s 			page 63


 316:sc.c          ****     s[1] = (unsigned char) (s0 >> 8);
 3220              		.loc 1 316 0
 3221 12d6 290A     		lsrs	r1, r5, #8
 3222 12d8 4746     		mov	r7, r8
 3223 12da 7970     		strb	r1, [r7, #1]
 317:sc.c          ****     s[2] = (unsigned char) ((s0 >> 16) | (s1 << 5));
 3224              		.loc 1 317 0
 3225 12dc 3104     		lsls	r1, r6, #16
 3226 12de 2E0C     		lsrs	r6, r5, #16
 3227 12e0 0E43     		orrs	r6, r1
 3228 12e2 029C     		ldr	r4, [sp, #8]
 3229 12e4 039D     		ldr	r5, [sp, #12]
 3230 12e6 6001     		lsls	r0, r4, #5
 3231 12e8 0643     		orrs	r6, r0
 3232 12ea 4146     		mov	r1, r8
 3233 12ec 8E70     		strb	r6, [r1, #2]
 318:sc.c          ****     s[3] = (unsigned char) (s1 >> 3);
 3234              		.loc 1 318 0
 3235 12ee E108     		lsrs	r1, r4, #3
 3236 12f0 4746     		mov	r7, r8
 3237 12f2 F970     		strb	r1, [r7, #3]
 319:sc.c          ****     s[4] = (unsigned char) (s1 >> 11);
 3238              		.loc 1 319 0
 3239 12f4 2E00     		movs	r6, r5
 3240 12f6 E10A     		lsrs	r1, r4, #11
 3241 12f8 3971     		strb	r1, [r7, #4]
 320:sc.c          ****     s[5] = (unsigned char) ((s1 >> 19) | (s2 << 2));
 3242              		.loc 1 320 0
 3243 12fa 7103     		lsls	r1, r6, #13
 3244 12fc E00C     		lsrs	r0, r4, #19
 3245 12fe 0843     		orrs	r0, r1
 3246 1300 0A9D     		ldr	r5, [sp, #40]
 3247 1302 0B9E     		ldr	r6, [sp, #44]
 3248 1304 A900     		lsls	r1, r5, #2
 3249 1306 0843     		orrs	r0, r1
 3250 1308 4146     		mov	r1, r8
 3251 130a 4871     		strb	r0, [r1, #5]
 321:sc.c          ****     s[6] = (unsigned char) (s2 >> 6);
 3252              		.loc 1 321 0
 3253 130c A909     		lsrs	r1, r5, #6
 3254 130e 4746     		mov	r7, r8
 3255 1310 B971     		strb	r1, [r7, #6]
 322:sc.c          ****     s[7] = (unsigned char) ((s2 >> 14) | (s3 << 7));
 3256              		.loc 1 322 0
 3257 1312 B104     		lsls	r1, r6, #18
 3258 1314 AE0B     		lsrs	r6, r5, #14
 3259 1316 0E43     		orrs	r6, r1
 3260 1318 049C     		ldr	r4, [sp, #16]
 3261 131a 059D     		ldr	r5, [sp, #20]
 3262 131c E001     		lsls	r0, r4, #7
 3263 131e 0643     		orrs	r6, r0
 3264 1320 4146     		mov	r1, r8
 3265 1322 CE71     		strb	r6, [r1, #7]
 323:sc.c          ****     s[8] = (unsigned char) (s3 >> 1);
 3266              		.loc 1 323 0
 3267 1324 6108     		lsrs	r1, r4, #1
 3268 1326 4746     		mov	r7, r8
ARM GAS  C:\Users\NIGHDR~1\AppData\Local\Temp\ccvJ0Ig2.s 			page 64


 3269 1328 3972     		strb	r1, [r7, #8]
 324:sc.c          ****     s[9] = (unsigned char) (s3 >> 9);
 3270              		.loc 1 324 0
 3271 132a 2E00     		movs	r6, r5
 3272 132c 610A     		lsrs	r1, r4, #9
 3273 132e 7972     		strb	r1, [r7, #9]
 325:sc.c          ****     s[10] = (unsigned char) ((s3 >> 17) | (s4 << 4));
 3274              		.loc 1 325 0
 3275 1330 F103     		lsls	r1, r6, #15
 3276 1332 640C     		lsrs	r4, r4, #17
 3277 1334 0C43     		orrs	r4, r1
 3278 1336 0C9E     		ldr	r6, [sp, #48]
 3279 1338 0D9F     		ldr	r7, [sp, #52]
 3280 133a 3001     		lsls	r0, r6, #4
 3281 133c 0443     		orrs	r4, r0
 3282 133e 4146     		mov	r1, r8
 3283 1340 8C72     		strb	r4, [r1, #10]
 326:sc.c          ****     s[11] = (unsigned char) (s4 >> 4);
 3284              		.loc 1 326 0
 3285 1342 3109     		lsrs	r1, r6, #4
 3286 1344 4546     		mov	r5, r8
 3287 1346 E972     		strb	r1, [r5, #11]
 327:sc.c          ****     s[12] = (unsigned char) (s4 >> 12);
 3288              		.loc 1 327 0
 3289 1348 310B     		lsrs	r1, r6, #12
 3290 134a 2973     		strb	r1, [r5, #12]
 328:sc.c          ****     s[13] = (unsigned char) ((s4 >> 20) | (s5 << 1));
 3291              		.loc 1 328 0
 3292 134c 3903     		lsls	r1, r7, #12
 3293 134e 360D     		lsrs	r6, r6, #20
 3294 1350 0E43     		orrs	r6, r1
 3295 1352 0698     		ldr	r0, [sp, #24]
 3296 1354 0799     		ldr	r1, [sp, #28]
 3297 1356 0400     		movs	r4, r0
 3298 1358 0D00     		movs	r5, r1
 3299 135a 2418     		adds	r4, r4, r0
 3300 135c 4D41     		adcs	r5, r5, r1
 3301 135e 3443     		orrs	r4, r6
 3302 1360 4646     		mov	r6, r8
 3303 1362 7473     		strb	r4, [r6, #13]
 329:sc.c          ****     s[14] = (unsigned char) (s5 >> 7);
 3304              		.loc 1 329 0
 3305 1364 0400     		movs	r4, r0
 3306 1366 0D00     		movs	r5, r1
 3307 1368 C109     		lsrs	r1, r0, #7
 3308 136a B173     		strb	r1, [r6, #14]
 330:sc.c          ****     s[15] = (unsigned char) ((s5 >> 15) | (s6 << 6));
 3309              		.loc 1 330 0
 3310 136c 6904     		lsls	r1, r5, #17
 3311 136e E40B     		lsrs	r4, r4, #15
 3312 1370 0C43     		orrs	r4, r1
 3313 1372 109D     		ldr	r5, [sp, #64]
 3314 1374 119E     		ldr	r6, [sp, #68]
 3315 1376 A801     		lsls	r0, r5, #6
 3316 1378 0443     		orrs	r4, r0
 3317 137a 4146     		mov	r1, r8
 3318 137c CC73     		strb	r4, [r1, #15]
ARM GAS  C:\Users\NIGHDR~1\AppData\Local\Temp\ccvJ0Ig2.s 			page 65


 331:sc.c          ****     s[16] = (unsigned char) (s6 >> 2);
 3319              		.loc 1 331 0
 3320 137e 2C00     		movs	r4, r5
 3321 1380 3500     		movs	r5, r6
 3322 1382 A108     		lsrs	r1, r4, #2
 3323 1384 4646     		mov	r6, r8
 3324 1386 3174     		strb	r1, [r6, #16]
 332:sc.c          ****     s[17] = (unsigned char) (s6 >> 10);
 3325              		.loc 1 332 0
 3326 1388 A10A     		lsrs	r1, r4, #10
 3327 138a 7174     		strb	r1, [r6, #17]
 333:sc.c          ****     s[18] = (unsigned char) ((s6 >> 18) | (s7 << 3));
 3328              		.loc 1 333 0
 3329 138c A903     		lsls	r1, r5, #14
 3330 138e A60C     		lsrs	r6, r4, #18
 3331 1390 0E43     		orrs	r6, r1
 3332 1392 089C     		ldr	r4, [sp, #32]
 3333 1394 099D     		ldr	r5, [sp, #36]
 3334 1396 E100     		lsls	r1, r4, #3
 3335 1398 0E43     		orrs	r6, r1
 3336 139a 4146     		mov	r1, r8
 3337 139c 8E74     		strb	r6, [r1, #18]
 334:sc.c          ****     s[19] = (unsigned char) (s7 >> 5);
 3338              		.loc 1 334 0
 3339 139e 2600     		movs	r6, r4
 3340 13a0 6109     		lsrs	r1, r4, #5
 3341 13a2 4546     		mov	r5, r8
 3342 13a4 E974     		strb	r1, [r5, #19]
 335:sc.c          ****     s[20] = (unsigned char) (s7 >> 13);
 3343              		.loc 1 335 0
 3344 13a6 740B     		lsrs	r4, r6, #13
 3345 13a8 4146     		mov	r1, r8
 3346 13aa 2C75     		strb	r4, [r5, #20]
 336:sc.c          ****     s[21] = (unsigned char) (s8 >> 0);
 3347              		.loc 1 336 0
 3348 13ac 009D     		ldr	r5, [sp]
 3349 13ae 019E     		ldr	r6, [sp, #4]
 3350 13b0 4D75     		strb	r5, [r1, #21]
 337:sc.c          ****     s[22] = (unsigned char) (s8 >> 8);
 3351              		.loc 1 337 0
 3352 13b2 290A     		lsrs	r1, r5, #8
 3353 13b4 4746     		mov	r7, r8
 3354 13b6 B975     		strb	r1, [r7, #22]
 338:sc.c          ****     s[23] = (unsigned char) ((s8 >> 16) | (s9 << 5));
 3355              		.loc 1 338 0
 3356 13b8 3104     		lsls	r1, r6, #16
 3357 13ba 2E0C     		lsrs	r6, r5, #16
 3358 13bc 0E43     		orrs	r6, r1
 3359 13be 149C     		ldr	r4, [sp, #80]
 3360 13c0 159D     		ldr	r5, [sp, #84]
 3361 13c2 6101     		lsls	r1, r4, #5
 3362 13c4 0E43     		orrs	r6, r1
 3363 13c6 FE75     		strb	r6, [r7, #23]
 339:sc.c          ****     s[24] = (unsigned char) (s9 >> 3);
 3364              		.loc 1 339 0
 3365 13c8 E108     		lsrs	r1, r4, #3
 3366 13ca 3976     		strb	r1, [r7, #24]
ARM GAS  C:\Users\NIGHDR~1\AppData\Local\Temp\ccvJ0Ig2.s 			page 66


 340:sc.c          ****     s[25] = (unsigned char) (s9 >> 11);
 3367              		.loc 1 340 0
 3368 13cc E10A     		lsrs	r1, r4, #11
 3369 13ce 7976     		strb	r1, [r7, #25]
 341:sc.c          ****     s[26] = (unsigned char) ((s9 >> 19) | (s10 << 2));
 3370              		.loc 1 341 0
 3371 13d0 6903     		lsls	r1, r5, #13
 3372 13d2 E40C     		lsrs	r4, r4, #19
 3373 13d4 0C43     		orrs	r4, r1
 3374 13d6 9100     		lsls	r1, r2, #2
 3375 13d8 0C43     		orrs	r4, r1
 3376 13da BC76     		strb	r4, [r7, #26]
 342:sc.c          ****     s[27] = (unsigned char) (s10 >> 6);
 3377              		.loc 1 342 0
 3378 13dc 9109     		lsrs	r1, r2, #6
 3379 13de F976     		strb	r1, [r7, #27]
 343:sc.c          ****     s[28] = (unsigned char) ((s10 >> 14) | (s11 << 7));
 3380              		.loc 1 343 0
 3381 13e0 9B04     		lsls	r3, r3, #18
 3382 13e2 960B     		lsrs	r6, r2, #14
 3383 13e4 1E43     		orrs	r6, r3
 3384 13e6 1298     		ldr	r0, [sp, #72]
 3385 13e8 1399     		ldr	r1, [sp, #76]
 3386 13ea C201     		lsls	r2, r0, #7
 3387              	.LVL568:
 3388 13ec 1643     		orrs	r6, r2
 3389 13ee 3E77     		strb	r6, [r7, #28]
 344:sc.c          ****     s[29] = (unsigned char) (s11 >> 1);
 3390              		.loc 1 344 0
 3391 13f0 4308     		lsrs	r3, r0, #1
 3392 13f2 7B77     		strb	r3, [r7, #29]
 345:sc.c          ****     s[30] = (unsigned char) (s11 >> 9);
 3393              		.loc 1 345 0
 3394 13f4 430A     		lsrs	r3, r0, #9
 3395 13f6 BB77     		strb	r3, [r7, #30]
 346:sc.c          ****     s[31] = (unsigned char) (s11 >> 17);
 3396              		.loc 1 346 0
 3397 13f8 400C     		lsrs	r0, r0, #17
 3398 13fa F877     		strb	r0, [r7, #31]
 347:sc.c          **** }
 3399              		.loc 1 347 0
 3400 13fc 2EB0     		add	sp, sp, #184
 3401              	.LVL569:
 3402              		@ sp needed
 3403              	.LVL570:
 3404              	.LVL571:
 3405 13fe 04BC     		pop	{r2}
 3406 1400 9046     		mov	r8, r2
 3407 1402 F0BD     		pop	{r4, r5, r6, r7, pc}
 3408              		.cfi_endproc
 3409              	.LFE2:
 3410              		.size	sc_reduce, .-sc_reduce
 3411              		.section	.text.sc_muladd,"ax",%progbits
 3412              		.align	2
 3413              		.global	sc_muladd
 3414              		.code	16
 3415              		.thumb_func
ARM GAS  C:\Users\NIGHDR~1\AppData\Local\Temp\ccvJ0Ig2.s 			page 67


 3416              		.type	sc_muladd, %function
 3417              	sc_muladd:
 3418              	.LFB3:
 348:sc.c          **** 
 349:sc.c          **** 
 350:sc.c          **** 
 351:sc.c          **** /*
 352:sc.c          **** Input:
 353:sc.c          ****   a[0]+256*a[1]+...+256^31*a[31] = a
 354:sc.c          ****   b[0]+256*b[1]+...+256^31*b[31] = b
 355:sc.c          ****   c[0]+256*c[1]+...+256^31*c[31] = c
 356:sc.c          **** 
 357:sc.c          **** Output:
 358:sc.c          ****   s[0]+256*s[1]+...+256^31*s[31] = (ab+c) mod l
 359:sc.c          ****   where l = 2^252 + 27742317777372353535851937790883648493.
 360:sc.c          **** */
 361:sc.c          **** 
 362:sc.c          **** void sc_muladd(unsigned char *s, const unsigned char *a, const unsigned char *b, const unsigned cha
 3419              		.loc 1 362 0
 3420              		.cfi_startproc
 3421              		@ args = 0, pretend = 0, frame = 312
 3422              		@ frame_needed = 0, uses_anonymous_args = 0
 3423              	.LVL572:
 3424 0000 F0B5     		push	{r4, r5, r6, r7, lr}
 3425              		.cfi_def_cfa_offset 20
 3426              		.cfi_offset 4, -20
 3427              		.cfi_offset 5, -16
 3428              		.cfi_offset 6, -12
 3429              		.cfi_offset 7, -8
 3430              		.cfi_offset 14, -4
 3431 0002 4F46     		mov	r7, r9
 3432 0004 4646     		mov	r6, r8
 3433 0006 C0B4     		push	{r6, r7}
 3434              		.cfi_def_cfa_offset 28
 3435              		.cfi_offset 8, -28
 3436              		.cfi_offset 9, -24
 3437 0008 CFB0     		sub	sp, sp, #316
 3438              		.cfi_def_cfa_offset 344
 3439 000a 8046     		mov	r8, r0
 3440 000c 0C00     		movs	r4, r1
 3441 000e 1600     		movs	r6, r2
 3442 0010 1F00     		movs	r7, r3
 363:sc.c          ****     int64_t a0 = 2097151 & load_3(a);
 3443              		.loc 1 363 0
 3444 0012 0800     		movs	r0, r1
 3445              	.LVL573:
 3446 0014 FFF7FEFF 		bl	load_3
 3447              	.LVL574:
 3448 0018 C502     		lsls	r5, r0, #11
 3449 001a ED0A     		lsrs	r5, r5, #11
 3450              	.LVL575:
 364:sc.c          ****     int64_t a1 = 2097151 & (load_4(a + 2) >> 5);
 3451              		.loc 1 364 0
 3452 001c A01C     		adds	r0, r4, #2
 3453 001e FFF7FEFF 		bl	load_4
 3454              	.LVL576:
 3455 0022 4009     		lsrs	r0, r0, #5
ARM GAS  C:\Users\NIGHDR~1\AppData\Local\Temp\ccvJ0Ig2.s 			page 68


 3456 0024 C002     		lsls	r0, r0, #11
 3457 0026 C30A     		lsrs	r3, r0, #11
 3458 0028 2A93     		str	r3, [sp, #168]
 3459              	.LVL577:
 365:sc.c          ****     int64_t a2 = 2097151 & (load_3(a + 5) >> 2);
 3460              		.loc 1 365 0
 3461 002a 601D     		adds	r0, r4, #5
 3462 002c FFF7FEFF 		bl	load_3
 3463              	.LVL578:
 3464 0030 8008     		lsrs	r0, r0, #2
 3465 0032 C002     		lsls	r0, r0, #11
 3466 0034 C20A     		lsrs	r2, r0, #11
 3467 0036 0092     		str	r2, [sp]
 3468              	.LVL579:
 366:sc.c          ****     int64_t a3 = 2097151 & (load_4(a + 7) >> 7);
 3469              		.loc 1 366 0
 3470 0038 E01D     		adds	r0, r4, #7
 3471 003a FFF7FEFF 		bl	load_4
 3472              	.LVL580:
 3473 003e C009     		lsrs	r0, r0, #7
 3474 0040 C002     		lsls	r0, r0, #11
 3475 0042 C10A     		lsrs	r1, r0, #11
 3476 0044 0291     		str	r1, [sp, #8]
 3477              	.LVL581:
 367:sc.c          ****     int64_t a4 = 2097151 & (load_4(a + 10) >> 4);
 3478              		.loc 1 367 0
 3479 0046 2000     		movs	r0, r4
 3480 0048 0A30     		adds	r0, r0, #10
 3481 004a FFF7FEFF 		bl	load_4
 3482              	.LVL582:
 3483 004e 0009     		lsrs	r0, r0, #4
 3484 0050 C002     		lsls	r0, r0, #11
 3485 0052 C00A     		lsrs	r0, r0, #11
 3486 0054 0490     		str	r0, [sp, #16]
 3487              	.LVL583:
 368:sc.c          ****     int64_t a5 = 2097151 & (load_3(a + 13) >> 1);
 3488              		.loc 1 368 0
 3489 0056 2000     		movs	r0, r4
 3490              	.LVL584:
 3491 0058 0D30     		adds	r0, r0, #13
 3492 005a FFF7FEFF 		bl	load_3
 3493              	.LVL585:
 3494 005e 4008     		lsrs	r0, r0, #1
 3495 0060 C002     		lsls	r0, r0, #11
 3496 0062 C30A     		lsrs	r3, r0, #11
 3497 0064 0693     		str	r3, [sp, #24]
 3498              	.LVL586:
 369:sc.c          ****     int64_t a6 = 2097151 & (load_4(a + 15) >> 6);
 3499              		.loc 1 369 0
 3500 0066 2000     		movs	r0, r4
 3501 0068 0F30     		adds	r0, r0, #15
 3502 006a FFF7FEFF 		bl	load_4
 3503              	.LVL587:
 3504 006e 8009     		lsrs	r0, r0, #6
 3505 0070 C002     		lsls	r0, r0, #11
 3506 0072 C20A     		lsrs	r2, r0, #11
 3507 0074 0892     		str	r2, [sp, #32]
ARM GAS  C:\Users\NIGHDR~1\AppData\Local\Temp\ccvJ0Ig2.s 			page 69


 3508              	.LVL588:
 370:sc.c          ****     int64_t a7 = 2097151 & (load_3(a + 18) >> 3);
 3509              		.loc 1 370 0
 3510 0076 2000     		movs	r0, r4
 3511 0078 1230     		adds	r0, r0, #18
 3512 007a FFF7FEFF 		bl	load_3
 3513              	.LVL589:
 3514 007e C008     		lsrs	r0, r0, #3
 3515 0080 C002     		lsls	r0, r0, #11
 3516 0082 C10A     		lsrs	r1, r0, #11
 3517 0084 0A91     		str	r1, [sp, #40]
 3518              	.LVL590:
 371:sc.c          ****     int64_t a8 = 2097151 & load_3(a + 21);
 3519              		.loc 1 371 0
 3520 0086 2000     		movs	r0, r4
 3521 0088 1530     		adds	r0, r0, #21
 3522 008a FFF7FEFF 		bl	load_3
 3523              	.LVL591:
 3524 008e C002     		lsls	r0, r0, #11
 3525 0090 C00A     		lsrs	r0, r0, #11
 3526 0092 0C90     		str	r0, [sp, #48]
 3527              	.LVL592:
 372:sc.c          ****     int64_t a9 = 2097151 & (load_4(a + 23) >> 5);
 3528              		.loc 1 372 0
 3529 0094 2000     		movs	r0, r4
 3530              	.LVL593:
 3531 0096 1730     		adds	r0, r0, #23
 3532 0098 FFF7FEFF 		bl	load_4
 3533              	.LVL594:
 3534 009c 4009     		lsrs	r0, r0, #5
 3535 009e C002     		lsls	r0, r0, #11
 3536 00a0 C30A     		lsrs	r3, r0, #11
 3537 00a2 0E93     		str	r3, [sp, #56]
 3538              	.LVL595:
 373:sc.c          ****     int64_t a10 = 2097151 & (load_3(a + 26) >> 2);
 3539              		.loc 1 373 0
 3540 00a4 2000     		movs	r0, r4
 3541 00a6 1A30     		adds	r0, r0, #26
 3542 00a8 FFF7FEFF 		bl	load_3
 3543              	.LVL596:
 3544 00ac 8008     		lsrs	r0, r0, #2
 3545 00ae C002     		lsls	r0, r0, #11
 3546 00b0 C20A     		lsrs	r2, r0, #11
 3547 00b2 1092     		str	r2, [sp, #64]
 3548              	.LVL597:
 374:sc.c          ****     int64_t a11 = (load_4(a + 28) >> 7);
 3549              		.loc 1 374 0
 3550 00b4 1C34     		adds	r4, r4, #28
 3551              	.LVL598:
 3552 00b6 2000     		movs	r0, r4
 3553 00b8 FFF7FEFF 		bl	load_4
 3554              	.LVL599:
 3555 00bc 4B06     		lsls	r3, r1, #25
 3556 00be C209     		lsrs	r2, r0, #7
 3557 00c0 1A43     		orrs	r2, r3
 3558 00c2 4792     		str	r2, [sp, #284]
 3559 00c4 CC09     		lsrs	r4, r1, #7
ARM GAS  C:\Users\NIGHDR~1\AppData\Local\Temp\ccvJ0Ig2.s 			page 70


 3560              	.LVL600:
 3561 00c6 1294     		str	r4, [sp, #72]
 3562              	.LVL601:
 375:sc.c          ****     int64_t b0 = 2097151 & load_3(b);
 3563              		.loc 1 375 0
 3564 00c8 3000     		movs	r0, r6
 3565 00ca FFF7FEFF 		bl	load_3
 3566              	.LVL602:
 3567 00ce C402     		lsls	r4, r0, #11
 3568              	.LVL603:
 3569 00d0 E40A     		lsrs	r4, r4, #11
 3570              	.LVL604:
 376:sc.c          ****     int64_t b1 = 2097151 & (load_4(b + 2) >> 5);
 3571              		.loc 1 376 0
 3572 00d2 B01C     		adds	r0, r6, #2
 3573 00d4 FFF7FEFF 		bl	load_4
 3574              	.LVL605:
 3575 00d8 4009     		lsrs	r0, r0, #5
 3576 00da C002     		lsls	r0, r0, #11
 3577 00dc C10A     		lsrs	r1, r0, #11
 3578 00de 1491     		str	r1, [sp, #80]
 3579              	.LVL606:
 377:sc.c          ****     int64_t b2 = 2097151 & (load_3(b + 5) >> 2);
 3580              		.loc 1 377 0
 3581 00e0 701D     		adds	r0, r6, #5
 3582 00e2 FFF7FEFF 		bl	load_3
 3583              	.LVL607:
 3584 00e6 8008     		lsrs	r0, r0, #2
 3585 00e8 C002     		lsls	r0, r0, #11
 3586 00ea C00A     		lsrs	r0, r0, #11
 3587 00ec 1690     		str	r0, [sp, #88]
 3588              	.LVL608:
 378:sc.c          ****     int64_t b3 = 2097151 & (load_4(b + 7) >> 7);
 3589              		.loc 1 378 0
 3590 00ee F01D     		adds	r0, r6, #7
 3591              	.LVL609:
 3592 00f0 FFF7FEFF 		bl	load_4
 3593              	.LVL610:
 3594 00f4 C009     		lsrs	r0, r0, #7
 3595 00f6 C002     		lsls	r0, r0, #11
 3596 00f8 C30A     		lsrs	r3, r0, #11
 3597 00fa 1893     		str	r3, [sp, #96]
 3598              	.LVL611:
 379:sc.c          ****     int64_t b4 = 2097151 & (load_4(b + 10) >> 4);
 3599              		.loc 1 379 0
 3600 00fc 3000     		movs	r0, r6
 3601 00fe 0A30     		adds	r0, r0, #10
 3602 0100 FFF7FEFF 		bl	load_4
 3603              	.LVL612:
 3604 0104 0009     		lsrs	r0, r0, #4
 3605 0106 C002     		lsls	r0, r0, #11
 3606 0108 C10A     		lsrs	r1, r0, #11
 3607 010a 1A91     		str	r1, [sp, #104]
 3608              	.LVL613:
 380:sc.c          ****     int64_t b5 = 2097151 & (load_3(b + 13) >> 1);
 3609              		.loc 1 380 0
 3610 010c 3000     		movs	r0, r6
ARM GAS  C:\Users\NIGHDR~1\AppData\Local\Temp\ccvJ0Ig2.s 			page 71


 3611 010e 0D30     		adds	r0, r0, #13
 3612 0110 FFF7FEFF 		bl	load_3
 3613              	.LVL614:
 3614 0114 4008     		lsrs	r0, r0, #1
 3615 0116 C002     		lsls	r0, r0, #11
 3616 0118 C00A     		lsrs	r0, r0, #11
 3617 011a 1C90     		str	r0, [sp, #112]
 3618              	.LVL615:
 381:sc.c          ****     int64_t b6 = 2097151 & (load_4(b + 15) >> 6);
 3619              		.loc 1 381 0
 3620 011c 3000     		movs	r0, r6
 3621              	.LVL616:
 3622 011e 0F30     		adds	r0, r0, #15
 3623 0120 FFF7FEFF 		bl	load_4
 3624              	.LVL617:
 3625 0124 8009     		lsrs	r0, r0, #6
 3626 0126 C002     		lsls	r0, r0, #11
 3627 0128 C30A     		lsrs	r3, r0, #11
 3628 012a 1E93     		str	r3, [sp, #120]
 3629              	.LVL618:
 382:sc.c          ****     int64_t b7 = 2097151 & (load_3(b + 18) >> 3);
 3630              		.loc 1 382 0
 3631 012c 3000     		movs	r0, r6
 3632 012e 1230     		adds	r0, r0, #18
 3633 0130 FFF7FEFF 		bl	load_3
 3634              	.LVL619:
 3635 0134 C008     		lsrs	r0, r0, #3
 3636 0136 C002     		lsls	r0, r0, #11
 3637 0138 C10A     		lsrs	r1, r0, #11
 3638 013a 2091     		str	r1, [sp, #128]
 3639              	.LVL620:
 383:sc.c          ****     int64_t b8 = 2097151 & load_3(b + 21);
 3640              		.loc 1 383 0
 3641 013c 3000     		movs	r0, r6
 3642 013e 1530     		adds	r0, r0, #21
 3643 0140 FFF7FEFF 		bl	load_3
 3644              	.LVL621:
 3645 0144 C002     		lsls	r0, r0, #11
 3646 0146 C00A     		lsrs	r0, r0, #11
 3647 0148 2290     		str	r0, [sp, #136]
 3648              	.LVL622:
 384:sc.c          ****     int64_t b9 = 2097151 & (load_4(b + 23) >> 5);
 3649              		.loc 1 384 0
 3650 014a 3000     		movs	r0, r6
 3651              	.LVL623:
 3652 014c 1730     		adds	r0, r0, #23
 3653 014e FFF7FEFF 		bl	load_4
 3654              	.LVL624:
 3655 0152 4009     		lsrs	r0, r0, #5
 3656 0154 C002     		lsls	r0, r0, #11
 3657 0156 C20A     		lsrs	r2, r0, #11
 3658 0158 2492     		str	r2, [sp, #144]
 3659              	.LVL625:
 385:sc.c          ****     int64_t b10 = 2097151 & (load_3(b + 26) >> 2);
 3660              		.loc 1 385 0
 3661 015a 3000     		movs	r0, r6
 3662 015c 1A30     		adds	r0, r0, #26
ARM GAS  C:\Users\NIGHDR~1\AppData\Local\Temp\ccvJ0Ig2.s 			page 72


 3663 015e FFF7FEFF 		bl	load_3
 3664              	.LVL626:
 3665 0162 8008     		lsrs	r0, r0, #2
 3666 0164 C002     		lsls	r0, r0, #11
 3667 0166 C30A     		lsrs	r3, r0, #11
 3668 0168 2693     		str	r3, [sp, #152]
 3669              	.LVL627:
 386:sc.c          ****     int64_t b11 = (load_4(b + 28) >> 7);
 3670              		.loc 1 386 0
 3671 016a 1C36     		adds	r6, r6, #28
 3672              	.LVL628:
 3673 016c 3000     		movs	r0, r6
 3674 016e FFF7FEFF 		bl	load_4
 3675              	.LVL629:
 3676 0172 4B06     		lsls	r3, r1, #25
 3677 0174 C009     		lsrs	r0, r0, #7
 3678 0176 1843     		orrs	r0, r3
 3679 0178 2C90     		str	r0, [sp, #176]
 3680 017a CE09     		lsrs	r6, r1, #7
 3681              	.LVL630:
 3682 017c 2896     		str	r6, [sp, #160]
 3683              	.LVL631:
 387:sc.c          ****     int64_t c0 = 2097151 & load_3(c);
 3684              		.loc 1 387 0
 3685 017e 3800     		movs	r0, r7
 3686              	.LVL632:
 3687 0180 FFF7FEFF 		bl	load_3
 3688              	.LVL633:
 3689 0184 C002     		lsls	r0, r0, #11
 3690 0186 C60A     		lsrs	r6, r0, #11
 3691              	.LVL634:
 3692 0188 2E96     		str	r6, [sp, #184]
 3693 018a 0026     		movs	r6, #0
 3694 018c 2F96     		str	r6, [sp, #188]
 3695              	.LVL635:
 388:sc.c          ****     int64_t c1 = 2097151 & (load_4(c + 2) >> 5);
 3696              		.loc 1 388 0
 3697 018e B81C     		adds	r0, r7, #2
 3698 0190 FFF7FEFF 		bl	load_4
 3699              	.LVL636:
 3700 0194 4009     		lsrs	r0, r0, #5
 3701 0196 C002     		lsls	r0, r0, #11
 3702 0198 C60A     		lsrs	r6, r0, #11
 3703 019a 3096     		str	r6, [sp, #192]
 3704 019c 0026     		movs	r6, #0
 3705 019e 3196     		str	r6, [sp, #196]
 3706              	.LVL637:
 389:sc.c          ****     int64_t c2 = 2097151 & (load_3(c + 5) >> 2);
 3707              		.loc 1 389 0
 3708 01a0 781D     		adds	r0, r7, #5
 3709 01a2 FFF7FEFF 		bl	load_3
 3710              	.LVL638:
 3711 01a6 8008     		lsrs	r0, r0, #2
 3712 01a8 C002     		lsls	r0, r0, #11
 3713 01aa C60A     		lsrs	r6, r0, #11
 3714 01ac 3296     		str	r6, [sp, #200]
 3715 01ae 0026     		movs	r6, #0
ARM GAS  C:\Users\NIGHDR~1\AppData\Local\Temp\ccvJ0Ig2.s 			page 73


 3716 01b0 3396     		str	r6, [sp, #204]
 3717              	.LVL639:
 390:sc.c          ****     int64_t c3 = 2097151 & (load_4(c + 7) >> 7);
 3718              		.loc 1 390 0
 3719 01b2 F81D     		adds	r0, r7, #7
 3720 01b4 FFF7FEFF 		bl	load_4
 3721              	.LVL640:
 3722 01b8 C009     		lsrs	r0, r0, #7
 3723 01ba C002     		lsls	r0, r0, #11
 3724 01bc C60A     		lsrs	r6, r0, #11
 3725 01be 3496     		str	r6, [sp, #208]
 3726 01c0 0026     		movs	r6, #0
 3727 01c2 3596     		str	r6, [sp, #212]
 3728              	.LVL641:
 391:sc.c          ****     int64_t c4 = 2097151 & (load_4(c + 10) >> 4);
 3729              		.loc 1 391 0
 3730 01c4 3E00     		movs	r6, r7
 3731 01c6 0A36     		adds	r6, r6, #10
 3732 01c8 3000     		movs	r0, r6
 3733 01ca FFF7FEFF 		bl	load_4
 3734              	.LVL642:
 3735 01ce 0009     		lsrs	r0, r0, #4
 3736 01d0 C002     		lsls	r0, r0, #11
 3737 01d2 C60A     		lsrs	r6, r0, #11
 3738 01d4 3696     		str	r6, [sp, #216]
 3739 01d6 0026     		movs	r6, #0
 3740 01d8 3796     		str	r6, [sp, #220]
 3741              	.LVL643:
 392:sc.c          ****     int64_t c5 = 2097151 & (load_3(c + 13) >> 1);
 3742              		.loc 1 392 0
 3743 01da 3E00     		movs	r6, r7
 3744 01dc 0D36     		adds	r6, r6, #13
 3745 01de 3000     		movs	r0, r6
 3746 01e0 FFF7FEFF 		bl	load_3
 3747              	.LVL644:
 3748 01e4 4008     		lsrs	r0, r0, #1
 3749 01e6 C002     		lsls	r0, r0, #11
 3750 01e8 C60A     		lsrs	r6, r0, #11
 3751 01ea 3896     		str	r6, [sp, #224]
 3752 01ec 0026     		movs	r6, #0
 3753 01ee 3996     		str	r6, [sp, #228]
 3754              	.LVL645:
 393:sc.c          ****     int64_t c6 = 2097151 & (load_4(c + 15) >> 6);
 3755              		.loc 1 393 0
 3756 01f0 3E00     		movs	r6, r7
 3757 01f2 0F36     		adds	r6, r6, #15
 3758 01f4 3000     		movs	r0, r6
 3759 01f6 FFF7FEFF 		bl	load_4
 3760              	.LVL646:
 3761 01fa 8009     		lsrs	r0, r0, #6
 3762 01fc C002     		lsls	r0, r0, #11
 3763 01fe C60A     		lsrs	r6, r0, #11
 3764 0200 3A96     		str	r6, [sp, #232]
 3765 0202 0026     		movs	r6, #0
 3766 0204 3B96     		str	r6, [sp, #236]
 3767              	.LVL647:
 394:sc.c          ****     int64_t c7 = 2097151 & (load_3(c + 18) >> 3);
ARM GAS  C:\Users\NIGHDR~1\AppData\Local\Temp\ccvJ0Ig2.s 			page 74


 3768              		.loc 1 394 0
 3769 0206 3E00     		movs	r6, r7
 3770 0208 1236     		adds	r6, r6, #18
 3771 020a 3000     		movs	r0, r6
 3772 020c FFF7FEFF 		bl	load_3
 3773              	.LVL648:
 3774 0210 C008     		lsrs	r0, r0, #3
 3775 0212 C002     		lsls	r0, r0, #11
 3776 0214 C60A     		lsrs	r6, r0, #11
 3777 0216 3C96     		str	r6, [sp, #240]
 3778 0218 0026     		movs	r6, #0
 3779 021a 3D96     		str	r6, [sp, #244]
 3780              	.LVL649:
 395:sc.c          ****     int64_t c8 = 2097151 & load_3(c + 21);
 3781              		.loc 1 395 0
 3782 021c 3E00     		movs	r6, r7
 3783 021e 1536     		adds	r6, r6, #21
 3784 0220 3000     		movs	r0, r6
 3785 0222 FFF7FEFF 		bl	load_3
 3786              	.LVL650:
 3787 0226 C002     		lsls	r0, r0, #11
 3788 0228 C60A     		lsrs	r6, r0, #11
 3789 022a 3E96     		str	r6, [sp, #248]
 3790 022c 0026     		movs	r6, #0
 3791 022e 3F96     		str	r6, [sp, #252]
 3792              	.LVL651:
 396:sc.c          ****     int64_t c9 = 2097151 & (load_4(c + 23) >> 5);
 3793              		.loc 1 396 0
 3794 0230 3E00     		movs	r6, r7
 3795 0232 1736     		adds	r6, r6, #23
 3796 0234 3000     		movs	r0, r6
 3797 0236 FFF7FEFF 		bl	load_4
 3798              	.LVL652:
 3799 023a 4009     		lsrs	r0, r0, #5
 3800 023c C002     		lsls	r0, r0, #11
 3801 023e C60A     		lsrs	r6, r0, #11
 3802 0240 4096     		str	r6, [sp, #256]
 3803 0242 0026     		movs	r6, #0
 3804 0244 4196     		str	r6, [sp, #260]
 3805              	.LVL653:
 397:sc.c          ****     int64_t c10 = 2097151 & (load_3(c + 26) >> 2);
 3806              		.loc 1 397 0
 3807 0246 3E00     		movs	r6, r7
 3808 0248 1A36     		adds	r6, r6, #26
 3809 024a 3000     		movs	r0, r6
 3810 024c FFF7FEFF 		bl	load_3
 3811              	.LVL654:
 3812 0250 8008     		lsrs	r0, r0, #2
 3813 0252 C002     		lsls	r0, r0, #11
 3814 0254 C60A     		lsrs	r6, r0, #11
 3815 0256 4296     		str	r6, [sp, #264]
 3816 0258 0026     		movs	r6, #0
 3817 025a 4396     		str	r6, [sp, #268]
 3818              	.LVL655:
 398:sc.c          ****     int64_t c11 = (load_4(c + 28) >> 7);
 3819              		.loc 1 398 0
 3820 025c 1C37     		adds	r7, r7, #28
ARM GAS  C:\Users\NIGHDR~1\AppData\Local\Temp\ccvJ0Ig2.s 			page 75


 3821              	.LVL656:
 3822 025e 3800     		movs	r0, r7
 3823 0260 FFF7FEFF 		bl	load_4
 3824              	.LVL657:
 3825 0264 4B06     		lsls	r3, r1, #25
 3826 0266 C009     		lsrs	r0, r0, #7
 3827 0268 1F00     		movs	r7, r3
 3828              	.LVL658:
 3829 026a 0743     		orrs	r7, r0
 3830 026c 4497     		str	r7, [sp, #272]
 3831 026e CF09     		lsrs	r7, r1, #7
 3832 0270 4597     		str	r7, [sp, #276]
 3833              	.LVL659:
 399:sc.c          ****     int64_t s0;
 400:sc.c          ****     int64_t s1;
 401:sc.c          ****     int64_t s2;
 402:sc.c          ****     int64_t s3;
 403:sc.c          ****     int64_t s4;
 404:sc.c          ****     int64_t s5;
 405:sc.c          ****     int64_t s6;
 406:sc.c          ****     int64_t s7;
 407:sc.c          ****     int64_t s8;
 408:sc.c          ****     int64_t s9;
 409:sc.c          ****     int64_t s10;
 410:sc.c          ****     int64_t s11;
 411:sc.c          ****     int64_t s12;
 412:sc.c          ****     int64_t s13;
 413:sc.c          ****     int64_t s14;
 414:sc.c          ****     int64_t s15;
 415:sc.c          ****     int64_t s16;
 416:sc.c          ****     int64_t s17;
 417:sc.c          ****     int64_t s18;
 418:sc.c          ****     int64_t s19;
 419:sc.c          ****     int64_t s20;
 420:sc.c          ****     int64_t s21;
 421:sc.c          ****     int64_t s22;
 422:sc.c          ****     int64_t s23;
 423:sc.c          ****     int64_t carry0;
 424:sc.c          ****     int64_t carry1;
 425:sc.c          ****     int64_t carry2;
 426:sc.c          ****     int64_t carry3;
 427:sc.c          ****     int64_t carry4;
 428:sc.c          ****     int64_t carry5;
 429:sc.c          ****     int64_t carry6;
 430:sc.c          ****     int64_t carry7;
 431:sc.c          ****     int64_t carry8;
 432:sc.c          ****     int64_t carry9;
 433:sc.c          ****     int64_t carry10;
 434:sc.c          ****     int64_t carry11;
 435:sc.c          ****     int64_t carry12;
 436:sc.c          ****     int64_t carry13;
 437:sc.c          ****     int64_t carry14;
 438:sc.c          ****     int64_t carry15;
 439:sc.c          ****     int64_t carry16;
 440:sc.c          ****     int64_t carry17;
 441:sc.c          ****     int64_t carry18;
 442:sc.c          ****     int64_t carry19;
ARM GAS  C:\Users\NIGHDR~1\AppData\Local\Temp\ccvJ0Ig2.s 			page 76


 443:sc.c          ****     int64_t carry20;
 444:sc.c          ****     int64_t carry21;
 445:sc.c          ****     int64_t carry22;
 446:sc.c          **** 
 447:sc.c          ****     s0 = c0 + a0 * b0;
 3834              		.loc 1 447 0
 3835 0272 2200     		movs	r2, r4
 3836 0274 0023     		movs	r3, #0
 3837 0276 2800     		movs	r0, r5
 3838 0278 0021     		movs	r1, #0
 3839 027a FFF7FEFF 		bl	__aeabi_lmul
 3840              	.LVL660:
 3841 027e 2E9E     		ldr	r6, [sp, #184]
 3842 0280 2F9F     		ldr	r7, [sp, #188]
 3843 0282 3618     		adds	r6, r6, r0
 3844 0284 4F41     		adcs	r7, r7, r1
 3845 0286 2E96     		str	r6, [sp, #184]
 3846 0288 2F97     		str	r7, [sp, #188]
 3847              	.LVL661:
 448:sc.c          ****     s1 = c1 + a0 * b1 + a1 * b0;
 3848              		.loc 1 448 0
 3849 028a 149A     		ldr	r2, [sp, #80]
 3850 028c 0023     		movs	r3, #0
 3851 028e 2800     		movs	r0, r5
 3852 0290 0021     		movs	r1, #0
 3853 0292 FFF7FEFF 		bl	__aeabi_lmul
 3854              	.LVL662:
 3855 0296 309E     		ldr	r6, [sp, #192]
 3856 0298 319F     		ldr	r7, [sp, #196]
 3857              	.LVL663:
 3858 029a 3618     		adds	r6, r6, r0
 3859 029c 4F41     		adcs	r7, r7, r1
 3860 029e 2200     		movs	r2, r4
 3861 02a0 0023     		movs	r3, #0
 3862 02a2 2A98     		ldr	r0, [sp, #168]
 3863 02a4 0021     		movs	r1, #0
 3864 02a6 FFF7FEFF 		bl	__aeabi_lmul
 3865              	.LVL664:
 3866 02aa 3618     		adds	r6, r6, r0
 3867 02ac 4F41     		adcs	r7, r7, r1
 3868 02ae 4896     		str	r6, [sp, #288]
 3869 02b0 4997     		str	r7, [sp, #292]
 3870              	.LVL665:
 449:sc.c          ****     s2 = c2 + a0 * b2 + a1 * b1 + a2 * b0;
 3871              		.loc 1 449 0
 3872 02b2 169A     		ldr	r2, [sp, #88]
 3873 02b4 0023     		movs	r3, #0
 3874 02b6 2800     		movs	r0, r5
 3875 02b8 0021     		movs	r1, #0
 3876 02ba FFF7FEFF 		bl	__aeabi_lmul
 3877              	.LVL666:
 3878 02be 329E     		ldr	r6, [sp, #200]
 3879 02c0 339F     		ldr	r7, [sp, #204]
 3880              	.LVL667:
 3881 02c2 3618     		adds	r6, r6, r0
 3882 02c4 4F41     		adcs	r7, r7, r1
 3883 02c6 149A     		ldr	r2, [sp, #80]
ARM GAS  C:\Users\NIGHDR~1\AppData\Local\Temp\ccvJ0Ig2.s 			page 77


 3884 02c8 0023     		movs	r3, #0
 3885 02ca 2A98     		ldr	r0, [sp, #168]
 3886 02cc 0021     		movs	r1, #0
 3887 02ce FFF7FEFF 		bl	__aeabi_lmul
 3888              	.LVL668:
 3889 02d2 3618     		adds	r6, r6, r0
 3890 02d4 4F41     		adcs	r7, r7, r1
 3891 02d6 2200     		movs	r2, r4
 3892 02d8 0023     		movs	r3, #0
 3893 02da 0098     		ldr	r0, [sp]
 3894 02dc 0021     		movs	r1, #0
 3895 02de FFF7FEFF 		bl	__aeabi_lmul
 3896              	.LVL669:
 3897 02e2 3618     		adds	r6, r6, r0
 3898 02e4 4F41     		adcs	r7, r7, r1
 3899 02e6 3096     		str	r6, [sp, #192]
 3900 02e8 3197     		str	r7, [sp, #196]
 3901              	.LVL670:
 450:sc.c          ****     s3 = c3 + a0 * b3 + a1 * b2 + a2 * b1 + a3 * b0;
 3902              		.loc 1 450 0
 3903 02ea 189A     		ldr	r2, [sp, #96]
 3904 02ec 0023     		movs	r3, #0
 3905 02ee 2800     		movs	r0, r5
 3906 02f0 0021     		movs	r1, #0
 3907 02f2 FFF7FEFF 		bl	__aeabi_lmul
 3908              	.LVL671:
 3909 02f6 349E     		ldr	r6, [sp, #208]
 3910 02f8 359F     		ldr	r7, [sp, #212]
 3911              	.LVL672:
 3912 02fa 3618     		adds	r6, r6, r0
 3913 02fc 4F41     		adcs	r7, r7, r1
 3914 02fe 169A     		ldr	r2, [sp, #88]
 3915 0300 0023     		movs	r3, #0
 3916 0302 2A98     		ldr	r0, [sp, #168]
 3917 0304 0021     		movs	r1, #0
 3918 0306 FFF7FEFF 		bl	__aeabi_lmul
 3919              	.LVL673:
 3920 030a 3618     		adds	r6, r6, r0
 3921 030c 4F41     		adcs	r7, r7, r1
 3922 030e 149A     		ldr	r2, [sp, #80]
 3923 0310 0023     		movs	r3, #0
 3924 0312 0098     		ldr	r0, [sp]
 3925 0314 0021     		movs	r1, #0
 3926 0316 FFF7FEFF 		bl	__aeabi_lmul
 3927              	.LVL674:
 3928 031a 3618     		adds	r6, r6, r0
 3929 031c 4F41     		adcs	r7, r7, r1
 3930 031e 2200     		movs	r2, r4
 3931 0320 0023     		movs	r3, #0
 3932 0322 0298     		ldr	r0, [sp, #8]
 3933 0324 0021     		movs	r1, #0
 3934 0326 FFF7FEFF 		bl	__aeabi_lmul
 3935              	.LVL675:
 3936 032a 3618     		adds	r6, r6, r0
 3937 032c 4F41     		adcs	r7, r7, r1
 3938 032e 4A96     		str	r6, [sp, #296]
 3939 0330 4B97     		str	r7, [sp, #300]
ARM GAS  C:\Users\NIGHDR~1\AppData\Local\Temp\ccvJ0Ig2.s 			page 78


 3940              	.LVL676:
 451:sc.c          ****     s4 = c4 + a0 * b4 + a1 * b3 + a2 * b2 + a3 * b1 + a4 * b0;
 3941              		.loc 1 451 0
 3942 0332 1A9A     		ldr	r2, [sp, #104]
 3943 0334 0023     		movs	r3, #0
 3944 0336 2800     		movs	r0, r5
 3945 0338 0021     		movs	r1, #0
 3946 033a FFF7FEFF 		bl	__aeabi_lmul
 3947              	.LVL677:
 3948 033e 369A     		ldr	r2, [sp, #216]
 3949 0340 379B     		ldr	r3, [sp, #220]
 3950 0342 1218     		adds	r2, r2, r0
 3951 0344 4B41     		adcs	r3, r3, r1
 3952 0346 1600     		movs	r6, r2
 3953              	.LVL678:
 3954 0348 1F00     		movs	r7, r3
 3955 034a 189A     		ldr	r2, [sp, #96]
 3956 034c 0023     		movs	r3, #0
 3957 034e 2A98     		ldr	r0, [sp, #168]
 3958 0350 0021     		movs	r1, #0
 3959 0352 FFF7FEFF 		bl	__aeabi_lmul
 3960              	.LVL679:
 3961 0356 3618     		adds	r6, r6, r0
 3962 0358 4F41     		adcs	r7, r7, r1
 3963 035a 169A     		ldr	r2, [sp, #88]
 3964 035c 0023     		movs	r3, #0
 3965 035e 0098     		ldr	r0, [sp]
 3966 0360 0021     		movs	r1, #0
 3967 0362 FFF7FEFF 		bl	__aeabi_lmul
 3968              	.LVL680:
 3969 0366 3618     		adds	r6, r6, r0
 3970 0368 4F41     		adcs	r7, r7, r1
 3971 036a 149A     		ldr	r2, [sp, #80]
 3972 036c 0023     		movs	r3, #0
 3973 036e 0298     		ldr	r0, [sp, #8]
 3974 0370 0021     		movs	r1, #0
 3975 0372 FFF7FEFF 		bl	__aeabi_lmul
 3976              	.LVL681:
 3977 0376 3618     		adds	r6, r6, r0
 3978 0378 4F41     		adcs	r7, r7, r1
 3979 037a 2200     		movs	r2, r4
 3980 037c 0023     		movs	r3, #0
 3981 037e 0498     		ldr	r0, [sp, #16]
 3982 0380 0021     		movs	r1, #0
 3983 0382 FFF7FEFF 		bl	__aeabi_lmul
 3984              	.LVL682:
 3985 0386 3618     		adds	r6, r6, r0
 3986 0388 4F41     		adcs	r7, r7, r1
 3987 038a 3296     		str	r6, [sp, #200]
 3988 038c 3397     		str	r7, [sp, #204]
 3989              	.LVL683:
 452:sc.c          ****     s5 = c5 + a0 * b5 + a1 * b4 + a2 * b3 + a3 * b2 + a4 * b1 + a5 * b0;
 3990              		.loc 1 452 0
 3991 038e 1C9A     		ldr	r2, [sp, #112]
 3992 0390 0023     		movs	r3, #0
 3993 0392 2800     		movs	r0, r5
 3994 0394 0021     		movs	r1, #0
ARM GAS  C:\Users\NIGHDR~1\AppData\Local\Temp\ccvJ0Ig2.s 			page 79


 3995 0396 FFF7FEFF 		bl	__aeabi_lmul
 3996              	.LVL684:
 3997 039a 389A     		ldr	r2, [sp, #224]
 3998 039c 399B     		ldr	r3, [sp, #228]
 3999 039e 1218     		adds	r2, r2, r0
 4000 03a0 4B41     		adcs	r3, r3, r1
 4001 03a2 1600     		movs	r6, r2
 4002              	.LVL685:
 4003 03a4 1F00     		movs	r7, r3
 4004 03a6 1A9A     		ldr	r2, [sp, #104]
 4005 03a8 0023     		movs	r3, #0
 4006 03aa 2A98     		ldr	r0, [sp, #168]
 4007 03ac 0021     		movs	r1, #0
 4008 03ae FFF7FEFF 		bl	__aeabi_lmul
 4009              	.LVL686:
 4010 03b2 3618     		adds	r6, r6, r0
 4011 03b4 4F41     		adcs	r7, r7, r1
 4012 03b6 189A     		ldr	r2, [sp, #96]
 4013 03b8 0023     		movs	r3, #0
 4014 03ba 0098     		ldr	r0, [sp]
 4015 03bc 0021     		movs	r1, #0
 4016 03be FFF7FEFF 		bl	__aeabi_lmul
 4017              	.LVL687:
 4018 03c2 3618     		adds	r6, r6, r0
 4019 03c4 4F41     		adcs	r7, r7, r1
 4020 03c6 169A     		ldr	r2, [sp, #88]
 4021 03c8 0023     		movs	r3, #0
 4022 03ca 0298     		ldr	r0, [sp, #8]
 4023 03cc 0021     		movs	r1, #0
 4024 03ce FFF7FEFF 		bl	__aeabi_lmul
 4025              	.LVL688:
 4026 03d2 3618     		adds	r6, r6, r0
 4027 03d4 4F41     		adcs	r7, r7, r1
 4028 03d6 149A     		ldr	r2, [sp, #80]
 4029 03d8 0023     		movs	r3, #0
 4030 03da 0498     		ldr	r0, [sp, #16]
 4031 03dc 0021     		movs	r1, #0
 4032 03de FFF7FEFF 		bl	__aeabi_lmul
 4033              	.LVL689:
 4034 03e2 3618     		adds	r6, r6, r0
 4035 03e4 4F41     		adcs	r7, r7, r1
 4036 03e6 2200     		movs	r2, r4
 4037 03e8 0023     		movs	r3, #0
 4038 03ea 0698     		ldr	r0, [sp, #24]
 4039 03ec 0021     		movs	r1, #0
 4040 03ee FFF7FEFF 		bl	__aeabi_lmul
 4041              	.LVL690:
 4042 03f2 3618     		adds	r6, r6, r0
 4043 03f4 4F41     		adcs	r7, r7, r1
 4044 03f6 4C96     		str	r6, [sp, #304]
 4045 03f8 4D97     		str	r7, [sp, #308]
 4046              	.LVL691:
 453:sc.c          ****     s6 = c6 + a0 * b6 + a1 * b5 + a2 * b4 + a3 * b3 + a4 * b2 + a5 * b1 + a6 * b0;
 4047              		.loc 1 453 0
 4048 03fa 1E9A     		ldr	r2, [sp, #120]
 4049 03fc 0023     		movs	r3, #0
 4050 03fe 2800     		movs	r0, r5
ARM GAS  C:\Users\NIGHDR~1\AppData\Local\Temp\ccvJ0Ig2.s 			page 80


 4051 0400 0021     		movs	r1, #0
 4052 0402 FFF7FEFF 		bl	__aeabi_lmul
 4053              	.LVL692:
 4054 0406 3A9A     		ldr	r2, [sp, #232]
 4055 0408 3B9B     		ldr	r3, [sp, #236]
 4056 040a 1218     		adds	r2, r2, r0
 4057 040c 4B41     		adcs	r3, r3, r1
 4058 040e 1600     		movs	r6, r2
 4059              	.LVL693:
 4060 0410 1F00     		movs	r7, r3
 4061 0412 1C9A     		ldr	r2, [sp, #112]
 4062 0414 0023     		movs	r3, #0
 4063 0416 2A98     		ldr	r0, [sp, #168]
 4064 0418 0021     		movs	r1, #0
 4065 041a FFF7FEFF 		bl	__aeabi_lmul
 4066              	.LVL694:
 4067 041e 3618     		adds	r6, r6, r0
 4068 0420 4F41     		adcs	r7, r7, r1
 4069 0422 1A9A     		ldr	r2, [sp, #104]
 4070 0424 0023     		movs	r3, #0
 4071 0426 0098     		ldr	r0, [sp]
 4072 0428 0021     		movs	r1, #0
 4073 042a FFF7FEFF 		bl	__aeabi_lmul
 4074              	.LVL695:
 4075 042e 3618     		adds	r6, r6, r0
 4076 0430 4F41     		adcs	r7, r7, r1
 4077 0432 189A     		ldr	r2, [sp, #96]
 4078 0434 0023     		movs	r3, #0
 4079 0436 0298     		ldr	r0, [sp, #8]
 4080 0438 0021     		movs	r1, #0
 4081 043a FFF7FEFF 		bl	__aeabi_lmul
 4082              	.LVL696:
 4083 043e 3618     		adds	r6, r6, r0
 4084 0440 4F41     		adcs	r7, r7, r1
 4085 0442 169A     		ldr	r2, [sp, #88]
 4086 0444 0023     		movs	r3, #0
 4087 0446 0498     		ldr	r0, [sp, #16]
 4088 0448 0021     		movs	r1, #0
 4089 044a FFF7FEFF 		bl	__aeabi_lmul
 4090              	.LVL697:
 4091 044e 3618     		adds	r6, r6, r0
 4092 0450 4F41     		adcs	r7, r7, r1
 4093 0452 149A     		ldr	r2, [sp, #80]
 4094 0454 0023     		movs	r3, #0
 4095 0456 0698     		ldr	r0, [sp, #24]
 4096 0458 0021     		movs	r1, #0
 4097 045a FFF7FEFF 		bl	__aeabi_lmul
 4098              	.LVL698:
 4099 045e 3618     		adds	r6, r6, r0
 4100 0460 4F41     		adcs	r7, r7, r1
 4101 0462 2200     		movs	r2, r4
 4102 0464 0023     		movs	r3, #0
 4103 0466 0898     		ldr	r0, [sp, #32]
 4104 0468 0021     		movs	r1, #0
 4105 046a FFF7FEFF 		bl	__aeabi_lmul
 4106              	.LVL699:
 4107 046e 3200     		movs	r2, r6
ARM GAS  C:\Users\NIGHDR~1\AppData\Local\Temp\ccvJ0Ig2.s 			page 81


 4108 0470 3B00     		movs	r3, r7
 4109 0472 1218     		adds	r2, r2, r0
 4110 0474 4B41     		adcs	r3, r3, r1
 4111 0476 3492     		str	r2, [sp, #208]
 4112 0478 3593     		str	r3, [sp, #212]
 4113              	.LVL700:
 454:sc.c          ****     s7 = c7 + a0 * b7 + a1 * b6 + a2 * b5 + a3 * b4 + a4 * b3 + a5 * b2 + a6 * b1 + a7 * b0;
 4114              		.loc 1 454 0
 4115 047a 209A     		ldr	r2, [sp, #128]
 4116              	.LVL701:
 4117 047c 0023     		movs	r3, #0
 4118 047e 2800     		movs	r0, r5
 4119 0480 0021     		movs	r1, #0
 4120 0482 FFF7FEFF 		bl	__aeabi_lmul
 4121              	.LVL702:
 4122 0486 3C9A     		ldr	r2, [sp, #240]
 4123 0488 3D9B     		ldr	r3, [sp, #244]
 4124 048a 1218     		adds	r2, r2, r0
 4125 048c 4B41     		adcs	r3, r3, r1
 4126 048e 1600     		movs	r6, r2
 4127 0490 1F00     		movs	r7, r3
 4128 0492 1E9A     		ldr	r2, [sp, #120]
 4129 0494 0023     		movs	r3, #0
 4130 0496 2A98     		ldr	r0, [sp, #168]
 4131 0498 0021     		movs	r1, #0
 4132 049a FFF7FEFF 		bl	__aeabi_lmul
 4133              	.LVL703:
 4134 049e 3618     		adds	r6, r6, r0
 4135 04a0 4F41     		adcs	r7, r7, r1
 4136 04a2 1C9A     		ldr	r2, [sp, #112]
 4137 04a4 0023     		movs	r3, #0
 4138 04a6 0098     		ldr	r0, [sp]
 4139 04a8 0021     		movs	r1, #0
 4140 04aa FFF7FEFF 		bl	__aeabi_lmul
 4141              	.LVL704:
 4142 04ae 3618     		adds	r6, r6, r0
 4143 04b0 4F41     		adcs	r7, r7, r1
 4144 04b2 1A9A     		ldr	r2, [sp, #104]
 4145 04b4 0023     		movs	r3, #0
 4146 04b6 0298     		ldr	r0, [sp, #8]
 4147 04b8 0021     		movs	r1, #0
 4148 04ba FFF7FEFF 		bl	__aeabi_lmul
 4149              	.LVL705:
 4150 04be 3618     		adds	r6, r6, r0
 4151 04c0 4F41     		adcs	r7, r7, r1
 4152 04c2 189A     		ldr	r2, [sp, #96]
 4153 04c4 0023     		movs	r3, #0
 4154 04c6 0498     		ldr	r0, [sp, #16]
 4155 04c8 0021     		movs	r1, #0
 4156 04ca FFF7FEFF 		bl	__aeabi_lmul
 4157              	.LVL706:
 4158 04ce 3618     		adds	r6, r6, r0
 4159 04d0 4F41     		adcs	r7, r7, r1
 4160 04d2 169A     		ldr	r2, [sp, #88]
 4161 04d4 0023     		movs	r3, #0
 4162 04d6 0698     		ldr	r0, [sp, #24]
 4163 04d8 0021     		movs	r1, #0
ARM GAS  C:\Users\NIGHDR~1\AppData\Local\Temp\ccvJ0Ig2.s 			page 82


 4164 04da FFF7FEFF 		bl	__aeabi_lmul
 4165              	.LVL707:
 4166 04de 3618     		adds	r6, r6, r0
 4167 04e0 4F41     		adcs	r7, r7, r1
 4168 04e2 149A     		ldr	r2, [sp, #80]
 4169 04e4 0023     		movs	r3, #0
 4170 04e6 0898     		ldr	r0, [sp, #32]
 4171 04e8 0021     		movs	r1, #0
 4172 04ea FFF7FEFF 		bl	__aeabi_lmul
 4173              	.LVL708:
 4174 04ee 3618     		adds	r6, r6, r0
 4175 04f0 4F41     		adcs	r7, r7, r1
 4176 04f2 2200     		movs	r2, r4
 4177 04f4 0023     		movs	r3, #0
 4178 04f6 0A98     		ldr	r0, [sp, #40]
 4179 04f8 0021     		movs	r1, #0
 4180 04fa FFF7FEFF 		bl	__aeabi_lmul
 4181              	.LVL709:
 4182 04fe 3618     		adds	r6, r6, r0
 4183 0500 4F41     		adcs	r7, r7, r1
 4184 0502 3A96     		str	r6, [sp, #232]
 4185 0504 3B97     		str	r7, [sp, #236]
 4186              	.LVL710:
 455:sc.c          ****     s8 = c8 + a0 * b8 + a1 * b7 + a2 * b6 + a3 * b5 + a4 * b4 + a5 * b3 + a6 * b2 + a7 * b1 + a8 * 
 4187              		.loc 1 455 0
 4188 0506 229A     		ldr	r2, [sp, #136]
 4189 0508 0023     		movs	r3, #0
 4190 050a 2800     		movs	r0, r5
 4191 050c 0021     		movs	r1, #0
 4192 050e FFF7FEFF 		bl	__aeabi_lmul
 4193              	.LVL711:
 4194 0512 3E9A     		ldr	r2, [sp, #248]
 4195 0514 3F9B     		ldr	r3, [sp, #252]
 4196 0516 1218     		adds	r2, r2, r0
 4197 0518 4B41     		adcs	r3, r3, r1
 4198 051a 1600     		movs	r6, r2
 4199              	.LVL712:
 4200 051c 1F00     		movs	r7, r3
 4201 051e 209A     		ldr	r2, [sp, #128]
 4202 0520 0023     		movs	r3, #0
 4203 0522 2A98     		ldr	r0, [sp, #168]
 4204 0524 0021     		movs	r1, #0
 4205 0526 FFF7FEFF 		bl	__aeabi_lmul
 4206              	.LVL713:
 4207 052a 3618     		adds	r6, r6, r0
 4208 052c 4F41     		adcs	r7, r7, r1
 4209 052e 1E9A     		ldr	r2, [sp, #120]
 4210 0530 0023     		movs	r3, #0
 4211 0532 0098     		ldr	r0, [sp]
 4212 0534 0021     		movs	r1, #0
 4213 0536 FFF7FEFF 		bl	__aeabi_lmul
 4214              	.LVL714:
 4215 053a 3618     		adds	r6, r6, r0
 4216 053c 4F41     		adcs	r7, r7, r1
 4217 053e 1C9A     		ldr	r2, [sp, #112]
 4218 0540 0023     		movs	r3, #0
 4219 0542 0298     		ldr	r0, [sp, #8]
ARM GAS  C:\Users\NIGHDR~1\AppData\Local\Temp\ccvJ0Ig2.s 			page 83


 4220 0544 0021     		movs	r1, #0
 4221 0546 FFF7FEFF 		bl	__aeabi_lmul
 4222              	.LVL715:
 4223 054a 3618     		adds	r6, r6, r0
 4224 054c 4F41     		adcs	r7, r7, r1
 4225 054e 1A9A     		ldr	r2, [sp, #104]
 4226 0550 0023     		movs	r3, #0
 4227 0552 0498     		ldr	r0, [sp, #16]
 4228 0554 0021     		movs	r1, #0
 4229 0556 FFF7FEFF 		bl	__aeabi_lmul
 4230              	.LVL716:
 4231 055a 3618     		adds	r6, r6, r0
 4232 055c 4F41     		adcs	r7, r7, r1
 4233 055e 189A     		ldr	r2, [sp, #96]
 4234 0560 0023     		movs	r3, #0
 4235 0562 0698     		ldr	r0, [sp, #24]
 4236 0564 0021     		movs	r1, #0
 4237 0566 FFF7FEFF 		bl	__aeabi_lmul
 4238              	.LVL717:
 4239 056a 3618     		adds	r6, r6, r0
 4240 056c 4F41     		adcs	r7, r7, r1
 4241 056e 169A     		ldr	r2, [sp, #88]
 4242 0570 0023     		movs	r3, #0
 4243 0572 0898     		ldr	r0, [sp, #32]
 4244 0574 0021     		movs	r1, #0
 4245 0576 FFF7FEFF 		bl	__aeabi_lmul
 4246              	.LVL718:
 4247 057a 3618     		adds	r6, r6, r0
 4248 057c 4F41     		adcs	r7, r7, r1
 4249 057e 149A     		ldr	r2, [sp, #80]
 4250 0580 0023     		movs	r3, #0
 4251 0582 0A98     		ldr	r0, [sp, #40]
 4252 0584 0021     		movs	r1, #0
 4253 0586 FFF7FEFF 		bl	__aeabi_lmul
 4254              	.LVL719:
 4255 058a 3618     		adds	r6, r6, r0
 4256 058c 4F41     		adcs	r7, r7, r1
 4257 058e 2200     		movs	r2, r4
 4258 0590 0023     		movs	r3, #0
 4259 0592 0C98     		ldr	r0, [sp, #48]
 4260 0594 0021     		movs	r1, #0
 4261 0596 FFF7FEFF 		bl	__aeabi_lmul
 4262              	.LVL720:
 4263 059a 3200     		movs	r2, r6
 4264 059c 3B00     		movs	r3, r7
 4265 059e 1218     		adds	r2, r2, r0
 4266 05a0 4B41     		adcs	r3, r3, r1
 4267 05a2 3692     		str	r2, [sp, #216]
 4268 05a4 3793     		str	r3, [sp, #220]
 4269              	.LVL721:
 456:sc.c          ****     s9 = c9 + a0 * b9 + a1 * b8 + a2 * b7 + a3 * b6 + a4 * b5 + a5 * b4 + a6 * b3 + a7 * b2 + a8 * 
 4270              		.loc 1 456 0
 4271 05a6 249A     		ldr	r2, [sp, #144]
 4272              	.LVL722:
 4273 05a8 0023     		movs	r3, #0
 4274 05aa 2800     		movs	r0, r5
 4275 05ac 0021     		movs	r1, #0
ARM GAS  C:\Users\NIGHDR~1\AppData\Local\Temp\ccvJ0Ig2.s 			page 84


 4276 05ae FFF7FEFF 		bl	__aeabi_lmul
 4277              	.LVL723:
 4278 05b2 409A     		ldr	r2, [sp, #256]
 4279 05b4 419B     		ldr	r3, [sp, #260]
 4280 05b6 1218     		adds	r2, r2, r0
 4281 05b8 4B41     		adcs	r3, r3, r1
 4282 05ba 1600     		movs	r6, r2
 4283 05bc 1F00     		movs	r7, r3
 4284 05be 229A     		ldr	r2, [sp, #136]
 4285 05c0 0023     		movs	r3, #0
 4286 05c2 2A98     		ldr	r0, [sp, #168]
 4287 05c4 0021     		movs	r1, #0
 4288 05c6 FFF7FEFF 		bl	__aeabi_lmul
 4289              	.LVL724:
 4290 05ca 3618     		adds	r6, r6, r0
 4291 05cc 4F41     		adcs	r7, r7, r1
 4292 05ce 209A     		ldr	r2, [sp, #128]
 4293 05d0 0023     		movs	r3, #0
 4294 05d2 0098     		ldr	r0, [sp]
 4295 05d4 0021     		movs	r1, #0
 4296 05d6 FFF7FEFF 		bl	__aeabi_lmul
 4297              	.LVL725:
 4298 05da 3618     		adds	r6, r6, r0
 4299 05dc 4F41     		adcs	r7, r7, r1
 4300 05de 1E9A     		ldr	r2, [sp, #120]
 4301 05e0 0023     		movs	r3, #0
 4302 05e2 0298     		ldr	r0, [sp, #8]
 4303 05e4 0021     		movs	r1, #0
 4304 05e6 FFF7FEFF 		bl	__aeabi_lmul
 4305              	.LVL726:
 4306 05ea 3618     		adds	r6, r6, r0
 4307 05ec 4F41     		adcs	r7, r7, r1
 4308 05ee 1C9A     		ldr	r2, [sp, #112]
 4309 05f0 0023     		movs	r3, #0
 4310 05f2 0498     		ldr	r0, [sp, #16]
 4311 05f4 0021     		movs	r1, #0
 4312 05f6 FFF7FEFF 		bl	__aeabi_lmul
 4313              	.LVL727:
 4314 05fa 3618     		adds	r6, r6, r0
 4315 05fc 4F41     		adcs	r7, r7, r1
 4316 05fe 1A9A     		ldr	r2, [sp, #104]
 4317 0600 0023     		movs	r3, #0
 4318 0602 0698     		ldr	r0, [sp, #24]
 4319 0604 0021     		movs	r1, #0
 4320 0606 FFF7FEFF 		bl	__aeabi_lmul
 4321              	.LVL728:
 4322 060a 3618     		adds	r6, r6, r0
 4323 060c 4F41     		adcs	r7, r7, r1
 4324 060e 189A     		ldr	r2, [sp, #96]
 4325 0610 0023     		movs	r3, #0
 4326 0612 0898     		ldr	r0, [sp, #32]
 4327 0614 0021     		movs	r1, #0
 4328 0616 FFF7FEFF 		bl	__aeabi_lmul
 4329              	.LVL729:
 4330 061a 3618     		adds	r6, r6, r0
 4331 061c 4F41     		adcs	r7, r7, r1
 4332 061e 169A     		ldr	r2, [sp, #88]
ARM GAS  C:\Users\NIGHDR~1\AppData\Local\Temp\ccvJ0Ig2.s 			page 85


 4333 0620 0023     		movs	r3, #0
 4334 0622 0A98     		ldr	r0, [sp, #40]
 4335 0624 0021     		movs	r1, #0
 4336 0626 FFF7FEFF 		bl	__aeabi_lmul
 4337              	.LVL730:
 4338 062a 3618     		adds	r6, r6, r0
 4339 062c 4F41     		adcs	r7, r7, r1
 4340 062e 149A     		ldr	r2, [sp, #80]
 4341 0630 0023     		movs	r3, #0
 4342 0632 0C98     		ldr	r0, [sp, #48]
 4343 0634 0021     		movs	r1, #0
 4344 0636 FFF7FEFF 		bl	__aeabi_lmul
 4345              	.LVL731:
 4346 063a 3618     		adds	r6, r6, r0
 4347 063c 4F41     		adcs	r7, r7, r1
 4348 063e 2200     		movs	r2, r4
 4349 0640 0023     		movs	r3, #0
 4350 0642 0E98     		ldr	r0, [sp, #56]
 4351 0644 0021     		movs	r1, #0
 4352 0646 FFF7FEFF 		bl	__aeabi_lmul
 4353              	.LVL732:
 4354 064a 3200     		movs	r2, r6
 4355 064c 3B00     		movs	r3, r7
 4356 064e 1218     		adds	r2, r2, r0
 4357 0650 4B41     		adcs	r3, r3, r1
 4358 0652 3C92     		str	r2, [sp, #240]
 4359 0654 3D93     		str	r3, [sp, #244]
 4360              	.LVL733:
 457:sc.c          ****     s10 = c10 + a0 * b10 + a1 * b9 + a2 * b8 + a3 * b7 + a4 * b6 + a5 * b5 + a6 * b4 + a7 * b3 + a8
 4361              		.loc 1 457 0
 4362 0656 269A     		ldr	r2, [sp, #152]
 4363              	.LVL734:
 4364 0658 0023     		movs	r3, #0
 4365 065a 2800     		movs	r0, r5
 4366 065c 0021     		movs	r1, #0
 4367 065e FFF7FEFF 		bl	__aeabi_lmul
 4368              	.LVL735:
 4369 0662 429A     		ldr	r2, [sp, #264]
 4370 0664 439B     		ldr	r3, [sp, #268]
 4371 0666 1218     		adds	r2, r2, r0
 4372 0668 4B41     		adcs	r3, r3, r1
 4373 066a 1600     		movs	r6, r2
 4374 066c 1F00     		movs	r7, r3
 4375 066e 249A     		ldr	r2, [sp, #144]
 4376 0670 0023     		movs	r3, #0
 4377 0672 2A98     		ldr	r0, [sp, #168]
 4378 0674 0021     		movs	r1, #0
 4379 0676 FFF7FEFF 		bl	__aeabi_lmul
 4380              	.LVL736:
 4381 067a 3618     		adds	r6, r6, r0
 4382 067c 4F41     		adcs	r7, r7, r1
 4383 067e 229A     		ldr	r2, [sp, #136]
 4384 0680 0023     		movs	r3, #0
 4385 0682 0098     		ldr	r0, [sp]
 4386 0684 0021     		movs	r1, #0
 4387 0686 FFF7FEFF 		bl	__aeabi_lmul
 4388              	.LVL737:
ARM GAS  C:\Users\NIGHDR~1\AppData\Local\Temp\ccvJ0Ig2.s 			page 86


 4389 068a 3618     		adds	r6, r6, r0
 4390 068c 4F41     		adcs	r7, r7, r1
 4391 068e 209A     		ldr	r2, [sp, #128]
 4392 0690 0023     		movs	r3, #0
 4393 0692 0298     		ldr	r0, [sp, #8]
 4394 0694 0021     		movs	r1, #0
 4395 0696 FFF7FEFF 		bl	__aeabi_lmul
 4396              	.LVL738:
 4397 069a 3618     		adds	r6, r6, r0
 4398 069c 4F41     		adcs	r7, r7, r1
 4399 069e 1E9A     		ldr	r2, [sp, #120]
 4400 06a0 0023     		movs	r3, #0
 4401 06a2 0498     		ldr	r0, [sp, #16]
 4402 06a4 0021     		movs	r1, #0
 4403 06a6 FFF7FEFF 		bl	__aeabi_lmul
 4404              	.LVL739:
 4405 06aa 3618     		adds	r6, r6, r0
 4406 06ac 4F41     		adcs	r7, r7, r1
 4407 06ae 1C9A     		ldr	r2, [sp, #112]
 4408 06b0 0023     		movs	r3, #0
 4409 06b2 0698     		ldr	r0, [sp, #24]
 4410 06b4 0021     		movs	r1, #0
 4411 06b6 FFF7FEFF 		bl	__aeabi_lmul
 4412              	.LVL740:
 4413 06ba 3618     		adds	r6, r6, r0
 4414 06bc 4F41     		adcs	r7, r7, r1
 4415 06be 1A9A     		ldr	r2, [sp, #104]
 4416 06c0 0023     		movs	r3, #0
 4417 06c2 0898     		ldr	r0, [sp, #32]
 4418 06c4 0021     		movs	r1, #0
 4419 06c6 FFF7FEFF 		bl	__aeabi_lmul
 4420              	.LVL741:
 4421 06ca 3618     		adds	r6, r6, r0
 4422 06cc 4F41     		adcs	r7, r7, r1
 4423 06ce 189A     		ldr	r2, [sp, #96]
 4424 06d0 0023     		movs	r3, #0
 4425 06d2 0A98     		ldr	r0, [sp, #40]
 4426 06d4 0021     		movs	r1, #0
 4427 06d6 FFF7FEFF 		bl	__aeabi_lmul
 4428              	.LVL742:
 4429 06da 3618     		adds	r6, r6, r0
 4430 06dc 4F41     		adcs	r7, r7, r1
 4431 06de 169A     		ldr	r2, [sp, #88]
 4432 06e0 0023     		movs	r3, #0
 4433 06e2 0C98     		ldr	r0, [sp, #48]
 4434 06e4 0021     		movs	r1, #0
 4435 06e6 FFF7FEFF 		bl	__aeabi_lmul
 4436              	.LVL743:
 4437 06ea 3618     		adds	r6, r6, r0
 4438 06ec 4F41     		adcs	r7, r7, r1
 4439 06ee 149A     		ldr	r2, [sp, #80]
 4440 06f0 0023     		movs	r3, #0
 4441 06f2 0E98     		ldr	r0, [sp, #56]
 4442 06f4 0021     		movs	r1, #0
 4443 06f6 FFF7FEFF 		bl	__aeabi_lmul
 4444              	.LVL744:
 4445 06fa 3618     		adds	r6, r6, r0
ARM GAS  C:\Users\NIGHDR~1\AppData\Local\Temp\ccvJ0Ig2.s 			page 87


 4446 06fc 4F41     		adcs	r7, r7, r1
 4447 06fe 2200     		movs	r2, r4
 4448 0700 0023     		movs	r3, #0
 4449 0702 1098     		ldr	r0, [sp, #64]
 4450 0704 0021     		movs	r1, #0
 4451 0706 FFF7FEFF 		bl	__aeabi_lmul
 4452              	.LVL745:
 4453 070a 3200     		movs	r2, r6
 4454 070c 3B00     		movs	r3, r7
 4455 070e 1218     		adds	r2, r2, r0
 4456 0710 4B41     		adcs	r3, r3, r1
 4457 0712 3892     		str	r2, [sp, #224]
 4458 0714 3993     		str	r3, [sp, #228]
 4459              	.LVL746:
 458:sc.c          ****     s11 = c11 + a0 * b11 + a1 * b10 + a2 * b9 + a3 * b8 + a4 * b7 + a5 * b6 + a6 * b5 + a7 * b4 + a
 4460              		.loc 1 458 0
 4461 0716 2C9A     		ldr	r2, [sp, #176]
 4462              	.LVL747:
 4463 0718 289B     		ldr	r3, [sp, #160]
 4464 071a 2800     		movs	r0, r5
 4465 071c 0021     		movs	r1, #0
 4466 071e FFF7FEFF 		bl	__aeabi_lmul
 4467              	.LVL748:
 4468 0722 449D     		ldr	r5, [sp, #272]
 4469 0724 459E     		ldr	r6, [sp, #276]
 4470              	.LVL749:
 4471 0726 2D18     		adds	r5, r5, r0
 4472 0728 4E41     		adcs	r6, r6, r1
 4473 072a 3700     		movs	r7, r6
 4474 072c 2E00     		movs	r6, r5
 4475 072e 269A     		ldr	r2, [sp, #152]
 4476 0730 0023     		movs	r3, #0
 4477 0732 2A9D     		ldr	r5, [sp, #168]
 4478 0734 2800     		movs	r0, r5
 4479 0736 0021     		movs	r1, #0
 4480 0738 FFF7FEFF 		bl	__aeabi_lmul
 4481              	.LVL750:
 4482 073c 3618     		adds	r6, r6, r0
 4483 073e 4F41     		adcs	r7, r7, r1
 4484 0740 249A     		ldr	r2, [sp, #144]
 4485 0742 0023     		movs	r3, #0
 4486 0744 0098     		ldr	r0, [sp]
 4487 0746 0021     		movs	r1, #0
 4488 0748 FFF7FEFF 		bl	__aeabi_lmul
 4489              	.LVL751:
 4490 074c 3618     		adds	r6, r6, r0
 4491 074e 4F41     		adcs	r7, r7, r1
 4492 0750 229A     		ldr	r2, [sp, #136]
 4493 0752 0023     		movs	r3, #0
 4494 0754 0298     		ldr	r0, [sp, #8]
 4495 0756 0021     		movs	r1, #0
 4496 0758 FFF7FEFF 		bl	__aeabi_lmul
 4497              	.LVL752:
 4498 075c 3618     		adds	r6, r6, r0
 4499 075e 4F41     		adcs	r7, r7, r1
 4500 0760 209A     		ldr	r2, [sp, #128]
 4501 0762 0023     		movs	r3, #0
ARM GAS  C:\Users\NIGHDR~1\AppData\Local\Temp\ccvJ0Ig2.s 			page 88


 4502 0764 0498     		ldr	r0, [sp, #16]
 4503 0766 0021     		movs	r1, #0
 4504 0768 FFF7FEFF 		bl	__aeabi_lmul
 4505              	.LVL753:
 4506 076c 3618     		adds	r6, r6, r0
 4507 076e 4F41     		adcs	r7, r7, r1
 4508 0770 1E9A     		ldr	r2, [sp, #120]
 4509 0772 0023     		movs	r3, #0
 4510 0774 0698     		ldr	r0, [sp, #24]
 4511 0776 0021     		movs	r1, #0
 4512 0778 FFF7FEFF 		bl	__aeabi_lmul
 4513              	.LVL754:
 4514 077c 3618     		adds	r6, r6, r0
 4515 077e 4F41     		adcs	r7, r7, r1
 4516 0780 1C9A     		ldr	r2, [sp, #112]
 4517 0782 0023     		movs	r3, #0
 4518 0784 0898     		ldr	r0, [sp, #32]
 4519 0786 0021     		movs	r1, #0
 4520 0788 FFF7FEFF 		bl	__aeabi_lmul
 4521              	.LVL755:
 4522 078c 3618     		adds	r6, r6, r0
 4523 078e 4F41     		adcs	r7, r7, r1
 4524 0790 1A9A     		ldr	r2, [sp, #104]
 4525 0792 0023     		movs	r3, #0
 4526 0794 0A98     		ldr	r0, [sp, #40]
 4527 0796 0021     		movs	r1, #0
 4528 0798 FFF7FEFF 		bl	__aeabi_lmul
 4529              	.LVL756:
 4530 079c 3618     		adds	r6, r6, r0
 4531 079e 4F41     		adcs	r7, r7, r1
 4532 07a0 189A     		ldr	r2, [sp, #96]
 4533 07a2 0023     		movs	r3, #0
 4534 07a4 0C98     		ldr	r0, [sp, #48]
 4535 07a6 0021     		movs	r1, #0
 4536 07a8 FFF7FEFF 		bl	__aeabi_lmul
 4537              	.LVL757:
 4538 07ac 3618     		adds	r6, r6, r0
 4539 07ae 4F41     		adcs	r7, r7, r1
 4540 07b0 169A     		ldr	r2, [sp, #88]
 4541 07b2 0023     		movs	r3, #0
 4542 07b4 0E98     		ldr	r0, [sp, #56]
 4543 07b6 0021     		movs	r1, #0
 4544 07b8 FFF7FEFF 		bl	__aeabi_lmul
 4545              	.LVL758:
 4546 07bc 3618     		adds	r6, r6, r0
 4547 07be 4F41     		adcs	r7, r7, r1
 4548 07c0 149A     		ldr	r2, [sp, #80]
 4549 07c2 0023     		movs	r3, #0
 4550 07c4 1098     		ldr	r0, [sp, #64]
 4551 07c6 0021     		movs	r1, #0
 4552 07c8 FFF7FEFF 		bl	__aeabi_lmul
 4553              	.LVL759:
 4554 07cc 3618     		adds	r6, r6, r0
 4555 07ce 4F41     		adcs	r7, r7, r1
 4556 07d0 2200     		movs	r2, r4
 4557 07d2 0023     		movs	r3, #0
 4558 07d4 4798     		ldr	r0, [sp, #284]
ARM GAS  C:\Users\NIGHDR~1\AppData\Local\Temp\ccvJ0Ig2.s 			page 89


 4559 07d6 1299     		ldr	r1, [sp, #72]
 4560 07d8 FFF7FEFF 		bl	__aeabi_lmul
 4561              	.LVL760:
 4562 07dc 3300     		movs	r3, r6
 4563 07de 3C00     		movs	r4, r7
 4564              	.LVL761:
 4565 07e0 1B18     		adds	r3, r3, r0
 4566 07e2 4C41     		adcs	r4, r4, r1
 4567 07e4 2A93     		str	r3, [sp, #168]
 4568 07e6 2B94     		str	r4, [sp, #172]
 4569              	.LVL762:
 459:sc.c          ****     s12 = a1 * b11 + a2 * b10 + a3 * b9 + a4 * b8 + a5 * b7 + a6 * b6 + a7 * b5 + a8 * b4 + a9 * b3
 4570              		.loc 1 459 0
 4571 07e8 2C9E     		ldr	r6, [sp, #176]
 4572 07ea 3200     		movs	r2, r6
 4573 07ec 289B     		ldr	r3, [sp, #160]
 4574              	.LVL763:
 4575 07ee 2800     		movs	r0, r5
 4576 07f0 0021     		movs	r1, #0
 4577 07f2 FFF7FEFF 		bl	__aeabi_lmul
 4578              	.LVL764:
 4579 07f6 0400     		movs	r4, r0
 4580 07f8 0D00     		movs	r5, r1
 4581              	.LVL765:
 4582 07fa 269A     		ldr	r2, [sp, #152]
 4583 07fc 0023     		movs	r3, #0
 4584 07fe 0098     		ldr	r0, [sp]
 4585 0800 0021     		movs	r1, #0
 4586 0802 FFF7FEFF 		bl	__aeabi_lmul
 4587              	.LVL766:
 4588 0806 2418     		adds	r4, r4, r0
 4589 0808 4D41     		adcs	r5, r5, r1
 4590 080a 249A     		ldr	r2, [sp, #144]
 4591 080c 0023     		movs	r3, #0
 4592 080e 0298     		ldr	r0, [sp, #8]
 4593 0810 0021     		movs	r1, #0
 4594 0812 FFF7FEFF 		bl	__aeabi_lmul
 4595              	.LVL767:
 4596 0816 2418     		adds	r4, r4, r0
 4597 0818 4D41     		adcs	r5, r5, r1
 4598 081a 229A     		ldr	r2, [sp, #136]
 4599 081c 0023     		movs	r3, #0
 4600 081e 0498     		ldr	r0, [sp, #16]
 4601 0820 0021     		movs	r1, #0
 4602 0822 FFF7FEFF 		bl	__aeabi_lmul
 4603              	.LVL768:
 4604 0826 2418     		adds	r4, r4, r0
 4605 0828 4D41     		adcs	r5, r5, r1
 4606 082a 209A     		ldr	r2, [sp, #128]
 4607 082c 0023     		movs	r3, #0
 4608 082e 0698     		ldr	r0, [sp, #24]
 4609 0830 0021     		movs	r1, #0
 4610 0832 FFF7FEFF 		bl	__aeabi_lmul
 4611              	.LVL769:
 4612 0836 2418     		adds	r4, r4, r0
 4613 0838 4D41     		adcs	r5, r5, r1
 4614 083a 1E9A     		ldr	r2, [sp, #120]
ARM GAS  C:\Users\NIGHDR~1\AppData\Local\Temp\ccvJ0Ig2.s 			page 90


 4615 083c 0023     		movs	r3, #0
 4616 083e 0898     		ldr	r0, [sp, #32]
 4617 0840 0021     		movs	r1, #0
 4618 0842 FFF7FEFF 		bl	__aeabi_lmul
 4619              	.LVL770:
 4620 0846 2418     		adds	r4, r4, r0
 4621 0848 4D41     		adcs	r5, r5, r1
 4622 084a 1C9A     		ldr	r2, [sp, #112]
 4623 084c 0023     		movs	r3, #0
 4624 084e 0A98     		ldr	r0, [sp, #40]
 4625 0850 0021     		movs	r1, #0
 4626 0852 FFF7FEFF 		bl	__aeabi_lmul
 4627              	.LVL771:
 4628 0856 2418     		adds	r4, r4, r0
 4629 0858 4D41     		adcs	r5, r5, r1
 4630 085a 1A9A     		ldr	r2, [sp, #104]
 4631 085c 0023     		movs	r3, #0
 4632 085e 0C98     		ldr	r0, [sp, #48]
 4633 0860 0021     		movs	r1, #0
 4634 0862 FFF7FEFF 		bl	__aeabi_lmul
 4635              	.LVL772:
 4636 0866 2418     		adds	r4, r4, r0
 4637 0868 4D41     		adcs	r5, r5, r1
 4638 086a 189A     		ldr	r2, [sp, #96]
 4639 086c 0023     		movs	r3, #0
 4640 086e 0E98     		ldr	r0, [sp, #56]
 4641 0870 0021     		movs	r1, #0
 4642 0872 FFF7FEFF 		bl	__aeabi_lmul
 4643              	.LVL773:
 4644 0876 2418     		adds	r4, r4, r0
 4645 0878 4D41     		adcs	r5, r5, r1
 4646 087a 169A     		ldr	r2, [sp, #88]
 4647 087c 0023     		movs	r3, #0
 4648 087e 1098     		ldr	r0, [sp, #64]
 4649 0880 0021     		movs	r1, #0
 4650 0882 FFF7FEFF 		bl	__aeabi_lmul
 4651              	.LVL774:
 4652 0886 2418     		adds	r4, r4, r0
 4653 0888 4D41     		adcs	r5, r5, r1
 4654 088a 149A     		ldr	r2, [sp, #80]
 4655 088c 0023     		movs	r3, #0
 4656 088e 479F     		ldr	r7, [sp, #284]
 4657 0890 3800     		movs	r0, r7
 4658 0892 1299     		ldr	r1, [sp, #72]
 4659 0894 FFF7FEFF 		bl	__aeabi_lmul
 4660              	.LVL775:
 4661 0898 2300     		movs	r3, r4
 4662 089a 2C00     		movs	r4, r5
 4663 089c 1B18     		adds	r3, r3, r0
 4664 089e 4C41     		adcs	r4, r4, r1
 4665 08a0 1493     		str	r3, [sp, #80]
 4666 08a2 1594     		str	r4, [sp, #84]
 4667              	.LVL776:
 460:sc.c          ****     s13 = a2 * b11 + a3 * b10 + a4 * b9 + a5 * b8 + a6 * b7 + a7 * b6 + a8 * b5 + a9 * b4 + a10 * b
 4668              		.loc 1 460 0
 4669 08a4 2C96     		str	r6, [sp, #176]
 4670              	.LVL777:
ARM GAS  C:\Users\NIGHDR~1\AppData\Local\Temp\ccvJ0Ig2.s 			page 91


 4671 08a6 3200     		movs	r2, r6
 4672 08a8 289B     		ldr	r3, [sp, #160]
 4673              	.LVL778:
 4674 08aa 0098     		ldr	r0, [sp]
 4675 08ac 0021     		movs	r1, #0
 4676 08ae FFF7FEFF 		bl	__aeabi_lmul
 4677              	.LVL779:
 4678 08b2 0400     		movs	r4, r0
 4679 08b4 0D00     		movs	r5, r1
 4680 08b6 269A     		ldr	r2, [sp, #152]
 4681 08b8 0023     		movs	r3, #0
 4682 08ba 0298     		ldr	r0, [sp, #8]
 4683 08bc 0021     		movs	r1, #0
 4684 08be FFF7FEFF 		bl	__aeabi_lmul
 4685              	.LVL780:
 4686 08c2 2418     		adds	r4, r4, r0
 4687 08c4 4D41     		adcs	r5, r5, r1
 4688 08c6 249A     		ldr	r2, [sp, #144]
 4689 08c8 0023     		movs	r3, #0
 4690 08ca 0498     		ldr	r0, [sp, #16]
 4691 08cc 0021     		movs	r1, #0
 4692 08ce FFF7FEFF 		bl	__aeabi_lmul
 4693              	.LVL781:
 4694 08d2 2418     		adds	r4, r4, r0
 4695 08d4 4D41     		adcs	r5, r5, r1
 4696 08d6 229A     		ldr	r2, [sp, #136]
 4697 08d8 0023     		movs	r3, #0
 4698 08da 0698     		ldr	r0, [sp, #24]
 4699 08dc 0021     		movs	r1, #0
 4700 08de FFF7FEFF 		bl	__aeabi_lmul
 4701              	.LVL782:
 4702 08e2 2418     		adds	r4, r4, r0
 4703 08e4 4D41     		adcs	r5, r5, r1
 4704 08e6 209A     		ldr	r2, [sp, #128]
 4705 08e8 0023     		movs	r3, #0
 4706 08ea 0898     		ldr	r0, [sp, #32]
 4707 08ec 0021     		movs	r1, #0
 4708 08ee FFF7FEFF 		bl	__aeabi_lmul
 4709              	.LVL783:
 4710 08f2 2418     		adds	r4, r4, r0
 4711 08f4 4D41     		adcs	r5, r5, r1
 4712 08f6 1E9A     		ldr	r2, [sp, #120]
 4713 08f8 0023     		movs	r3, #0
 4714 08fa 0A98     		ldr	r0, [sp, #40]
 4715 08fc 0021     		movs	r1, #0
 4716 08fe FFF7FEFF 		bl	__aeabi_lmul
 4717              	.LVL784:
 4718 0902 2418     		adds	r4, r4, r0
 4719 0904 4D41     		adcs	r5, r5, r1
 4720 0906 1C9A     		ldr	r2, [sp, #112]
 4721 0908 0023     		movs	r3, #0
 4722 090a 0C98     		ldr	r0, [sp, #48]
 4723 090c 0021     		movs	r1, #0
 4724 090e FFF7FEFF 		bl	__aeabi_lmul
 4725              	.LVL785:
 4726 0912 2418     		adds	r4, r4, r0
 4727 0914 4D41     		adcs	r5, r5, r1
ARM GAS  C:\Users\NIGHDR~1\AppData\Local\Temp\ccvJ0Ig2.s 			page 92


 4728 0916 1A9A     		ldr	r2, [sp, #104]
 4729 0918 0023     		movs	r3, #0
 4730 091a 0E98     		ldr	r0, [sp, #56]
 4731 091c 0021     		movs	r1, #0
 4732 091e FFF7FEFF 		bl	__aeabi_lmul
 4733              	.LVL786:
 4734 0922 2418     		adds	r4, r4, r0
 4735 0924 4D41     		adcs	r5, r5, r1
 4736 0926 189A     		ldr	r2, [sp, #96]
 4737 0928 0023     		movs	r3, #0
 4738 092a 1098     		ldr	r0, [sp, #64]
 4739 092c 0021     		movs	r1, #0
 4740 092e FFF7FEFF 		bl	__aeabi_lmul
 4741              	.LVL787:
 4742 0932 2418     		adds	r4, r4, r0
 4743 0934 4D41     		adcs	r5, r5, r1
 4744 0936 169A     		ldr	r2, [sp, #88]
 4745 0938 0023     		movs	r3, #0
 4746 093a 3800     		movs	r0, r7
 4747 093c 1299     		ldr	r1, [sp, #72]
 4748 093e FFF7FEFF 		bl	__aeabi_lmul
 4749              	.LVL788:
 4750 0942 2E00     		movs	r6, r5
 4751              	.LVL789:
 4752 0944 2500     		movs	r5, r4
 4753 0946 2D18     		adds	r5, r5, r0
 4754 0948 4E41     		adcs	r6, r6, r1
 4755 094a 1695     		str	r5, [sp, #88]
 4756 094c 1796     		str	r6, [sp, #92]
 4757              	.LVL790:
 461:sc.c          ****     s14 = a3 * b11 + a4 * b10 + a5 * b9 + a6 * b8 + a7 * b7 + a8 * b6 + a9 * b5 + a10 * b4 + a11 * 
 4758              		.loc 1 461 0
 4759 094e 2C9E     		ldr	r6, [sp, #176]
 4760 0950 3200     		movs	r2, r6
 4761 0952 289B     		ldr	r3, [sp, #160]
 4762 0954 0298     		ldr	r0, [sp, #8]
 4763 0956 0021     		movs	r1, #0
 4764 0958 FFF7FEFF 		bl	__aeabi_lmul
 4765              	.LVL791:
 4766 095c 0400     		movs	r4, r0
 4767 095e 0D00     		movs	r5, r1
 4768              	.LVL792:
 4769 0960 269A     		ldr	r2, [sp, #152]
 4770 0962 0023     		movs	r3, #0
 4771 0964 0498     		ldr	r0, [sp, #16]
 4772 0966 0021     		movs	r1, #0
 4773 0968 FFF7FEFF 		bl	__aeabi_lmul
 4774              	.LVL793:
 4775 096c 2418     		adds	r4, r4, r0
 4776 096e 4D41     		adcs	r5, r5, r1
 4777 0970 249A     		ldr	r2, [sp, #144]
 4778 0972 0023     		movs	r3, #0
 4779 0974 0698     		ldr	r0, [sp, #24]
 4780 0976 0021     		movs	r1, #0
 4781 0978 FFF7FEFF 		bl	__aeabi_lmul
 4782              	.LVL794:
 4783 097c 2418     		adds	r4, r4, r0
ARM GAS  C:\Users\NIGHDR~1\AppData\Local\Temp\ccvJ0Ig2.s 			page 93


 4784 097e 4D41     		adcs	r5, r5, r1
 4785 0980 229A     		ldr	r2, [sp, #136]
 4786 0982 0023     		movs	r3, #0
 4787 0984 0898     		ldr	r0, [sp, #32]
 4788 0986 0021     		movs	r1, #0
 4789 0988 FFF7FEFF 		bl	__aeabi_lmul
 4790              	.LVL795:
 4791 098c 2418     		adds	r4, r4, r0
 4792 098e 4D41     		adcs	r5, r5, r1
 4793 0990 209A     		ldr	r2, [sp, #128]
 4794 0992 0023     		movs	r3, #0
 4795 0994 0A98     		ldr	r0, [sp, #40]
 4796 0996 0021     		movs	r1, #0
 4797 0998 FFF7FEFF 		bl	__aeabi_lmul
 4798              	.LVL796:
 4799 099c 2418     		adds	r4, r4, r0
 4800 099e 4D41     		adcs	r5, r5, r1
 4801 09a0 1E9A     		ldr	r2, [sp, #120]
 4802 09a2 0023     		movs	r3, #0
 4803 09a4 0C98     		ldr	r0, [sp, #48]
 4804 09a6 0021     		movs	r1, #0
 4805 09a8 FFF7FEFF 		bl	__aeabi_lmul
 4806              	.LVL797:
 4807 09ac 2418     		adds	r4, r4, r0
 4808 09ae 4D41     		adcs	r5, r5, r1
 4809 09b0 1C9A     		ldr	r2, [sp, #112]
 4810 09b2 0023     		movs	r3, #0
 4811 09b4 0E98     		ldr	r0, [sp, #56]
 4812 09b6 0021     		movs	r1, #0
 4813 09b8 FFF7FEFF 		bl	__aeabi_lmul
 4814              	.LVL798:
 4815 09bc 2418     		adds	r4, r4, r0
 4816 09be 4D41     		adcs	r5, r5, r1
 4817 09c0 1A9A     		ldr	r2, [sp, #104]
 4818 09c2 0023     		movs	r3, #0
 4819 09c4 1098     		ldr	r0, [sp, #64]
 4820 09c6 0021     		movs	r1, #0
 4821 09c8 FFF7FEFF 		bl	__aeabi_lmul
 4822              	.LVL799:
 4823 09cc 2418     		adds	r4, r4, r0
 4824 09ce 4D41     		adcs	r5, r5, r1
 4825 09d0 189A     		ldr	r2, [sp, #96]
 4826 09d2 0023     		movs	r3, #0
 4827 09d4 3800     		movs	r0, r7
 4828 09d6 1299     		ldr	r1, [sp, #72]
 4829 09d8 FFF7FEFF 		bl	__aeabi_lmul
 4830              	.LVL800:
 4831 09dc 2300     		movs	r3, r4
 4832 09de 2C00     		movs	r4, r5
 4833 09e0 1B18     		adds	r3, r3, r0
 4834 09e2 4C41     		adcs	r4, r4, r1
 4835 09e4 0293     		str	r3, [sp, #8]
 4836 09e6 0394     		str	r4, [sp, #12]
 4837              	.LVL801:
 462:sc.c          ****     s15 = a4 * b11 + a5 * b10 + a6 * b9 + a7 * b8 + a8 * b7 + a9 * b6 + a10 * b5 + a11 * b4;
 4838              		.loc 1 462 0
 4839 09e8 3200     		movs	r2, r6
ARM GAS  C:\Users\NIGHDR~1\AppData\Local\Temp\ccvJ0Ig2.s 			page 94


 4840 09ea 289B     		ldr	r3, [sp, #160]
 4841              	.LVL802:
 4842 09ec 0498     		ldr	r0, [sp, #16]
 4843 09ee 0021     		movs	r1, #0
 4844 09f0 FFF7FEFF 		bl	__aeabi_lmul
 4845              	.LVL803:
 4846 09f4 0400     		movs	r4, r0
 4847 09f6 0D00     		movs	r5, r1
 4848 09f8 269A     		ldr	r2, [sp, #152]
 4849 09fa 0023     		movs	r3, #0
 4850 09fc 0698     		ldr	r0, [sp, #24]
 4851 09fe 0021     		movs	r1, #0
 4852 0a00 FFF7FEFF 		bl	__aeabi_lmul
 4853              	.LVL804:
 4854 0a04 2418     		adds	r4, r4, r0
 4855 0a06 4D41     		adcs	r5, r5, r1
 4856 0a08 249A     		ldr	r2, [sp, #144]
 4857 0a0a 0023     		movs	r3, #0
 4858 0a0c 0898     		ldr	r0, [sp, #32]
 4859 0a0e 0021     		movs	r1, #0
 4860 0a10 FFF7FEFF 		bl	__aeabi_lmul
 4861              	.LVL805:
 4862 0a14 2418     		adds	r4, r4, r0
 4863 0a16 4D41     		adcs	r5, r5, r1
 4864 0a18 229A     		ldr	r2, [sp, #136]
 4865 0a1a 0023     		movs	r3, #0
 4866 0a1c 0A98     		ldr	r0, [sp, #40]
 4867 0a1e 0021     		movs	r1, #0
 4868 0a20 FFF7FEFF 		bl	__aeabi_lmul
 4869              	.LVL806:
 4870 0a24 2418     		adds	r4, r4, r0
 4871 0a26 4D41     		adcs	r5, r5, r1
 4872 0a28 209A     		ldr	r2, [sp, #128]
 4873 0a2a 0023     		movs	r3, #0
 4874 0a2c 0C98     		ldr	r0, [sp, #48]
 4875 0a2e 0021     		movs	r1, #0
 4876 0a30 FFF7FEFF 		bl	__aeabi_lmul
 4877              	.LVL807:
 4878 0a34 2418     		adds	r4, r4, r0
 4879 0a36 4D41     		adcs	r5, r5, r1
 4880 0a38 1E9A     		ldr	r2, [sp, #120]
 4881 0a3a 0023     		movs	r3, #0
 4882 0a3c 0E98     		ldr	r0, [sp, #56]
 4883 0a3e 0021     		movs	r1, #0
 4884 0a40 FFF7FEFF 		bl	__aeabi_lmul
 4885              	.LVL808:
 4886 0a44 2418     		adds	r4, r4, r0
 4887 0a46 4D41     		adcs	r5, r5, r1
 4888 0a48 1C9A     		ldr	r2, [sp, #112]
 4889 0a4a 0023     		movs	r3, #0
 4890 0a4c 1098     		ldr	r0, [sp, #64]
 4891 0a4e 0021     		movs	r1, #0
 4892 0a50 FFF7FEFF 		bl	__aeabi_lmul
 4893              	.LVL809:
 4894 0a54 2418     		adds	r4, r4, r0
 4895 0a56 4D41     		adcs	r5, r5, r1
 4896 0a58 1A9A     		ldr	r2, [sp, #104]
ARM GAS  C:\Users\NIGHDR~1\AppData\Local\Temp\ccvJ0Ig2.s 			page 95


 4897 0a5a 0023     		movs	r3, #0
 4898 0a5c 3800     		movs	r0, r7
 4899 0a5e 1299     		ldr	r1, [sp, #72]
 4900 0a60 FFF7FEFF 		bl	__aeabi_lmul
 4901              	.LVL810:
 4902 0a64 2200     		movs	r2, r4
 4903 0a66 2B00     		movs	r3, r5
 4904 0a68 1218     		adds	r2, r2, r0
 4905 0a6a 4B41     		adcs	r3, r3, r1
 4906 0a6c 1892     		str	r2, [sp, #96]
 4907 0a6e 1993     		str	r3, [sp, #100]
 4908              	.LVL811:
 463:sc.c          ****     s16 = a5 * b11 + a6 * b10 + a7 * b9 + a8 * b8 + a9 * b7 + a10 * b6 + a11 * b5;
 4909              		.loc 1 463 0
 4910 0a70 2C96     		str	r6, [sp, #176]
 4911              	.LVL812:
 4912 0a72 3200     		movs	r2, r6
 4913              	.LVL813:
 4914 0a74 289B     		ldr	r3, [sp, #160]
 4915 0a76 0698     		ldr	r0, [sp, #24]
 4916 0a78 0021     		movs	r1, #0
 4917 0a7a FFF7FEFF 		bl	__aeabi_lmul
 4918              	.LVL814:
 4919 0a7e 0400     		movs	r4, r0
 4920 0a80 0D00     		movs	r5, r1
 4921 0a82 269A     		ldr	r2, [sp, #152]
 4922 0a84 0023     		movs	r3, #0
 4923 0a86 0898     		ldr	r0, [sp, #32]
 4924 0a88 0021     		movs	r1, #0
 4925 0a8a FFF7FEFF 		bl	__aeabi_lmul
 4926              	.LVL815:
 4927 0a8e 2418     		adds	r4, r4, r0
 4928 0a90 4D41     		adcs	r5, r5, r1
 4929 0a92 249A     		ldr	r2, [sp, #144]
 4930 0a94 0023     		movs	r3, #0
 4931 0a96 0A98     		ldr	r0, [sp, #40]
 4932 0a98 0021     		movs	r1, #0
 4933 0a9a FFF7FEFF 		bl	__aeabi_lmul
 4934              	.LVL816:
 4935 0a9e 2418     		adds	r4, r4, r0
 4936 0aa0 4D41     		adcs	r5, r5, r1
 4937 0aa2 229A     		ldr	r2, [sp, #136]
 4938 0aa4 0023     		movs	r3, #0
 4939 0aa6 0C98     		ldr	r0, [sp, #48]
 4940 0aa8 0021     		movs	r1, #0
 4941 0aaa FFF7FEFF 		bl	__aeabi_lmul
 4942              	.LVL817:
 4943 0aae 2418     		adds	r4, r4, r0
 4944 0ab0 4D41     		adcs	r5, r5, r1
 4945 0ab2 209A     		ldr	r2, [sp, #128]
 4946 0ab4 0023     		movs	r3, #0
 4947 0ab6 0E98     		ldr	r0, [sp, #56]
 4948 0ab8 0021     		movs	r1, #0
 4949 0aba FFF7FEFF 		bl	__aeabi_lmul
 4950              	.LVL818:
 4951 0abe 2418     		adds	r4, r4, r0
 4952 0ac0 4D41     		adcs	r5, r5, r1
ARM GAS  C:\Users\NIGHDR~1\AppData\Local\Temp\ccvJ0Ig2.s 			page 96


 4953 0ac2 1E9A     		ldr	r2, [sp, #120]
 4954 0ac4 0023     		movs	r3, #0
 4955 0ac6 1098     		ldr	r0, [sp, #64]
 4956 0ac8 0021     		movs	r1, #0
 4957 0aca FFF7FEFF 		bl	__aeabi_lmul
 4958              	.LVL819:
 4959 0ace 2418     		adds	r4, r4, r0
 4960 0ad0 4D41     		adcs	r5, r5, r1
 4961 0ad2 1C9A     		ldr	r2, [sp, #112]
 4962 0ad4 0023     		movs	r3, #0
 4963 0ad6 3800     		movs	r0, r7
 4964 0ad8 1299     		ldr	r1, [sp, #72]
 4965 0ada FFF7FEFF 		bl	__aeabi_lmul
 4966              	.LVL820:
 4967 0ade 2E00     		movs	r6, r5
 4968              	.LVL821:
 4969 0ae0 2500     		movs	r5, r4
 4970 0ae2 2D18     		adds	r5, r5, r0
 4971 0ae4 4E41     		adcs	r6, r6, r1
 4972 0ae6 0495     		str	r5, [sp, #16]
 4973 0ae8 0596     		str	r6, [sp, #20]
 4974              	.LVL822:
 464:sc.c          ****     s17 = a6 * b11 + a7 * b10 + a8 * b9 + a9 * b8 + a10 * b7 + a11 * b6;
 4975              		.loc 1 464 0
 4976 0aea 2C9E     		ldr	r6, [sp, #176]
 4977 0aec 3200     		movs	r2, r6
 4978 0aee 289B     		ldr	r3, [sp, #160]
 4979 0af0 0898     		ldr	r0, [sp, #32]
 4980 0af2 0021     		movs	r1, #0
 4981 0af4 FFF7FEFF 		bl	__aeabi_lmul
 4982              	.LVL823:
 4983 0af8 0400     		movs	r4, r0
 4984 0afa 0D00     		movs	r5, r1
 4985              	.LVL824:
 4986 0afc 269A     		ldr	r2, [sp, #152]
 4987 0afe 0023     		movs	r3, #0
 4988 0b00 0A98     		ldr	r0, [sp, #40]
 4989 0b02 0021     		movs	r1, #0
 4990 0b04 FFF7FEFF 		bl	__aeabi_lmul
 4991              	.LVL825:
 4992 0b08 2418     		adds	r4, r4, r0
 4993 0b0a 4D41     		adcs	r5, r5, r1
 4994 0b0c 249A     		ldr	r2, [sp, #144]
 4995 0b0e 0023     		movs	r3, #0
 4996 0b10 0C98     		ldr	r0, [sp, #48]
 4997 0b12 0021     		movs	r1, #0
 4998 0b14 FFF7FEFF 		bl	__aeabi_lmul
 4999              	.LVL826:
 5000 0b18 2418     		adds	r4, r4, r0
 5001 0b1a 4D41     		adcs	r5, r5, r1
 5002 0b1c 229A     		ldr	r2, [sp, #136]
 5003 0b1e 0023     		movs	r3, #0
 5004 0b20 0E98     		ldr	r0, [sp, #56]
 5005 0b22 0021     		movs	r1, #0
 5006 0b24 FFF7FEFF 		bl	__aeabi_lmul
 5007              	.LVL827:
 5008 0b28 2418     		adds	r4, r4, r0
ARM GAS  C:\Users\NIGHDR~1\AppData\Local\Temp\ccvJ0Ig2.s 			page 97


 5009 0b2a 4D41     		adcs	r5, r5, r1
 5010 0b2c 209A     		ldr	r2, [sp, #128]
 5011 0b2e 0023     		movs	r3, #0
 5012 0b30 1098     		ldr	r0, [sp, #64]
 5013 0b32 0021     		movs	r1, #0
 5014 0b34 FFF7FEFF 		bl	__aeabi_lmul
 5015              	.LVL828:
 5016 0b38 2418     		adds	r4, r4, r0
 5017 0b3a 4D41     		adcs	r5, r5, r1
 5018 0b3c 1E9A     		ldr	r2, [sp, #120]
 5019 0b3e 0023     		movs	r3, #0
 5020 0b40 3800     		movs	r0, r7
 5021 0b42 1299     		ldr	r1, [sp, #72]
 5022 0b44 FFF7FEFF 		bl	__aeabi_lmul
 5023              	.LVL829:
 5024 0b48 2300     		movs	r3, r4
 5025 0b4a 2C00     		movs	r4, r5
 5026 0b4c 1B18     		adds	r3, r3, r0
 5027 0b4e 4C41     		adcs	r4, r4, r1
 5028 0b50 1C93     		str	r3, [sp, #112]
 5029 0b52 1D94     		str	r4, [sp, #116]
 5030              	.LVL830:
 465:sc.c          ****     s18 = a7 * b11 + a8 * b10 + a9 * b9 + a10 * b8 + a11 * b7;
 5031              		.loc 1 465 0
 5032 0b54 3200     		movs	r2, r6
 5033 0b56 289B     		ldr	r3, [sp, #160]
 5034              	.LVL831:
 5035 0b58 0A98     		ldr	r0, [sp, #40]
 5036 0b5a 0021     		movs	r1, #0
 5037 0b5c FFF7FEFF 		bl	__aeabi_lmul
 5038              	.LVL832:
 5039 0b60 0400     		movs	r4, r0
 5040 0b62 0D00     		movs	r5, r1
 5041 0b64 269A     		ldr	r2, [sp, #152]
 5042 0b66 0023     		movs	r3, #0
 5043 0b68 0C98     		ldr	r0, [sp, #48]
 5044 0b6a 0021     		movs	r1, #0
 5045 0b6c FFF7FEFF 		bl	__aeabi_lmul
 5046              	.LVL833:
 5047 0b70 2418     		adds	r4, r4, r0
 5048 0b72 4D41     		adcs	r5, r5, r1
 5049 0b74 249A     		ldr	r2, [sp, #144]
 5050 0b76 0023     		movs	r3, #0
 5051 0b78 0E98     		ldr	r0, [sp, #56]
 5052 0b7a 0021     		movs	r1, #0
 5053 0b7c FFF7FEFF 		bl	__aeabi_lmul
 5054              	.LVL834:
 5055 0b80 2418     		adds	r4, r4, r0
 5056 0b82 4D41     		adcs	r5, r5, r1
 5057 0b84 229A     		ldr	r2, [sp, #136]
 5058 0b86 0023     		movs	r3, #0
 5059 0b88 1098     		ldr	r0, [sp, #64]
 5060 0b8a 0021     		movs	r1, #0
 5061 0b8c FFF7FEFF 		bl	__aeabi_lmul
 5062              	.LVL835:
 5063 0b90 2418     		adds	r4, r4, r0
 5064 0b92 4D41     		adcs	r5, r5, r1
ARM GAS  C:\Users\NIGHDR~1\AppData\Local\Temp\ccvJ0Ig2.s 			page 98


 5065 0b94 209A     		ldr	r2, [sp, #128]
 5066 0b96 0023     		movs	r3, #0
 5067 0b98 3800     		movs	r0, r7
 5068 0b9a 1299     		ldr	r1, [sp, #72]
 5069 0b9c FFF7FEFF 		bl	__aeabi_lmul
 5070              	.LVL836:
 5071 0ba0 2300     		movs	r3, r4
 5072 0ba2 2C00     		movs	r4, r5
 5073 0ba4 1B18     		adds	r3, r3, r0
 5074 0ba6 4C41     		adcs	r4, r4, r1
 5075 0ba8 0693     		str	r3, [sp, #24]
 5076 0baa 0794     		str	r4, [sp, #28]
 5077              	.LVL837:
 466:sc.c          ****     s19 = a8 * b11 + a9 * b10 + a10 * b9 + a11 * b8;
 5078              		.loc 1 466 0
 5079 0bac 3200     		movs	r2, r6
 5080 0bae 289B     		ldr	r3, [sp, #160]
 5081              	.LVL838:
 5082 0bb0 0C98     		ldr	r0, [sp, #48]
 5083 0bb2 0021     		movs	r1, #0
 5084 0bb4 FFF7FEFF 		bl	__aeabi_lmul
 5085              	.LVL839:
 5086 0bb8 0400     		movs	r4, r0
 5087 0bba 0D00     		movs	r5, r1
 5088 0bbc 269A     		ldr	r2, [sp, #152]
 5089 0bbe 0023     		movs	r3, #0
 5090 0bc0 0E98     		ldr	r0, [sp, #56]
 5091 0bc2 0021     		movs	r1, #0
 5092 0bc4 FFF7FEFF 		bl	__aeabi_lmul
 5093              	.LVL840:
 5094 0bc8 2418     		adds	r4, r4, r0
 5095 0bca 4D41     		adcs	r5, r5, r1
 5096 0bcc 249A     		ldr	r2, [sp, #144]
 5097 0bce 0023     		movs	r3, #0
 5098 0bd0 1098     		ldr	r0, [sp, #64]
 5099 0bd2 0021     		movs	r1, #0
 5100 0bd4 FFF7FEFF 		bl	__aeabi_lmul
 5101              	.LVL841:
 5102 0bd8 2418     		adds	r4, r4, r0
 5103 0bda 4D41     		adcs	r5, r5, r1
 5104 0bdc 229A     		ldr	r2, [sp, #136]
 5105 0bde 0023     		movs	r3, #0
 5106 0be0 3800     		movs	r0, r7
 5107 0be2 1299     		ldr	r1, [sp, #72]
 5108 0be4 FFF7FEFF 		bl	__aeabi_lmul
 5109              	.LVL842:
 5110 0be8 2200     		movs	r2, r4
 5111 0bea 2B00     		movs	r3, r5
 5112 0bec 1218     		adds	r2, r2, r0
 5113 0bee 4B41     		adcs	r3, r3, r1
 5114 0bf0 1E92     		str	r2, [sp, #120]
 5115 0bf2 1F93     		str	r3, [sp, #124]
 5116              	.LVL843:
 467:sc.c          ****     s20 = a9 * b11 + a10 * b10 + a11 * b9;
 5117              		.loc 1 467 0
 5118 0bf4 3200     		movs	r2, r6
 5119              	.LVL844:
ARM GAS  C:\Users\NIGHDR~1\AppData\Local\Temp\ccvJ0Ig2.s 			page 99


 5120 0bf6 289B     		ldr	r3, [sp, #160]
 5121 0bf8 0E98     		ldr	r0, [sp, #56]
 5122 0bfa 0021     		movs	r1, #0
 5123 0bfc FFF7FEFF 		bl	__aeabi_lmul
 5124              	.LVL845:
 5125 0c00 0400     		movs	r4, r0
 5126 0c02 0D00     		movs	r5, r1
 5127 0c04 269A     		ldr	r2, [sp, #152]
 5128 0c06 0023     		movs	r3, #0
 5129 0c08 1098     		ldr	r0, [sp, #64]
 5130 0c0a 0021     		movs	r1, #0
 5131 0c0c FFF7FEFF 		bl	__aeabi_lmul
 5132              	.LVL846:
 5133 0c10 2418     		adds	r4, r4, r0
 5134 0c12 4D41     		adcs	r5, r5, r1
 5135 0c14 249A     		ldr	r2, [sp, #144]
 5136 0c16 0023     		movs	r3, #0
 5137 0c18 3800     		movs	r0, r7
 5138 0c1a 1299     		ldr	r1, [sp, #72]
 5139 0c1c FFF7FEFF 		bl	__aeabi_lmul
 5140              	.LVL847:
 5141 0c20 2300     		movs	r3, r4
 5142 0c22 2C00     		movs	r4, r5
 5143 0c24 1B18     		adds	r3, r3, r0
 5144 0c26 4C41     		adcs	r4, r4, r1
 5145 0c28 0893     		str	r3, [sp, #32]
 5146 0c2a 0994     		str	r4, [sp, #36]
 5147              	.LVL848:
 468:sc.c          ****     s21 = a10 * b11 + a11 * b10;
 5148              		.loc 1 468 0
 5149 0c2c 3200     		movs	r2, r6
 5150 0c2e 289B     		ldr	r3, [sp, #160]
 5151              	.LVL849:
 5152 0c30 1098     		ldr	r0, [sp, #64]
 5153 0c32 0021     		movs	r1, #0
 5154 0c34 FFF7FEFF 		bl	__aeabi_lmul
 5155              	.LVL850:
 5156 0c38 0400     		movs	r4, r0
 5157 0c3a 0D00     		movs	r5, r1
 5158 0c3c 269A     		ldr	r2, [sp, #152]
 5159 0c3e 0023     		movs	r3, #0
 5160 0c40 3800     		movs	r0, r7
 5161 0c42 1299     		ldr	r1, [sp, #72]
 5162 0c44 FFF7FEFF 		bl	__aeabi_lmul
 5163              	.LVL851:
 5164 0c48 2200     		movs	r2, r4
 5165 0c4a 2B00     		movs	r3, r5
 5166 0c4c 1218     		adds	r2, r2, r0
 5167 0c4e 4B41     		adcs	r3, r3, r1
 5168 0c50 2092     		str	r2, [sp, #128]
 5169 0c52 2193     		str	r3, [sp, #132]
 5170              	.LVL852:
 469:sc.c          ****     s22 = a11 * b11;
 5171              		.loc 1 469 0
 5172 0c54 3200     		movs	r2, r6
 5173              	.LVL853:
 5174 0c56 289B     		ldr	r3, [sp, #160]
ARM GAS  C:\Users\NIGHDR~1\AppData\Local\Temp\ccvJ0Ig2.s 			page 100


 5175 0c58 3800     		movs	r0, r7
 5176 0c5a 1299     		ldr	r1, [sp, #72]
 5177 0c5c FFF7FEFF 		bl	__aeabi_lmul
 5178              	.LVL854:
 5179 0c60 1A90     		str	r0, [sp, #104]
 5180 0c62 1B91     		str	r1, [sp, #108]
 5181              	.LVL855:
 470:sc.c          ****     s23 = 0;
 471:sc.c          ****     carry0 = (s0 + (1 << 20)) >> 21;
 5182              		.loc 1 471 0
 5183 0c64 8022     		movs	r2, #128
 5184 0c66 5203     		lsls	r2, r2, #13
 5185 0c68 0023     		movs	r3, #0
 5186 0c6a 2E9D     		ldr	r5, [sp, #184]
 5187 0c6c 2F9E     		ldr	r6, [sp, #188]
 5188 0c6e AD18     		adds	r5, r5, r2
 5189 0c70 5E41     		adcs	r6, r6, r3
 5190 0c72 2C00     		movs	r4, r5
 5191 0c74 3500     		movs	r5, r6
 5192 0c76 F602     		lsls	r6, r6, #11
 5193 0c78 610D     		lsrs	r1, r4, #21
 5194 0c7a 3143     		orrs	r1, r6
 5195 0c7c 0091     		str	r1, [sp]
 5196              	.LVL856:
 5197 0c7e 6915     		asrs	r1, r5, #21
 5198 0c80 0191     		str	r1, [sp, #4]
 5199              	.LVL857:
 472:sc.c          ****     s1 += carry0;
 5200              		.loc 1 472 0
 5201 0c82 489D     		ldr	r5, [sp, #288]
 5202 0c84 499E     		ldr	r6, [sp, #292]
 5203 0c86 0098     		ldr	r0, [sp]
 5204 0c88 0199     		ldr	r1, [sp, #4]
 5205              	.LVL858:
 5206 0c8a 2D18     		adds	r5, r5, r0
 5207 0c8c 4E41     		adcs	r6, r6, r1
 5208 0c8e 3700     		movs	r7, r6
 5209 0c90 2E00     		movs	r6, r5
 5210              	.LVL859:
 473:sc.c          ****     s0 -= carry0 << 21;
 5211              		.loc 1 473 0
 5212 0c92 C50A     		lsrs	r5, r0, #11
 5213 0c94 AC46     		mov	ip, r5
 5214 0c96 4D05     		lsls	r5, r1, #21
 5215 0c98 6146     		mov	r1, ip
 5216 0c9a 0D43     		orrs	r5, r1
 5217 0c9c 0099     		ldr	r1, [sp]
 5218 0c9e 4C05     		lsls	r4, r1, #21
 5219 0ca0 2E98     		ldr	r0, [sp, #184]
 5220 0ca2 2F99     		ldr	r1, [sp, #188]
 5221 0ca4 001B     		subs	r0, r0, r4
 5222 0ca6 A941     		sbcs	r1, r1, r5
 5223 0ca8 2290     		str	r0, [sp, #136]
 5224 0caa 2391     		str	r1, [sp, #140]
 5225              	.LVL860:
 474:sc.c          ****     carry2 = (s2 + (1 << 20)) >> 21;
 5226              		.loc 1 474 0
ARM GAS  C:\Users\NIGHDR~1\AppData\Local\Temp\ccvJ0Ig2.s 			page 101


 5227 0cac 3098     		ldr	r0, [sp, #192]
 5228 0cae 3199     		ldr	r1, [sp, #196]
 5229              	.LVL861:
 5230 0cb0 8018     		adds	r0, r0, r2
 5231 0cb2 5941     		adcs	r1, r1, r3
 5232 0cb4 0400     		movs	r4, r0
 5233 0cb6 0D00     		movs	r5, r1
 5234 0cb8 C902     		lsls	r1, r1, #11
 5235 0cba 8C46     		mov	ip, r1
 5236 0cbc 2900     		movs	r1, r5
 5237 0cbe 640D     		lsrs	r4, r4, #21
 5238 0cc0 6546     		mov	r5, ip
 5239 0cc2 2C43     		orrs	r4, r5
 5240 0cc4 0094     		str	r4, [sp]
 5241              	.LVL862:
 5242 0cc6 4915     		asrs	r1, r1, #21
 5243 0cc8 0191     		str	r1, [sp, #4]
 5244              	.LVL863:
 475:sc.c          ****     s3 += carry2;
 5245              		.loc 1 475 0
 5246 0cca 4A9C     		ldr	r4, [sp, #296]
 5247 0ccc 4B9D     		ldr	r5, [sp, #300]
 5248 0cce 0098     		ldr	r0, [sp]
 5249 0cd0 0199     		ldr	r1, [sp, #4]
 5250 0cd2 2418     		adds	r4, r4, r0
 5251 0cd4 4D41     		adcs	r5, r5, r1
 5252 0cd6 0A94     		str	r4, [sp, #40]
 5253 0cd8 0B95     		str	r5, [sp, #44]
 5254              	.LVL864:
 476:sc.c          ****     s2 -= carry2 << 21;
 5255              		.loc 1 476 0
 5256 0cda C50A     		lsrs	r5, r0, #11
 5257 0cdc AC46     		mov	ip, r5
 5258 0cde 4D05     		lsls	r5, r1, #21
 5259 0ce0 6146     		mov	r1, ip
 5260 0ce2 0D43     		orrs	r5, r1
 5261 0ce4 0099     		ldr	r1, [sp]
 5262 0ce6 4C05     		lsls	r4, r1, #21
 5263              	.LVL865:
 5264 0ce8 3098     		ldr	r0, [sp, #192]
 5265 0cea 3199     		ldr	r1, [sp, #196]
 5266 0cec 001B     		subs	r0, r0, r4
 5267 0cee A941     		sbcs	r1, r1, r5
 5268 0cf0 2490     		str	r0, [sp, #144]
 5269 0cf2 2591     		str	r1, [sp, #148]
 5270              	.LVL866:
 477:sc.c          ****     carry4 = (s4 + (1 << 20)) >> 21;
 5271              		.loc 1 477 0
 5272 0cf4 3298     		ldr	r0, [sp, #200]
 5273 0cf6 3399     		ldr	r1, [sp, #204]
 5274              	.LVL867:
 5275 0cf8 8018     		adds	r0, r0, r2
 5276 0cfa 5941     		adcs	r1, r1, r3
 5277 0cfc 0400     		movs	r4, r0
 5278 0cfe 0D00     		movs	r5, r1
 5279 0d00 C902     		lsls	r1, r1, #11
 5280 0d02 8C46     		mov	ip, r1
ARM GAS  C:\Users\NIGHDR~1\AppData\Local\Temp\ccvJ0Ig2.s 			page 102


 5281 0d04 2900     		movs	r1, r5
 5282 0d06 640D     		lsrs	r4, r4, #21
 5283 0d08 6546     		mov	r5, ip
 5284 0d0a 2C43     		orrs	r4, r5
 5285 0d0c 0094     		str	r4, [sp]
 5286              	.LVL868:
 5287 0d0e 4915     		asrs	r1, r1, #21
 5288 0d10 0191     		str	r1, [sp, #4]
 5289              	.LVL869:
 478:sc.c          ****     s5 += carry4;
 5290              		.loc 1 478 0
 5291 0d12 4C9C     		ldr	r4, [sp, #304]
 5292 0d14 4D9D     		ldr	r5, [sp, #308]
 5293 0d16 0098     		ldr	r0, [sp]
 5294 0d18 0199     		ldr	r1, [sp, #4]
 5295 0d1a 2418     		adds	r4, r4, r0
 5296 0d1c 4D41     		adcs	r5, r5, r1
 5297 0d1e 0C94     		str	r4, [sp, #48]
 5298 0d20 0D95     		str	r5, [sp, #52]
 5299              	.LVL870:
 479:sc.c          ****     s4 -= carry4 << 21;
 5300              		.loc 1 479 0
 5301 0d22 C50A     		lsrs	r5, r0, #11
 5302 0d24 AC46     		mov	ip, r5
 5303 0d26 4D05     		lsls	r5, r1, #21
 5304 0d28 6146     		mov	r1, ip
 5305 0d2a 0D43     		orrs	r5, r1
 5306 0d2c 0099     		ldr	r1, [sp]
 5307 0d2e 4C05     		lsls	r4, r1, #21
 5308              	.LVL871:
 5309 0d30 3298     		ldr	r0, [sp, #200]
 5310 0d32 3399     		ldr	r1, [sp, #204]
 5311 0d34 001B     		subs	r0, r0, r4
 5312 0d36 A941     		sbcs	r1, r1, r5
 5313 0d38 2690     		str	r0, [sp, #152]
 5314 0d3a 2791     		str	r1, [sp, #156]
 5315              	.LVL872:
 480:sc.c          ****     carry6 = (s6 + (1 << 20)) >> 21;
 5316              		.loc 1 480 0
 5317 0d3c 3498     		ldr	r0, [sp, #208]
 5318 0d3e 3599     		ldr	r1, [sp, #212]
 5319              	.LVL873:
 5320 0d40 8018     		adds	r0, r0, r2
 5321 0d42 5941     		adcs	r1, r1, r3
 5322 0d44 0400     		movs	r4, r0
 5323 0d46 0D00     		movs	r5, r1
 5324 0d48 C902     		lsls	r1, r1, #11
 5325 0d4a 8C46     		mov	ip, r1
 5326 0d4c 2900     		movs	r1, r5
 5327 0d4e 640D     		lsrs	r4, r4, #21
 5328 0d50 6546     		mov	r5, ip
 5329 0d52 2C43     		orrs	r4, r5
 5330 0d54 0094     		str	r4, [sp]
 5331              	.LVL874:
 5332 0d56 4915     		asrs	r1, r1, #21
 5333 0d58 0191     		str	r1, [sp, #4]
 5334              	.LVL875:
ARM GAS  C:\Users\NIGHDR~1\AppData\Local\Temp\ccvJ0Ig2.s 			page 103


 481:sc.c          ****     s7 += carry6;
 5335              		.loc 1 481 0
 5336 0d5a 3A9C     		ldr	r4, [sp, #232]
 5337 0d5c 3B9D     		ldr	r5, [sp, #236]
 5338 0d5e 0098     		ldr	r0, [sp]
 5339 0d60 0199     		ldr	r1, [sp, #4]
 5340 0d62 2418     		adds	r4, r4, r0
 5341 0d64 4D41     		adcs	r5, r5, r1
 5342 0d66 0E94     		str	r4, [sp, #56]
 5343 0d68 0F95     		str	r5, [sp, #60]
 5344              	.LVL876:
 482:sc.c          ****     s6 -= carry6 << 21;
 5345              		.loc 1 482 0
 5346 0d6a C50A     		lsrs	r5, r0, #11
 5347 0d6c AC46     		mov	ip, r5
 5348 0d6e 4D05     		lsls	r5, r1, #21
 5349 0d70 6146     		mov	r1, ip
 5350 0d72 0D43     		orrs	r5, r1
 5351 0d74 0099     		ldr	r1, [sp]
 5352 0d76 4C05     		lsls	r4, r1, #21
 5353              	.LVL877:
 5354 0d78 3498     		ldr	r0, [sp, #208]
 5355 0d7a 3599     		ldr	r1, [sp, #212]
 5356 0d7c 001B     		subs	r0, r0, r4
 5357 0d7e A941     		sbcs	r1, r1, r5
 5358 0d80 2890     		str	r0, [sp, #160]
 5359 0d82 2991     		str	r1, [sp, #164]
 5360              	.LVL878:
 483:sc.c          ****     carry8 = (s8 + (1 << 20)) >> 21;
 5361              		.loc 1 483 0
 5362 0d84 3698     		ldr	r0, [sp, #216]
 5363 0d86 3799     		ldr	r1, [sp, #220]
 5364              	.LVL879:
 5365 0d88 8018     		adds	r0, r0, r2
 5366 0d8a 5941     		adcs	r1, r1, r3
 5367 0d8c 0400     		movs	r4, r0
 5368 0d8e 0D00     		movs	r5, r1
 5369 0d90 C902     		lsls	r1, r1, #11
 5370 0d92 8C46     		mov	ip, r1
 5371 0d94 2900     		movs	r1, r5
 5372 0d96 640D     		lsrs	r4, r4, #21
 5373 0d98 6546     		mov	r5, ip
 5374 0d9a 2C43     		orrs	r4, r5
 5375 0d9c 0094     		str	r4, [sp]
 5376              	.LVL880:
 5377 0d9e 4915     		asrs	r1, r1, #21
 5378 0da0 0191     		str	r1, [sp, #4]
 5379              	.LVL881:
 484:sc.c          ****     s9 += carry8;
 5380              		.loc 1 484 0
 5381 0da2 3C9C     		ldr	r4, [sp, #240]
 5382 0da4 3D9D     		ldr	r5, [sp, #244]
 5383 0da6 0098     		ldr	r0, [sp]
 5384 0da8 0199     		ldr	r1, [sp, #4]
 5385 0daa 2418     		adds	r4, r4, r0
 5386 0dac 4D41     		adcs	r5, r5, r1
 5387 0dae 1094     		str	r4, [sp, #64]
ARM GAS  C:\Users\NIGHDR~1\AppData\Local\Temp\ccvJ0Ig2.s 			page 104


 5388 0db0 1195     		str	r5, [sp, #68]
 5389              	.LVL882:
 485:sc.c          ****     s8 -= carry8 << 21;
 5390              		.loc 1 485 0
 5391 0db2 C50A     		lsrs	r5, r0, #11
 5392 0db4 AC46     		mov	ip, r5
 5393 0db6 4D05     		lsls	r5, r1, #21
 5394 0db8 6146     		mov	r1, ip
 5395 0dba 0D43     		orrs	r5, r1
 5396 0dbc 0099     		ldr	r1, [sp]
 5397 0dbe 4C05     		lsls	r4, r1, #21
 5398              	.LVL883:
 5399 0dc0 3698     		ldr	r0, [sp, #216]
 5400 0dc2 3799     		ldr	r1, [sp, #220]
 5401 0dc4 001B     		subs	r0, r0, r4
 5402 0dc6 A941     		sbcs	r1, r1, r5
 5403 0dc8 2C90     		str	r0, [sp, #176]
 5404 0dca 2D91     		str	r1, [sp, #180]
 5405              	.LVL884:
 486:sc.c          ****     carry10 = (s10 + (1 << 20)) >> 21;
 5406              		.loc 1 486 0
 5407 0dcc 3898     		ldr	r0, [sp, #224]
 5408 0dce 3999     		ldr	r1, [sp, #228]
 5409              	.LVL885:
 5410 0dd0 8018     		adds	r0, r0, r2
 5411 0dd2 5941     		adcs	r1, r1, r3
 5412 0dd4 0400     		movs	r4, r0
 5413 0dd6 0D00     		movs	r5, r1
 5414 0dd8 C902     		lsls	r1, r1, #11
 5415 0dda 8C46     		mov	ip, r1
 5416 0ddc 2900     		movs	r1, r5
 5417 0dde 640D     		lsrs	r4, r4, #21
 5418 0de0 6546     		mov	r5, ip
 5419 0de2 2C43     		orrs	r4, r5
 5420 0de4 0094     		str	r4, [sp]
 5421              	.LVL886:
 5422 0de6 4915     		asrs	r1, r1, #21
 5423 0de8 0191     		str	r1, [sp, #4]
 5424              	.LVL887:
 487:sc.c          ****     s11 += carry10;
 5425              		.loc 1 487 0
 5426 0dea 2A9C     		ldr	r4, [sp, #168]
 5427 0dec 2B9D     		ldr	r5, [sp, #172]
 5428 0dee 0098     		ldr	r0, [sp]
 5429 0df0 0199     		ldr	r1, [sp, #4]
 5430 0df2 2418     		adds	r4, r4, r0
 5431 0df4 4D41     		adcs	r5, r5, r1
 5432 0df6 1294     		str	r4, [sp, #72]
 5433 0df8 1395     		str	r5, [sp, #76]
 5434              	.LVL888:
 488:sc.c          ****     s10 -= carry10 << 21;
 5435              		.loc 1 488 0
 5436 0dfa C50A     		lsrs	r5, r0, #11
 5437 0dfc AC46     		mov	ip, r5
 5438 0dfe 4D05     		lsls	r5, r1, #21
 5439 0e00 6146     		mov	r1, ip
 5440 0e02 0D43     		orrs	r5, r1
ARM GAS  C:\Users\NIGHDR~1\AppData\Local\Temp\ccvJ0Ig2.s 			page 105


 5441 0e04 0099     		ldr	r1, [sp]
 5442 0e06 4C05     		lsls	r4, r1, #21
 5443              	.LVL889:
 5444 0e08 3898     		ldr	r0, [sp, #224]
 5445 0e0a 3999     		ldr	r1, [sp, #228]
 5446 0e0c 001B     		subs	r0, r0, r4
 5447 0e0e A941     		sbcs	r1, r1, r5
 5448 0e10 2A90     		str	r0, [sp, #168]
 5449 0e12 2B91     		str	r1, [sp, #172]
 5450              	.LVL890:
 489:sc.c          ****     carry12 = (s12 + (1 << 20)) >> 21;
 5451              		.loc 1 489 0
 5452 0e14 149C     		ldr	r4, [sp, #80]
 5453 0e16 159D     		ldr	r5, [sp, #84]
 5454 0e18 A418     		adds	r4, r4, r2
 5455 0e1a 5D41     		adcs	r5, r5, r3
 5456 0e1c E902     		lsls	r1, r5, #11
 5457 0e1e 8C46     		mov	ip, r1
 5458 0e20 2900     		movs	r1, r5
 5459 0e22 640D     		lsrs	r4, r4, #21
 5460 0e24 6546     		mov	r5, ip
 5461 0e26 2C43     		orrs	r4, r5
 5462 0e28 0094     		str	r4, [sp]
 5463              	.LVL891:
 5464 0e2a 4915     		asrs	r1, r1, #21
 5465 0e2c 0191     		str	r1, [sp, #4]
 5466              	.LVL892:
 490:sc.c          ****     s13 += carry12;
 5467              		.loc 1 490 0
 5468 0e2e 169C     		ldr	r4, [sp, #88]
 5469 0e30 179D     		ldr	r5, [sp, #92]
 5470 0e32 0098     		ldr	r0, [sp]
 5471 0e34 0199     		ldr	r1, [sp, #4]
 5472              	.LVL893:
 5473 0e36 2418     		adds	r4, r4, r0
 5474 0e38 4D41     		adcs	r5, r5, r1
 5475 0e3a 1694     		str	r4, [sp, #88]
 5476 0e3c 1795     		str	r5, [sp, #92]
 5477              	.LVL894:
 491:sc.c          ****     s12 -= carry12 << 21;
 5478              		.loc 1 491 0
 5479 0e3e C50A     		lsrs	r5, r0, #11
 5480 0e40 AC46     		mov	ip, r5
 5481 0e42 4D05     		lsls	r5, r1, #21
 5482 0e44 6146     		mov	r1, ip
 5483 0e46 0D43     		orrs	r5, r1
 5484 0e48 0099     		ldr	r1, [sp]
 5485 0e4a 4C05     		lsls	r4, r1, #21
 5486              	.LVL895:
 5487 0e4c 1498     		ldr	r0, [sp, #80]
 5488 0e4e 1599     		ldr	r1, [sp, #84]
 5489 0e50 001B     		subs	r0, r0, r4
 5490 0e52 A941     		sbcs	r1, r1, r5
 5491 0e54 2E90     		str	r0, [sp, #184]
 5492 0e56 2F91     		str	r1, [sp, #188]
 5493              	.LVL896:
 492:sc.c          ****     carry14 = (s14 + (1 << 20)) >> 21;
ARM GAS  C:\Users\NIGHDR~1\AppData\Local\Temp\ccvJ0Ig2.s 			page 106


 5494              		.loc 1 492 0
 5495 0e58 029C     		ldr	r4, [sp, #8]
 5496 0e5a 039D     		ldr	r5, [sp, #12]
 5497 0e5c A418     		adds	r4, r4, r2
 5498 0e5e 5D41     		adcs	r5, r5, r3
 5499 0e60 E902     		lsls	r1, r5, #11
 5500 0e62 8C46     		mov	ip, r1
 5501 0e64 2900     		movs	r1, r5
 5502 0e66 640D     		lsrs	r4, r4, #21
 5503 0e68 6546     		mov	r5, ip
 5504 0e6a 2C43     		orrs	r4, r5
 5505 0e6c 0094     		str	r4, [sp]
 5506              	.LVL897:
 5507 0e6e 4915     		asrs	r1, r1, #21
 5508 0e70 0191     		str	r1, [sp, #4]
 5509              	.LVL898:
 493:sc.c          ****     s15 += carry14;
 5510              		.loc 1 493 0
 5511 0e72 189C     		ldr	r4, [sp, #96]
 5512 0e74 199D     		ldr	r5, [sp, #100]
 5513 0e76 0098     		ldr	r0, [sp]
 5514 0e78 0199     		ldr	r1, [sp, #4]
 5515              	.LVL899:
 5516 0e7a 2418     		adds	r4, r4, r0
 5517 0e7c 4D41     		adcs	r5, r5, r1
 5518 0e7e 1494     		str	r4, [sp, #80]
 5519 0e80 1595     		str	r5, [sp, #84]
 5520              	.LVL900:
 494:sc.c          ****     s14 -= carry14 << 21;
 5521              		.loc 1 494 0
 5522 0e82 C50A     		lsrs	r5, r0, #11
 5523 0e84 AC46     		mov	ip, r5
 5524 0e86 4D05     		lsls	r5, r1, #21
 5525 0e88 6146     		mov	r1, ip
 5526 0e8a 0D43     		orrs	r5, r1
 5527 0e8c 0099     		ldr	r1, [sp]
 5528 0e8e 4C05     		lsls	r4, r1, #21
 5529              	.LVL901:
 5530 0e90 0298     		ldr	r0, [sp, #8]
 5531 0e92 0399     		ldr	r1, [sp, #12]
 5532 0e94 001B     		subs	r0, r0, r4
 5533 0e96 A941     		sbcs	r1, r1, r5
 5534 0e98 3090     		str	r0, [sp, #192]
 5535 0e9a 3191     		str	r1, [sp, #196]
 5536              	.LVL902:
 495:sc.c          ****     carry16 = (s16 + (1 << 20)) >> 21;
 5537              		.loc 1 495 0
 5538 0e9c 049C     		ldr	r4, [sp, #16]
 5539 0e9e 059D     		ldr	r5, [sp, #20]
 5540 0ea0 A418     		adds	r4, r4, r2
 5541 0ea2 5D41     		adcs	r5, r5, r3
 5542 0ea4 E902     		lsls	r1, r5, #11
 5543 0ea6 8C46     		mov	ip, r1
 5544 0ea8 2900     		movs	r1, r5
 5545 0eaa 640D     		lsrs	r4, r4, #21
 5546 0eac 6546     		mov	r5, ip
 5547 0eae 2C43     		orrs	r4, r5
ARM GAS  C:\Users\NIGHDR~1\AppData\Local\Temp\ccvJ0Ig2.s 			page 107


 5548 0eb0 0094     		str	r4, [sp]
 5549              	.LVL903:
 5550 0eb2 4915     		asrs	r1, r1, #21
 5551 0eb4 0191     		str	r1, [sp, #4]
 5552              	.LVL904:
 496:sc.c          ****     s17 += carry16;
 5553              		.loc 1 496 0
 5554 0eb6 1C9C     		ldr	r4, [sp, #112]
 5555 0eb8 1D9D     		ldr	r5, [sp, #116]
 5556 0eba 0098     		ldr	r0, [sp]
 5557 0ebc 0199     		ldr	r1, [sp, #4]
 5558              	.LVL905:
 5559 0ebe 2418     		adds	r4, r4, r0
 5560 0ec0 4D41     		adcs	r5, r5, r1
 5561 0ec2 0294     		str	r4, [sp, #8]
 5562 0ec4 0395     		str	r5, [sp, #12]
 5563              	.LVL906:
 497:sc.c          ****     s16 -= carry16 << 21;
 5564              		.loc 1 497 0
 5565 0ec6 C50A     		lsrs	r5, r0, #11
 5566 0ec8 AC46     		mov	ip, r5
 5567 0eca 4D05     		lsls	r5, r1, #21
 5568 0ecc 6146     		mov	r1, ip
 5569 0ece 0D43     		orrs	r5, r1
 5570 0ed0 0099     		ldr	r1, [sp]
 5571 0ed2 4C05     		lsls	r4, r1, #21
 5572              	.LVL907:
 5573 0ed4 0498     		ldr	r0, [sp, #16]
 5574 0ed6 0599     		ldr	r1, [sp, #20]
 5575 0ed8 001B     		subs	r0, r0, r4
 5576 0eda A941     		sbcs	r1, r1, r5
 5577 0edc 1C90     		str	r0, [sp, #112]
 5578 0ede 1D91     		str	r1, [sp, #116]
 5579              	.LVL908:
 498:sc.c          ****     carry18 = (s18 + (1 << 20)) >> 21;
 5580              		.loc 1 498 0
 5581 0ee0 0698     		ldr	r0, [sp, #24]
 5582 0ee2 0799     		ldr	r1, [sp, #28]
 5583              	.LVL909:
 5584 0ee4 8018     		adds	r0, r0, r2
 5585 0ee6 5941     		adcs	r1, r1, r3
 5586 0ee8 0400     		movs	r4, r0
 5587 0eea 0D00     		movs	r5, r1
 5588 0eec C902     		lsls	r1, r1, #11
 5589 0eee 8C46     		mov	ip, r1
 5590 0ef0 2900     		movs	r1, r5
 5591 0ef2 640D     		lsrs	r4, r4, #21
 5592 0ef4 6546     		mov	r5, ip
 5593 0ef6 2C43     		orrs	r4, r5
 5594 0ef8 0094     		str	r4, [sp]
 5595              	.LVL910:
 5596 0efa 4915     		asrs	r1, r1, #21
 5597 0efc 0191     		str	r1, [sp, #4]
 5598              	.LVL911:
 499:sc.c          ****     s19 += carry18;
 5599              		.loc 1 499 0
 5600 0efe 1E9C     		ldr	r4, [sp, #120]
ARM GAS  C:\Users\NIGHDR~1\AppData\Local\Temp\ccvJ0Ig2.s 			page 108


 5601 0f00 1F9D     		ldr	r5, [sp, #124]
 5602 0f02 0098     		ldr	r0, [sp]
 5603 0f04 0199     		ldr	r1, [sp, #4]
 5604 0f06 2418     		adds	r4, r4, r0
 5605 0f08 4D41     		adcs	r5, r5, r1
 5606 0f0a 0494     		str	r4, [sp, #16]
 5607 0f0c 0595     		str	r5, [sp, #20]
 5608              	.LVL912:
 500:sc.c          ****     s18 -= carry18 << 21;
 5609              		.loc 1 500 0
 5610 0f0e C50A     		lsrs	r5, r0, #11
 5611 0f10 AC46     		mov	ip, r5
 5612 0f12 4D05     		lsls	r5, r1, #21
 5613 0f14 6146     		mov	r1, ip
 5614 0f16 0D43     		orrs	r5, r1
 5615 0f18 0099     		ldr	r1, [sp]
 5616 0f1a 4C05     		lsls	r4, r1, #21
 5617              	.LVL913:
 5618 0f1c 0698     		ldr	r0, [sp, #24]
 5619 0f1e 0799     		ldr	r1, [sp, #28]
 5620 0f20 001B     		subs	r0, r0, r4
 5621 0f22 A941     		sbcs	r1, r1, r5
 5622 0f24 0690     		str	r0, [sp, #24]
 5623 0f26 0791     		str	r1, [sp, #28]
 5624              	.LVL914:
 501:sc.c          ****     carry20 = (s20 + (1 << 20)) >> 21;
 5625              		.loc 1 501 0
 5626 0f28 0898     		ldr	r0, [sp, #32]
 5627 0f2a 0999     		ldr	r1, [sp, #36]
 5628              	.LVL915:
 5629 0f2c 8018     		adds	r0, r0, r2
 5630 0f2e 5941     		adcs	r1, r1, r3
 5631 0f30 0400     		movs	r4, r0
 5632 0f32 0D00     		movs	r5, r1
 5633 0f34 C902     		lsls	r1, r1, #11
 5634 0f36 8C46     		mov	ip, r1
 5635 0f38 2900     		movs	r1, r5
 5636 0f3a 640D     		lsrs	r4, r4, #21
 5637 0f3c 6546     		mov	r5, ip
 5638 0f3e 2C43     		orrs	r4, r5
 5639 0f40 0094     		str	r4, [sp]
 5640              	.LVL916:
 5641 0f42 4915     		asrs	r1, r1, #21
 5642 0f44 0191     		str	r1, [sp, #4]
 5643              	.LVL917:
 502:sc.c          ****     s21 += carry20;
 5644              		.loc 1 502 0
 5645 0f46 209C     		ldr	r4, [sp, #128]
 5646 0f48 219D     		ldr	r5, [sp, #132]
 5647 0f4a 0098     		ldr	r0, [sp]
 5648 0f4c 0199     		ldr	r1, [sp, #4]
 5649 0f4e 2418     		adds	r4, r4, r0
 5650 0f50 4D41     		adcs	r5, r5, r1
 5651 0f52 1894     		str	r4, [sp, #96]
 5652 0f54 1995     		str	r5, [sp, #100]
 5653              	.LVL918:
 503:sc.c          ****     s20 -= carry20 << 21;
ARM GAS  C:\Users\NIGHDR~1\AppData\Local\Temp\ccvJ0Ig2.s 			page 109


 5654              		.loc 1 503 0
 5655 0f56 C50A     		lsrs	r5, r0, #11
 5656 0f58 AC46     		mov	ip, r5
 5657 0f5a 4D05     		lsls	r5, r1, #21
 5658 0f5c 6146     		mov	r1, ip
 5659 0f5e 0D43     		orrs	r5, r1
 5660 0f60 0099     		ldr	r1, [sp]
 5661 0f62 4C05     		lsls	r4, r1, #21
 5662              	.LVL919:
 5663 0f64 0898     		ldr	r0, [sp, #32]
 5664 0f66 0999     		ldr	r1, [sp, #36]
 5665 0f68 001B     		subs	r0, r0, r4
 5666 0f6a A941     		sbcs	r1, r1, r5
 5667 0f6c 1E90     		str	r0, [sp, #120]
 5668 0f6e 1F91     		str	r1, [sp, #124]
 5669              	.LVL920:
 504:sc.c          ****     carry22 = (s22 + (1 << 20)) >> 21;
 5670              		.loc 1 504 0
 5671 0f70 1A98     		ldr	r0, [sp, #104]
 5672 0f72 1B99     		ldr	r1, [sp, #108]
 5673              	.LVL921:
 5674 0f74 8018     		adds	r0, r0, r2
 5675 0f76 5941     		adcs	r1, r1, r3
 5676 0f78 CC02     		lsls	r4, r1, #11
 5677 0f7a 450D     		lsrs	r5, r0, #21
 5678 0f7c 2543     		orrs	r5, r4
 5679 0f7e A946     		mov	r9, r5
 5680 0f80 4915     		asrs	r1, r1, #21
 5681 0f82 0D00     		movs	r5, r1
 5682              	.LVL922:
 505:sc.c          ****     s23 += carry22;
 506:sc.c          ****     s22 -= carry22 << 21;
 5683              		.loc 1 506 0
 5684 0f84 4946     		mov	r1, r9
 5685              	.LVL923:
 5686 0f86 CC0A     		lsrs	r4, r1, #11
 5687 0f88 0895     		str	r5, [sp, #32]
 5688 0f8a 6905     		lsls	r1, r5, #21
 5689 0f8c 2143     		orrs	r1, r4
 5690 0f8e 4D46     		mov	r5, r9
 5691              	.LVL924:
 5692 0f90 6805     		lsls	r0, r5, #21
 5693 0f92 1A9C     		ldr	r4, [sp, #104]
 5694 0f94 1B9D     		ldr	r5, [sp, #108]
 5695 0f96 241A     		subs	r4, r4, r0
 5696 0f98 8D41     		sbcs	r5, r5, r1
 5697 0f9a 1A94     		str	r4, [sp, #104]
 5698 0f9c 1B95     		str	r5, [sp, #108]
 5699              	.LVL925:
 507:sc.c          ****     carry1 = (s1 + (1 << 20)) >> 21;
 5700              		.loc 1 507 0
 5701 0f9e 3400     		movs	r4, r6
 5702              	.LVL926:
 5703 0fa0 3D00     		movs	r5, r7
 5704 0fa2 A418     		adds	r4, r4, r2
 5705 0fa4 5D41     		adcs	r5, r5, r3
 5706 0fa6 E902     		lsls	r1, r5, #11
ARM GAS  C:\Users\NIGHDR~1\AppData\Local\Temp\ccvJ0Ig2.s 			page 110


 5707 0fa8 8C46     		mov	ip, r1
 5708 0faa 2900     		movs	r1, r5
 5709 0fac 640D     		lsrs	r4, r4, #21
 5710 0fae 6546     		mov	r5, ip
 5711 0fb0 2C43     		orrs	r4, r5
 5712 0fb2 0094     		str	r4, [sp]
 5713              	.LVL927:
 5714 0fb4 4915     		asrs	r1, r1, #21
 5715 0fb6 0191     		str	r1, [sp, #4]
 5716              	.LVL928:
 508:sc.c          ****     s2 += carry1;
 5717              		.loc 1 508 0
 5718 0fb8 249C     		ldr	r4, [sp, #144]
 5719 0fba 259D     		ldr	r5, [sp, #148]
 5720 0fbc 0098     		ldr	r0, [sp]
 5721 0fbe 0199     		ldr	r1, [sp, #4]
 5722 0fc0 2418     		adds	r4, r4, r0
 5723 0fc2 4D41     		adcs	r5, r5, r1
 5724 0fc4 2094     		str	r4, [sp, #128]
 5725 0fc6 2195     		str	r5, [sp, #132]
 5726              	.LVL929:
 509:sc.c          ****     s1 -= carry1 << 21;
 5727              		.loc 1 509 0
 5728 0fc8 C50A     		lsrs	r5, r0, #11
 5729 0fca AC46     		mov	ip, r5
 5730 0fcc 4D05     		lsls	r5, r1, #21
 5731 0fce 6146     		mov	r1, ip
 5732 0fd0 0D43     		orrs	r5, r1
 5733 0fd2 0099     		ldr	r1, [sp]
 5734 0fd4 4C05     		lsls	r4, r1, #21
 5735              	.LVL930:
 5736 0fd6 361B     		subs	r6, r6, r4
 5737 0fd8 AF41     		sbcs	r7, r7, r5
 5738              	.LVL931:
 5739 0fda 2496     		str	r6, [sp, #144]
 5740 0fdc 2597     		str	r7, [sp, #148]
 5741              	.LVL932:
 510:sc.c          ****     carry3 = (s3 + (1 << 20)) >> 21;
 5742              		.loc 1 510 0
 5743 0fde 0A9E     		ldr	r6, [sp, #40]
 5744 0fe0 0B9F     		ldr	r7, [sp, #44]
 5745              	.LVL933:
 5746 0fe2 B618     		adds	r6, r6, r2
 5747 0fe4 5F41     		adcs	r7, r7, r3
 5748 0fe6 3400     		movs	r4, r6
 5749 0fe8 FE02     		lsls	r6, r7, #11
 5750 0fea 600D     		lsrs	r0, r4, #21
 5751 0fec 3043     		orrs	r0, r6
 5752 0fee 7915     		asrs	r1, r7, #21
 5753              	.LVL934:
 511:sc.c          ****     s4 += carry3;
 5754              		.loc 1 511 0
 5755 0ff0 269D     		ldr	r5, [sp, #152]
 5756 0ff2 279E     		ldr	r6, [sp, #156]
 5757 0ff4 2D18     		adds	r5, r5, r0
 5758 0ff6 4E41     		adcs	r6, r6, r1
 5759 0ff8 2695     		str	r5, [sp, #152]
ARM GAS  C:\Users\NIGHDR~1\AppData\Local\Temp\ccvJ0Ig2.s 			page 111


 5760 0ffa 2796     		str	r6, [sp, #156]
 5761              	.LVL935:
 512:sc.c          ****     s3 -= carry3 << 21;
 5762              		.loc 1 512 0
 5763 0ffc C60A     		lsrs	r6, r0, #11
 5764 0ffe 4D05     		lsls	r5, r1, #21
 5765              	.LVL936:
 5766 1000 3543     		orrs	r5, r6
 5767 1002 4405     		lsls	r4, r0, #21
 5768 1004 0A9E     		ldr	r6, [sp, #40]
 5769 1006 0B9F     		ldr	r7, [sp, #44]
 5770 1008 361B     		subs	r6, r6, r4
 5771 100a AF41     		sbcs	r7, r7, r5
 5772 100c 3296     		str	r6, [sp, #200]
 5773 100e 3397     		str	r7, [sp, #204]
 5774              	.LVL937:
 513:sc.c          ****     carry5 = (s5 + (1 << 20)) >> 21;
 5775              		.loc 1 513 0
 5776 1010 0C9E     		ldr	r6, [sp, #48]
 5777 1012 0D9F     		ldr	r7, [sp, #52]
 5778              	.LVL938:
 5779 1014 B618     		adds	r6, r6, r2
 5780 1016 5F41     		adcs	r7, r7, r3
 5781 1018 3400     		movs	r4, r6
 5782 101a FE02     		lsls	r6, r7, #11
 5783 101c 600D     		lsrs	r0, r4, #21
 5784              	.LVL939:
 5785 101e 3043     		orrs	r0, r6
 5786 1020 7915     		asrs	r1, r7, #21
 5787              	.LVL940:
 514:sc.c          ****     s6 += carry5;
 5788              		.loc 1 514 0
 5789 1022 289D     		ldr	r5, [sp, #160]
 5790 1024 299E     		ldr	r6, [sp, #164]
 5791 1026 2D18     		adds	r5, r5, r0
 5792 1028 4E41     		adcs	r6, r6, r1
 5793 102a 0A95     		str	r5, [sp, #40]
 5794 102c 0B96     		str	r6, [sp, #44]
 5795              	.LVL941:
 515:sc.c          ****     s5 -= carry5 << 21;
 5796              		.loc 1 515 0
 5797 102e C60A     		lsrs	r6, r0, #11
 5798 1030 4D05     		lsls	r5, r1, #21
 5799              	.LVL942:
 5800 1032 3543     		orrs	r5, r6
 5801 1034 4405     		lsls	r4, r0, #21
 5802 1036 0C9E     		ldr	r6, [sp, #48]
 5803 1038 0D9F     		ldr	r7, [sp, #52]
 5804 103a 361B     		subs	r6, r6, r4
 5805 103c AF41     		sbcs	r7, r7, r5
 5806 103e 0C96     		str	r6, [sp, #48]
 5807 1040 0D97     		str	r7, [sp, #52]
 5808              	.LVL943:
 516:sc.c          ****     carry7 = (s7 + (1 << 20)) >> 21;
 5809              		.loc 1 516 0
 5810 1042 0E9C     		ldr	r4, [sp, #56]
 5811 1044 0F9D     		ldr	r5, [sp, #60]
ARM GAS  C:\Users\NIGHDR~1\AppData\Local\Temp\ccvJ0Ig2.s 			page 112


 5812 1046 A418     		adds	r4, r4, r2
 5813 1048 5D41     		adcs	r5, r5, r3
 5814 104a EE02     		lsls	r6, r5, #11
 5815              	.LVL944:
 5816 104c 600D     		lsrs	r0, r4, #21
 5817              	.LVL945:
 5818 104e 3043     		orrs	r0, r6
 5819 1050 6915     		asrs	r1, r5, #21
 5820              	.LVL946:
 517:sc.c          ****     s8 += carry7;
 5821              		.loc 1 517 0
 5822 1052 2C9D     		ldr	r5, [sp, #176]
 5823 1054 2D9E     		ldr	r6, [sp, #180]
 5824 1056 2D18     		adds	r5, r5, r0
 5825 1058 4E41     		adcs	r6, r6, r1
 5826 105a 2895     		str	r5, [sp, #160]
 5827 105c 2996     		str	r6, [sp, #164]
 5828              	.LVL947:
 518:sc.c          ****     s7 -= carry7 << 21;
 5829              		.loc 1 518 0
 5830 105e C60A     		lsrs	r6, r0, #11
 5831 1060 4D05     		lsls	r5, r1, #21
 5832              	.LVL948:
 5833 1062 3543     		orrs	r5, r6
 5834 1064 4405     		lsls	r4, r0, #21
 5835 1066 0E9E     		ldr	r6, [sp, #56]
 5836 1068 0F9F     		ldr	r7, [sp, #60]
 5837 106a 361B     		subs	r6, r6, r4
 5838 106c AF41     		sbcs	r7, r7, r5
 5839 106e 0E96     		str	r6, [sp, #56]
 5840 1070 0F97     		str	r7, [sp, #60]
 5841              	.LVL949:
 519:sc.c          ****     carry9 = (s9 + (1 << 20)) >> 21;
 5842              		.loc 1 519 0
 5843 1072 109D     		ldr	r5, [sp, #64]
 5844 1074 119E     		ldr	r6, [sp, #68]
 5845 1076 AD18     		adds	r5, r5, r2
 5846 1078 5E41     		adcs	r6, r6, r3
 5847 107a 2C00     		movs	r4, r5
 5848 107c 3500     		movs	r5, r6
 5849 107e F602     		lsls	r6, r6, #11
 5850              	.LVL950:
 5851 1080 600D     		lsrs	r0, r4, #21
 5852              	.LVL951:
 5853 1082 3043     		orrs	r0, r6
 5854 1084 6915     		asrs	r1, r5, #21
 5855              	.LVL952:
 520:sc.c          ****     s10 += carry9;
 5856              		.loc 1 520 0
 5857 1086 2A9D     		ldr	r5, [sp, #168]
 5858 1088 2B9E     		ldr	r6, [sp, #172]
 5859 108a 2D18     		adds	r5, r5, r0
 5860 108c 4E41     		adcs	r6, r6, r1
 5861 108e 2A95     		str	r5, [sp, #168]
 5862 1090 2B96     		str	r6, [sp, #172]
 5863              	.LVL953:
 521:sc.c          ****     s9 -= carry9 << 21;
ARM GAS  C:\Users\NIGHDR~1\AppData\Local\Temp\ccvJ0Ig2.s 			page 113


 5864              		.loc 1 521 0
 5865 1092 C60A     		lsrs	r6, r0, #11
 5866 1094 4D05     		lsls	r5, r1, #21
 5867              	.LVL954:
 5868 1096 3543     		orrs	r5, r6
 5869 1098 4405     		lsls	r4, r0, #21
 5870 109a 109E     		ldr	r6, [sp, #64]
 5871 109c 119F     		ldr	r7, [sp, #68]
 5872 109e 361B     		subs	r6, r6, r4
 5873 10a0 AF41     		sbcs	r7, r7, r5
 5874 10a2 1096     		str	r6, [sp, #64]
 5875 10a4 1197     		str	r7, [sp, #68]
 5876              	.LVL955:
 522:sc.c          ****     carry11 = (s11 + (1 << 20)) >> 21;
 5877              		.loc 1 522 0
 5878 10a6 129D     		ldr	r5, [sp, #72]
 5879 10a8 139E     		ldr	r6, [sp, #76]
 5880 10aa AD18     		adds	r5, r5, r2
 5881 10ac 5E41     		adcs	r6, r6, r3
 5882 10ae 2C00     		movs	r4, r5
 5883 10b0 3500     		movs	r5, r6
 5884 10b2 F602     		lsls	r6, r6, #11
 5885              	.LVL956:
 5886 10b4 600D     		lsrs	r0, r4, #21
 5887              	.LVL957:
 5888 10b6 3043     		orrs	r0, r6
 5889 10b8 6915     		asrs	r1, r5, #21
 5890              	.LVL958:
 523:sc.c          ****     s12 += carry11;
 5891              		.loc 1 523 0
 5892 10ba 2E9C     		ldr	r4, [sp, #184]
 5893 10bc 2F9D     		ldr	r5, [sp, #188]
 5894 10be 2418     		adds	r4, r4, r0
 5895 10c0 4D41     		adcs	r5, r5, r1
 5896 10c2 2C94     		str	r4, [sp, #176]
 5897 10c4 2D95     		str	r5, [sp, #180]
 5898              	.LVL959:
 524:sc.c          ****     s11 -= carry11 << 21;
 5899              		.loc 1 524 0
 5900 10c6 C60A     		lsrs	r6, r0, #11
 5901 10c8 4D05     		lsls	r5, r1, #21
 5902 10ca 3543     		orrs	r5, r6
 5903 10cc 4405     		lsls	r4, r0, #21
 5904              	.LVL960:
 5905 10ce 129E     		ldr	r6, [sp, #72]
 5906 10d0 139F     		ldr	r7, [sp, #76]
 5907 10d2 361B     		subs	r6, r6, r4
 5908 10d4 AF41     		sbcs	r7, r7, r5
 5909              	.LVL961:
 525:sc.c          ****     carry13 = (s13 + (1 << 20)) >> 21;
 5910              		.loc 1 525 0
 5911 10d6 1698     		ldr	r0, [sp, #88]
 5912 10d8 1799     		ldr	r1, [sp, #92]
 5913              	.LVL962:
 5914 10da 8018     		adds	r0, r0, r2
 5915 10dc 5941     		adcs	r1, r1, r3
 5916 10de 0400     		movs	r4, r0
ARM GAS  C:\Users\NIGHDR~1\AppData\Local\Temp\ccvJ0Ig2.s 			page 114


 5917 10e0 0D00     		movs	r5, r1
 5918 10e2 C902     		lsls	r1, r1, #11
 5919 10e4 8C46     		mov	ip, r1
 5920 10e6 2900     		movs	r1, r5
 5921 10e8 640D     		lsrs	r4, r4, #21
 5922 10ea 6546     		mov	r5, ip
 5923 10ec 2C43     		orrs	r4, r5
 5924 10ee 0094     		str	r4, [sp]
 5925              	.LVL963:
 5926 10f0 4915     		asrs	r1, r1, #21
 5927 10f2 0191     		str	r1, [sp, #4]
 5928              	.LVL964:
 526:sc.c          ****     s14 += carry13;
 5929              		.loc 1 526 0
 5930 10f4 309C     		ldr	r4, [sp, #192]
 5931 10f6 319D     		ldr	r5, [sp, #196]
 5932 10f8 0098     		ldr	r0, [sp]
 5933 10fa 0199     		ldr	r1, [sp, #4]
 5934 10fc 2418     		adds	r4, r4, r0
 5935 10fe 4D41     		adcs	r5, r5, r1
 5936 1100 1294     		str	r4, [sp, #72]
 5937 1102 1395     		str	r5, [sp, #76]
 5938              	.LVL965:
 527:sc.c          ****     s13 -= carry13 << 21;
 5939              		.loc 1 527 0
 5940 1104 C50A     		lsrs	r5, r0, #11
 5941 1106 AC46     		mov	ip, r5
 5942 1108 4D05     		lsls	r5, r1, #21
 5943 110a 6146     		mov	r1, ip
 5944 110c 0D43     		orrs	r5, r1
 5945 110e 0099     		ldr	r1, [sp]
 5946 1110 4C05     		lsls	r4, r1, #21
 5947              	.LVL966:
 5948 1112 1698     		ldr	r0, [sp, #88]
 5949 1114 1799     		ldr	r1, [sp, #92]
 5950 1116 001B     		subs	r0, r0, r4
 5951 1118 A941     		sbcs	r1, r1, r5
 5952 111a 1690     		str	r0, [sp, #88]
 5953 111c 1791     		str	r1, [sp, #92]
 5954              	.LVL967:
 528:sc.c          ****     carry15 = (s15 + (1 << 20)) >> 21;
 5955              		.loc 1 528 0
 5956 111e 1498     		ldr	r0, [sp, #80]
 5957 1120 1599     		ldr	r1, [sp, #84]
 5958              	.LVL968:
 5959 1122 8018     		adds	r0, r0, r2
 5960 1124 5941     		adcs	r1, r1, r3
 5961 1126 0400     		movs	r4, r0
 5962 1128 0D00     		movs	r5, r1
 5963 112a C902     		lsls	r1, r1, #11
 5964 112c 8C46     		mov	ip, r1
 5965 112e 2900     		movs	r1, r5
 5966 1130 640D     		lsrs	r4, r4, #21
 5967 1132 6546     		mov	r5, ip
 5968 1134 2C43     		orrs	r4, r5
 5969 1136 0094     		str	r4, [sp]
 5970              	.LVL969:
ARM GAS  C:\Users\NIGHDR~1\AppData\Local\Temp\ccvJ0Ig2.s 			page 115


 5971 1138 4915     		asrs	r1, r1, #21
 5972 113a 0191     		str	r1, [sp, #4]
 5973              	.LVL970:
 529:sc.c          ****     s16 += carry15;
 5974              		.loc 1 529 0
 5975 113c 1C9C     		ldr	r4, [sp, #112]
