ARM GAS  C:\Users\NIGHDR~1\AppData\Local\Temp\ccvJ0Ig2.s 			page 1


   1              		.syntax unified
   2              		.cpu cortex-m0
   3              		.fpu softvfp
   4              		.eabi_attribute 20, 1
   5              		.eabi_attribute 21, 1
   6              		.eabi_attribute 23, 3
   7              		.eabi_attribute 24, 1
   8              		.eabi_attribute 25, 1
   9              		.eabi_attribute 26, 1
  10              		.eabi_attribute 30, 1
  11              		.eabi_attribute 34, 0
  12              		.eabi_attribute 18, 4
  13              		.thumb
  14              		.syntax unified
  15              		.file	"sc.c"
  16              		.text
  17              	.Ltext0:
  18              		.cfi_sections	.debug_frame
  19              		.section	.text.load_3,"ax",%progbits
  20              		.align	2
  21              		.code	16
  22              		.thumb_func
  23              		.type	load_3, %function
  24              	load_3:
  25              	.LFB0:
  26              		.file 1 "sc.c"
   1:sc.c          **** #include "fixedint.h"
   2:sc.c          **** #include "sc.h"
   3:sc.c          **** 
   4:sc.c          **** static uint64_t load_3(const unsigned char *in) {
  27              		.loc 1 4 0
  28              		.cfi_startproc
  29              		@ args = 0, pretend = 0, frame = 0
  30              		@ frame_needed = 0, uses_anonymous_args = 0
  31              	.LVL0:
  32 0000 10B5     		push	{r4, lr}
  33              		.cfi_def_cfa_offset 8
  34              		.cfi_offset 4, -8
  35              		.cfi_offset 14, -4
   5:sc.c          ****     uint64_t result;
   6:sc.c          **** 
   7:sc.c          ****     result = (uint64_t) in[0];
  36              		.loc 1 7 0
  37 0002 0378     		ldrb	r3, [r0]
  38              	.LVL1:
   8:sc.c          ****     result |= ((uint64_t) in[1]) << 8;
  39              		.loc 1 8 0
  40 0004 4278     		ldrb	r2, [r0, #1]
  41 0006 140E     		lsrs	r4, r2, #24
  42 0008 1202     		lsls	r2, r2, #8
  43 000a 1A43     		orrs	r2, r3
  44              	.LVL2:
   9:sc.c          ****     result |= ((uint64_t) in[2]) << 16;
  45              		.loc 1 9 0
  46 000c 8378     		ldrb	r3, [r0, #2]
  47 000e 190C     		lsrs	r1, r3, #16
  48 0010 1B04     		lsls	r3, r3, #16
ARM GAS  C:\Users\NIGHDR~1\AppData\Local\Temp\ccvJ0Ig2.s 			page 2


  49 0012 1A43     		orrs	r2, r3
  50              	.LVL3:
  51 0014 1000     		movs	r0, r2
  52              	.LVL4:
  53 0016 2143     		orrs	r1, r4
  54              	.LVL5:
  10:sc.c          **** 
  11:sc.c          ****     return result;
  12:sc.c          **** }
  55              		.loc 1 12 0
  56              		@ sp needed
  57 0018 10BD     		pop	{r4, pc}
  58              		.cfi_endproc
  59              	.LFE0:
  60              		.size	load_3, .-load_3
  61 001a C046     		.section	.text.load_4,"ax",%progbits
  62              		.align	2
  63              		.code	16
  64              		.thumb_func
  65              		.type	load_4, %function
  66              	load_4:
  67              	.LFB1:
  13:sc.c          **** 
  14:sc.c          **** static uint64_t load_4(const unsigned char *in) {
  68              		.loc 1 14 0
  69              		.cfi_startproc
  70              		@ args = 0, pretend = 0, frame = 0
  71              		@ frame_needed = 0, uses_anonymous_args = 0
  72              		@ link register save eliminated.
  73              	.LVL6:
  15:sc.c          ****     uint64_t result;
  16:sc.c          **** 
  17:sc.c          ****     result = (uint64_t) in[0];
  74              		.loc 1 17 0
  75 0000 0378     		ldrb	r3, [r0]
  76              	.LVL7:
  18:sc.c          ****     result |= ((uint64_t) in[1]) << 8;
  77              		.loc 1 18 0
  78 0002 4278     		ldrb	r2, [r0, #1]
  79 0004 1202     		lsls	r2, r2, #8
  80 0006 1A43     		orrs	r2, r3
  81              	.LVL8:
  19:sc.c          ****     result |= ((uint64_t) in[2]) << 16;
  82              		.loc 1 19 0
  83 0008 8378     		ldrb	r3, [r0, #2]
  84 000a 1B04     		lsls	r3, r3, #16
  85 000c 1A43     		orrs	r2, r3
  20:sc.c          ****     result |= ((uint64_t) in[3]) << 24;
  86              		.loc 1 20 0
  87 000e C378     		ldrb	r3, [r0, #3]
  88 0010 1B06     		lsls	r3, r3, #24
  89 0012 1A43     		orrs	r2, r3
  90 0014 1000     		movs	r0, r2
  91              	.LVL9:
  21:sc.c          ****     
  22:sc.c          ****     return result;
  23:sc.c          **** }
ARM GAS  C:\Users\NIGHDR~1\AppData\Local\Temp\ccvJ0Ig2.s 			page 3


  92              		.loc 1 23 0
  93 0016 0021     		movs	r1, #0
  94              		@ sp needed
  95 0018 7047     		bx	lr
  96              		.cfi_endproc
  97              	.LFE1:
  98              		.size	load_4, .-load_4
  99              		.global	__aeabi_lmul
 100 001a C046     		.section	.text.sc_reduce,"ax",%progbits
 101              		.align	2
 102              		.global	sc_reduce
 103              		.code	16
 104              		.thumb_func
 105              		.type	sc_reduce, %function
 106              	sc_reduce:
 107              	.LFB2:
  24:sc.c          **** 
  25:sc.c          **** /*
  26:sc.c          **** Input:
  27:sc.c          ****   s[0]+256*s[1]+...+256^63*s[63] = s
  28:sc.c          **** 
  29:sc.c          **** Output:
  30:sc.c          ****   s[0]+256*s[1]+...+256^31*s[31] = s mod l
  31:sc.c          ****   where l = 2^252 + 27742317777372353535851937790883648493.
  32:sc.c          ****   Overwrites s in place.
  33:sc.c          **** */
  34:sc.c          **** 
  35:sc.c          **** void sc_reduce(unsigned char *s) {
 108              		.loc 1 35 0
 109              		.cfi_startproc
 110              		@ args = 0, pretend = 0, frame = 184
 111              		@ frame_needed = 0, uses_anonymous_args = 0
 112              	.LVL10:
 113 0000 F0B5     		push	{r4, r5, r6, r7, lr}
 114              		.cfi_def_cfa_offset 20
 115              		.cfi_offset 4, -20
 116              		.cfi_offset 5, -16
 117              		.cfi_offset 6, -12
 118              		.cfi_offset 7, -8
 119              		.cfi_offset 14, -4
 120 0002 4746     		mov	r7, r8
 121 0004 80B4     		push	{r7}
 122              		.cfi_def_cfa_offset 24
 123              		.cfi_offset 8, -24
 124 0006 AEB0     		sub	sp, sp, #184
 125              		.cfi_def_cfa_offset 208
 126 0008 8046     		mov	r8, r0
  36:sc.c          ****     int64_t s0 = 2097151 & load_3(s);
 127              		.loc 1 36 0
 128 000a FFF7FEFF 		bl	load_3
 129              	.LVL11:
 130 000e C002     		lsls	r0, r0, #11
 131 0010 C30A     		lsrs	r3, r0, #11
 132 0012 0A93     		str	r3, [sp, #40]
 133 0014 0023     		movs	r3, #0
 134 0016 0B93     		str	r3, [sp, #44]
 135              	.LVL12:
ARM GAS  C:\Users\NIGHDR~1\AppData\Local\Temp\ccvJ0Ig2.s 			page 4


  37:sc.c          ****     int64_t s1 = 2097151 & (load_4(s + 2) >> 5);
 136              		.loc 1 37 0
 137 0018 4346     		mov	r3, r8
 138 001a 981C     		adds	r0, r3, #2
 139 001c FFF7FEFF 		bl	load_4
 140              	.LVL13:
 141 0020 4009     		lsrs	r0, r0, #5
 142 0022 C002     		lsls	r0, r0, #11
 143 0024 C30A     		lsrs	r3, r0, #11
 144 0026 0C93     		str	r3, [sp, #48]
 145 0028 0023     		movs	r3, #0
 146 002a 0D93     		str	r3, [sp, #52]
 147              	.LVL14:
  38:sc.c          ****     int64_t s2 = 2097151 & (load_3(s + 5) >> 2);
 148              		.loc 1 38 0
 149 002c 4346     		mov	r3, r8
 150 002e 581D     		adds	r0, r3, #5
 151 0030 FFF7FEFF 		bl	load_3
 152              	.LVL15:
 153 0034 8008     		lsrs	r0, r0, #2
 154 0036 C002     		lsls	r0, r0, #11
 155 0038 C30A     		lsrs	r3, r0, #11
 156 003a 0E93     		str	r3, [sp, #56]
 157 003c 0023     		movs	r3, #0
 158 003e 0F93     		str	r3, [sp, #60]
 159              	.LVL16:
  39:sc.c          ****     int64_t s3 = 2097151 & (load_4(s + 7) >> 7);
 160              		.loc 1 39 0
 161 0040 4346     		mov	r3, r8
 162 0042 D81D     		adds	r0, r3, #7
 163 0044 FFF7FEFF 		bl	load_4
 164              	.LVL17:
 165 0048 C009     		lsrs	r0, r0, #7
 166 004a C002     		lsls	r0, r0, #11
 167 004c C30A     		lsrs	r3, r0, #11
 168 004e 1093     		str	r3, [sp, #64]
 169 0050 0023     		movs	r3, #0
 170 0052 1193     		str	r3, [sp, #68]
 171              	.LVL18:
  40:sc.c          ****     int64_t s4 = 2097151 & (load_4(s + 10) >> 4);
 172              		.loc 1 40 0
 173 0054 4046     		mov	r0, r8
 174 0056 0A30     		adds	r0, r0, #10
 175 0058 FFF7FEFF 		bl	load_4
 176              	.LVL19:
 177 005c 0009     		lsrs	r0, r0, #4
 178 005e C002     		lsls	r0, r0, #11
 179 0060 C30A     		lsrs	r3, r0, #11
 180 0062 1293     		str	r3, [sp, #72]
 181 0064 0023     		movs	r3, #0
 182 0066 1393     		str	r3, [sp, #76]
 183              	.LVL20:
  41:sc.c          ****     int64_t s5 = 2097151 & (load_3(s + 13) >> 1);
 184              		.loc 1 41 0
 185 0068 4046     		mov	r0, r8
 186 006a 0D30     		adds	r0, r0, #13
 187 006c FFF7FEFF 		bl	load_3
ARM GAS  C:\Users\NIGHDR~1\AppData\Local\Temp\ccvJ0Ig2.s 			page 5


 188              	.LVL21:
 189 0070 4008     		lsrs	r0, r0, #1
 190 0072 C002     		lsls	r0, r0, #11
 191 0074 C30A     		lsrs	r3, r0, #11
 192 0076 1493     		str	r3, [sp, #80]
 193 0078 0023     		movs	r3, #0
 194 007a 1593     		str	r3, [sp, #84]
 195              	.LVL22:
  42:sc.c          ****     int64_t s6 = 2097151 & (load_4(s + 15) >> 6);
 196              		.loc 1 42 0
 197 007c 4046     		mov	r0, r8
 198 007e 0F30     		adds	r0, r0, #15
 199 0080 FFF7FEFF 		bl	load_4
 200              	.LVL23:
 201 0084 8009     		lsrs	r0, r0, #6
 202 0086 C002     		lsls	r0, r0, #11
 203 0088 C30A     		lsrs	r3, r0, #11
 204 008a 0693     		str	r3, [sp, #24]
 205 008c 0023     		movs	r3, #0
 206 008e 0793     		str	r3, [sp, #28]
 207              	.LVL24:
  43:sc.c          ****     int64_t s7 = 2097151 & (load_3(s + 18) >> 3);
 208              		.loc 1 43 0
 209 0090 4046     		mov	r0, r8
 210 0092 1230     		adds	r0, r0, #18
 211 0094 FFF7FEFF 		bl	load_3
 212              	.LVL25:
 213 0098 C008     		lsrs	r0, r0, #3
 214 009a C002     		lsls	r0, r0, #11
 215 009c C30A     		lsrs	r3, r0, #11
 216 009e 0893     		str	r3, [sp, #32]
 217 00a0 0023     		movs	r3, #0
 218 00a2 0993     		str	r3, [sp, #36]
 219              	.LVL26:
  44:sc.c          ****     int64_t s8 = 2097151 & load_3(s + 21);
 220              		.loc 1 44 0
 221 00a4 4046     		mov	r0, r8
 222 00a6 1530     		adds	r0, r0, #21
 223 00a8 FFF7FEFF 		bl	load_3
 224              	.LVL27:
 225 00ac C002     		lsls	r0, r0, #11
 226 00ae C30A     		lsrs	r3, r0, #11
 227 00b0 1693     		str	r3, [sp, #88]
 228 00b2 0023     		movs	r3, #0
 229 00b4 1793     		str	r3, [sp, #92]
 230              	.LVL28:
  45:sc.c          ****     int64_t s9 = 2097151 & (load_4(s + 23) >> 5);
 231              		.loc 1 45 0
 232 00b6 4046     		mov	r0, r8
 233 00b8 1730     		adds	r0, r0, #23
 234 00ba FFF7FEFF 		bl	load_4
 235              	.LVL29:
 236 00be 4009     		lsrs	r0, r0, #5
 237 00c0 C002     		lsls	r0, r0, #11
 238 00c2 C30A     		lsrs	r3, r0, #11
 239 00c4 1893     		str	r3, [sp, #96]
 240 00c6 0023     		movs	r3, #0
ARM GAS  C:\Users\NIGHDR~1\AppData\Local\Temp\ccvJ0Ig2.s 			page 6


 241 00c8 1993     		str	r3, [sp, #100]
 242              	.LVL30:
  46:sc.c          ****     int64_t s10 = 2097151 & (load_3(s + 26) >> 2);
 243              		.loc 1 46 0
 244 00ca 4046     		mov	r0, r8
 245 00cc 1A30     		adds	r0, r0, #26
 246 00ce FFF7FEFF 		bl	load_3
 247              	.LVL31:
 248 00d2 8008     		lsrs	r0, r0, #2
 249 00d4 C002     		lsls	r0, r0, #11
 250 00d6 C30A     		lsrs	r3, r0, #11
 251 00d8 1A93     		str	r3, [sp, #104]
 252 00da 0023     		movs	r3, #0
 253 00dc 1B93     		str	r3, [sp, #108]
 254              	.LVL32:
  47:sc.c          ****     int64_t s11 = 2097151 & (load_4(s + 28) >> 7);
 255              		.loc 1 47 0
 256 00de 4046     		mov	r0, r8
 257 00e0 1C30     		adds	r0, r0, #28
 258 00e2 FFF7FEFF 		bl	load_4
 259              	.LVL33:
 260 00e6 C009     		lsrs	r0, r0, #7
 261 00e8 C002     		lsls	r0, r0, #11
 262 00ea C30A     		lsrs	r3, r0, #11
 263 00ec 1C93     		str	r3, [sp, #112]
 264 00ee 0023     		movs	r3, #0
 265 00f0 1D93     		str	r3, [sp, #116]
 266              	.LVL34:
  48:sc.c          ****     int64_t s12 = 2097151 & (load_4(s + 31) >> 4);
 267              		.loc 1 48 0
 268 00f2 4046     		mov	r0, r8
 269 00f4 1F30     		adds	r0, r0, #31
 270 00f6 FFF7FEFF 		bl	load_4
 271              	.LVL35:
 272 00fa 0009     		lsrs	r0, r0, #4
 273 00fc C002     		lsls	r0, r0, #11
 274 00fe C30A     		lsrs	r3, r0, #11
 275 0100 1E93     		str	r3, [sp, #120]
 276 0102 0023     		movs	r3, #0
 277 0104 1F93     		str	r3, [sp, #124]
 278              	.LVL36:
  49:sc.c          ****     int64_t s13 = 2097151 & (load_3(s + 34) >> 1);
 279              		.loc 1 49 0
 280 0106 4046     		mov	r0, r8
 281 0108 2230     		adds	r0, r0, #34
 282 010a FFF7FEFF 		bl	load_3
 283              	.LVL37:
 284 010e 4008     		lsrs	r0, r0, #1
 285 0110 C002     		lsls	r0, r0, #11
 286 0112 C30A     		lsrs	r3, r0, #11
 287 0114 2093     		str	r3, [sp, #128]
 288 0116 0023     		movs	r3, #0
 289 0118 2193     		str	r3, [sp, #132]
 290              	.LVL38:
  50:sc.c          ****     int64_t s14 = 2097151 & (load_4(s + 36) >> 6);
 291              		.loc 1 50 0
 292 011a 4046     		mov	r0, r8
ARM GAS  C:\Users\NIGHDR~1\AppData\Local\Temp\ccvJ0Ig2.s 			page 7


 293 011c 2430     		adds	r0, r0, #36
 294 011e FFF7FEFF 		bl	load_4
 295              	.LVL39:
 296 0122 8009     		lsrs	r0, r0, #6
 297 0124 C002     		lsls	r0, r0, #11
 298 0126 C30A     		lsrs	r3, r0, #11
 299 0128 2293     		str	r3, [sp, #136]
 300 012a 0023     		movs	r3, #0
 301 012c 2393     		str	r3, [sp, #140]
 302              	.LVL40:
  51:sc.c          ****     int64_t s15 = 2097151 & (load_3(s + 39) >> 3);
 303              		.loc 1 51 0
 304 012e 4046     		mov	r0, r8
 305 0130 2730     		adds	r0, r0, #39
 306 0132 FFF7FEFF 		bl	load_3
 307              	.LVL41:
 308 0136 C008     		lsrs	r0, r0, #3
 309 0138 C002     		lsls	r0, r0, #11
 310 013a C30A     		lsrs	r3, r0, #11
 311 013c 2493     		str	r3, [sp, #144]
 312 013e 0023     		movs	r3, #0
 313 0140 2593     		str	r3, [sp, #148]
 314              	.LVL42:
  52:sc.c          ****     int64_t s16 = 2097151 & load_3(s + 42);
 315              		.loc 1 52 0
 316 0142 4046     		mov	r0, r8
 317 0144 2A30     		adds	r0, r0, #42
 318 0146 FFF7FEFF 		bl	load_3
 319              	.LVL43:
 320 014a C002     		lsls	r0, r0, #11
 321 014c C30A     		lsrs	r3, r0, #11
 322 014e 2693     		str	r3, [sp, #152]
 323 0150 0023     		movs	r3, #0
 324 0152 2793     		str	r3, [sp, #156]
 325              	.LVL44:
  53:sc.c          ****     int64_t s17 = 2097151 & (load_4(s + 44) >> 5);
 326              		.loc 1 53 0
 327 0154 4046     		mov	r0, r8
 328 0156 2C30     		adds	r0, r0, #44
 329 0158 FFF7FEFF 		bl	load_4
 330              	.LVL45:
 331 015c 4009     		lsrs	r0, r0, #5
 332 015e C002     		lsls	r0, r0, #11
 333 0160 C30A     		lsrs	r3, r0, #11
 334 0162 2893     		str	r3, [sp, #160]
 335 0164 0023     		movs	r3, #0
 336 0166 2993     		str	r3, [sp, #164]
 337              	.LVL46:
  54:sc.c          ****     int64_t s18 = 2097151 & (load_3(s + 47) >> 2);
 338              		.loc 1 54 0
 339 0168 4046     		mov	r0, r8
 340 016a 2F30     		adds	r0, r0, #47
 341 016c FFF7FEFF 		bl	load_3
 342              	.LVL47:
 343 0170 8008     		lsrs	r0, r0, #2
 344 0172 C002     		lsls	r0, r0, #11
 345 0174 C30A     		lsrs	r3, r0, #11
ARM GAS  C:\Users\NIGHDR~1\AppData\Local\Temp\ccvJ0Ig2.s 			page 8


 346 0176 2A93     		str	r3, [sp, #168]
 347              	.LVL48:
  55:sc.c          ****     int64_t s19 = 2097151 & (load_4(s + 49) >> 7);
 348              		.loc 1 55 0
 349 0178 4046     		mov	r0, r8
 350 017a 3130     		adds	r0, r0, #49
 351 017c FFF7FEFF 		bl	load_4
 352              	.LVL49:
 353 0180 C009     		lsrs	r0, r0, #7
 354 0182 C002     		lsls	r0, r0, #11
 355 0184 C50A     		lsrs	r5, r0, #11
 356 0186 2B95     		str	r5, [sp, #172]
 357              	.LVL50:
  56:sc.c          ****     int64_t s20 = 2097151 & (load_4(s + 52) >> 4);
 358              		.loc 1 56 0
 359 0188 4046     		mov	r0, r8
 360 018a 3430     		adds	r0, r0, #52
 361 018c FFF7FEFF 		bl	load_4
 362              	.LVL51:
 363 0190 0009     		lsrs	r0, r0, #4
 364 0192 C002     		lsls	r0, r0, #11
 365 0194 C20A     		lsrs	r2, r0, #11
 366 0196 0092     		str	r2, [sp]
 367              	.LVL52:
  57:sc.c          ****     int64_t s21 = 2097151 & (load_3(s + 55) >> 1);
 368              		.loc 1 57 0
 369 0198 4046     		mov	r0, r8
 370 019a 3730     		adds	r0, r0, #55
 371 019c FFF7FEFF 		bl	load_3
 372              	.LVL53:
 373 01a0 4408     		lsrs	r4, r0, #1
 374 01a2 E402     		lsls	r4, r4, #11
 375 01a4 E10A     		lsrs	r1, r4, #11
 376 01a6 0291     		str	r1, [sp, #8]
 377              	.LVL54:
  58:sc.c          ****     int64_t s22 = 2097151 & (load_4(s + 57) >> 6);
 378              		.loc 1 58 0
 379 01a8 4046     		mov	r0, r8
 380 01aa 3930     		adds	r0, r0, #57
 381 01ac FFF7FEFF 		bl	load_4
 382              	.LVL55:
 383 01b0 8509     		lsrs	r5, r0, #6
 384              	.LVL56:
 385 01b2 ED02     		lsls	r5, r5, #11
 386 01b4 E80A     		lsrs	r0, r5, #11
 387 01b6 0490     		str	r0, [sp, #16]
 388              	.LVL57:
  59:sc.c          ****     int64_t s23 = (load_4(s + 60) >> 3);
 389              		.loc 1 59 0
 390 01b8 4046     		mov	r0, r8
 391              	.LVL58:
 392 01ba 3C30     		adds	r0, r0, #60
 393 01bc FFF7FEFF 		bl	load_4
 394              	.LVL59:
 395 01c0 4B07     		lsls	r3, r1, #29
 396 01c2 C608     		lsrs	r6, r0, #3
 397 01c4 1E43     		orrs	r6, r3
ARM GAS  C:\Users\NIGHDR~1\AppData\Local\Temp\ccvJ0Ig2.s 			page 9


 398 01c6 CF08     		lsrs	r7, r1, #3
 399              	.LVL60:
  60:sc.c          ****     int64_t carry0;
  61:sc.c          ****     int64_t carry1;
  62:sc.c          ****     int64_t carry2;
  63:sc.c          ****     int64_t carry3;
  64:sc.c          ****     int64_t carry4;
  65:sc.c          ****     int64_t carry5;
  66:sc.c          ****     int64_t carry6;
  67:sc.c          ****     int64_t carry7;
  68:sc.c          ****     int64_t carry8;
  69:sc.c          ****     int64_t carry9;
  70:sc.c          ****     int64_t carry10;
  71:sc.c          ****     int64_t carry11;
  72:sc.c          ****     int64_t carry12;
  73:sc.c          ****     int64_t carry13;
  74:sc.c          ****     int64_t carry14;
  75:sc.c          ****     int64_t carry15;
  76:sc.c          ****     int64_t carry16;
  77:sc.c          **** 
  78:sc.c          ****     s11 += s23 * 666643;
 400              		.loc 1 78 0
 401 01c8 ED4A     		ldr	r2, .L4
 402 01ca 0023     		movs	r3, #0
 403 01cc 3000     		movs	r0, r6
 404 01ce 3900     		movs	r1, r7
 405 01d0 FFF7FEFF 		bl	__aeabi_lmul
 406              	.LVL61:
 407 01d4 1C9B     		ldr	r3, [sp, #112]
 408 01d6 1D9C     		ldr	r4, [sp, #116]
 409 01d8 1B18     		adds	r3, r3, r0
 410 01da 4C41     		adcs	r4, r4, r1
 411 01dc 2C93     		str	r3, [sp, #176]
 412 01de 2D94     		str	r4, [sp, #180]
 413              	.LVL62:
  79:sc.c          ****     s12 += s23 * 470296;
 414              		.loc 1 79 0
 415 01e0 E84A     		ldr	r2, .L4+4
 416 01e2 0023     		movs	r3, #0
 417              	.LVL63:
 418 01e4 3000     		movs	r0, r6
 419 01e6 3900     		movs	r1, r7
 420 01e8 FFF7FEFF 		bl	__aeabi_lmul
 421              	.LVL64:
 422 01ec 1E9B     		ldr	r3, [sp, #120]
 423 01ee 1F9C     		ldr	r4, [sp, #124]
 424 01f0 1B18     		adds	r3, r3, r0
 425 01f2 4C41     		adcs	r4, r4, r1
 426 01f4 1E93     		str	r3, [sp, #120]
 427 01f6 1F94     		str	r4, [sp, #124]
 428              	.LVL65:
  80:sc.c          ****     s13 += s23 * 654183;
 429              		.loc 1 80 0
 430 01f8 E34A     		ldr	r2, .L4+8
 431 01fa 0023     		movs	r3, #0
 432              	.LVL66:
 433 01fc 3000     		movs	r0, r6
ARM GAS  C:\Users\NIGHDR~1\AppData\Local\Temp\ccvJ0Ig2.s 			page 10


 434 01fe 3900     		movs	r1, r7
 435 0200 FFF7FEFF 		bl	__aeabi_lmul
 436              	.LVL67:
 437 0204 209C     		ldr	r4, [sp, #128]
 438 0206 219D     		ldr	r5, [sp, #132]
 439 0208 2418     		adds	r4, r4, r0
 440 020a 4D41     		adcs	r5, r5, r1
 441 020c 2094     		str	r4, [sp, #128]
 442 020e 2195     		str	r5, [sp, #132]
 443              	.LVL68:
  81:sc.c          ****     s14 -= s23 * 997805;
 444              		.loc 1 81 0
 445 0210 DE4A     		ldr	r2, .L4+12
 446 0212 0123     		movs	r3, #1
 447 0214 5B42     		rsbs	r3, r3, #0
 448 0216 3000     		movs	r0, r6
 449 0218 3900     		movs	r1, r7
 450 021a FFF7FEFF 		bl	__aeabi_lmul
 451              	.LVL69:
 452 021e 229C     		ldr	r4, [sp, #136]
 453 0220 239D     		ldr	r5, [sp, #140]
 454              	.LVL70:
 455 0222 2418     		adds	r4, r4, r0
 456 0224 4D41     		adcs	r5, r5, r1
 457              	.LVL71:
  82:sc.c          ****     s15 += s23 * 136657;
 458              		.loc 1 82 0
 459 0226 DA4A     		ldr	r2, .L4+16
 460 0228 0023     		movs	r3, #0
 461 022a 3000     		movs	r0, r6
 462 022c 3900     		movs	r1, r7
 463 022e FFF7FEFF 		bl	__aeabi_lmul
 464              	.LVL72:
 465 0232 249A     		ldr	r2, [sp, #144]
 466 0234 259B     		ldr	r3, [sp, #148]
 467 0236 1218     		adds	r2, r2, r0
 468 0238 4B41     		adcs	r3, r3, r1
 469 023a 2292     		str	r2, [sp, #136]
 470 023c 2393     		str	r3, [sp, #140]
 471              	.LVL73:
  83:sc.c          ****     s16 -= s23 * 683901;
 472              		.loc 1 83 0
 473 023e D54A     		ldr	r2, .L4+20
 474              	.LVL74:
 475 0240 0123     		movs	r3, #1
 476 0242 5B42     		rsbs	r3, r3, #0
 477 0244 3000     		movs	r0, r6
 478 0246 3900     		movs	r1, r7
 479 0248 FFF7FEFF 		bl	__aeabi_lmul
 480              	.LVL75:
 481 024c 269E     		ldr	r6, [sp, #152]
 482 024e 279F     		ldr	r7, [sp, #156]
 483              	.LVL76:
 484 0250 3618     		adds	r6, r6, r0
 485 0252 4F41     		adcs	r7, r7, r1
 486 0254 1C96     		str	r6, [sp, #112]
 487 0256 1D97     		str	r7, [sp, #116]
ARM GAS  C:\Users\NIGHDR~1\AppData\Local\Temp\ccvJ0Ig2.s 			page 11


 488              	.LVL77:
  84:sc.c          ****     s23 = 0;
  85:sc.c          ****     s10 += s22 * 666643;
 489              		.loc 1 85 0
 490 0258 C94A     		ldr	r2, .L4
 491 025a 0023     		movs	r3, #0
 492 025c 0498     		ldr	r0, [sp, #16]
 493 025e 0021     		movs	r1, #0
 494 0260 FFF7FEFF 		bl	__aeabi_lmul
 495              	.LVL78:
 496 0264 1A9E     		ldr	r6, [sp, #104]
 497 0266 1B9F     		ldr	r7, [sp, #108]
 498              	.LVL79:
 499 0268 3618     		adds	r6, r6, r0
 500 026a 4F41     		adcs	r7, r7, r1
 501              	.LVL80:
  86:sc.c          ****     s11 += s22 * 470296;
 502              		.loc 1 86 0
 503 026c C54A     		ldr	r2, .L4+4
 504 026e 0023     		movs	r3, #0
 505 0270 0498     		ldr	r0, [sp, #16]
 506 0272 0021     		movs	r1, #0
 507 0274 FFF7FEFF 		bl	__aeabi_lmul
 508              	.LVL81:
 509 0278 2C9A     		ldr	r2, [sp, #176]
 510 027a 2D9B     		ldr	r3, [sp, #180]
 511 027c 1218     		adds	r2, r2, r0
 512 027e 4B41     		adcs	r3, r3, r1
 513 0280 1A92     		str	r2, [sp, #104]
 514 0282 1B93     		str	r3, [sp, #108]
 515              	.LVL82:
  87:sc.c          ****     s12 += s22 * 654183;
 516              		.loc 1 87 0
 517 0284 C04A     		ldr	r2, .L4+8
 518              	.LVL83:
 519 0286 0023     		movs	r3, #0
 520 0288 0498     		ldr	r0, [sp, #16]
 521 028a 0021     		movs	r1, #0
 522 028c FFF7FEFF 		bl	__aeabi_lmul
 523              	.LVL84:
 524 0290 1E9A     		ldr	r2, [sp, #120]
 525 0292 1F9B     		ldr	r3, [sp, #124]
 526 0294 1218     		adds	r2, r2, r0
 527 0296 4B41     		adcs	r3, r3, r1
 528 0298 1E92     		str	r2, [sp, #120]
 529 029a 1F93     		str	r3, [sp, #124]
 530              	.LVL85:
  88:sc.c          ****     s13 -= s22 * 997805;
 531              		.loc 1 88 0
 532 029c BB4A     		ldr	r2, .L4+12
 533              	.LVL86:
 534 029e 0123     		movs	r3, #1
 535 02a0 5B42     		rsbs	r3, r3, #0
 536 02a2 0498     		ldr	r0, [sp, #16]
 537 02a4 0021     		movs	r1, #0
 538 02a6 FFF7FEFF 		bl	__aeabi_lmul
 539              	.LVL87:
ARM GAS  C:\Users\NIGHDR~1\AppData\Local\Temp\ccvJ0Ig2.s 			page 12


 540 02aa 209A     		ldr	r2, [sp, #128]
 541 02ac 219B     		ldr	r3, [sp, #132]
 542 02ae 1218     		adds	r2, r2, r0
 543 02b0 4B41     		adcs	r3, r3, r1
 544 02b2 2092     		str	r2, [sp, #128]
 545 02b4 2193     		str	r3, [sp, #132]
 546              	.LVL88:
  89:sc.c          ****     s14 += s22 * 136657;
 547              		.loc 1 89 0
 548 02b6 B64A     		ldr	r2, .L4+16
 549              	.LVL89:
 550 02b8 0023     		movs	r3, #0
 551 02ba 0498     		ldr	r0, [sp, #16]
 552 02bc 0021     		movs	r1, #0
 553 02be FFF7FEFF 		bl	__aeabi_lmul
 554              	.LVL90:
 555 02c2 2418     		adds	r4, r4, r0
 556 02c4 4D41     		adcs	r5, r5, r1
 557              	.LVL91:
  90:sc.c          ****     s15 -= s22 * 683901;
 558              		.loc 1 90 0
 559 02c6 B34A     		ldr	r2, .L4+20
 560 02c8 0123     		movs	r3, #1
 561 02ca 5B42     		rsbs	r3, r3, #0
 562 02cc 0498     		ldr	r0, [sp, #16]
 563 02ce 0021     		movs	r1, #0
 564 02d0 FFF7FEFF 		bl	__aeabi_lmul
 565              	.LVL92:
 566 02d4 229A     		ldr	r2, [sp, #136]
 567 02d6 239B     		ldr	r3, [sp, #140]
 568 02d8 1218     		adds	r2, r2, r0
 569 02da 4B41     		adcs	r3, r3, r1
 570 02dc 2292     		str	r2, [sp, #136]
 571 02de 2393     		str	r3, [sp, #140]
 572              	.LVL93:
  91:sc.c          ****     s22 = 0;
  92:sc.c          ****     s9 += s21 * 666643;
 573              		.loc 1 92 0
 574 02e0 A74A     		ldr	r2, .L4
 575              	.LVL94:
 576 02e2 0023     		movs	r3, #0
 577 02e4 0298     		ldr	r0, [sp, #8]
 578 02e6 0021     		movs	r1, #0
 579 02e8 FFF7FEFF 		bl	__aeabi_lmul
 580              	.LVL95:
 581 02ec 189A     		ldr	r2, [sp, #96]
 582 02ee 199B     		ldr	r3, [sp, #100]
 583 02f0 1218     		adds	r2, r2, r0
 584 02f2 4B41     		adcs	r3, r3, r1
 585 02f4 0492     		str	r2, [sp, #16]
 586 02f6 0593     		str	r3, [sp, #20]
 587              	.LVL96:
  93:sc.c          ****     s10 += s21 * 470296;
 588              		.loc 1 93 0
 589 02f8 A24A     		ldr	r2, .L4+4
 590              	.LVL97:
 591 02fa 0023     		movs	r3, #0
ARM GAS  C:\Users\NIGHDR~1\AppData\Local\Temp\ccvJ0Ig2.s 			page 13


 592 02fc 0298     		ldr	r0, [sp, #8]
 593 02fe 0021     		movs	r1, #0
 594 0300 FFF7FEFF 		bl	__aeabi_lmul
 595              	.LVL98:
 596 0304 3618     		adds	r6, r6, r0
 597 0306 4F41     		adcs	r7, r7, r1
 598              	.LVL99:
  94:sc.c          ****     s11 += s21 * 654183;
 599              		.loc 1 94 0
 600 0308 9F4A     		ldr	r2, .L4+8
 601 030a 0023     		movs	r3, #0
 602 030c 0298     		ldr	r0, [sp, #8]
 603 030e 0021     		movs	r1, #0
 604 0310 FFF7FEFF 		bl	__aeabi_lmul
 605              	.LVL100:
 606 0314 1A9A     		ldr	r2, [sp, #104]
 607 0316 1B9B     		ldr	r3, [sp, #108]
 608 0318 1218     		adds	r2, r2, r0
 609 031a 4B41     		adcs	r3, r3, r1
 610 031c 1892     		str	r2, [sp, #96]
 611 031e 1993     		str	r3, [sp, #100]
 612              	.LVL101:
  95:sc.c          ****     s12 -= s21 * 997805;
 613              		.loc 1 95 0
 614 0320 9A4A     		ldr	r2, .L4+12
 615              	.LVL102:
 616 0322 0123     		movs	r3, #1
 617 0324 5B42     		rsbs	r3, r3, #0
 618 0326 0298     		ldr	r0, [sp, #8]
 619 0328 0021     		movs	r1, #0
 620 032a FFF7FEFF 		bl	__aeabi_lmul
 621              	.LVL103:
 622 032e 1E9A     		ldr	r2, [sp, #120]
 623 0330 1F9B     		ldr	r3, [sp, #124]
 624 0332 1218     		adds	r2, r2, r0
 625 0334 4B41     		adcs	r3, r3, r1
 626 0336 1A92     		str	r2, [sp, #104]
 627 0338 1B93     		str	r3, [sp, #108]
 628              	.LVL104:
  96:sc.c          ****     s13 += s21 * 136657;
 629              		.loc 1 96 0
 630 033a 954A     		ldr	r2, .L4+16
 631              	.LVL105:
 632 033c 0023     		movs	r3, #0
 633 033e 0298     		ldr	r0, [sp, #8]
 634 0340 0021     		movs	r1, #0
 635 0342 FFF7FEFF 		bl	__aeabi_lmul
 636              	.LVL106:
 637 0346 209A     		ldr	r2, [sp, #128]
 638 0348 219B     		ldr	r3, [sp, #132]
 639 034a 1218     		adds	r2, r2, r0
 640 034c 4B41     		adcs	r3, r3, r1
 641 034e 1E92     		str	r2, [sp, #120]
 642 0350 1F93     		str	r3, [sp, #124]
 643              	.LVL107:
  97:sc.c          ****     s14 -= s21 * 683901;
 644              		.loc 1 97 0
ARM GAS  C:\Users\NIGHDR~1\AppData\Local\Temp\ccvJ0Ig2.s 			page 14


 645 0352 904A     		ldr	r2, .L4+20
 646              	.LVL108:
 647 0354 0123     		movs	r3, #1
 648 0356 5B42     		rsbs	r3, r3, #0
 649 0358 0298     		ldr	r0, [sp, #8]
 650 035a 0021     		movs	r1, #0
 651 035c FFF7FEFF 		bl	__aeabi_lmul
 652              	.LVL109:
 653 0360 2418     		adds	r4, r4, r0
 654 0362 4D41     		adcs	r5, r5, r1
 655              	.LVL110:
 656 0364 0294     		str	r4, [sp, #8]
 657 0366 0395     		str	r5, [sp, #12]
 658              	.LVL111:
  98:sc.c          ****     s21 = 0;
  99:sc.c          ****     s8 += s20 * 666643;
 659              		.loc 1 99 0
 660 0368 854A     		ldr	r2, .L4
 661 036a 0023     		movs	r3, #0
 662 036c 0098     		ldr	r0, [sp]
 663 036e 0021     		movs	r1, #0
 664 0370 FFF7FEFF 		bl	__aeabi_lmul
 665              	.LVL112:
 666 0374 169C     		ldr	r4, [sp, #88]
 667 0376 179D     		ldr	r5, [sp, #92]
 668              	.LVL113:
 669 0378 2418     		adds	r4, r4, r0
 670 037a 4D41     		adcs	r5, r5, r1
 671              	.LVL114:
 100:sc.c          ****     s9 += s20 * 470296;
 672              		.loc 1 100 0
 673 037c 814A     		ldr	r2, .L4+4
 674 037e 0023     		movs	r3, #0
 675 0380 0098     		ldr	r0, [sp]
 676 0382 0021     		movs	r1, #0
 677 0384 FFF7FEFF 		bl	__aeabi_lmul
 678              	.LVL115:
 679 0388 049A     		ldr	r2, [sp, #16]
 680 038a 059B     		ldr	r3, [sp, #20]
 681 038c 1218     		adds	r2, r2, r0
 682 038e 4B41     		adcs	r3, r3, r1
 683 0390 0492     		str	r2, [sp, #16]
 684 0392 0593     		str	r3, [sp, #20]
 685              	.LVL116:
 101:sc.c          ****     s10 += s20 * 654183;
 686              		.loc 1 101 0
 687 0394 7C4A     		ldr	r2, .L4+8
 688              	.LVL117:
 689 0396 0023     		movs	r3, #0
 690 0398 0098     		ldr	r0, [sp]
 691 039a 0021     		movs	r1, #0
 692 039c FFF7FEFF 		bl	__aeabi_lmul
 693              	.LVL118:
 694 03a0 3618     		adds	r6, r6, r0
 695 03a2 4F41     		adcs	r7, r7, r1
 696              	.LVL119:
 102:sc.c          ****     s11 -= s20 * 997805;
ARM GAS  C:\Users\NIGHDR~1\AppData\Local\Temp\ccvJ0Ig2.s 			page 15


 697              		.loc 1 102 0
 698 03a4 794A     		ldr	r2, .L4+12
 699 03a6 0123     		movs	r3, #1
 700 03a8 5B42     		rsbs	r3, r3, #0
 701 03aa 0098     		ldr	r0, [sp]
 702 03ac 0021     		movs	r1, #0
 703 03ae FFF7FEFF 		bl	__aeabi_lmul
 704              	.LVL120:
 705 03b2 189A     		ldr	r2, [sp, #96]
 706 03b4 199B     		ldr	r3, [sp, #100]
 707 03b6 1218     		adds	r2, r2, r0
 708 03b8 4B41     		adcs	r3, r3, r1
 709 03ba 1692     		str	r2, [sp, #88]
 710 03bc 1793     		str	r3, [sp, #92]
 711              	.LVL121:
 103:sc.c          ****     s12 += s20 * 136657;
 712              		.loc 1 103 0
 713 03be 744A     		ldr	r2, .L4+16
 714              	.LVL122:
 715 03c0 0023     		movs	r3, #0
 716 03c2 0098     		ldr	r0, [sp]
 717 03c4 0021     		movs	r1, #0
 718 03c6 FFF7FEFF 		bl	__aeabi_lmul
 719              	.LVL123:
 720 03ca 1A9A     		ldr	r2, [sp, #104]
 721 03cc 1B9B     		ldr	r3, [sp, #108]
 722 03ce 1218     		adds	r2, r2, r0
 723 03d0 4B41     		adcs	r3, r3, r1
 724 03d2 1892     		str	r2, [sp, #96]
 725 03d4 1993     		str	r3, [sp, #100]
 726              	.LVL124:
 104:sc.c          ****     s13 -= s20 * 683901;
 727              		.loc 1 104 0
 728 03d6 6F4A     		ldr	r2, .L4+20
 729              	.LVL125:
 730 03d8 0123     		movs	r3, #1
 731 03da 5B42     		rsbs	r3, r3, #0
 732 03dc 0098     		ldr	r0, [sp]
 733 03de 0021     		movs	r1, #0
 734 03e0 FFF7FEFF 		bl	__aeabi_lmul
 735              	.LVL126:
 736 03e4 1E9A     		ldr	r2, [sp, #120]
 737 03e6 1F9B     		ldr	r3, [sp, #124]
 738 03e8 1218     		adds	r2, r2, r0
 739 03ea 4B41     		adcs	r3, r3, r1
 740 03ec 1A92     		str	r2, [sp, #104]
 741 03ee 1B93     		str	r3, [sp, #108]
 742              	.LVL127:
 105:sc.c          ****     s20 = 0;
 106:sc.c          ****     s7 += s19 * 666643;
 743              		.loc 1 106 0
 744 03f0 634A     		ldr	r2, .L4
 745              	.LVL128:
 746 03f2 0023     		movs	r3, #0
 747 03f4 2B98     		ldr	r0, [sp, #172]
 748 03f6 0021     		movs	r1, #0
 749 03f8 FFF7FEFF 		bl	__aeabi_lmul
ARM GAS  C:\Users\NIGHDR~1\AppData\Local\Temp\ccvJ0Ig2.s 			page 16


 750              	.LVL129:
 751 03fc 089A     		ldr	r2, [sp, #32]
 752 03fe 099B     		ldr	r3, [sp, #36]
 753 0400 1218     		adds	r2, r2, r0
 754 0402 4B41     		adcs	r3, r3, r1
 755 0404 0892     		str	r2, [sp, #32]
 756 0406 0993     		str	r3, [sp, #36]
 757              	.LVL130:
 107:sc.c          ****     s8 += s19 * 470296;
 758              		.loc 1 107 0
 759 0408 5E4A     		ldr	r2, .L4+4
 760              	.LVL131:
 761 040a 0023     		movs	r3, #0
 762 040c 2B98     		ldr	r0, [sp, #172]
 763 040e 0021     		movs	r1, #0
 764 0410 FFF7FEFF 		bl	__aeabi_lmul
 765              	.LVL132:
 766 0414 2418     		adds	r4, r4, r0
 767 0416 4D41     		adcs	r5, r5, r1
 768              	.LVL133:
 769 0418 1E94     		str	r4, [sp, #120]
 770 041a 1F95     		str	r5, [sp, #124]
 771              	.LVL134:
 108:sc.c          ****     s9 += s19 * 654183;
 772              		.loc 1 108 0
 773 041c 5A4A     		ldr	r2, .L4+8
 774 041e 0023     		movs	r3, #0
 775 0420 2B9D     		ldr	r5, [sp, #172]
 776 0422 2800     		movs	r0, r5
 777 0424 0021     		movs	r1, #0
 778 0426 FFF7FEFF 		bl	__aeabi_lmul
 779              	.LVL135:
 780 042a 049B     		ldr	r3, [sp, #16]
 781 042c 059C     		ldr	r4, [sp, #20]
 782 042e 1B18     		adds	r3, r3, r0
 783 0430 4C41     		adcs	r4, r4, r1
 784 0432 0493     		str	r3, [sp, #16]
 785 0434 0594     		str	r4, [sp, #20]
 786              	.LVL136:
 109:sc.c          ****     s10 -= s19 * 997805;
 787              		.loc 1 109 0
 788 0436 554A     		ldr	r2, .L4+12
 789 0438 0123     		movs	r3, #1
 790              	.LVL137:
 791 043a 5B42     		rsbs	r3, r3, #0
 792 043c 2800     		movs	r0, r5
 793 043e 0021     		movs	r1, #0
 794 0440 FFF7FEFF 		bl	__aeabi_lmul
 795              	.LVL138:
 796 0444 3618     		adds	r6, r6, r0
 797 0446 4F41     		adcs	r7, r7, r1
 798              	.LVL139:
 799 0448 2096     		str	r6, [sp, #128]
 800 044a 2197     		str	r7, [sp, #132]
 801              	.LVL140:
 110:sc.c          ****     s11 += s19 * 136657;
 802              		.loc 1 110 0
ARM GAS  C:\Users\NIGHDR~1\AppData\Local\Temp\ccvJ0Ig2.s 			page 17


 803 044c 504A     		ldr	r2, .L4+16
 804 044e 0023     		movs	r3, #0
 805 0450 2C00     		movs	r4, r5
 806              	.LVL141:
 807 0452 2800     		movs	r0, r5
 808 0454 0021     		movs	r1, #0
 809 0456 FFF7FEFF 		bl	__aeabi_lmul
 810              	.LVL142:
 811 045a 169D     		ldr	r5, [sp, #88]
 812 045c 179E     		ldr	r6, [sp, #92]
 813 045e 2D18     		adds	r5, r5, r0
 814 0460 4E41     		adcs	r6, r6, r1
 815 0462 1695     		str	r5, [sp, #88]
 816 0464 1796     		str	r6, [sp, #92]
 817              	.LVL143:
 111:sc.c          ****     s12 -= s19 * 683901;
 818              		.loc 1 111 0
 819 0466 4B4A     		ldr	r2, .L4+20
 820 0468 0123     		movs	r3, #1
 821 046a 5B42     		rsbs	r3, r3, #0
 822 046c 2000     		movs	r0, r4
 823 046e 0021     		movs	r1, #0
 824 0470 FFF7FEFF 		bl	__aeabi_lmul
 825              	.LVL144:
 826 0474 189B     		ldr	r3, [sp, #96]
 827 0476 199C     		ldr	r4, [sp, #100]
 828 0478 1B18     		adds	r3, r3, r0
 829 047a 4C41     		adcs	r4, r4, r1
 830 047c 0093     		str	r3, [sp]
 831 047e 0194     		str	r4, [sp, #4]
 832              	.LVL145:
 112:sc.c          ****     s19 = 0;
 113:sc.c          ****     s6 += s18 * 666643;
 833              		.loc 1 113 0
 834 0480 3F4A     		ldr	r2, .L4
 835 0482 0023     		movs	r3, #0
 836              	.LVL146:
 837 0484 2A9F     		ldr	r7, [sp, #168]
 838 0486 3800     		movs	r0, r7
 839 0488 0021     		movs	r1, #0
 840 048a FFF7FEFF 		bl	__aeabi_lmul
 841              	.LVL147:
 842 048e 069C     		ldr	r4, [sp, #24]
 843 0490 079D     		ldr	r5, [sp, #28]
 844 0492 2418     		adds	r4, r4, r0
 845 0494 4D41     		adcs	r5, r5, r1
 846              	.LVL148:
 114:sc.c          ****     s7 += s18 * 470296;
 847              		.loc 1 114 0
 848 0496 3B4A     		ldr	r2, .L4+4
 849 0498 0023     		movs	r3, #0
 850 049a 3800     		movs	r0, r7
 851 049c 0021     		movs	r1, #0
 852 049e FFF7FEFF 		bl	__aeabi_lmul
 853              	.LVL149:
 854 04a2 089A     		ldr	r2, [sp, #32]
 855 04a4 099B     		ldr	r3, [sp, #36]
ARM GAS  C:\Users\NIGHDR~1\AppData\Local\Temp\ccvJ0Ig2.s 			page 18


 856 04a6 1218     		adds	r2, r2, r0
 857 04a8 4B41     		adcs	r3, r3, r1
 858 04aa 0692     		str	r2, [sp, #24]
 859 04ac 0793     		str	r3, [sp, #28]
 860              	.LVL150:
 115:sc.c          ****     s8 += s18 * 654183;
 861              		.loc 1 115 0
 862 04ae 364A     		ldr	r2, .L4+8
 863              	.LVL151:
 864 04b0 0023     		movs	r3, #0
 865 04b2 2A97     		str	r7, [sp, #168]
 866              	.LVL152:
 867 04b4 3800     		movs	r0, r7
 868 04b6 0021     		movs	r1, #0
 869 04b8 FFF7FEFF 		bl	__aeabi_lmul
 870              	.LVL153:
 871 04bc 1E9E     		ldr	r6, [sp, #120]
 872 04be 1F9F     		ldr	r7, [sp, #124]
 873              	.LVL154:
 874 04c0 3618     		adds	r6, r6, r0
 875 04c2 4F41     		adcs	r7, r7, r1
 876 04c4 0896     		str	r6, [sp, #32]
 877 04c6 0997     		str	r7, [sp, #36]
 878              	.LVL155:
 116:sc.c          ****     s9 -= s18 * 997805;
 879              		.loc 1 116 0
 880 04c8 304A     		ldr	r2, .L4+12
 881 04ca 0123     		movs	r3, #1
 882 04cc 5B42     		rsbs	r3, r3, #0
 883 04ce 2A9F     		ldr	r7, [sp, #168]
 884 04d0 3800     		movs	r0, r7
 885 04d2 0021     		movs	r1, #0
 886 04d4 FFF7FEFF 		bl	__aeabi_lmul
 887              	.LVL156:
 888 04d8 049A     		ldr	r2, [sp, #16]
 889 04da 059B     		ldr	r3, [sp, #20]
 890 04dc 1218     		adds	r2, r2, r0
 891 04de 4B41     		adcs	r3, r3, r1
 892 04e0 1892     		str	r2, [sp, #96]
 893 04e2 1993     		str	r3, [sp, #100]
 894              	.LVL157:
 117:sc.c          ****     s10 += s18 * 136657;
 895              		.loc 1 117 0
 896 04e4 2A4A     		ldr	r2, .L4+16
 897              	.LVL158:
 898 04e6 0023     		movs	r3, #0
 899 04e8 3800     		movs	r0, r7
 900 04ea 0021     		movs	r1, #0
 901 04ec FFF7FEFF 		bl	__aeabi_lmul
 902              	.LVL159:
 903 04f0 209A     		ldr	r2, [sp, #128]
 904 04f2 219B     		ldr	r3, [sp, #132]
 905 04f4 1218     		adds	r2, r2, r0
 906 04f6 4B41     		adcs	r3, r3, r1
 907 04f8 0492     		str	r2, [sp, #16]
 908 04fa 0593     		str	r3, [sp, #20]
 909              	.LVL160:
ARM GAS  C:\Users\NIGHDR~1\AppData\Local\Temp\ccvJ0Ig2.s 			page 19


 118:sc.c          ****     s11 -= s18 * 683901;
 910              		.loc 1 118 0
 911 04fc 254A     		ldr	r2, .L4+20
 912              	.LVL161:
 913 04fe 0123     		movs	r3, #1
 914 0500 5B42     		rsbs	r3, r3, #0
 915 0502 3800     		movs	r0, r7
 916 0504 0021     		movs	r1, #0
 917 0506 FFF7FEFF 		bl	__aeabi_lmul
 918              	.LVL162:
 919 050a 169A     		ldr	r2, [sp, #88]
 920 050c 179B     		ldr	r3, [sp, #92]
 921 050e 1218     		adds	r2, r2, r0
 922 0510 4B41     		adcs	r3, r3, r1
 923 0512 1692     		str	r2, [sp, #88]
 924 0514 1793     		str	r3, [sp, #92]
 925              	.LVL163:
 119:sc.c          ****     s18 = 0;
 120:sc.c          ****     carry6 = (s6 + (1 << 20)) >> 21;
 926              		.loc 1 120 0
 927 0516 8021     		movs	r1, #128
 928 0518 4903     		lsls	r1, r1, #13
 929 051a 0022     		movs	r2, #0
 930              	.LVL164:
 931 051c 0919     		adds	r1, r1, r4
 932 051e 6A41     		adcs	r2, r2, r5
 933 0520 0800     		movs	r0, r1
 934 0522 1100     		movs	r1, r2
 935 0524 D302     		lsls	r3, r2, #11
 936 0526 9C46     		mov	ip, r3
 937 0528 420D     		lsrs	r2, r0, #21
 938 052a 6746     		mov	r7, ip
 939 052c 3A43     		orrs	r2, r7
 940 052e 4B15     		asrs	r3, r1, #21
 941              	.LVL165:
 121:sc.c          ****     s7 += carry6;
 942              		.loc 1 121 0
 943 0530 0698     		ldr	r0, [sp, #24]
 944 0532 0799     		ldr	r1, [sp, #28]
 945 0534 8018     		adds	r0, r0, r2
 946 0536 5941     		adcs	r1, r1, r3
 947 0538 0690     		str	r0, [sp, #24]
 948 053a 0791     		str	r1, [sp, #28]
 949              	.LVL166:
 122:sc.c          ****     s6 -= carry6 << 21;
 950              		.loc 1 122 0
 951 053c D70A     		lsrs	r7, r2, #11
 952 053e 5905     		lsls	r1, r3, #21
 953 0540 3943     		orrs	r1, r7
 954 0542 5005     		lsls	r0, r2, #21
 955              	.LVL167:
 956 0544 2300     		movs	r3, r4
 957 0546 2C00     		movs	r4, r5
 958              	.LVL168:
 959 0548 1B1A     		subs	r3, r3, r0
 960 054a 8C41     		sbcs	r4, r4, r1
 961 054c 1E93     		str	r3, [sp, #120]
ARM GAS  C:\Users\NIGHDR~1\AppData\Local\Temp\ccvJ0Ig2.s 			page 20


 962 054e 1F94     		str	r4, [sp, #124]
 963              	.LVL169:
 123:sc.c          ****     carry8 = (s8 + (1 << 20)) >> 21;
 964              		.loc 1 123 0
 965 0550 8021     		movs	r1, #128
 966 0552 4903     		lsls	r1, r1, #13
 967 0554 0022     		movs	r2, #0
 968              	.LVL170:
 969 0556 089E     		ldr	r6, [sp, #32]
 970 0558 099F     		ldr	r7, [sp, #36]
 971 055a 3300     		movs	r3, r6
 972              	.LVL171:
 973 055c 3C00     		movs	r4, r7
 974 055e C918     		adds	r1, r1, r3
 975 0560 6241     		adcs	r2, r2, r4
 976 0562 0800     		movs	r0, r1
 977 0564 1100     		movs	r1, r2
 978 0566 D402     		lsls	r4, r2, #11
 979 0568 420D     		lsrs	r2, r0, #21
 980 056a 2243     		orrs	r2, r4
 981 056c 4B15     		asrs	r3, r1, #21
 982              	.LVL172:
 124:sc.c          ****     s9 += carry8;
 983              		.loc 1 124 0
 984 056e 189C     		ldr	r4, [sp, #96]
 985 0570 199D     		ldr	r5, [sp, #100]
 986 0572 A418     		adds	r4, r4, r2
 987 0574 5D41     		adcs	r5, r5, r3
 988 0576 0894     		str	r4, [sp, #32]
 989 0578 0995     		str	r5, [sp, #36]
 990              	.LVL173:
 125:sc.c          ****     s8 -= carry8 << 21;
 991              		.loc 1 125 0
 992 057a D50A     		lsrs	r5, r2, #11
 993 057c 5905     		lsls	r1, r3, #21
 994 057e 0BE0     		b	.L5
 995              	.L6:
 996              		.align	2
 997              	.L4:
 998 0580 132C0A00 		.word	666643
 999 0584 182D0700 		.word	470296
 1000 0588 67FB0900 		.word	654183
 1001 058c 53C6F0FF 		.word	-997805
 1002 0590 D1150200 		.word	136657
 1003 0594 8390F5FF 		.word	-683901
 1004              	.L5:
 1005 0598 2943     		orrs	r1, r5
 1006 059a 5005     		lsls	r0, r2, #21
 1007 059c 361A     		subs	r6, r6, r0
 1008 059e 8F41     		sbcs	r7, r7, r1
 1009              	.LVL174:
 1010 05a0 1896     		str	r6, [sp, #96]
 1011 05a2 1997     		str	r7, [sp, #100]
 1012              	.LVL175:
 126:sc.c          ****     carry10 = (s10 + (1 << 20)) >> 21;
 1013              		.loc 1 126 0
 1014 05a4 8021     		movs	r1, #128
ARM GAS  C:\Users\NIGHDR~1\AppData\Local\Temp\ccvJ0Ig2.s 			page 21


 1015 05a6 4903     		lsls	r1, r1, #13
 1016 05a8 0022     		movs	r2, #0
 1017              	.LVL176:
 1018 05aa 049E     		ldr	r6, [sp, #16]
 1019 05ac 059F     		ldr	r7, [sp, #20]
 1020              	.LVL177:
 1021 05ae 8919     		adds	r1, r1, r6
 1022 05b0 7A41     		adcs	r2, r2, r7
 1023 05b2 0800     		movs	r0, r1
 1024 05b4 1100     		movs	r1, r2
 1025 05b6 D602     		lsls	r6, r2, #11
 1026 05b8 420D     		lsrs	r2, r0, #21
 1027 05ba 3243     		orrs	r2, r6
 1028 05bc 4B15     		asrs	r3, r1, #21
 1029              	.LVL178:
 127:sc.c          ****     s11 += carry10;
 1030              		.loc 1 127 0
 1031 05be 169E     		ldr	r6, [sp, #88]
 1032 05c0 179F     		ldr	r7, [sp, #92]
 1033 05c2 B618     		adds	r6, r6, r2
 1034 05c4 5F41     		adcs	r7, r7, r3
 1035 05c6 1696     		str	r6, [sp, #88]
 1036 05c8 1797     		str	r7, [sp, #92]
 1037              	.LVL179:
 128:sc.c          ****     s10 -= carry10 << 21;
 1038              		.loc 1 128 0
 1039 05ca D50A     		lsrs	r5, r2, #11
 1040 05cc 5905     		lsls	r1, r3, #21
 1041 05ce 2943     		orrs	r1, r5
 1042 05d0 5005     		lsls	r0, r2, #21
 1043 05d2 049A     		ldr	r2, [sp, #16]
 1044 05d4 059B     		ldr	r3, [sp, #20]
 1045              	.LVL180:
 1046 05d6 121A     		subs	r2, r2, r0
 1047 05d8 8B41     		sbcs	r3, r3, r1
 1048 05da 0492     		str	r2, [sp, #16]
 1049 05dc 0593     		str	r3, [sp, #20]
 1050              	.LVL181:
 129:sc.c          ****     carry12 = (s12 + (1 << 20)) >> 21;
 1051              		.loc 1 129 0
 1052 05de 8025     		movs	r5, #128
 1053 05e0 6D03     		lsls	r5, r5, #13
 1054 05e2 0026     		movs	r6, #0
 1055              	.LVL182:
 1056 05e4 0099     		ldr	r1, [sp]
 1057 05e6 019A     		ldr	r2, [sp, #4]
 1058 05e8 6D18     		adds	r5, r5, r1
 1059 05ea 5641     		adcs	r6, r6, r2
 1060 05ec 2800     		movs	r0, r5
 1061 05ee F502     		lsls	r5, r6, #11
 1062 05f0 420D     		lsrs	r2, r0, #21
 1063              	.LVL183:
 1064 05f2 2A43     		orrs	r2, r5
 1065 05f4 7315     		asrs	r3, r6, #21
 1066              	.LVL184:
 130:sc.c          ****     s13 += carry12;
 1067              		.loc 1 130 0
ARM GAS  C:\Users\NIGHDR~1\AppData\Local\Temp\ccvJ0Ig2.s 			page 22


 1068 05f6 1A98     		ldr	r0, [sp, #104]
 1069 05f8 1B99     		ldr	r1, [sp, #108]
 1070 05fa 8018     		adds	r0, r0, r2
 1071 05fc 5941     		adcs	r1, r1, r3
 1072 05fe 1A90     		str	r0, [sp, #104]
 1073 0600 1B91     		str	r1, [sp, #108]
 1074              	.LVL185:
 131:sc.c          ****     s12 -= carry12 << 21;
 1075              		.loc 1 131 0
 1076 0602 D50A     		lsrs	r5, r2, #11
 1077 0604 5905     		lsls	r1, r3, #21
 1078 0606 2943     		orrs	r1, r5
 1079 0608 5005     		lsls	r0, r2, #21
 1080              	.LVL186:
 1081 060a 009A     		ldr	r2, [sp]
 1082 060c 019B     		ldr	r3, [sp, #4]
 1083              	.LVL187:
 1084 060e 121A     		subs	r2, r2, r0
 1085 0610 8B41     		sbcs	r3, r3, r1
 1086 0612 2092     		str	r2, [sp, #128]
 1087 0614 2193     		str	r3, [sp, #132]
 1088              	.LVL188:
 132:sc.c          ****     carry14 = (s14 + (1 << 20)) >> 21;
 1089              		.loc 1 132 0
 1090 0616 8025     		movs	r5, #128
 1091 0618 6D03     		lsls	r5, r5, #13
 1092 061a 0026     		movs	r6, #0
 1093 061c 0299     		ldr	r1, [sp, #8]
 1094 061e 039A     		ldr	r2, [sp, #12]
 1095 0620 6D18     		adds	r5, r5, r1
 1096 0622 5641     		adcs	r6, r6, r2
 1097 0624 2800     		movs	r0, r5
 1098 0626 F502     		lsls	r5, r6, #11
 1099 0628 420D     		lsrs	r2, r0, #21
 1100              	.LVL189:
 1101 062a 2A43     		orrs	r2, r5
 1102 062c 7315     		asrs	r3, r6, #21
 1103              	.LVL190:
 133:sc.c          ****     s15 += carry14;
 1104              		.loc 1 133 0
 1105 062e 2298     		ldr	r0, [sp, #136]
 1106 0630 2399     		ldr	r1, [sp, #140]
 1107 0632 8018     		adds	r0, r0, r2
 1108 0634 5941     		adcs	r1, r1, r3
 1109 0636 2290     		str	r0, [sp, #136]
 1110 0638 2391     		str	r1, [sp, #140]
 1111              	.LVL191:
 134:sc.c          ****     s14 -= carry14 << 21;
 1112              		.loc 1 134 0
 1113 063a D70A     		lsrs	r7, r2, #11
 1114 063c 5905     		lsls	r1, r3, #21
 1115 063e 3943     		orrs	r1, r7
 1116 0640 5005     		lsls	r0, r2, #21
 1117              	.LVL192:
 1118 0642 029A     		ldr	r2, [sp, #8]
 1119 0644 039B     		ldr	r3, [sp, #12]
 1120              	.LVL193:
ARM GAS  C:\Users\NIGHDR~1\AppData\Local\Temp\ccvJ0Ig2.s 			page 23


 1121 0646 121A     		subs	r2, r2, r0
 1122 0648 8B41     		sbcs	r3, r3, r1
 1123 064a 0292     		str	r2, [sp, #8]
 1124 064c 0393     		str	r3, [sp, #12]
 1125              	.LVL194:
 135:sc.c          ****     carry16 = (s16 + (1 << 20)) >> 21;
 1126              		.loc 1 135 0
 1127 064e 8024     		movs	r4, #128
 1128              	.LVL195:
 1129 0650 6403     		lsls	r4, r4, #13
 1130 0652 0025     		movs	r5, #0
 1131 0654 1C99     		ldr	r1, [sp, #112]
 1132 0656 1D9A     		ldr	r2, [sp, #116]
 1133 0658 6418     		adds	r4, r4, r1
 1134 065a 5541     		adcs	r5, r5, r2
 1135 065c EF02     		lsls	r7, r5, #11
 1136 065e 620D     		lsrs	r2, r4, #21
 1137              	.LVL196:
 1138 0660 3A43     		orrs	r2, r7
 1139 0662 6B15     		asrs	r3, r5, #21
 1140              	.LVL197:
 136:sc.c          ****     s17 += carry16;
 1141              		.loc 1 136 0
 1142 0664 2898     		ldr	r0, [sp, #160]
 1143 0666 2999     		ldr	r1, [sp, #164]
 1144 0668 8018     		adds	r0, r0, r2
 1145 066a 5941     		adcs	r1, r1, r3
 1146 066c 0090     		str	r0, [sp]
 1147 066e 0191     		str	r1, [sp, #4]
 1148              	.LVL198:
 137:sc.c          ****     s16 -= carry16 << 21;
 1149              		.loc 1 137 0
 1150 0670 D70A     		lsrs	r7, r2, #11
 1151 0672 5905     		lsls	r1, r3, #21
 1152 0674 3943     		orrs	r1, r7
 1153 0676 5005     		lsls	r0, r2, #21
 1154              	.LVL199:
 1155 0678 1C9A     		ldr	r2, [sp, #112]
 1156 067a 1D9B     		ldr	r3, [sp, #116]
 1157              	.LVL200:
 1158 067c 121A     		subs	r2, r2, r0
 1159 067e 8B41     		sbcs	r3, r3, r1
 1160 0680 1C92     		str	r2, [sp, #112]
 1161 0682 1D93     		str	r3, [sp, #116]
 1162              	.LVL201:
 138:sc.c          ****     carry7 = (s7 + (1 << 20)) >> 21;
 1163              		.loc 1 138 0
 1164 0684 8025     		movs	r5, #128
 1165 0686 6D03     		lsls	r5, r5, #13
 1166 0688 0026     		movs	r6, #0
 1167 068a 069A     		ldr	r2, [sp, #24]
 1168 068c 079B     		ldr	r3, [sp, #28]
 1169              	.LVL202:
 1170 068e AD18     		adds	r5, r5, r2
 1171 0690 5E41     		adcs	r6, r6, r3
 1172 0692 F702     		lsls	r7, r6, #11
 1173 0694 6A0D     		lsrs	r2, r5, #21
ARM GAS  C:\Users\NIGHDR~1\AppData\Local\Temp\ccvJ0Ig2.s 			page 24


 1174 0696 3A43     		orrs	r2, r7
 1175 0698 7315     		asrs	r3, r6, #21
 1176              	.LVL203:
 139:sc.c          ****     s8 += carry7;
 1177              		.loc 1 139 0
 1178 069a 1898     		ldr	r0, [sp, #96]
 1179 069c 1999     		ldr	r1, [sp, #100]
 1180 069e 8018     		adds	r0, r0, r2
 1181 06a0 5941     		adcs	r1, r1, r3
 1182 06a2 1890     		str	r0, [sp, #96]
 1183 06a4 1991     		str	r1, [sp, #100]
 1184              	.LVL204:
 140:sc.c          ****     s7 -= carry7 << 21;
 1185              		.loc 1 140 0
 1186 06a6 D10A     		lsrs	r1, r2, #11
 1187 06a8 8C46     		mov	ip, r1
 1188 06aa 5905     		lsls	r1, r3, #21
 1189 06ac 6646     		mov	r6, ip
 1190 06ae 3143     		orrs	r1, r6
 1191 06b0 5005     		lsls	r0, r2, #21
 1192              	.LVL205:
 1193 06b2 069A     		ldr	r2, [sp, #24]
 1194 06b4 079B     		ldr	r3, [sp, #28]
 1195              	.LVL206:
 1196 06b6 121A     		subs	r2, r2, r0
 1197 06b8 8B41     		sbcs	r3, r3, r1
 1198 06ba 2492     		str	r2, [sp, #144]
 1199 06bc 2593     		str	r3, [sp, #148]
 1200              	.LVL207:
 141:sc.c          ****     carry9 = (s9 + (1 << 20)) >> 21;
 1201              		.loc 1 141 0
 1202 06be 8021     		movs	r1, #128
 1203 06c0 4903     		lsls	r1, r1, #13
 1204 06c2 0022     		movs	r2, #0
 1205              	.LVL208:
 1206 06c4 089C     		ldr	r4, [sp, #32]
 1207 06c6 099D     		ldr	r5, [sp, #36]
 1208 06c8 0919     		adds	r1, r1, r4
 1209 06ca 6A41     		adcs	r2, r2, r5
 1210 06cc 0800     		movs	r0, r1
 1211 06ce 1100     		movs	r1, r2
 1212 06d0 D602     		lsls	r6, r2, #11
 1213 06d2 420D     		lsrs	r2, r0, #21
 1214 06d4 3243     		orrs	r2, r6
 1215 06d6 4B15     		asrs	r3, r1, #21
 1216              	.LVL209:
 142:sc.c          ****     s10 += carry9;
 1217              		.loc 1 142 0
 1218 06d8 0498     		ldr	r0, [sp, #16]
 1219 06da 0599     		ldr	r1, [sp, #20]
 1220 06dc 8018     		adds	r0, r0, r2
 1221 06de 5941     		adcs	r1, r1, r3
 1222 06e0 2690     		str	r0, [sp, #152]
 1223 06e2 2791     		str	r1, [sp, #156]
 1224              	.LVL210:
 143:sc.c          ****     s9 -= carry9 << 21;
 1225              		.loc 1 143 0
ARM GAS  C:\Users\NIGHDR~1\AppData\Local\Temp\ccvJ0Ig2.s 			page 25


 1226 06e4 D10A     		lsrs	r1, r2, #11
 1227 06e6 8C46     		mov	ip, r1
 1228 06e8 5905     		lsls	r1, r3, #21
 1229 06ea 6646     		mov	r6, ip
 1230 06ec 3143     		orrs	r1, r6
 1231 06ee 5005     		lsls	r0, r2, #21
 1232              	.LVL211:
 1233 06f0 241A     		subs	r4, r4, r0
 1234 06f2 8D41     		sbcs	r5, r5, r1
 1235 06f4 2894     		str	r4, [sp, #160]
 1236 06f6 2995     		str	r5, [sp, #164]
 1237              	.LVL212:
 144:sc.c          ****     carry11 = (s11 + (1 << 20)) >> 21;
 1238              		.loc 1 144 0
 1239 06f8 8021     		movs	r1, #128
 1240 06fa 4903     		lsls	r1, r1, #13
 1241 06fc 0022     		movs	r2, #0
 1242              	.LVL213:
 1243 06fe 169E     		ldr	r6, [sp, #88]
 1244 0700 179F     		ldr	r7, [sp, #92]
 1245 0702 3300     		movs	r3, r6
 1246 0704 3C00     		movs	r4, r7
 1247              	.LVL214:
 1248 0706 C918     		adds	r1, r1, r3
 1249 0708 6241     		adcs	r2, r2, r4
 1250 070a 0800     		movs	r0, r1
 1251 070c 1100     		movs	r1, r2
 1252 070e D402     		lsls	r4, r2, #11
 1253 0710 420D     		lsrs	r2, r0, #21
 1254 0712 2243     		orrs	r2, r4
 1255 0714 4B15     		asrs	r3, r1, #21
 1256              	.LVL215:
 145:sc.c          ****     s12 += carry11;
 1257              		.loc 1 145 0
 1258 0716 209C     		ldr	r4, [sp, #128]
 1259 0718 219D     		ldr	r5, [sp, #132]
 1260 071a A418     		adds	r4, r4, r2
 1261 071c 5D41     		adcs	r5, r5, r3
 1262 071e 1694     		str	r4, [sp, #88]
 1263 0720 1795     		str	r5, [sp, #92]
 1264              	.LVL216:
 146:sc.c          ****     s11 -= carry11 << 21;
 1265              		.loc 1 146 0
 1266 0722 D40A     		lsrs	r4, r2, #11
 1267              	.LVL217:
 1268 0724 5905     		lsls	r1, r3, #21
 1269 0726 2143     		orrs	r1, r4
 1270 0728 5005     		lsls	r0, r2, #21
 1271 072a 361A     		subs	r6, r6, r0
 1272 072c 8F41     		sbcs	r7, r7, r1
 1273              	.LVL218:
 1274 072e 2096     		str	r6, [sp, #128]
 1275 0730 2197     		str	r7, [sp, #132]
 1276              	.LVL219:
 147:sc.c          ****     carry13 = (s13 + (1 << 20)) >> 21;
 1277              		.loc 1 147 0
 1278 0732 8021     		movs	r1, #128
ARM GAS  C:\Users\NIGHDR~1\AppData\Local\Temp\ccvJ0Ig2.s 			page 26


 1279 0734 4903     		lsls	r1, r1, #13
 1280 0736 0022     		movs	r2, #0
 1281              	.LVL220:
 1282 0738 1A9D     		ldr	r5, [sp, #104]
 1283 073a 1B9E     		ldr	r6, [sp, #108]
 1284 073c 2B00     		movs	r3, r5
 1285 073e 3400     		movs	r4, r6
 1286 0740 C918     		adds	r1, r1, r3
 1287 0742 6241     		adcs	r2, r2, r4
 1288 0744 0800     		movs	r0, r1
 1289 0746 1100     		movs	r1, r2
 1290 0748 D402     		lsls	r4, r2, #11
 1291 074a 420D     		lsrs	r2, r0, #21
 1292 074c 2243     		orrs	r2, r4
 1293 074e 4B15     		asrs	r3, r1, #21
 1294              	.LVL221:
 148:sc.c          ****     s14 += carry13;
 1295              		.loc 1 148 0
 1296 0750 0298     		ldr	r0, [sp, #8]
 1297 0752 0399     		ldr	r1, [sp, #12]
 1298 0754 8018     		adds	r0, r0, r2
 1299 0756 5941     		adcs	r1, r1, r3
 1300 0758 0290     		str	r0, [sp, #8]
 1301 075a 0391     		str	r1, [sp, #12]
 1302              	.LVL222:
 149:sc.c          ****     s13 -= carry13 << 21;
 1303              		.loc 1 149 0
 1304 075c D40A     		lsrs	r4, r2, #11
 1305 075e 5905     		lsls	r1, r3, #21
 1306 0760 2143     		orrs	r1, r4
 1307 0762 5005     		lsls	r0, r2, #21
 1308              	.LVL223:
 1309 0764 2B00     		movs	r3, r5
 1310 0766 3400     		movs	r4, r6
 1311 0768 1B1A     		subs	r3, r3, r0
 1312 076a 8C41     		sbcs	r4, r4, r1
 1313 076c 0493     		str	r3, [sp, #16]
 1314 076e 0594     		str	r4, [sp, #20]
 1315              	.LVL224:
 150:sc.c          ****     carry15 = (s15 + (1 << 20)) >> 21;
 1316              		.loc 1 150 0
 1317 0770 8023     		movs	r3, #128
 1318              	.LVL225:
 1319 0772 5B03     		lsls	r3, r3, #13
 1320 0774 0024     		movs	r4, #0
 1321 0776 229D     		ldr	r5, [sp, #136]
 1322 0778 239E     		ldr	r6, [sp, #140]
 1323 077a 2900     		movs	r1, r5
 1324 077c 3200     		movs	r2, r6
 1325              	.LVL226:
 1326 077e 5B18     		adds	r3, r3, r1
 1327 0780 5441     		adcs	r4, r4, r2
 1328 0782 1800     		movs	r0, r3
 1329 0784 2100     		movs	r1, r4
 1330 0786 E402     		lsls	r4, r4, #11
 1331 0788 420D     		lsrs	r2, r0, #21
 1332 078a 2243     		orrs	r2, r4
ARM GAS  C:\Users\NIGHDR~1\AppData\Local\Temp\ccvJ0Ig2.s 			page 27


 1333 078c 4B15     		asrs	r3, r1, #21
 1334              	.LVL227:
 151:sc.c          ****     s16 += carry15;
 1335              		.loc 1 151 0
 1336 078e 1C98     		ldr	r0, [sp, #112]
 1337 0790 1D99     		ldr	r1, [sp, #116]
 1338 0792 8018     		adds	r0, r0, r2
 1339 0794 5941     		adcs	r1, r1, r3
 1340 0796 0690     		str	r0, [sp, #24]
 1341 0798 0791     		str	r1, [sp, #28]
 1342              	.LVL228:
 152:sc.c          ****     s15 -= carry15 << 21;
 1343              		.loc 1 152 0
 1344 079a D40A     		lsrs	r4, r2, #11
 1345 079c 5905     		lsls	r1, r3, #21
 1346 079e 2143     		orrs	r1, r4
 1347 07a0 5005     		lsls	r0, r2, #21
 1348              	.LVL229:
 1349 07a2 2D1A     		subs	r5, r5, r0
 1350 07a4 8E41     		sbcs	r6, r6, r1
 1351 07a6 0895     		str	r5, [sp, #32]
 1352 07a8 0996     		str	r6, [sp, #36]
 1353              	.LVL230:
 153:sc.c          ****     s5 += s17 * 666643;
 1354              		.loc 1 153 0
 1355 07aa E04A     		ldr	r2, .L7
 1356              	.LVL231:
 1357 07ac 0023     		movs	r3, #0
 1358 07ae 009C     		ldr	r4, [sp]
 1359 07b0 019D     		ldr	r5, [sp, #4]
 1360 07b2 2000     		movs	r0, r4
 1361 07b4 2900     		movs	r1, r5
 1362 07b6 FFF7FEFF 		bl	__aeabi_lmul
 1363              	.LVL232:
 1364 07ba 149E     		ldr	r6, [sp, #80]
 1365 07bc 159F     		ldr	r7, [sp, #84]
 1366              	.LVL233:
 1367 07be 3618     		adds	r6, r6, r0
 1368 07c0 4F41     		adcs	r7, r7, r1
 1369              	.LVL234:
 154:sc.c          ****     s6 += s17 * 470296;
 1370              		.loc 1 154 0
 1371 07c2 DB4A     		ldr	r2, .L7+4
 1372 07c4 0023     		movs	r3, #0
 1373 07c6 0094     		str	r4, [sp]
 1374 07c8 0195     		str	r5, [sp, #4]
 1375              	.LVL235:
 1376 07ca 2000     		movs	r0, r4
 1377 07cc 2900     		movs	r1, r5
 1378 07ce FFF7FEFF 		bl	__aeabi_lmul
 1379              	.LVL236:
 1380 07d2 1E9B     		ldr	r3, [sp, #120]
 1381 07d4 1F9C     		ldr	r4, [sp, #124]
 1382 07d6 1B18     		adds	r3, r3, r0
 1383 07d8 4C41     		adcs	r4, r4, r1
 1384 07da 2500     		movs	r5, r4
 1385              	.LVL237:
ARM GAS  C:\Users\NIGHDR~1\AppData\Local\Temp\ccvJ0Ig2.s 			page 28


 1386 07dc 1C00     		movs	r4, r3
 1387              	.LVL238:
 155:sc.c          ****     s7 += s17 * 654183;
 1388              		.loc 1 155 0
 1389 07de D54A     		ldr	r2, .L7+8
 1390 07e0 0023     		movs	r3, #0
 1391 07e2 0098     		ldr	r0, [sp]
 1392 07e4 0199     		ldr	r1, [sp, #4]
 1393 07e6 FFF7FEFF 		bl	__aeabi_lmul
 1394              	.LVL239:
 1395 07ea 249A     		ldr	r2, [sp, #144]
 1396 07ec 259B     		ldr	r3, [sp, #148]
 1397 07ee 1218     		adds	r2, r2, r0
 1398 07f0 4B41     		adcs	r3, r3, r1
 1399 07f2 1492     		str	r2, [sp, #80]
 1400 07f4 1593     		str	r3, [sp, #84]
 1401              	.LVL240:
 156:sc.c          ****     s8 -= s17 * 997805;
 1402              		.loc 1 156 0
 1403 07f6 D04A     		ldr	r2, .L7+12
 1404              	.LVL241:
 1405 07f8 0123     		movs	r3, #1
 1406 07fa 5B42     		rsbs	r3, r3, #0
 1407 07fc 0098     		ldr	r0, [sp]
 1408 07fe 0199     		ldr	r1, [sp, #4]
 1409 0800 FFF7FEFF 		bl	__aeabi_lmul
 1410              	.LVL242:
 1411 0804 189A     		ldr	r2, [sp, #96]
 1412 0806 199B     		ldr	r3, [sp, #100]
 1413 0808 1218     		adds	r2, r2, r0
 1414 080a 4B41     		adcs	r3, r3, r1
 1415 080c 1892     		str	r2, [sp, #96]
 1416 080e 1993     		str	r3, [sp, #100]
 1417              	.LVL243:
 157:sc.c          ****     s9 += s17 * 136657;
 1418              		.loc 1 157 0
 1419 0810 CA4A     		ldr	r2, .L7+16
 1420              	.LVL244:
 1421 0812 0023     		movs	r3, #0
 1422 0814 0098     		ldr	r0, [sp]
 1423 0816 0199     		ldr	r1, [sp, #4]
 1424 0818 FFF7FEFF 		bl	__aeabi_lmul
 1425              	.LVL245:
 1426 081c 289A     		ldr	r2, [sp, #160]
 1427 081e 299B     		ldr	r3, [sp, #164]
 1428 0820 1218     		adds	r2, r2, r0
 1429 0822 4B41     		adcs	r3, r3, r1
 1430 0824 1A92     		str	r2, [sp, #104]
 1431 0826 1B93     		str	r3, [sp, #108]
 1432              	.LVL246:
 158:sc.c          ****     s10 -= s17 * 683901;
 1433              		.loc 1 158 0
 1434 0828 C54A     		ldr	r2, .L7+20
 1435              	.LVL247:
 1436 082a 0123     		movs	r3, #1
 1437 082c 5B42     		rsbs	r3, r3, #0
 1438 082e 0098     		ldr	r0, [sp]
ARM GAS  C:\Users\NIGHDR~1\AppData\Local\Temp\ccvJ0Ig2.s 			page 29


 1439 0830 0199     		ldr	r1, [sp, #4]
 1440 0832 FFF7FEFF 		bl	__aeabi_lmul
 1441              	.LVL248:
 1442 0836 269A     		ldr	r2, [sp, #152]
 1443 0838 279B     		ldr	r3, [sp, #156]
 1444 083a 1218     		adds	r2, r2, r0
 1445 083c 4B41     		adcs	r3, r3, r1
 1446 083e 0092     		str	r2, [sp]
 1447 0840 0193     		str	r3, [sp, #4]
 1448              	.LVL249:
 159:sc.c          ****     s17 = 0;
 160:sc.c          ****     s4 += s16 * 666643;
 1449              		.loc 1 160 0
 1450 0842 BA4A     		ldr	r2, .L7
 1451              	.LVL250:
 1452 0844 0023     		movs	r3, #0
 1453 0846 0698     		ldr	r0, [sp, #24]
 1454 0848 0799     		ldr	r1, [sp, #28]
 1455 084a FFF7FEFF 		bl	__aeabi_lmul
 1456              	.LVL251:
 1457 084e 129A     		ldr	r2, [sp, #72]
 1458 0850 139B     		ldr	r3, [sp, #76]
 1459 0852 1218     		adds	r2, r2, r0
 1460 0854 4B41     		adcs	r3, r3, r1
 1461 0856 1292     		str	r2, [sp, #72]
 1462 0858 1393     		str	r3, [sp, #76]
 1463              	.LVL252:
 161:sc.c          ****     s5 += s16 * 470296;
 1464              		.loc 1 161 0
 1465 085a B54A     		ldr	r2, .L7+4
 1466              	.LVL253:
 1467 085c 0023     		movs	r3, #0
 1468 085e 0698     		ldr	r0, [sp, #24]
 1469 0860 0799     		ldr	r1, [sp, #28]
 1470 0862 FFF7FEFF 		bl	__aeabi_lmul
 1471              	.LVL254:
 1472 0866 3618     		adds	r6, r6, r0
 1473 0868 4F41     		adcs	r7, r7, r1
 1474              	.LVL255:
 162:sc.c          ****     s6 += s16 * 654183;
 1475              		.loc 1 162 0
 1476 086a B24A     		ldr	r2, .L7+8
 1477 086c 0023     		movs	r3, #0
 1478 086e 0698     		ldr	r0, [sp, #24]
 1479 0870 0799     		ldr	r1, [sp, #28]
 1480 0872 FFF7FEFF 		bl	__aeabi_lmul
 1481              	.LVL256:
 1482 0876 2418     		adds	r4, r4, r0
 1483 0878 4D41     		adcs	r5, r5, r1
 1484              	.LVL257:
 163:sc.c          ****     s7 -= s16 * 997805;
 1485              		.loc 1 163 0
 1486 087a AF4A     		ldr	r2, .L7+12
 1487 087c 0123     		movs	r3, #1
 1488 087e 5B42     		rsbs	r3, r3, #0
 1489 0880 0698     		ldr	r0, [sp, #24]
 1490 0882 0799     		ldr	r1, [sp, #28]
ARM GAS  C:\Users\NIGHDR~1\AppData\Local\Temp\ccvJ0Ig2.s 			page 30


 1491 0884 FFF7FEFF 		bl	__aeabi_lmul
 1492              	.LVL258:
 1493 0888 149A     		ldr	r2, [sp, #80]
 1494 088a 159B     		ldr	r3, [sp, #84]
 1495 088c 1218     		adds	r2, r2, r0
 1496 088e 4B41     		adcs	r3, r3, r1
 1497 0890 1492     		str	r2, [sp, #80]
 1498 0892 1593     		str	r3, [sp, #84]
 1499              	.LVL259:
 164:sc.c          ****     s8 += s16 * 136657;
 1500              		.loc 1 164 0
 1501 0894 A94A     		ldr	r2, .L7+16
 1502              	.LVL260:
 1503 0896 0023     		movs	r3, #0
 1504 0898 0698     		ldr	r0, [sp, #24]
 1505 089a 0799     		ldr	r1, [sp, #28]
 1506 089c FFF7FEFF 		bl	__aeabi_lmul
 1507              	.LVL261:
 1508 08a0 189A     		ldr	r2, [sp, #96]
 1509 08a2 199B     		ldr	r3, [sp, #100]
 1510 08a4 1218     		adds	r2, r2, r0
 1511 08a6 4B41     		adcs	r3, r3, r1
 1512 08a8 1892     		str	r2, [sp, #96]
 1513 08aa 1993     		str	r3, [sp, #100]
 1514              	.LVL262:
 165:sc.c          ****     s9 -= s16 * 683901;
 1515              		.loc 1 165 0
 1516 08ac A44A     		ldr	r2, .L7+20
 1517              	.LVL263:
 1518 08ae 0123     		movs	r3, #1
 1519 08b0 5B42     		rsbs	r3, r3, #0
 1520 08b2 0698     		ldr	r0, [sp, #24]
 1521 08b4 0799     		ldr	r1, [sp, #28]
 1522 08b6 FFF7FEFF 		bl	__aeabi_lmul
 1523              	.LVL264:
 1524 08ba 1A9A     		ldr	r2, [sp, #104]
 1525 08bc 1B9B     		ldr	r3, [sp, #108]
 1526 08be 1218     		adds	r2, r2, r0
 1527 08c0 4B41     		adcs	r3, r3, r1
 1528 08c2 1A92     		str	r2, [sp, #104]
 1529 08c4 1B93     		str	r3, [sp, #108]
 1530              	.LVL265:
 166:sc.c          ****     s16 = 0;
 167:sc.c          ****     s3 += s15 * 666643;
 1531              		.loc 1 167 0
 1532 08c6 994A     		ldr	r2, .L7
 1533              	.LVL266:
 1534 08c8 0023     		movs	r3, #0
 1535 08ca 0898     		ldr	r0, [sp, #32]
 1536 08cc 0999     		ldr	r1, [sp, #36]
 1537 08ce FFF7FEFF 		bl	__aeabi_lmul
 1538              	.LVL267:
 1539 08d2 109A     		ldr	r2, [sp, #64]
 1540 08d4 119B     		ldr	r3, [sp, #68]
 1541 08d6 1218     		adds	r2, r2, r0
 1542 08d8 4B41     		adcs	r3, r3, r1
 1543 08da 0692     		str	r2, [sp, #24]
ARM GAS  C:\Users\NIGHDR~1\AppData\Local\Temp\ccvJ0Ig2.s 			page 31


 1544 08dc 0793     		str	r3, [sp, #28]
 1545              	.LVL268:
 168:sc.c          ****     s4 += s15 * 470296;
 1546              		.loc 1 168 0
 1547 08de 944A     		ldr	r2, .L7+4
 1548              	.LVL269:
 1549 08e0 0023     		movs	r3, #0
 1550 08e2 0898     		ldr	r0, [sp, #32]
 1551 08e4 0999     		ldr	r1, [sp, #36]
 1552 08e6 FFF7FEFF 		bl	__aeabi_lmul
 1553              	.LVL270:
 1554 08ea 129A     		ldr	r2, [sp, #72]
 1555 08ec 139B     		ldr	r3, [sp, #76]
 1556 08ee 1218     		adds	r2, r2, r0
 1557 08f0 4B41     		adcs	r3, r3, r1
 1558 08f2 1092     		str	r2, [sp, #64]
 1559 08f4 1193     		str	r3, [sp, #68]
 1560              	.LVL271:
 169:sc.c          ****     s5 += s15 * 654183;
 1561              		.loc 1 169 0
 1562 08f6 8F4A     		ldr	r2, .L7+8
 1563              	.LVL272:
 1564 08f8 0023     		movs	r3, #0
 1565 08fa 0898     		ldr	r0, [sp, #32]
 1566 08fc 0999     		ldr	r1, [sp, #36]
 1567 08fe FFF7FEFF 		bl	__aeabi_lmul
 1568              	.LVL273:
 1569 0902 3618     		adds	r6, r6, r0
 1570 0904 4F41     		adcs	r7, r7, r1
 1571              	.LVL274:
 170:sc.c          ****     s6 -= s15 * 997805;
 1572              		.loc 1 170 0
 1573 0906 8C4A     		ldr	r2, .L7+12
 1574 0908 0123     		movs	r3, #1
 1575 090a 5B42     		rsbs	r3, r3, #0
 1576 090c 0898     		ldr	r0, [sp, #32]
 1577 090e 0999     		ldr	r1, [sp, #36]
 1578 0910 FFF7FEFF 		bl	__aeabi_lmul
 1579              	.LVL275:
 1580 0914 2418     		adds	r4, r4, r0
 1581 0916 4D41     		adcs	r5, r5, r1
 1582              	.LVL276:
 171:sc.c          ****     s7 += s15 * 136657;
 1583              		.loc 1 171 0
 1584 0918 884A     		ldr	r2, .L7+16
 1585 091a 0023     		movs	r3, #0
 1586 091c 0898     		ldr	r0, [sp, #32]
 1587 091e 0999     		ldr	r1, [sp, #36]
 1588 0920 FFF7FEFF 		bl	__aeabi_lmul
 1589              	.LVL277:
 1590 0924 149A     		ldr	r2, [sp, #80]
 1591 0926 159B     		ldr	r3, [sp, #84]
 1592 0928 1218     		adds	r2, r2, r0
 1593 092a 4B41     		adcs	r3, r3, r1
 1594 092c 1292     		str	r2, [sp, #72]
 1595 092e 1393     		str	r3, [sp, #76]
 1596              	.LVL278:
ARM GAS  C:\Users\NIGHDR~1\AppData\Local\Temp\ccvJ0Ig2.s 			page 32


 172:sc.c          ****     s8 -= s15 * 683901;
 1597              		.loc 1 172 0
 1598 0930 834A     		ldr	r2, .L7+20
 1599              	.LVL279:
 1600 0932 0123     		movs	r3, #1
 1601 0934 5B42     		rsbs	r3, r3, #0
 1602 0936 0898     		ldr	r0, [sp, #32]
 1603 0938 0999     		ldr	r1, [sp, #36]
 1604 093a FFF7FEFF 		bl	__aeabi_lmul
 1605              	.LVL280:
 1606 093e 189A     		ldr	r2, [sp, #96]
 1607 0940 199B     		ldr	r3, [sp, #100]
 1608 0942 1218     		adds	r2, r2, r0
 1609 0944 4B41     		adcs	r3, r3, r1
 1610 0946 0892     		str	r2, [sp, #32]
 1611 0948 0993     		str	r3, [sp, #36]
 1612              	.LVL281:
 173:sc.c          ****     s15 = 0;
 174:sc.c          ****     s2 += s14 * 666643;
 1613              		.loc 1 174 0
 1614 094a 784A     		ldr	r2, .L7
 1615              	.LVL282:
 1616 094c 0023     		movs	r3, #0
 1617 094e 0298     		ldr	r0, [sp, #8]
 1618 0950 0399     		ldr	r1, [sp, #12]
 1619 0952 FFF7FEFF 		bl	__aeabi_lmul
 1620              	.LVL283:
 1621 0956 0E9A     		ldr	r2, [sp, #56]
 1622 0958 0F9B     		ldr	r3, [sp, #60]
 1623 095a 1218     		adds	r2, r2, r0
 1624 095c 4B41     		adcs	r3, r3, r1
 1625 095e 0E92     		str	r2, [sp, #56]
 1626 0960 0F93     		str	r3, [sp, #60]
 1627              	.LVL284:
 175:sc.c          ****     s3 += s14 * 470296;
 1628              		.loc 1 175 0
 1629 0962 734A     		ldr	r2, .L7+4
 1630              	.LVL285:
 1631 0964 0023     		movs	r3, #0
 1632 0966 0298     		ldr	r0, [sp, #8]
 1633 0968 0399     		ldr	r1, [sp, #12]
 1634 096a FFF7FEFF 		bl	__aeabi_lmul
 1635              	.LVL286:
 1636 096e 069A     		ldr	r2, [sp, #24]
 1637 0970 079B     		ldr	r3, [sp, #28]
 1638 0972 1218     		adds	r2, r2, r0
 1639 0974 4B41     		adcs	r3, r3, r1
 1640 0976 0692     		str	r2, [sp, #24]
 1641 0978 0793     		str	r3, [sp, #28]
 1642              	.LVL287:
 176:sc.c          ****     s4 += s14 * 654183;
 1643              		.loc 1 176 0
 1644 097a 6E4A     		ldr	r2, .L7+8
 1645              	.LVL288:
 1646 097c 0023     		movs	r3, #0
 1647 097e 0298     		ldr	r0, [sp, #8]
 1648 0980 0399     		ldr	r1, [sp, #12]
ARM GAS  C:\Users\NIGHDR~1\AppData\Local\Temp\ccvJ0Ig2.s 			page 33


 1649 0982 FFF7FEFF 		bl	__aeabi_lmul
 1650              	.LVL289:
 1651 0986 109A     		ldr	r2, [sp, #64]
 1652 0988 119B     		ldr	r3, [sp, #68]
 1653 098a 1218     		adds	r2, r2, r0
 1654 098c 4B41     		adcs	r3, r3, r1
 1655 098e 1092     		str	r2, [sp, #64]
 1656 0990 1193     		str	r3, [sp, #68]
 1657              	.LVL290:
 177:sc.c          ****     s5 -= s14 * 997805;
 1658              		.loc 1 177 0
 1659 0992 694A     		ldr	r2, .L7+12
 1660              	.LVL291:
 1661 0994 0123     		movs	r3, #1
 1662 0996 5B42     		rsbs	r3, r3, #0
 1663 0998 0298     		ldr	r0, [sp, #8]
 1664 099a 0399     		ldr	r1, [sp, #12]
 1665 099c FFF7FEFF 		bl	__aeabi_lmul
 1666              	.LVL292:
 1667 09a0 3618     		adds	r6, r6, r0
 1668 09a2 4F41     		adcs	r7, r7, r1
 1669              	.LVL293:
 178:sc.c          ****     s6 += s14 * 136657;
 1670              		.loc 1 178 0
 1671 09a4 654A     		ldr	r2, .L7+16
 1672 09a6 0023     		movs	r3, #0
 1673 09a8 0298     		ldr	r0, [sp, #8]
 1674 09aa 0399     		ldr	r1, [sp, #12]
 1675 09ac FFF7FEFF 		bl	__aeabi_lmul
 1676              	.LVL294:
 1677 09b0 2418     		adds	r4, r4, r0
 1678 09b2 4D41     		adcs	r5, r5, r1
 1679              	.LVL295:
 179:sc.c          ****     s7 -= s14 * 683901;
 1680              		.loc 1 179 0
 1681 09b4 624A     		ldr	r2, .L7+20
 1682 09b6 0123     		movs	r3, #1
 1683 09b8 5B42     		rsbs	r3, r3, #0
 1684 09ba 0298     		ldr	r0, [sp, #8]
 1685 09bc 0399     		ldr	r1, [sp, #12]
 1686 09be FFF7FEFF 		bl	__aeabi_lmul
 1687              	.LVL296:
 1688 09c2 129A     		ldr	r2, [sp, #72]
 1689 09c4 139B     		ldr	r3, [sp, #76]
 1690 09c6 1218     		adds	r2, r2, r0
 1691 09c8 4B41     		adcs	r3, r3, r1
 1692 09ca 1292     		str	r2, [sp, #72]
 1693 09cc 1393     		str	r3, [sp, #76]
 1694              	.LVL297:
 180:sc.c          ****     s14 = 0;
 181:sc.c          ****     s1 += s13 * 666643;
 1695              		.loc 1 181 0
 1696 09ce 574A     		ldr	r2, .L7
 1697              	.LVL298:
 1698 09d0 0023     		movs	r3, #0
 1699 09d2 0498     		ldr	r0, [sp, #16]
 1700 09d4 0599     		ldr	r1, [sp, #20]
ARM GAS  C:\Users\NIGHDR~1\AppData\Local\Temp\ccvJ0Ig2.s 			page 34


 1701 09d6 FFF7FEFF 		bl	__aeabi_lmul
 1702              	.LVL299:
 1703 09da 0C9A     		ldr	r2, [sp, #48]
 1704 09dc 0D9B     		ldr	r3, [sp, #52]
 1705 09de 1218     		adds	r2, r2, r0
 1706 09e0 4B41     		adcs	r3, r3, r1
 1707 09e2 0292     		str	r2, [sp, #8]
 1708 09e4 0393     		str	r3, [sp, #12]
 1709              	.LVL300:
 182:sc.c          ****     s2 += s13 * 470296;
 1710              		.loc 1 182 0
 1711 09e6 524A     		ldr	r2, .L7+4
 1712              	.LVL301:
 1713 09e8 0023     		movs	r3, #0
 1714 09ea 0498     		ldr	r0, [sp, #16]
 1715 09ec 0599     		ldr	r1, [sp, #20]
 1716 09ee FFF7FEFF 		bl	__aeabi_lmul
 1717              	.LVL302:
 1718 09f2 0E9A     		ldr	r2, [sp, #56]
 1719 09f4 0F9B     		ldr	r3, [sp, #60]
 1720 09f6 1218     		adds	r2, r2, r0
 1721 09f8 4B41     		adcs	r3, r3, r1
 1722 09fa 0C92     		str	r2, [sp, #48]
 1723 09fc 0D93     		str	r3, [sp, #52]
 1724              	.LVL303:
 183:sc.c          ****     s3 += s13 * 654183;
 1725              		.loc 1 183 0
 1726 09fe 4D4A     		ldr	r2, .L7+8
 1727              	.LVL304:
 1728 0a00 0023     		movs	r3, #0
 1729 0a02 0498     		ldr	r0, [sp, #16]
 1730 0a04 0599     		ldr	r1, [sp, #20]
 1731 0a06 FFF7FEFF 		bl	__aeabi_lmul
 1732              	.LVL305:
 1733 0a0a 069A     		ldr	r2, [sp, #24]
 1734 0a0c 079B     		ldr	r3, [sp, #28]
 1735 0a0e 1218     		adds	r2, r2, r0
 1736 0a10 4B41     		adcs	r3, r3, r1
 1737 0a12 0692     		str	r2, [sp, #24]
 1738 0a14 0793     		str	r3, [sp, #28]
 1739              	.LVL306:
 184:sc.c          ****     s4 -= s13 * 997805;
 1740              		.loc 1 184 0
 1741 0a16 484A     		ldr	r2, .L7+12
 1742              	.LVL307:
 1743 0a18 0123     		movs	r3, #1
 1744 0a1a 5B42     		rsbs	r3, r3, #0
 1745 0a1c 0498     		ldr	r0, [sp, #16]
 1746 0a1e 0599     		ldr	r1, [sp, #20]
 1747 0a20 FFF7FEFF 		bl	__aeabi_lmul
 1748              	.LVL308:
 1749 0a24 109A     		ldr	r2, [sp, #64]
 1750 0a26 119B     		ldr	r3, [sp, #68]
 1751 0a28 1218     		adds	r2, r2, r0
 1752 0a2a 4B41     		adcs	r3, r3, r1
 1753 0a2c 0E92     		str	r2, [sp, #56]
 1754 0a2e 0F93     		str	r3, [sp, #60]
ARM GAS  C:\Users\NIGHDR~1\AppData\Local\Temp\ccvJ0Ig2.s 			page 35


 1755              	.LVL309:
 185:sc.c          ****     s5 += s13 * 136657;
 1756              		.loc 1 185 0
 1757 0a30 424A     		ldr	r2, .L7+16
 1758              	.LVL310:
 1759 0a32 0023     		movs	r3, #0
 1760 0a34 0498     		ldr	r0, [sp, #16]
 1761 0a36 0599     		ldr	r1, [sp, #20]
 1762 0a38 FFF7FEFF 		bl	__aeabi_lmul
 1763              	.LVL311:
 1764 0a3c 3618     		adds	r6, r6, r0
 1765 0a3e 4F41     		adcs	r7, r7, r1
 1766              	.LVL312:
 1767 0a40 1096     		str	r6, [sp, #64]
 1768 0a42 1197     		str	r7, [sp, #68]
 1769              	.LVL313:
 186:sc.c          ****     s6 -= s13 * 683901;
 1770              		.loc 1 186 0
 1771 0a44 3E4A     		ldr	r2, .L7+20
 1772 0a46 0123     		movs	r3, #1
 1773 0a48 5B42     		rsbs	r3, r3, #0
 1774 0a4a 0498     		ldr	r0, [sp, #16]
 1775 0a4c 0599     		ldr	r1, [sp, #20]
 1776 0a4e FFF7FEFF 		bl	__aeabi_lmul
 1777              	.LVL314:
 1778 0a52 2300     		movs	r3, r4
 1779 0a54 2C00     		movs	r4, r5
 1780              	.LVL315:
 1781 0a56 1B18     		adds	r3, r3, r0
 1782 0a58 4C41     		adcs	r4, r4, r1
 1783 0a5a 1493     		str	r3, [sp, #80]
 1784 0a5c 1594     		str	r4, [sp, #84]
 1785              	.LVL316:
 187:sc.c          ****     s13 = 0;
 188:sc.c          ****     s0 += s12 * 666643;
 1786              		.loc 1 188 0
 1787 0a5e 334A     		ldr	r2, .L7
 1788 0a60 0023     		movs	r3, #0
 1789              	.LVL317:
 1790 0a62 169C     		ldr	r4, [sp, #88]
 1791 0a64 179D     		ldr	r5, [sp, #92]
 1792 0a66 2000     		movs	r0, r4
 1793 0a68 2900     		movs	r1, r5
 1794 0a6a FFF7FEFF 		bl	__aeabi_lmul
 1795              	.LVL318:
 1796 0a6e 0A9E     		ldr	r6, [sp, #40]
 1797 0a70 0B9F     		ldr	r7, [sp, #44]
 1798              	.LVL319:
 1799 0a72 3618     		adds	r6, r6, r0
 1800 0a74 4F41     		adcs	r7, r7, r1
 1801              	.LVL320:
 189:sc.c          ****     s1 += s12 * 470296;
 1802              		.loc 1 189 0
 1803 0a76 2E4A     		ldr	r2, .L7+4
 1804 0a78 0023     		movs	r3, #0
 1805 0a7a 1694     		str	r4, [sp, #88]
 1806 0a7c 1795     		str	r5, [sp, #92]
ARM GAS  C:\Users\NIGHDR~1\AppData\Local\Temp\ccvJ0Ig2.s 			page 36


 1807              	.LVL321:
 1808 0a7e 2000     		movs	r0, r4
 1809 0a80 2900     		movs	r1, r5
 1810 0a82 FFF7FEFF 		bl	__aeabi_lmul
 1811              	.LVL322:
 1812 0a86 029C     		ldr	r4, [sp, #8]
 1813 0a88 039D     		ldr	r5, [sp, #12]
 1814              	.LVL323:
 1815 0a8a 2418     		adds	r4, r4, r0
 1816 0a8c 4D41     		adcs	r5, r5, r1
 1817 0a8e 0294     		str	r4, [sp, #8]
 1818 0a90 0395     		str	r5, [sp, #12]
 1819              	.LVL324:
 190:sc.c          ****     s2 += s12 * 654183;
 1820              		.loc 1 190 0
 1821 0a92 284A     		ldr	r2, .L7+8
 1822 0a94 0023     		movs	r3, #0
 1823 0a96 169C     		ldr	r4, [sp, #88]
 1824 0a98 179D     		ldr	r5, [sp, #92]
 1825              	.LVL325:
 1826 0a9a 2000     		movs	r0, r4
 1827 0a9c 2900     		movs	r1, r5
 1828 0a9e FFF7FEFF 		bl	__aeabi_lmul
 1829              	.LVL326:
 1830 0aa2 0C9A     		ldr	r2, [sp, #48]
 1831 0aa4 0D9B     		ldr	r3, [sp, #52]
 1832 0aa6 1218     		adds	r2, r2, r0
 1833 0aa8 4B41     		adcs	r3, r3, r1
 1834 0aaa 0492     		str	r2, [sp, #16]
 1835 0aac 0593     		str	r3, [sp, #20]
 1836              	.LVL327:
 191:sc.c          ****     s3 -= s12 * 997805;
 1837              		.loc 1 191 0
 1838 0aae 224A     		ldr	r2, .L7+12
 1839              	.LVL328:
 1840 0ab0 0123     		movs	r3, #1
 1841 0ab2 5B42     		rsbs	r3, r3, #0
 1842 0ab4 2000     		movs	r0, r4
 1843 0ab6 2900     		movs	r1, r5
 1844 0ab8 FFF7FEFF 		bl	__aeabi_lmul
 1845              	.LVL329:
 1846 0abc 069A     		ldr	r2, [sp, #24]
 1847 0abe 079B     		ldr	r3, [sp, #28]
 1848 0ac0 1218     		adds	r2, r2, r0
 1849 0ac2 4B41     		adcs	r3, r3, r1
 1850 0ac4 0692     		str	r2, [sp, #24]
 1851 0ac6 0793     		str	r3, [sp, #28]
 1852              	.LVL330:
 192:sc.c          ****     s4 += s12 * 136657;
 1853              		.loc 1 192 0
 1854 0ac8 1C4A     		ldr	r2, .L7+16
 1855              	.LVL331:
 1856 0aca 0023     		movs	r3, #0
 1857 0acc 2000     		movs	r0, r4
 1858 0ace 2900     		movs	r1, r5
 1859 0ad0 FFF7FEFF 		bl	__aeabi_lmul
 1860              	.LVL332:
ARM GAS  C:\Users\NIGHDR~1\AppData\Local\Temp\ccvJ0Ig2.s 			page 37


 1861 0ad4 0E9A     		ldr	r2, [sp, #56]
 1862 0ad6 0F9B     		ldr	r3, [sp, #60]
 1863 0ad8 1218     		adds	r2, r2, r0
 1864 0ada 4B41     		adcs	r3, r3, r1
 1865 0adc 0A92     		str	r2, [sp, #40]
 1866 0ade 0B93     		str	r3, [sp, #44]
 1867              	.LVL333:
 193:sc.c          ****     s5 -= s12 * 683901;
 1868              		.loc 1 193 0
 1869 0ae0 174A     		ldr	r2, .L7+20
 1870              	.LVL334:
 1871 0ae2 0123     		movs	r3, #1
 1872 0ae4 5B42     		rsbs	r3, r3, #0
 1873 0ae6 2000     		movs	r0, r4
 1874 0ae8 2900     		movs	r1, r5
 1875 0aea FFF7FEFF 		bl	__aeabi_lmul
 1876              	.LVL335:
 1877 0aee 109A     		ldr	r2, [sp, #64]
 1878 0af0 119B     		ldr	r3, [sp, #68]
 1879 0af2 1218     		adds	r2, r2, r0
 1880 0af4 4B41     		adcs	r3, r3, r1
 1881 0af6 0C92     		str	r2, [sp, #48]
 1882 0af8 0D93     		str	r3, [sp, #52]
 1883              	.LVL336:
 194:sc.c          ****     s12 = 0;
 195:sc.c          ****     carry0 = (s0 + (1 << 20)) >> 21;
 1884              		.loc 1 195 0
 1885 0afa 8020     		movs	r0, #128
 1886 0afc 4003     		lsls	r0, r0, #13
 1887 0afe 0021     		movs	r1, #0
 1888 0b00 8019     		adds	r0, r0, r6
 1889 0b02 7941     		adcs	r1, r1, r7
 1890 0b04 CB02     		lsls	r3, r1, #11
 1891 0b06 9C46     		mov	ip, r3
 1892 0b08 420D     		lsrs	r2, r0, #21
 1893              	.LVL337:
 1894 0b0a 6446     		mov	r4, ip
 1895 0b0c 2243     		orrs	r2, r4
 1896 0b0e 4B15     		asrs	r3, r1, #21
 1897              	.LVL338:
 196:sc.c          ****     s1 += carry0;
 1898              		.loc 1 196 0
 1899 0b10 0298     		ldr	r0, [sp, #8]
 1900 0b12 0399     		ldr	r1, [sp, #12]
 1901 0b14 8018     		adds	r0, r0, r2
 1902 0b16 5941     		adcs	r1, r1, r3
 1903 0b18 0E90     		str	r0, [sp, #56]
 1904 0b1a 0F91     		str	r1, [sp, #60]
 1905              	.LVL339:
 197:sc.c          ****     s0 -= carry0 << 21;
 1906              		.loc 1 197 0
 1907 0b1c D10A     		lsrs	r1, r2, #11
 1908 0b1e 8C46     		mov	ip, r1
 1909 0b20 5905     		lsls	r1, r3, #21
 1910 0b22 6446     		mov	r4, ip
 1911 0b24 2143     		orrs	r1, r4
 1912 0b26 5005     		lsls	r0, r2, #21
ARM GAS  C:\Users\NIGHDR~1\AppData\Local\Temp\ccvJ0Ig2.s 			page 38


 1913 0b28 0CE0     		b	.L8
 1914              	.L9:
 1915 0b2a C046     		.align	2
 1916              	.L7:
 1917 0b2c 132C0A00 		.word	666643
 1918 0b30 182D0700 		.word	470296
 1919 0b34 67FB0900 		.word	654183
 1920 0b38 53C6F0FF 		.word	-997805
 1921 0b3c D1150200 		.word	136657
 1922 0b40 8390F5FF 		.word	-683901
 1923              	.L8:
 1924              	.LVL340:
 1925 0b44 361A     		subs	r6, r6, r0
 1926 0b46 8F41     		sbcs	r7, r7, r1
 1927              	.LVL341:
 1928 0b48 1096     		str	r6, [sp, #64]
 1929 0b4a 1197     		str	r7, [sp, #68]
 1930              	.LVL342:
 198:sc.c          ****     carry2 = (s2 + (1 << 20)) >> 21;
 1931              		.loc 1 198 0
 1932 0b4c 8026     		movs	r6, #128
 1933              	.LVL343:
 1934 0b4e 7603     		lsls	r6, r6, #13
 1935 0b50 0027     		movs	r7, #0
 1936 0b52 049C     		ldr	r4, [sp, #16]
 1937 0b54 059D     		ldr	r5, [sp, #20]
 1938 0b56 2100     		movs	r1, r4
 1939 0b58 2A00     		movs	r2, r5
 1940              	.LVL344:
 1941 0b5a 7618     		adds	r6, r6, r1
 1942 0b5c 5741     		adcs	r7, r7, r2
 1943 0b5e 3000     		movs	r0, r6
 1944 0b60 FE02     		lsls	r6, r7, #11
 1945 0b62 420D     		lsrs	r2, r0, #21
 1946 0b64 3243     		orrs	r2, r6
 1947 0b66 7B15     		asrs	r3, r7, #21
 1948              	.LVL345:
 199:sc.c          ****     s3 += carry2;
 1949              		.loc 1 199 0
 1950 0b68 069E     		ldr	r6, [sp, #24]
 1951 0b6a 079F     		ldr	r7, [sp, #28]
 1952 0b6c B618     		adds	r6, r6, r2
 1953 0b6e 5F41     		adcs	r7, r7, r3
 1954 0b70 0296     		str	r6, [sp, #8]
 1955 0b72 0397     		str	r7, [sp, #12]
 1956              	.LVL346:
 200:sc.c          ****     s2 -= carry2 << 21;
 1957              		.loc 1 200 0
 1958 0b74 D60A     		lsrs	r6, r2, #11
 1959              	.LVL347:
 1960 0b76 5905     		lsls	r1, r3, #21
 1961 0b78 3143     		orrs	r1, r6
 1962 0b7a 5005     		lsls	r0, r2, #21
 1963 0b7c 2600     		movs	r6, r4
 1964 0b7e 2F00     		movs	r7, r5
 1965 0b80 361A     		subs	r6, r6, r0
 1966 0b82 8F41     		sbcs	r7, r7, r1
ARM GAS  C:\Users\NIGHDR~1\AppData\Local\Temp\ccvJ0Ig2.s 			page 39


 1967 0b84 1696     		str	r6, [sp, #88]
 1968 0b86 1797     		str	r7, [sp, #92]
 1969              	.LVL348:
 201:sc.c          ****     carry4 = (s4 + (1 << 20)) >> 21;
 1970              		.loc 1 201 0
 1971 0b88 8026     		movs	r6, #128
 1972              	.LVL349:
 1973 0b8a 7603     		lsls	r6, r6, #13
 1974 0b8c 0027     		movs	r7, #0
 1975 0b8e 0A9C     		ldr	r4, [sp, #40]
 1976 0b90 0B9D     		ldr	r5, [sp, #44]
 1977 0b92 2100     		movs	r1, r4
 1978 0b94 2A00     		movs	r2, r5
 1979              	.LVL350:
 1980 0b96 7618     		adds	r6, r6, r1
 1981 0b98 5741     		adcs	r7, r7, r2
 1982 0b9a 3000     		movs	r0, r6
 1983 0b9c FE02     		lsls	r6, r7, #11
 1984 0b9e 420D     		lsrs	r2, r0, #21
 1985 0ba0 3243     		orrs	r2, r6
 1986 0ba2 7B15     		asrs	r3, r7, #21
 1987              	.LVL351:
 202:sc.c          ****     s5 += carry4;
 1988              		.loc 1 202 0
 1989 0ba4 0C98     		ldr	r0, [sp, #48]
 1990 0ba6 0D99     		ldr	r1, [sp, #52]
 1991 0ba8 8018     		adds	r0, r0, r2
 1992 0baa 5941     		adcs	r1, r1, r3
 1993 0bac 0490     		str	r0, [sp, #16]
 1994 0bae 0591     		str	r1, [sp, #20]
 1995              	.LVL352:
 203:sc.c          ****     s4 -= carry4 << 21;
 1996              		.loc 1 203 0
 1997 0bb0 D60A     		lsrs	r6, r2, #11
 1998 0bb2 5905     		lsls	r1, r3, #21
 1999 0bb4 3143     		orrs	r1, r6
 2000 0bb6 5005     		lsls	r0, r2, #21
 2001              	.LVL353:
 2002 0bb8 2600     		movs	r6, r4
 2003 0bba 2F00     		movs	r7, r5
 2004 0bbc 361A     		subs	r6, r6, r0
 2005 0bbe 8F41     		sbcs	r7, r7, r1
 2006 0bc0 0A96     		str	r6, [sp, #40]
 2007 0bc2 0B97     		str	r7, [sp, #44]
 2008              	.LVL354:
 204:sc.c          ****     carry6 = (s6 + (1 << 20)) >> 21;
 2009              		.loc 1 204 0
 2010 0bc4 8026     		movs	r6, #128
 2011              	.LVL355:
 2012 0bc6 7603     		lsls	r6, r6, #13
 2013 0bc8 0027     		movs	r7, #0
 2014 0bca 149C     		ldr	r4, [sp, #80]
 2015 0bcc 159D     		ldr	r5, [sp, #84]
 2016 0bce 2100     		movs	r1, r4
 2017 0bd0 2A00     		movs	r2, r5
 2018              	.LVL356:
 2019 0bd2 7618     		adds	r6, r6, r1
ARM GAS  C:\Users\NIGHDR~1\AppData\Local\Temp\ccvJ0Ig2.s 			page 40


 2020 0bd4 5741     		adcs	r7, r7, r2
 2021 0bd6 3000     		movs	r0, r6
 2022 0bd8 FE02     		lsls	r6, r7, #11
 2023 0bda 420D     		lsrs	r2, r0, #21
 2024 0bdc 3243     		orrs	r2, r6
 2025 0bde 7B15     		asrs	r3, r7, #21
 2026              	.LVL357:
 205:sc.c          ****     s7 += carry6;
 2027              		.loc 1 205 0
 2028 0be0 1298     		ldr	r0, [sp, #72]
 2029 0be2 1399     		ldr	r1, [sp, #76]
 2030 0be4 8018     		adds	r0, r0, r2
 2031 0be6 5941     		adcs	r1, r1, r3
 2032 0be8 0690     		str	r0, [sp, #24]
 2033 0bea 0791     		str	r1, [sp, #28]
 2034              	.LVL358:
 206:sc.c          ****     s6 -= carry6 << 21;
 2035              		.loc 1 206 0
 2036 0bec D60A     		lsrs	r6, r2, #11
 2037 0bee 5905     		lsls	r1, r3, #21
 2038 0bf0 3143     		orrs	r1, r6
 2039 0bf2 5005     		lsls	r0, r2, #21
 2040              	.LVL359:
 2041 0bf4 2600     		movs	r6, r4
 2042 0bf6 2F00     		movs	r7, r5
 2043 0bf8 361A     		subs	r6, r6, r0
 2044 0bfa 8F41     		sbcs	r7, r7, r1
 2045 0bfc 0C96     		str	r6, [sp, #48]
 2046 0bfe 0D97     		str	r7, [sp, #52]
 2047              	.LVL360:
 207:sc.c          ****     carry8 = (s8 + (1 << 20)) >> 21;
 2048              		.loc 1 207 0
 2049 0c00 8026     		movs	r6, #128
 2050              	.LVL361:
 2051 0c02 7603     		lsls	r6, r6, #13
 2052 0c04 0027     		movs	r7, #0
 2053 0c06 089C     		ldr	r4, [sp, #32]
 2054 0c08 099D     		ldr	r5, [sp, #36]
 2055 0c0a 2100     		movs	r1, r4
 2056 0c0c 2A00     		movs	r2, r5
 2057              	.LVL362:
 2058 0c0e 7618     		adds	r6, r6, r1
 2059 0c10 5741     		adcs	r7, r7, r2
 2060 0c12 3000     		movs	r0, r6
 2061 0c14 FE02     		lsls	r6, r7, #11
 2062 0c16 420D     		lsrs	r2, r0, #21
 2063 0c18 3243     		orrs	r2, r6
 2064 0c1a 7B15     		asrs	r3, r7, #21
 2065              	.LVL363:
 208:sc.c          ****     s9 += carry8;
 2066              		.loc 1 208 0
 2067 0c1c 1A9E     		ldr	r6, [sp, #104]
 2068 0c1e 1B9F     		ldr	r7, [sp, #108]
 2069 0c20 B618     		adds	r6, r6, r2
 2070 0c22 5F41     		adcs	r7, r7, r3
 2071 0c24 0896     		str	r6, [sp, #32]
 2072 0c26 0997     		str	r7, [sp, #36]
ARM GAS  C:\Users\NIGHDR~1\AppData\Local\Temp\ccvJ0Ig2.s 			page 41


 2073              	.LVL364:
 209:sc.c          ****     s8 -= carry8 << 21;
 2074              		.loc 1 209 0
 2075 0c28 D60A     		lsrs	r6, r2, #11
 2076              	.LVL365:
 2077 0c2a 5905     		lsls	r1, r3, #21
 2078 0c2c 3143     		orrs	r1, r6
 2079 0c2e 5005     		lsls	r0, r2, #21
 2080 0c30 2200     		movs	r2, r4
 2081              	.LVL366:
 2082 0c32 2B00     		movs	r3, r5
 2083 0c34 121A     		subs	r2, r2, r0
 2084 0c36 8B41     		sbcs	r3, r3, r1
 2085 0c38 1292     		str	r2, [sp, #72]
 2086 0c3a 1393     		str	r3, [sp, #76]
 2087              	.LVL367:
 210:sc.c          ****     carry10 = (s10 + (1 << 20)) >> 21;
 2088              		.loc 1 210 0
 2089 0c3c 8020     		movs	r0, #128
 2090 0c3e 4003     		lsls	r0, r0, #13
 2091 0c40 0021     		movs	r1, #0
 2092 0c42 009A     		ldr	r2, [sp]
 2093 0c44 019B     		ldr	r3, [sp, #4]
 2094              	.LVL368:
 2095 0c46 8018     		adds	r0, r0, r2
 2096 0c48 5941     		adcs	r1, r1, r3
 2097 0c4a CE02     		lsls	r6, r1, #11
 2098 0c4c 420D     		lsrs	r2, r0, #21
 2099 0c4e 3243     		orrs	r2, r6
 2100 0c50 4B15     		asrs	r3, r1, #21
 2101              	.LVL369:
 211:sc.c          ****     s11 += carry10;
 2102              		.loc 1 211 0
 2103 0c52 209E     		ldr	r6, [sp, #128]
 2104 0c54 219F     		ldr	r7, [sp, #132]
 2105 0c56 B618     		adds	r6, r6, r2
 2106 0c58 5F41     		adcs	r7, r7, r3
 2107 0c5a 1496     		str	r6, [sp, #80]
 2108 0c5c 1597     		str	r7, [sp, #84]
 2109              	.LVL370:
 212:sc.c          ****     s10 -= carry10 << 21;
 2110              		.loc 1 212 0
 2111 0c5e D10A     		lsrs	r1, r2, #11
 2112 0c60 8C46     		mov	ip, r1
 2113 0c62 5905     		lsls	r1, r3, #21
 2114 0c64 6546     		mov	r5, ip
 2115 0c66 2943     		orrs	r1, r5
 2116 0c68 5005     		lsls	r0, r2, #21
 2117 0c6a 009A     		ldr	r2, [sp]
 2118 0c6c 019B     		ldr	r3, [sp, #4]
 2119              	.LVL371:
 2120 0c6e 121A     		subs	r2, r2, r0
 2121 0c70 8B41     		sbcs	r3, r3, r1
 2122 0c72 0092     		str	r2, [sp]
 2123 0c74 0193     		str	r3, [sp, #4]
 2124              	.LVL372:
 213:sc.c          ****     carry1 = (s1 + (1 << 20)) >> 21;
ARM GAS  C:\Users\NIGHDR~1\AppData\Local\Temp\ccvJ0Ig2.s 			page 42


 2125              		.loc 1 213 0
 2126 0c76 8021     		movs	r1, #128
 2127 0c78 4903     		lsls	r1, r1, #13
 2128 0c7a 0022     		movs	r2, #0
 2129              	.LVL373:
 2130 0c7c 0E9E     		ldr	r6, [sp, #56]
 2131 0c7e 0F9F     		ldr	r7, [sp, #60]
 2132              	.LVL374:
 2133 0c80 3300     		movs	r3, r6
 2134 0c82 3C00     		movs	r4, r7
 2135 0c84 C918     		adds	r1, r1, r3
 2136 0c86 6241     		adcs	r2, r2, r4
 2137 0c88 1300     		movs	r3, r2
 2138 0c8a 0A00     		movs	r2, r1
 2139 0c8c D902     		lsls	r1, r3, #11
 2140 0c8e 8C46     		mov	ip, r1
 2141 0c90 500D     		lsrs	r0, r2, #21
 2142 0c92 6546     		mov	r5, ip
 2143 0c94 2843     		orrs	r0, r5
 2144 0c96 5915     		asrs	r1, r3, #21
 2145              	.LVL375:
 214:sc.c          ****     s2 += carry1;
 2146              		.loc 1 214 0
 2147 0c98 169A     		ldr	r2, [sp, #88]
 2148 0c9a 179B     		ldr	r3, [sp, #92]
 2149 0c9c 1218     		adds	r2, r2, r0
 2150 0c9e 4B41     		adcs	r3, r3, r1
 2151 0ca0 0E92     		str	r2, [sp, #56]
 2152 0ca2 0F93     		str	r3, [sp, #60]
 2153              	.LVL376:
 215:sc.c          ****     s1 -= carry1 << 21;
 2154              		.loc 1 215 0
 2155 0ca4 C30A     		lsrs	r3, r0, #11
 2156 0ca6 9C46     		mov	ip, r3
 2157 0ca8 4B05     		lsls	r3, r1, #21
 2158 0caa 6546     		mov	r5, ip
 2159 0cac 2B43     		orrs	r3, r5
 2160 0cae 4205     		lsls	r2, r0, #21
 2161              	.LVL377:
 2162 0cb0 3400     		movs	r4, r6
 2163 0cb2 3D00     		movs	r5, r7
 2164 0cb4 A41A     		subs	r4, r4, r2
 2165 0cb6 9D41     		sbcs	r5, r5, r3
 2166 0cb8 1694     		str	r4, [sp, #88]
 2167 0cba 1795     		str	r5, [sp, #92]
 2168              	.LVL378:
 216:sc.c          ****     carry3 = (s3 + (1 << 20)) >> 21;
 2169              		.loc 1 216 0
 2170 0cbc 8022     		movs	r2, #128
 2171 0cbe 5203     		lsls	r2, r2, #13
 2172 0cc0 0023     		movs	r3, #0
 2173 0cc2 0298     		ldr	r0, [sp, #8]
 2174 0cc4 0399     		ldr	r1, [sp, #12]
 2175              	.LVL379:
 2176 0cc6 8018     		adds	r0, r0, r2
 2177 0cc8 5941     		adcs	r1, r1, r3
 2178 0cca 0400     		movs	r4, r0
ARM GAS  C:\Users\NIGHDR~1\AppData\Local\Temp\ccvJ0Ig2.s 			page 43


 2179              	.LVL380:
 2180 0ccc 0D00     		movs	r5, r1
 2181 0cce C902     		lsls	r1, r1, #11
 2182 0cd0 8C46     		mov	ip, r1
 2183 0cd2 2900     		movs	r1, r5
 2184 0cd4 660D     		lsrs	r6, r4, #21
 2185 0cd6 6546     		mov	r5, ip
 2186 0cd8 2E43     		orrs	r6, r5
 2187 0cda 4F15     		asrs	r7, r1, #21
 2188              	.LVL381:
 217:sc.c          ****     s4 += carry3;
 2189              		.loc 1 217 0
 2190 0cdc 0A9C     		ldr	r4, [sp, #40]
 2191 0cde 0B9D     		ldr	r5, [sp, #44]
 2192 0ce0 A419     		adds	r4, r4, r6
 2193 0ce2 7D41     		adcs	r5, r5, r7
 2194 0ce4 0A94     		str	r4, [sp, #40]
 2195 0ce6 0B95     		str	r5, [sp, #44]
 2196              	.LVL382:
 218:sc.c          ****     s3 -= carry3 << 21;
 2197              		.loc 1 218 0
 2198 0ce8 F50A     		lsrs	r5, r6, #11
 2199 0cea AC46     		mov	ip, r5
 2200 0cec 7D05     		lsls	r5, r7, #21
 2201 0cee 6146     		mov	r1, ip
 2202 0cf0 0D43     		orrs	r5, r1
 2203 0cf2 7405     		lsls	r4, r6, #21
 2204              	.LVL383:
 2205 0cf4 0298     		ldr	r0, [sp, #8]
 2206 0cf6 0399     		ldr	r1, [sp, #12]
 2207 0cf8 001B     		subs	r0, r0, r4
 2208 0cfa A941     		sbcs	r1, r1, r5
 2209 0cfc 0290     		str	r0, [sp, #8]
 2210 0cfe 0391     		str	r1, [sp, #12]
 2211              	.LVL384:
 219:sc.c          ****     carry5 = (s5 + (1 << 20)) >> 21;
 2212              		.loc 1 219 0
 2213 0d00 0498     		ldr	r0, [sp, #16]
 2214 0d02 0599     		ldr	r1, [sp, #20]
 2215              	.LVL385:
 2216 0d04 8018     		adds	r0, r0, r2
 2217 0d06 5941     		adcs	r1, r1, r3
 2218 0d08 0600     		movs	r6, r0
 2219              	.LVL386:
 2220 0d0a 0F00     		movs	r7, r1
 2221 0d0c C902     		lsls	r1, r1, #11
 2222 0d0e 8C46     		mov	ip, r1
 2223 0d10 700D     		lsrs	r0, r6, #21
 2224 0d12 6546     		mov	r5, ip
 2225 0d14 2843     		orrs	r0, r5
 2226 0d16 7915     		asrs	r1, r7, #21
 2227              	.LVL387:
 220:sc.c          ****     s6 += carry5;
 2228              		.loc 1 220 0
 2229 0d18 0C9C     		ldr	r4, [sp, #48]
 2230 0d1a 0D9D     		ldr	r5, [sp, #52]
 2231 0d1c 2418     		adds	r4, r4, r0
ARM GAS  C:\Users\NIGHDR~1\AppData\Local\Temp\ccvJ0Ig2.s 			page 44


 2232 0d1e 4D41     		adcs	r5, r5, r1
 2233 0d20 0C94     		str	r4, [sp, #48]
 2234 0d22 0D95     		str	r5, [sp, #52]
 2235              	.LVL388:
 221:sc.c          ****     s5 -= carry5 << 21;
 2236              		.loc 1 221 0
 2237 0d24 C50A     		lsrs	r5, r0, #11
 2238 0d26 AC46     		mov	ip, r5
 2239 0d28 4D05     		lsls	r5, r1, #21
 2240 0d2a 6746     		mov	r7, ip
 2241 0d2c 3D43     		orrs	r5, r7
 2242 0d2e 4405     		lsls	r4, r0, #21
 2243              	.LVL389:
 2244 0d30 0498     		ldr	r0, [sp, #16]
 2245 0d32 0599     		ldr	r1, [sp, #20]
 2246              	.LVL390:
 2247 0d34 001B     		subs	r0, r0, r4
 2248 0d36 A941     		sbcs	r1, r1, r5
 2249 0d38 0490     		str	r0, [sp, #16]
 2250 0d3a 0591     		str	r1, [sp, #20]
 2251              	.LVL391:
 222:sc.c          ****     carry7 = (s7 + (1 << 20)) >> 21;
 2252              		.loc 1 222 0
 2253 0d3c 069C     		ldr	r4, [sp, #24]
 2254 0d3e 079D     		ldr	r5, [sp, #28]
 2255 0d40 A418     		adds	r4, r4, r2
 2256 0d42 5D41     		adcs	r5, r5, r3
 2257 0d44 E902     		lsls	r1, r5, #11
 2258 0d46 8C46     		mov	ip, r1
 2259 0d48 600D     		lsrs	r0, r4, #21
 2260              	.LVL392:
 2261 0d4a 6746     		mov	r7, ip
 2262 0d4c 3843     		orrs	r0, r7
 2263 0d4e 6915     		asrs	r1, r5, #21
 2264              	.LVL393:
 223:sc.c          ****     s8 += carry7;
 2265              		.loc 1 223 0
 2266 0d50 129C     		ldr	r4, [sp, #72]
 2267 0d52 139D     		ldr	r5, [sp, #76]
 2268 0d54 2418     		adds	r4, r4, r0
 2269 0d56 4D41     		adcs	r5, r5, r1
 2270 0d58 1294     		str	r4, [sp, #72]
 2271 0d5a 1395     		str	r5, [sp, #76]
 2272              	.LVL394:
 224:sc.c          ****     s7 -= carry7 << 21;
 2273              		.loc 1 224 0
 2274 0d5c C50A     		lsrs	r5, r0, #11
 2275 0d5e AC46     		mov	ip, r5
 2276 0d60 4D05     		lsls	r5, r1, #21
 2277 0d62 6746     		mov	r7, ip
 2278 0d64 3D43     		orrs	r5, r7
 2279 0d66 4405     		lsls	r4, r0, #21
 2280              	.LVL395:
 2281 0d68 0698     		ldr	r0, [sp, #24]
 2282 0d6a 0799     		ldr	r1, [sp, #28]
 2283              	.LVL396:
 2284 0d6c 001B     		subs	r0, r0, r4
ARM GAS  C:\Users\NIGHDR~1\AppData\Local\Temp\ccvJ0Ig2.s 			page 45


 2285 0d6e A941     		sbcs	r1, r1, r5
 2286 0d70 0690     		str	r0, [sp, #24]
 2287 0d72 0791     		str	r1, [sp, #28]
 2288              	.LVL397:
 225:sc.c          ****     carry9 = (s9 + (1 << 20)) >> 21;
 2289              		.loc 1 225 0
 2290 0d74 089C     		ldr	r4, [sp, #32]
 2291 0d76 099D     		ldr	r5, [sp, #36]
 2292 0d78 A418     		adds	r4, r4, r2
 2293 0d7a 5D41     		adcs	r5, r5, r3
 2294 0d7c E902     		lsls	r1, r5, #11
 2295 0d7e 8C46     		mov	ip, r1
 2296 0d80 600D     		lsrs	r0, r4, #21
 2297              	.LVL398:
 2298 0d82 6746     		mov	r7, ip
 2299 0d84 3843     		orrs	r0, r7
 2300 0d86 6915     		asrs	r1, r5, #21
 2301              	.LVL399:
 226:sc.c          ****     s10 += carry9;
 2302              		.loc 1 226 0
 2303 0d88 009C     		ldr	r4, [sp]
 2304 0d8a 019D     		ldr	r5, [sp, #4]
 2305 0d8c 2418     		adds	r4, r4, r0
 2306 0d8e 4D41     		adcs	r5, r5, r1
 2307 0d90 1894     		str	r4, [sp, #96]
 2308 0d92 1995     		str	r5, [sp, #100]
 2309              	.LVL400:
 227:sc.c          ****     s9 -= carry9 << 21;
 2310              		.loc 1 227 0
 2311 0d94 C50A     		lsrs	r5, r0, #11
 2312 0d96 AC46     		mov	ip, r5
 2313 0d98 4D05     		lsls	r5, r1, #21
 2314 0d9a 6746     		mov	r7, ip
 2315 0d9c 3D43     		orrs	r5, r7
 2316 0d9e 4405     		lsls	r4, r0, #21
 2317              	.LVL401:
 2318 0da0 0898     		ldr	r0, [sp, #32]
 2319 0da2 0999     		ldr	r1, [sp, #36]
 2320              	.LVL402:
 2321 0da4 001B     		subs	r0, r0, r4
 2322 0da6 A941     		sbcs	r1, r1, r5
 2323 0da8 0890     		str	r0, [sp, #32]
 2324 0daa 0991     		str	r1, [sp, #36]
 2325              	.LVL403:
 228:sc.c          ****     carry11 = (s11 + (1 << 20)) >> 21;
 2326              		.loc 1 228 0
 2327 0dac 149E     		ldr	r6, [sp, #80]
 2328 0dae 159F     		ldr	r7, [sp, #84]
 2329 0db0 3000     		movs	r0, r6
 2330              	.LVL404:
 2331 0db2 3900     		movs	r1, r7
 2332 0db4 1218     		adds	r2, r2, r0
 2333 0db6 4B41     		adcs	r3, r3, r1
 2334 0db8 D902     		lsls	r1, r3, #11
 2335 0dba 540D     		lsrs	r4, r2, #21
 2336 0dbc 0C43     		orrs	r4, r1
 2337 0dbe 5D15     		asrs	r5, r3, #21
ARM GAS  C:\Users\NIGHDR~1\AppData\Local\Temp\ccvJ0Ig2.s 			page 46


 2338              	.LVL405:
 229:sc.c          ****     s12 += carry11;
 230:sc.c          ****     s11 -= carry11 << 21;
 2339              		.loc 1 230 0
 2340 0dc0 E10A     		lsrs	r1, r4, #11
 2341 0dc2 6B05     		lsls	r3, r5, #21
 2342 0dc4 0B43     		orrs	r3, r1
 2343 0dc6 6205     		lsls	r2, r4, #21
 2344 0dc8 B61A     		subs	r6, r6, r2
 2345 0dca 9F41     		sbcs	r7, r7, r3
 2346 0dcc 1496     		str	r6, [sp, #80]
 2347 0dce 1597     		str	r7, [sp, #84]
 2348              	.LVL406:
 231:sc.c          ****     s0 += s12 * 666643;
 2349              		.loc 1 231 0
 2350 0dd0 E94A     		ldr	r2, .L10
 2351 0dd2 0023     		movs	r3, #0
 2352 0dd4 2000     		movs	r0, r4
 2353 0dd6 2900     		movs	r1, r5
 2354 0dd8 FFF7FEFF 		bl	__aeabi_lmul
 2355              	.LVL407:
 2356 0ddc 109E     		ldr	r6, [sp, #64]
 2357 0dde 119F     		ldr	r7, [sp, #68]
 2358              	.LVL408:
 2359 0de0 3618     		adds	r6, r6, r0
 2360 0de2 4F41     		adcs	r7, r7, r1
 2361              	.LVL409:
 232:sc.c          ****     s1 += s12 * 470296;
 2362              		.loc 1 232 0
 2363 0de4 E54A     		ldr	r2, .L10+4
 2364 0de6 0023     		movs	r3, #0
 2365 0de8 2000     		movs	r0, r4
 2366 0dea 2900     		movs	r1, r5
 2367 0dec FFF7FEFF 		bl	__aeabi_lmul
 2368              	.LVL410:
 2369 0df0 169A     		ldr	r2, [sp, #88]
 2370 0df2 179B     		ldr	r3, [sp, #92]
 2371 0df4 1218     		adds	r2, r2, r0
 2372 0df6 4B41     		adcs	r3, r3, r1
 2373 0df8 0092     		str	r2, [sp]
 2374 0dfa 0193     		str	r3, [sp, #4]
 2375              	.LVL411:
 233:sc.c          ****     s2 += s12 * 654183;
 2376              		.loc 1 233 0
 2377 0dfc E04A     		ldr	r2, .L10+8
 2378              	.LVL412:
 2379 0dfe 0023     		movs	r3, #0
 2380 0e00 2000     		movs	r0, r4
 2381 0e02 2900     		movs	r1, r5
 2382 0e04 FFF7FEFF 		bl	__aeabi_lmul
 2383              	.LVL413:
 2384 0e08 0E9A     		ldr	r2, [sp, #56]
 2385 0e0a 0F9B     		ldr	r3, [sp, #60]
 2386 0e0c 1218     		adds	r2, r2, r0
 2387 0e0e 4B41     		adcs	r3, r3, r1
 2388 0e10 0E92     		str	r2, [sp, #56]
 2389 0e12 0F93     		str	r3, [sp, #60]
ARM GAS  C:\Users\NIGHDR~1\AppData\Local\Temp\ccvJ0Ig2.s 			page 47


 2390              	.LVL414:
 234:sc.c          ****     s3 -= s12 * 997805;
 2391              		.loc 1 234 0
 2392 0e14 DB4A     		ldr	r2, .L10+12
 2393              	.LVL415:
 2394 0e16 0123     		movs	r3, #1
 2395 0e18 5B42     		rsbs	r3, r3, #0
 2396 0e1a 2000     		movs	r0, r4
 2397 0e1c 2900     		movs	r1, r5
 2398 0e1e FFF7FEFF 		bl	__aeabi_lmul
 2399              	.LVL416:
 2400 0e22 029A     		ldr	r2, [sp, #8]
 2401 0e24 039B     		ldr	r3, [sp, #12]
 2402 0e26 1218     		adds	r2, r2, r0
 2403 0e28 4B41     		adcs	r3, r3, r1
 2404 0e2a 0292     		str	r2, [sp, #8]
 2405 0e2c 0393     		str	r3, [sp, #12]
 2406              	.LVL417:
 235:sc.c          ****     s4 += s12 * 136657;
 2407              		.loc 1 235 0
 2408 0e2e D64A     		ldr	r2, .L10+16
 2409              	.LVL418:
 2410 0e30 0023     		movs	r3, #0
 2411 0e32 2000     		movs	r0, r4
 2412 0e34 2900     		movs	r1, r5
 2413 0e36 FFF7FEFF 		bl	__aeabi_lmul
 2414              	.LVL419:
 2415 0e3a 0A9A     		ldr	r2, [sp, #40]
 2416 0e3c 0B9B     		ldr	r3, [sp, #44]
 2417 0e3e 1218     		adds	r2, r2, r0
 2418 0e40 4B41     		adcs	r3, r3, r1
 2419 0e42 0A92     		str	r2, [sp, #40]
 2420 0e44 0B93     		str	r3, [sp, #44]
 2421              	.LVL420:
 236:sc.c          ****     s5 -= s12 * 683901;
 2422              		.loc 1 236 0
 2423 0e46 D14A     		ldr	r2, .L10+20
 2424              	.LVL421:
 2425 0e48 0123     		movs	r3, #1
 2426 0e4a 5B42     		rsbs	r3, r3, #0
 2427 0e4c 2000     		movs	r0, r4
 2428 0e4e 2900     		movs	r1, r5
 2429 0e50 FFF7FEFF 		bl	__aeabi_lmul
 2430              	.LVL422:
 2431 0e54 049B     		ldr	r3, [sp, #16]
 2432 0e56 059C     		ldr	r4, [sp, #20]
 2433 0e58 1B18     		adds	r3, r3, r0
 2434 0e5a 4C41     		adcs	r4, r4, r1
 2435 0e5c 0493     		str	r3, [sp, #16]
 2436 0e5e 0594     		str	r4, [sp, #20]
 2437              	.LVL423:
 237:sc.c          ****     s12 = 0;
 238:sc.c          ****     carry0 = s0 >> 21;
 2438              		.loc 1 238 0
 2439 0e60 F902     		lsls	r1, r7, #11
 2440 0e62 720D     		lsrs	r2, r6, #21
 2441 0e64 0A43     		orrs	r2, r1
ARM GAS  C:\Users\NIGHDR~1\AppData\Local\Temp\ccvJ0Ig2.s 			page 48


 2442 0e66 7B15     		asrs	r3, r7, #21
 2443              	.LVL424:
 239:sc.c          ****     s1 += carry0;
 2444              		.loc 1 239 0
 2445 0e68 0098     		ldr	r0, [sp]
 2446 0e6a 0199     		ldr	r1, [sp, #4]
 2447 0e6c 8018     		adds	r0, r0, r2
 2448 0e6e 5941     		adcs	r1, r1, r3
 2449 0e70 0090     		str	r0, [sp]
 2450 0e72 0191     		str	r1, [sp, #4]
 2451              	.LVL425:
 240:sc.c          ****     s0 -= carry0 << 21;
 2452              		.loc 1 240 0
 2453 0e74 D50A     		lsrs	r5, r2, #11
 2454              	.LVL426:
 2455 0e76 AC46     		mov	ip, r5
 2456 0e78 5D05     		lsls	r5, r3, #21
 2457 0e7a 6146     		mov	r1, ip
 2458 0e7c 0D43     		orrs	r5, r1
 2459 0e7e 5405     		lsls	r4, r2, #21
 2460              	.LVL427:
 2461 0e80 3200     		movs	r2, r6
 2462              	.LVL428:
 2463 0e82 3B00     		movs	r3, r7
 2464 0e84 121B     		subs	r2, r2, r4
 2465 0e86 AB41     		sbcs	r3, r3, r5
 2466 0e88 1092     		str	r2, [sp, #64]
 2467 0e8a 1193     		str	r3, [sp, #68]
 2468              	.LVL429:
 241:sc.c          ****     carry1 = s1 >> 21;
 2469              		.loc 1 241 0
 2470 0e8c 0098     		ldr	r0, [sp]
 2471 0e8e 0199     		ldr	r1, [sp, #4]
 2472 0e90 CC02     		lsls	r4, r1, #11
 2473 0e92 420D     		lsrs	r2, r0, #21
 2474              	.LVL430:
 2475 0e94 2243     		orrs	r2, r4
 2476 0e96 4B15     		asrs	r3, r1, #21
 2477              	.LVL431:
 242:sc.c          ****     s2 += carry1;
 2478              		.loc 1 242 0
 2479 0e98 0E9D     		ldr	r5, [sp, #56]
 2480 0e9a 0F9E     		ldr	r6, [sp, #60]
 2481 0e9c AD18     		adds	r5, r5, r2
 2482 0e9e 5E41     		adcs	r6, r6, r3
 2483 0ea0 3700     		movs	r7, r6
 2484 0ea2 2E00     		movs	r6, r5
 2485              	.LVL432:
 243:sc.c          ****     s1 -= carry1 << 21;
 2486              		.loc 1 243 0
 2487 0ea4 D10A     		lsrs	r1, r2, #11
 2488 0ea6 5D05     		lsls	r5, r3, #21
 2489 0ea8 0D43     		orrs	r5, r1
 2490 0eaa 5405     		lsls	r4, r2, #21
 2491 0eac 0099     		ldr	r1, [sp]
 2492 0eae 019A     		ldr	r2, [sp, #4]
 2493 0eb0 091B     		subs	r1, r1, r4
ARM GAS  C:\Users\NIGHDR~1\AppData\Local\Temp\ccvJ0Ig2.s 			page 49


 2494 0eb2 AA41     		sbcs	r2, r2, r5
 2495 0eb4 0E91     		str	r1, [sp, #56]
 2496 0eb6 0F92     		str	r2, [sp, #60]
 2497              	.LVL433:
 244:sc.c          ****     carry2 = s2 >> 21;
 2498              		.loc 1 244 0
 2499 0eb8 F902     		lsls	r1, r7, #11
 2500              	.LVL434:
 2501 0eba 720D     		lsrs	r2, r6, #21
 2502              	.LVL435:
 2503 0ebc 0A43     		orrs	r2, r1
 2504 0ebe 7B15     		asrs	r3, r7, #21
 2505              	.LVL436:
 245:sc.c          ****     s3 += carry2;
 2506              		.loc 1 245 0
 2507 0ec0 0298     		ldr	r0, [sp, #8]
 2508 0ec2 0399     		ldr	r1, [sp, #12]
 2509 0ec4 8018     		adds	r0, r0, r2
 2510 0ec6 5941     		adcs	r1, r1, r3
 2511 0ec8 0090     		str	r0, [sp]
 2512 0eca 0191     		str	r1, [sp, #4]
 2513              	.LVL437:
 246:sc.c          ****     s2 -= carry2 << 21;
 2514              		.loc 1 246 0
 2515 0ecc D10A     		lsrs	r1, r2, #11
 2516 0ece 8C46     		mov	ip, r1
 2517 0ed0 5905     		lsls	r1, r3, #21
 2518 0ed2 6546     		mov	r5, ip
 2519 0ed4 2943     		orrs	r1, r5
 2520 0ed6 5005     		lsls	r0, r2, #21
 2521              	.LVL438:
 2522 0ed8 3200     		movs	r2, r6
 2523              	.LVL439:
 2524 0eda 3B00     		movs	r3, r7
 2525 0edc 121A     		subs	r2, r2, r0
 2526 0ede 8B41     		sbcs	r3, r3, r1
 2527 0ee0 0292     		str	r2, [sp, #8]
 2528 0ee2 0393     		str	r3, [sp, #12]
 2529              	.LVL440:
 247:sc.c          ****     carry3 = s3 >> 21;
 2530              		.loc 1 247 0
 2531 0ee4 009C     		ldr	r4, [sp]
 2532 0ee6 019D     		ldr	r5, [sp, #4]
 2533 0ee8 E902     		lsls	r1, r5, #11
 2534 0eea 620D     		lsrs	r2, r4, #21
 2535              	.LVL441:
 2536 0eec 0A43     		orrs	r2, r1
 2537 0eee 6B15     		asrs	r3, r5, #21
 2538              	.LVL442:
 248:sc.c          ****     s4 += carry3;
 2539              		.loc 1 248 0
 2540 0ef0 0A9E     		ldr	r6, [sp, #40]
 2541 0ef2 0B9F     		ldr	r7, [sp, #44]
 2542 0ef4 B618     		adds	r6, r6, r2
 2543 0ef6 5F41     		adcs	r7, r7, r3
 2544              	.LVL443:
 249:sc.c          ****     s3 -= carry3 << 21;
ARM GAS  C:\Users\NIGHDR~1\AppData\Local\Temp\ccvJ0Ig2.s 			page 50


 2545              		.loc 1 249 0
 2546 0ef8 D50A     		lsrs	r5, r2, #11
 2547 0efa 5905     		lsls	r1, r3, #21
 2548 0efc 2943     		orrs	r1, r5
 2549 0efe 5005     		lsls	r0, r2, #21
 2550 0f00 009B     		ldr	r3, [sp]
 2551 0f02 019C     		ldr	r4, [sp, #4]
 2552 0f04 1B1A     		subs	r3, r3, r0
 2553 0f06 8C41     		sbcs	r4, r4, r1
 2554 0f08 0A93     		str	r3, [sp, #40]
 2555 0f0a 0B94     		str	r4, [sp, #44]
 2556              	.LVL444:
 250:sc.c          ****     carry4 = s4 >> 21;
 2557              		.loc 1 250 0
 2558 0f0c F902     		lsls	r1, r7, #11
 2559 0f0e 720D     		lsrs	r2, r6, #21
 2560              	.LVL445:
 2561 0f10 0A43     		orrs	r2, r1
 2562 0f12 7B15     		asrs	r3, r7, #21
 2563              	.LVL446:
 251:sc.c          ****     s5 += carry4;
 2564              		.loc 1 251 0
 2565 0f14 049C     		ldr	r4, [sp, #16]
 2566 0f16 059D     		ldr	r5, [sp, #20]
 2567 0f18 A418     		adds	r4, r4, r2
 2568 0f1a 5D41     		adcs	r5, r5, r3
 2569 0f1c 0094     		str	r4, [sp]
 2570 0f1e 0195     		str	r5, [sp, #4]
 2571              	.LVL447:
 252:sc.c          ****     s4 -= carry4 << 21;
 2572              		.loc 1 252 0
 2573 0f20 D10A     		lsrs	r1, r2, #11
 2574 0f22 8C46     		mov	ip, r1
 2575 0f24 5905     		lsls	r1, r3, #21
 2576 0f26 6546     		mov	r5, ip
 2577 0f28 2943     		orrs	r1, r5
 2578 0f2a 5005     		lsls	r0, r2, #21
 2579 0f2c 361A     		subs	r6, r6, r0
 2580 0f2e 8F41     		sbcs	r7, r7, r1
 2581              	.LVL448:
 2582 0f30 0496     		str	r6, [sp, #16]
 2583 0f32 0597     		str	r7, [sp, #20]
 2584              	.LVL449:
 253:sc.c          ****     carry5 = s5 >> 21;
 2585              		.loc 1 253 0
 2586 0f34 009C     		ldr	r4, [sp]
 2587 0f36 019D     		ldr	r5, [sp, #4]
 2588 0f38 E902     		lsls	r1, r5, #11
 2589 0f3a 620D     		lsrs	r2, r4, #21
 2590              	.LVL450:
 2591 0f3c 0A43     		orrs	r2, r1
 2592 0f3e 6B15     		asrs	r3, r5, #21
 2593              	.LVL451:
 254:sc.c          ****     s6 += carry5;
 2594              		.loc 1 254 0
 2595 0f40 0C9E     		ldr	r6, [sp, #48]
 2596 0f42 0D9F     		ldr	r7, [sp, #52]
ARM GAS  C:\Users\NIGHDR~1\AppData\Local\Temp\ccvJ0Ig2.s 			page 51


 2597              	.LVL452:
 2598 0f44 B618     		adds	r6, r6, r2
 2599 0f46 5F41     		adcs	r7, r7, r3
 2600              	.LVL453:
 255:sc.c          ****     s5 -= carry5 << 21;
 2601              		.loc 1 255 0
 2602 0f48 D50A     		lsrs	r5, r2, #11
 2603 0f4a 5905     		lsls	r1, r3, #21
 2604 0f4c 2943     		orrs	r1, r5
 2605 0f4e 5005     		lsls	r0, r2, #21
 2606 0f50 009B     		ldr	r3, [sp]
 2607 0f52 019C     		ldr	r4, [sp, #4]
 2608 0f54 1B1A     		subs	r3, r3, r0
 2609 0f56 8C41     		sbcs	r4, r4, r1
 2610 0f58 0C93     		str	r3, [sp, #48]
 2611 0f5a 0D94     		str	r4, [sp, #52]
 2612              	.LVL454:
 256:sc.c          ****     carry6 = s6 >> 21;
 2613              		.loc 1 256 0
 2614 0f5c F902     		lsls	r1, r7, #11
 2615 0f5e 720D     		lsrs	r2, r6, #21
 2616              	.LVL455:
 2617 0f60 0A43     		orrs	r2, r1
 2618 0f62 7B15     		asrs	r3, r7, #21
 2619              	.LVL456:
 257:sc.c          ****     s7 += carry6;
 2620              		.loc 1 257 0
 2621 0f64 069C     		ldr	r4, [sp, #24]
 2622 0f66 079D     		ldr	r5, [sp, #28]
 2623 0f68 A418     		adds	r4, r4, r2
 2624 0f6a 5D41     		adcs	r5, r5, r3
 2625 0f6c 0094     		str	r4, [sp]
 2626 0f6e 0195     		str	r5, [sp, #4]
 2627              	.LVL457:
 258:sc.c          ****     s6 -= carry6 << 21;
 2628              		.loc 1 258 0
 2629 0f70 D10A     		lsrs	r1, r2, #11
 2630 0f72 8C46     		mov	ip, r1
 2631 0f74 5905     		lsls	r1, r3, #21
 2632 0f76 6546     		mov	r5, ip
 2633 0f78 2943     		orrs	r1, r5
 2634 0f7a 5005     		lsls	r0, r2, #21
 2635 0f7c 361A     		subs	r6, r6, r0
 2636 0f7e 8F41     		sbcs	r7, r7, r1
 2637              	.LVL458:
 2638 0f80 0696     		str	r6, [sp, #24]
 2639 0f82 0797     		str	r7, [sp, #28]
 2640              	.LVL459:
 259:sc.c          ****     carry7 = s7 >> 21;
 2641              		.loc 1 259 0
 2642 0f84 009C     		ldr	r4, [sp]
 2643 0f86 019D     		ldr	r5, [sp, #4]
 2644 0f88 E902     		lsls	r1, r5, #11
 2645 0f8a 620D     		lsrs	r2, r4, #21
 2646              	.LVL460:
 2647 0f8c 0A43     		orrs	r2, r1
 2648 0f8e 6B15     		asrs	r3, r5, #21
ARM GAS  C:\Users\NIGHDR~1\AppData\Local\Temp\ccvJ0Ig2.s 			page 52


 2649              	.LVL461:
 260:sc.c          ****     s8 += carry7;
 2650              		.loc 1 260 0
 2651 0f90 1298     		ldr	r0, [sp, #72]
 2652 0f92 1399     		ldr	r1, [sp, #76]
 2653 0f94 8018     		adds	r0, r0, r2
 2654 0f96 5941     		adcs	r1, r1, r3
 2655 0f98 0600     		movs	r6, r0
 2656              	.LVL462:
 2657 0f9a 0F00     		movs	r7, r1
 2658              	.LVL463:
 261:sc.c          ****     s7 -= carry7 << 21;
 2659              		.loc 1 261 0
 2660 0f9c D50A     		lsrs	r5, r2, #11
 2661 0f9e 5905     		lsls	r1, r3, #21
 2662 0fa0 2943     		orrs	r1, r5
 2663 0fa2 5005     		lsls	r0, r2, #21
 2664 0fa4 009C     		ldr	r4, [sp]
 2665 0fa6 019D     		ldr	r5, [sp, #4]
 2666 0fa8 241A     		subs	r4, r4, r0
 2667 0faa 8D41     		sbcs	r5, r5, r1
 2668              	.LVL464:
 2669 0fac 1294     		str	r4, [sp, #72]
 2670 0fae 1395     		str	r5, [sp, #76]
 2671              	.LVL465:
 262:sc.c          ****     carry8 = s8 >> 21;
 2672              		.loc 1 262 0
 2673 0fb0 F902     		lsls	r1, r7, #11
 2674 0fb2 720D     		lsrs	r2, r6, #21
 2675              	.LVL466:
 2676 0fb4 0A43     		orrs	r2, r1
 2677 0fb6 7B15     		asrs	r3, r7, #21
 2678              	.LVL467:
 263:sc.c          ****     s9 += carry8;
 2679              		.loc 1 263 0
 2680 0fb8 0898     		ldr	r0, [sp, #32]
 2681 0fba 0999     		ldr	r1, [sp, #36]
 2682 0fbc 8018     		adds	r0, r0, r2
 2683 0fbe 5941     		adcs	r1, r1, r3
 2684 0fc0 0090     		str	r0, [sp]
 2685 0fc2 0191     		str	r1, [sp, #4]
 2686              	.LVL468:
 264:sc.c          ****     s8 -= carry8 << 21;
 2687              		.loc 1 264 0
 2688 0fc4 D10A     		lsrs	r1, r2, #11
 2689 0fc6 8C46     		mov	ip, r1
 2690 0fc8 5905     		lsls	r1, r3, #21
 2691 0fca 6546     		mov	r5, ip
 2692 0fcc 2943     		orrs	r1, r5
 2693 0fce 5005     		lsls	r0, r2, #21
 2694              	.LVL469:
 2695 0fd0 361A     		subs	r6, r6, r0
 2696 0fd2 8F41     		sbcs	r7, r7, r1
 2697              	.LVL470:
 2698 0fd4 0896     		str	r6, [sp, #32]
 2699 0fd6 0997     		str	r7, [sp, #36]
 2700              	.LVL471:
ARM GAS  C:\Users\NIGHDR~1\AppData\Local\Temp\ccvJ0Ig2.s 			page 53


 265:sc.c          ****     carry9 = s9 >> 21;
 2701              		.loc 1 265 0
 2702 0fd8 009C     		ldr	r4, [sp]
 2703 0fda 019D     		ldr	r5, [sp, #4]
 2704              	.LVL472:
 2705 0fdc E902     		lsls	r1, r5, #11
 2706 0fde 620D     		lsrs	r2, r4, #21
 2707              	.LVL473:
 2708 0fe0 0A43     		orrs	r2, r1
 2709 0fe2 6B15     		asrs	r3, r5, #21
 2710              	.LVL474:
 266:sc.c          ****     s10 += carry9;
 2711              		.loc 1 266 0
 2712 0fe4 189E     		ldr	r6, [sp, #96]
 2713 0fe6 199F     		ldr	r7, [sp, #100]
 2714              	.LVL475:
 2715 0fe8 B618     		adds	r6, r6, r2
 2716 0fea 5F41     		adcs	r7, r7, r3
 2717              	.LVL476:
 267:sc.c          ****     s9 -= carry9 << 21;
 2718              		.loc 1 267 0
 2719 0fec D50A     		lsrs	r5, r2, #11
 2720 0fee 5905     		lsls	r1, r3, #21
 2721 0ff0 2943     		orrs	r1, r5
 2722 0ff2 5005     		lsls	r0, r2, #21
 2723 0ff4 009C     		ldr	r4, [sp]
 2724 0ff6 019D     		ldr	r5, [sp, #4]
 2725 0ff8 241A     		subs	r4, r4, r0
 2726 0ffa 8D41     		sbcs	r5, r5, r1
 2727 0ffc 1694     		str	r4, [sp, #88]
 2728 0ffe 1795     		str	r5, [sp, #92]
 2729              	.LVL477:
 268:sc.c          ****     carry10 = s10 >> 21;
 2730              		.loc 1 268 0
 2731 1000 F902     		lsls	r1, r7, #11
 2732 1002 3400     		movs	r4, r6
 2733              	.LVL478:
 2734 1004 3D00     		movs	r5, r7
 2735 1006 720D     		lsrs	r2, r6, #21
 2736              	.LVL479:
 2737 1008 0A43     		orrs	r2, r1
 2738 100a 0094     		str	r4, [sp]
 2739 100c 0195     		str	r5, [sp, #4]
 2740 100e 7B15     		asrs	r3, r7, #21
 2741              	.LVL480:
 269:sc.c          ****     s11 += carry10;
 2742              		.loc 1 269 0
 2743 1010 1498     		ldr	r0, [sp, #80]
 2744 1012 1599     		ldr	r1, [sp, #84]
 2745 1014 8018     		adds	r0, r0, r2
 2746 1016 5941     		adcs	r1, r1, r3
 2747              	.LVL481:
 270:sc.c          ****     s10 -= carry10 << 21;
 2748              		.loc 1 270 0
 2749 1018 D50A     		lsrs	r5, r2, #11
 2750 101a AC46     		mov	ip, r5
 2751 101c 5D05     		lsls	r5, r3, #21
ARM GAS  C:\Users\NIGHDR~1\AppData\Local\Temp\ccvJ0Ig2.s 			page 54


 2752 101e 6746     		mov	r7, ip
 2753 1020 3D43     		orrs	r5, r7
 2754 1022 5405     		lsls	r4, r2, #21
 2755 1024 009E     		ldr	r6, [sp]
 2756 1026 019F     		ldr	r7, [sp, #4]
 2757              	.LVL482:
 2758 1028 361B     		subs	r6, r6, r4
 2759 102a AF41     		sbcs	r7, r7, r5
 2760 102c 1496     		str	r6, [sp, #80]
 2761 102e 1597     		str	r7, [sp, #84]
 2762              	.LVL483:
 271:sc.c          ****     carry11 = s11 >> 21;
 2763              		.loc 1 271 0
 2764 1030 CB02     		lsls	r3, r1, #11
 2765 1032 440D     		lsrs	r4, r0, #21
 2766 1034 1C43     		orrs	r4, r3
 2767 1036 4D15     		asrs	r5, r1, #21
 2768              	.LVL484:
 272:sc.c          ****     s12 += carry11;
 273:sc.c          ****     s11 -= carry11 << 21;
 2769              		.loc 1 273 0
 2770 1038 E60A     		lsrs	r6, r4, #11
 2771              	.LVL485:
 2772 103a 6B05     		lsls	r3, r5, #21
 2773 103c 3343     		orrs	r3, r6
 2774 103e 6205     		lsls	r2, r4, #21
 2775              	.LVL486:
 2776 1040 801A     		subs	r0, r0, r2
 2777 1042 9941     		sbcs	r1, r1, r3
 2778              	.LVL487:
 2779 1044 1890     		str	r0, [sp, #96]
 2780 1046 1991     		str	r1, [sp, #100]
 2781              	.LVL488:
 274:sc.c          ****     s0 += s12 * 666643;
 2782              		.loc 1 274 0
 2783 1048 4B4A     		ldr	r2, .L10
 2784 104a 0023     		movs	r3, #0
 2785 104c 2000     		movs	r0, r4
 2786              	.LVL489:
 2787 104e 2900     		movs	r1, r5
 2788 1050 FFF7FEFF 		bl	__aeabi_lmul
 2789              	.LVL490:
 2790 1054 109E     		ldr	r6, [sp, #64]
 2791 1056 119F     		ldr	r7, [sp, #68]
 2792 1058 3618     		adds	r6, r6, r0
 2793 105a 4F41     		adcs	r7, r7, r1
 2794              	.LVL491:
 275:sc.c          ****     s1 += s12 * 470296;
 2795              		.loc 1 275 0
 2796 105c 474A     		ldr	r2, .L10+4
 2797 105e 0023     		movs	r3, #0
 2798 1060 2000     		movs	r0, r4
 2799 1062 2900     		movs	r1, r5
 2800 1064 FFF7FEFF 		bl	__aeabi_lmul
 2801              	.LVL492:
 2802 1068 0E9A     		ldr	r2, [sp, #56]
 2803 106a 0F9B     		ldr	r3, [sp, #60]
ARM GAS  C:\Users\NIGHDR~1\AppData\Local\Temp\ccvJ0Ig2.s 			page 55


 2804 106c 1218     		adds	r2, r2, r0
 2805 106e 4B41     		adcs	r3, r3, r1
 2806 1070 0092     		str	r2, [sp]
 2807 1072 0193     		str	r3, [sp, #4]
 2808              	.LVL493:
 276:sc.c          ****     s2 += s12 * 654183;
 2809              		.loc 1 276 0
 2810 1074 424A     		ldr	r2, .L10+8
 2811              	.LVL494:
 2812 1076 0023     		movs	r3, #0
 2813 1078 2000     		movs	r0, r4
 2814 107a 2900     		movs	r1, r5
 2815 107c FFF7FEFF 		bl	__aeabi_lmul
 2816              	.LVL495:
 2817 1080 029A     		ldr	r2, [sp, #8]
 2818 1082 039B     		ldr	r3, [sp, #12]
 2819 1084 1218     		adds	r2, r2, r0
 2820 1086 4B41     		adcs	r3, r3, r1
 2821 1088 0292     		str	r2, [sp, #8]
 2822 108a 0393     		str	r3, [sp, #12]
 2823              	.LVL496:
 277:sc.c          ****     s3 -= s12 * 997805;
 2824              		.loc 1 277 0
 2825 108c 3D4A     		ldr	r2, .L10+12
 2826              	.LVL497:
 2827 108e 0123     		movs	r3, #1
 2828 1090 5B42     		rsbs	r3, r3, #0
 2829 1092 2000     		movs	r0, r4
 2830 1094 2900     		movs	r1, r5
 2831 1096 FFF7FEFF 		bl	__aeabi_lmul
 2832              	.LVL498:
 2833 109a 0A9A     		ldr	r2, [sp, #40]
 2834 109c 0B9B     		ldr	r3, [sp, #44]
 2835 109e 1218     		adds	r2, r2, r0
 2836 10a0 4B41     		adcs	r3, r3, r1
 2837 10a2 0A92     		str	r2, [sp, #40]
 2838 10a4 0B93     		str	r3, [sp, #44]
 2839              	.LVL499:
 278:sc.c          ****     s4 += s12 * 136657;
 2840              		.loc 1 278 0
 2841 10a6 384A     		ldr	r2, .L10+16
 2842              	.LVL500:
 2843 10a8 0023     		movs	r3, #0
 2844 10aa 2000     		movs	r0, r4
 2845 10ac 2900     		movs	r1, r5
 2846 10ae FFF7FEFF 		bl	__aeabi_lmul
 2847              	.LVL501:
 2848 10b2 049A     		ldr	r2, [sp, #16]
 2849 10b4 059B     		ldr	r3, [sp, #20]
 2850 10b6 1218     		adds	r2, r2, r0
 2851 10b8 4B41     		adcs	r3, r3, r1
 2852 10ba 0492     		str	r2, [sp, #16]
 2853 10bc 0593     		str	r3, [sp, #20]
 2854              	.LVL502:
 279:sc.c          ****     s5 -= s12 * 683901;
 2855              		.loc 1 279 0
 2856 10be 334A     		ldr	r2, .L10+20
ARM GAS  C:\Users\NIGHDR~1\AppData\Local\Temp\ccvJ0Ig2.s 			page 56


 2857              	.LVL503:
 2858 10c0 0123     		movs	r3, #1
 2859 10c2 5B42     		rsbs	r3, r3, #0
 2860 10c4 2000     		movs	r0, r4
 2861 10c6 2900     		movs	r1, r5
 2862 10c8 FFF7FEFF 		bl	__aeabi_lmul
 2863              	.LVL504:
 2864 10cc 0C9B     		ldr	r3, [sp, #48]
 2865 10ce 0D9C     		ldr	r4, [sp, #52]
 2866 10d0 1B18     		adds	r3, r3, r0
 2867 10d2 4C41     		adcs	r4, r4, r1
 2868 10d4 0C93     		str	r3, [sp, #48]
 2869 10d6 0D94     		str	r4, [sp, #52]
 2870              	.LVL505:
 280:sc.c          ****     s12 = 0;
 281:sc.c          ****     carry0 = s0 >> 21;
 2871              		.loc 1 281 0
 2872 10d8 F902     		lsls	r1, r7, #11
 2873 10da 720D     		lsrs	r2, r6, #21
 2874 10dc 0A43     		orrs	r2, r1
 2875 10de 7B15     		asrs	r3, r7, #21
 2876              	.LVL506:
 282:sc.c          ****     s1 += carry0;
 2877              		.loc 1 282 0
 2878 10e0 009C     		ldr	r4, [sp]
 2879 10e2 019D     		ldr	r5, [sp, #4]
 2880              	.LVL507:
 2881 10e4 A418     		adds	r4, r4, r2
 2882 10e6 5D41     		adcs	r5, r5, r3
 2883 10e8 0094     		str	r4, [sp]
 2884 10ea 0195     		str	r5, [sp, #4]
 2885              	.LVL508:
 283:sc.c          ****     s0 -= carry0 << 21;
 2886              		.loc 1 283 0
 2887 10ec D50A     		lsrs	r5, r2, #11
 2888 10ee AC46     		mov	ip, r5
 2889 10f0 5D05     		lsls	r5, r3, #21
 2890 10f2 6146     		mov	r1, ip
 2891 10f4 0D43     		orrs	r5, r1
 2892 10f6 5405     		lsls	r4, r2, #21
 2893              	.LVL509:
 2894 10f8 361B     		subs	r6, r6, r4
 2895 10fa AF41     		sbcs	r7, r7, r5
 2896              	.LVL510:
 2897 10fc 0E96     		str	r6, [sp, #56]
 2898 10fe 0F97     		str	r7, [sp, #60]
 2899              	.LVL511:
 284:sc.c          ****     carry1 = s1 >> 21;
 2900              		.loc 1 284 0
 2901 1100 0098     		ldr	r0, [sp]
 2902 1102 0199     		ldr	r1, [sp, #4]
 2903 1104 CC02     		lsls	r4, r1, #11
 2904 1106 420D     		lsrs	r2, r0, #21
 2905              	.LVL512:
 2906 1108 2243     		orrs	r2, r4
 2907 110a 4B15     		asrs	r3, r1, #21
 2908              	.LVL513:
ARM GAS  C:\Users\NIGHDR~1\AppData\Local\Temp\ccvJ0Ig2.s 			page 57


 285:sc.c          ****     s2 += carry1;
 2909              		.loc 1 285 0
 2910 110c 029C     		ldr	r4, [sp, #8]
 2911 110e 039D     		ldr	r5, [sp, #12]
 2912 1110 A418     		adds	r4, r4, r2
 2913 1112 5D41     		adcs	r5, r5, r3
 2914 1114 2600     		movs	r6, r4
 2915              	.LVL514:
 2916 1116 2F00     		movs	r7, r5
 2917              	.LVL515:
 286:sc.c          ****     s1 -= carry1 << 21;
 2918              		.loc 1 286 0
 2919 1118 D10A     		lsrs	r1, r2, #11
 2920 111a 5D05     		lsls	r5, r3, #21
 2921 111c 0D43     		orrs	r5, r1
 2922 111e 5405     		lsls	r4, r2, #21
 2923 1120 009A     		ldr	r2, [sp]
 2924 1122 019B     		ldr	r3, [sp, #4]
 2925              	.LVL516:
 2926 1124 121B     		subs	r2, r2, r4
 2927 1126 AB41     		sbcs	r3, r3, r5
 2928 1128 0292     		str	r2, [sp, #8]
 2929 112a 0393     		str	r3, [sp, #12]
 2930              	.LVL517:
 287:sc.c          ****     carry2 = s2 >> 21;
 2931              		.loc 1 287 0
 2932 112c F902     		lsls	r1, r7, #11
 2933 112e 3400     		movs	r4, r6
 2934 1130 3D00     		movs	r5, r7
 2935 1132 720D     		lsrs	r2, r6, #21
 2936              	.LVL518:
 2937 1134 0A43     		orrs	r2, r1
 2938 1136 0094     		str	r4, [sp]
 2939 1138 0195     		str	r5, [sp, #4]
 2940 113a 7B15     		asrs	r3, r7, #21
 2941              	.LVL519:
 288:sc.c          ****     s3 += carry2;
 2942              		.loc 1 288 0
 2943 113c 0A9C     		ldr	r4, [sp, #40]
 2944 113e 0B9D     		ldr	r5, [sp, #44]
 2945 1140 A418     		adds	r4, r4, r2
 2946 1142 5D41     		adcs	r5, r5, r3
 2947              	.LVL520:
 289:sc.c          ****     s2 -= carry2 << 21;
 2948              		.loc 1 289 0
 2949 1144 D10A     		lsrs	r1, r2, #11
 2950 1146 8C46     		mov	ip, r1
 2951 1148 5905     		lsls	r1, r3, #21
 2952 114a 6746     		mov	r7, ip
 2953 114c 3943     		orrs	r1, r7
 2954 114e 5005     		lsls	r0, r2, #21
 2955 1150 009E     		ldr	r6, [sp]
 2956 1152 019F     		ldr	r7, [sp, #4]
 2957              	.LVL521:
 2958 1154 361A     		subs	r6, r6, r0
 2959 1156 8F41     		sbcs	r7, r7, r1
 2960 1158 0A96     		str	r6, [sp, #40]
ARM GAS  C:\Users\NIGHDR~1\AppData\Local\Temp\ccvJ0Ig2.s 			page 58


 2961 115a 0B97     		str	r7, [sp, #44]
 2962              	.LVL522:
 290:sc.c          ****     carry3 = s3 >> 21;
 2963              		.loc 1 290 0
 2964 115c E902     		lsls	r1, r5, #11
 2965 115e 620D     		lsrs	r2, r4, #21
 2966              	.LVL523:
 2967 1160 0A43     		orrs	r2, r1
 2968 1162 6B15     		asrs	r3, r5, #21
 2969              	.LVL524:
 291:sc.c          ****     s4 += carry3;
 2970              		.loc 1 291 0
 2971 1164 049E     		ldr	r6, [sp, #16]
 2972 1166 059F     		ldr	r7, [sp, #20]
 2973              	.LVL525:
 2974 1168 B618     		adds	r6, r6, r2
 2975 116a 5F41     		adcs	r7, r7, r3
 2976 116c 0096     		str	r6, [sp]
 2977 116e 0197     		str	r7, [sp, #4]
 2978              	.LVL526:
 292:sc.c          ****     s3 -= carry3 << 21;
 2979              		.loc 1 292 0
 2980 1170 D10A     		lsrs	r1, r2, #11
 2981 1172 8C46     		mov	ip, r1
 2982 1174 5905     		lsls	r1, r3, #21
 2983 1176 0BE0     		b	.L11
 2984              	.L12:
 2985              		.align	2
 2986              	.L10:
 2987 1178 132C0A00 		.word	666643
 2988 117c 182D0700 		.word	470296
 2989 1180 67FB0900 		.word	654183
 2990 1184 53C6F0FF 		.word	-997805
 2991 1188 D1150200 		.word	136657
 2992 118c 8390F5FF 		.word	-683901
 2993              	.L11:
 2994 1190 6746     		mov	r7, ip
 2995 1192 3943     		orrs	r1, r7
 2996 1194 5005     		lsls	r0, r2, #21
 2997 1196 2300     		movs	r3, r4
 2998 1198 2C00     		movs	r4, r5
 2999              	.LVL527:
 3000 119a 1B1A     		subs	r3, r3, r0
 3001 119c 8C41     		sbcs	r4, r4, r1
 3002 119e 0493     		str	r3, [sp, #16]
 3003 11a0 0594     		str	r4, [sp, #20]
 3004              	.LVL528:
 293:sc.c          ****     carry4 = s4 >> 21;
 3005              		.loc 1 293 0
 3006 11a2 009C     		ldr	r4, [sp]
 3007 11a4 019D     		ldr	r5, [sp, #4]
 3008 11a6 E902     		lsls	r1, r5, #11
 3009 11a8 620D     		lsrs	r2, r4, #21
 3010              	.LVL529:
 3011 11aa 0A43     		orrs	r2, r1
 3012 11ac 6B15     		asrs	r3, r5, #21
 3013              	.LVL530:
ARM GAS  C:\Users\NIGHDR~1\AppData\Local\Temp\ccvJ0Ig2.s 			page 59


 294:sc.c          ****     s5 += carry4;
 3014              		.loc 1 294 0
 3015 11ae 0C9C     		ldr	r4, [sp, #48]
 3016 11b0 0D9D     		ldr	r5, [sp, #52]
 3017 11b2 A418     		adds	r4, r4, r2
 3018 11b4 5D41     		adcs	r5, r5, r3
 3019              	.LVL531:
 295:sc.c          ****     s4 -= carry4 << 21;
 3020              		.loc 1 295 0
 3021 11b6 D10A     		lsrs	r1, r2, #11
 3022 11b8 8C46     		mov	ip, r1
 3023 11ba 5905     		lsls	r1, r3, #21
 3024 11bc 6746     		mov	r7, ip
 3025 11be 3943     		orrs	r1, r7
 3026 11c0 5005     		lsls	r0, r2, #21
 3027 11c2 009E     		ldr	r6, [sp]
 3028 11c4 019F     		ldr	r7, [sp, #4]
 3029 11c6 361A     		subs	r6, r6, r0
 3030 11c8 8F41     		sbcs	r7, r7, r1
 3031              	.LVL532:
 3032 11ca 0C96     		str	r6, [sp, #48]
 3033 11cc 0D97     		str	r7, [sp, #52]
 3034              	.LVL533:
 296:sc.c          ****     carry5 = s5 >> 21;
 3035              		.loc 1 296 0
 3036 11ce E902     		lsls	r1, r5, #11
 3037 11d0 620D     		lsrs	r2, r4, #21
 3038              	.LVL534:
 3039 11d2 0A43     		orrs	r2, r1
 3040 11d4 6B15     		asrs	r3, r5, #21
 3041              	.LVL535:
 297:sc.c          ****     s6 += carry5;
 3042              		.loc 1 297 0
 3043 11d6 0698     		ldr	r0, [sp, #24]
 3044 11d8 0799     		ldr	r1, [sp, #28]
 3045 11da 8018     		adds	r0, r0, r2
 3046 11dc 5941     		adcs	r1, r1, r3
 3047 11de 0090     		str	r0, [sp]
 3048 11e0 0191     		str	r1, [sp, #4]
 3049              	.LVL536:
 298:sc.c          ****     s5 -= carry5 << 21;
 3050              		.loc 1 298 0
 3051 11e2 D10A     		lsrs	r1, r2, #11
 3052 11e4 8C46     		mov	ip, r1
 3053 11e6 5905     		lsls	r1, r3, #21
 3054 11e8 6746     		mov	r7, ip
 3055 11ea 3943     		orrs	r1, r7
 3056 11ec 5005     		lsls	r0, r2, #21
 3057              	.LVL537:
 3058 11ee 241A     		subs	r4, r4, r0
 3059 11f0 8D41     		sbcs	r5, r5, r1
 3060              	.LVL538:
 3061 11f2 0694     		str	r4, [sp, #24]
 3062 11f4 0795     		str	r5, [sp, #28]
 3063              	.LVL539:
 299:sc.c          ****     carry6 = s6 >> 21;
 3064              		.loc 1 299 0
ARM GAS  C:\Users\NIGHDR~1\AppData\Local\Temp\ccvJ0Ig2.s 			page 60


 3065 11f6 009C     		ldr	r4, [sp]
 3066 11f8 019D     		ldr	r5, [sp, #4]
 3067              	.LVL540:
 3068 11fa E902     		lsls	r1, r5, #11
 3069 11fc 620D     		lsrs	r2, r4, #21
 3070              	.LVL541:
 3071 11fe 0A43     		orrs	r2, r1
 3072 1200 6B15     		asrs	r3, r5, #21
 3073              	.LVL542:
 300:sc.c          ****     s7 += carry6;
 3074              		.loc 1 300 0
 3075 1202 129C     		ldr	r4, [sp, #72]
 3076 1204 139D     		ldr	r5, [sp, #76]
 3077 1206 A418     		adds	r4, r4, r2
 3078 1208 5D41     		adcs	r5, r5, r3
 3079              	.LVL543:
 301:sc.c          ****     s6 -= carry6 << 21;
 3080              		.loc 1 301 0
 3081 120a D10A     		lsrs	r1, r2, #11
 3082 120c 8C46     		mov	ip, r1
 3083 120e 5905     		lsls	r1, r3, #21
 3084 1210 6746     		mov	r7, ip
 3085 1212 3943     		orrs	r1, r7
 3086 1214 5005     		lsls	r0, r2, #21
 3087 1216 009A     		ldr	r2, [sp]
 3088 1218 019B     		ldr	r3, [sp, #4]
 3089              	.LVL544:
 3090 121a 121A     		subs	r2, r2, r0
 3091 121c 8B41     		sbcs	r3, r3, r1
 3092 121e 1092     		str	r2, [sp, #64]
 3093 1220 1193     		str	r3, [sp, #68]
 3094              	.LVL545:
 302:sc.c          ****     carry7 = s7 >> 21;
 3095              		.loc 1 302 0
 3096 1222 E902     		lsls	r1, r5, #11
 3097 1224 620D     		lsrs	r2, r4, #21
 3098              	.LVL546:
 3099 1226 0A43     		orrs	r2, r1
 3100 1228 6B15     		asrs	r3, r5, #21
 3101              	.LVL547:
 303:sc.c          ****     s8 += carry7;
 3102              		.loc 1 303 0
 3103 122a 089E     		ldr	r6, [sp, #32]
 3104 122c 099F     		ldr	r7, [sp, #36]
 3105              	.LVL548:
 3106 122e B618     		adds	r6, r6, r2
 3107 1230 5F41     		adcs	r7, r7, r3
 3108 1232 0096     		str	r6, [sp]
 3109 1234 0197     		str	r7, [sp, #4]
 3110              	.LVL549:
 304:sc.c          ****     s7 -= carry7 << 21;
 3111              		.loc 1 304 0
 3112 1236 D10A     		lsrs	r1, r2, #11
 3113 1238 8C46     		mov	ip, r1
 3114 123a 5905     		lsls	r1, r3, #21
 3115 123c 6746     		mov	r7, ip
 3116 123e 3943     		orrs	r1, r7
ARM GAS  C:\Users\NIGHDR~1\AppData\Local\Temp\ccvJ0Ig2.s 			page 61


 3117 1240 5005     		lsls	r0, r2, #21
 3118 1242 2300     		movs	r3, r4
 3119 1244 2C00     		movs	r4, r5
 3120              	.LVL550:
 3121 1246 1B1A     		subs	r3, r3, r0
 3122 1248 8C41     		sbcs	r4, r4, r1
 3123 124a 0893     		str	r3, [sp, #32]
 3124 124c 0994     		str	r4, [sp, #36]
 3125              	.LVL551:
 305:sc.c          ****     carry8 = s8 >> 21;
 3126              		.loc 1 305 0
 3127 124e 009C     		ldr	r4, [sp]
 3128 1250 019D     		ldr	r5, [sp, #4]
 3129 1252 E902     		lsls	r1, r5, #11
 3130 1254 620D     		lsrs	r2, r4, #21
 3131              	.LVL552:
 3132 1256 0A43     		orrs	r2, r1
 3133 1258 6B15     		asrs	r3, r5, #21
 3134              	.LVL553:
 306:sc.c          ****     s9 += carry8;
 3135              		.loc 1 306 0
 3136 125a 169C     		ldr	r4, [sp, #88]
 3137 125c 179D     		ldr	r5, [sp, #92]
 3138 125e A418     		adds	r4, r4, r2
 3139 1260 5D41     		adcs	r5, r5, r3
 3140              	.LVL554:
 307:sc.c          ****     s8 -= carry8 << 21;
 3141              		.loc 1 307 0
 3142 1262 D10A     		lsrs	r1, r2, #11
 3143 1264 8C46     		mov	ip, r1
 3144 1266 5905     		lsls	r1, r3, #21
 3145 1268 6746     		mov	r7, ip
 3146 126a 3943     		orrs	r1, r7
 3147 126c 5005     		lsls	r0, r2, #21
 3148 126e 009A     		ldr	r2, [sp]
 3149 1270 019B     		ldr	r3, [sp, #4]
 3150              	.LVL555:
 3151 1272 121A     		subs	r2, r2, r0
 3152 1274 8B41     		sbcs	r3, r3, r1
 3153 1276 0092     		str	r2, [sp]
 3154 1278 0193     		str	r3, [sp, #4]
 3155              	.LVL556:
 308:sc.c          ****     carry9 = s9 >> 21;
 3156              		.loc 1 308 0
 3157 127a E902     		lsls	r1, r5, #11
 3158 127c 620D     		lsrs	r2, r4, #21
 3159              	.LVL557:
 3160 127e 0A43     		orrs	r2, r1
 3161 1280 6B15     		asrs	r3, r5, #21
 3162              	.LVL558:
 309:sc.c          ****     s10 += carry9;
 3163              		.loc 1 309 0
 3164 1282 149E     		ldr	r6, [sp, #80]
 3165 1284 159F     		ldr	r7, [sp, #84]
 3166 1286 B618     		adds	r6, r6, r2
 3167 1288 5F41     		adcs	r7, r7, r3
 3168 128a 1296     		str	r6, [sp, #72]
ARM GAS  C:\Users\NIGHDR~1\AppData\Local\Temp\ccvJ0Ig2.s 			page 62


 3169 128c 1397     		str	r7, [sp, #76]
 3170              	.LVL559:
 310:sc.c          ****     s9 -= carry9 << 21;
 3171              		.loc 1 310 0
 3172 128e D10A     		lsrs	r1, r2, #11
 3173 1290 8C46     		mov	ip, r1
 3174 1292 5905     		lsls	r1, r3, #21
 3175 1294 6746     		mov	r7, ip
 3176 1296 3943     		orrs	r1, r7
 3177 1298 5005     		lsls	r0, r2, #21
 3178 129a 2300     		movs	r3, r4
 3179 129c 2C00     		movs	r4, r5
 3180              	.LVL560:
 3181 129e 1B1A     		subs	r3, r3, r0
 3182 12a0 8C41     		sbcs	r4, r4, r1
 3183 12a2 1493     		str	r3, [sp, #80]
 3184 12a4 1594     		str	r4, [sp, #84]
 3185              	.LVL561:
 311:sc.c          ****     carry10 = s10 >> 21;
 3186              		.loc 1 311 0
 3187 12a6 129D     		ldr	r5, [sp, #72]
 3188 12a8 139E     		ldr	r6, [sp, #76]
 3189 12aa F102     		lsls	r1, r6, #11
 3190 12ac 6A0D     		lsrs	r2, r5, #21
 3191              	.LVL562:
 3192 12ae 0A43     		orrs	r2, r1
 3193 12b0 7315     		asrs	r3, r6, #21
 3194              	.LVL563:
 312:sc.c          ****     s11 += carry10;
 3195              		.loc 1 312 0
 3196 12b2 1898     		ldr	r0, [sp, #96]
 3197 12b4 1999     		ldr	r1, [sp, #100]
 3198 12b6 8018     		adds	r0, r0, r2
 3199 12b8 5941     		adcs	r1, r1, r3
 3200 12ba 1290     		str	r0, [sp, #72]
 3201 12bc 1391     		str	r1, [sp, #76]
 3202              	.LVL564:
 313:sc.c          ****     s10 -= carry10 << 21;
 3203              		.loc 1 313 0
 3204 12be D40A     		lsrs	r4, r2, #11
 3205 12c0 5905     		lsls	r1, r3, #21
 3206 12c2 2143     		orrs	r1, r4
 3207 12c4 5005     		lsls	r0, r2, #21
 3208              	.LVL565:
 3209 12c6 2A00     		movs	r2, r5
 3210              	.LVL566:
 3211 12c8 3300     		movs	r3, r6
 3212 12ca 121A     		subs	r2, r2, r0
 3213 12cc 8B41     		sbcs	r3, r3, r1
 3214              	.LVL567:
 314:sc.c          **** 
 315:sc.c          ****     s[0] = (unsigned char) (s0 >> 0);
 3215              		.loc 1 315 0
 3216 12ce 4146     		mov	r1, r8
 3217 12d0 0E9D     		ldr	r5, [sp, #56]
 3218 12d2 0F9E     		ldr	r6, [sp, #60]
 3219 12d4 0D70     		strb	r5, [r1]
ARM GAS  C:\Users\NIGHDR~1\AppData\Local\Temp\ccvJ0Ig2.s 			page 63


 316:sc.c          ****     s[1] = (unsigned char) (s0 >> 8);
 3220              		.loc 1 316 0
 3221 12d6 290A     		lsrs	r1, r5, #8
 3222 12d8 4746     		mov	r7, r8
 3223 12da 7970     		strb	r1, [r7, #1]
 317:sc.c          ****     s[2] = (unsigned char) ((s0 >> 16) | (s1 << 5));
 3224              		.loc 1 317 0
 3225 12dc 3104     		lsls	r1, r6, #16
 3226 12de 2E0C     		lsrs	r6, r5, #16
 3227 12e0 0E43     		orrs	r6, r1
 3228 12e2 029C     		ldr	r4, [sp, #8]
 3229 12e4 039D     		ldr	r5, [sp, #12]
 3230 12e6 6001     		lsls	r0, r4, #5
 3231 12e8 0643     		orrs	r6, r0
 3232 12ea 4146     		mov	r1, r8
 3233 12ec 8E70     		strb	r6, [r1, #2]
 318:sc.c          ****     s[3] = (unsigned char) (s1 >> 3);
 3234              		.loc 1 318 0
 3235 12ee E108     		lsrs	r1, r4, #3
 3236 12f0 4746     		mov	r7, r8
 3237 12f2 F970     		strb	r1, [r7, #3]
 319:sc.c          ****     s[4] = (unsigned char) (s1 >> 11);
 3238              		.loc 1 319 0
 3239 12f4 2E00     		movs	r6, r5
 3240 12f6 E10A     		lsrs	r1, r4, #11
 3241 12f8 3971     		strb	r1, [r7, #4]
 320:sc.c          ****     s[5] = (unsigned char) ((s1 >> 19) | (s2 << 2));
 3242              		.loc 1 320 0
 3243 12fa 7103     		lsls	r1, r6, #13
 3244 12fc E00C     		lsrs	r0, r4, #19
 3245 12fe 0843     		orrs	r0, r1
 3246 1300 0A9D     		ldr	r5, [sp, #40]
 3247 1302 0B9E     		ldr	r6, [sp, #44]
 3248 1304 A900     		lsls	r1, r5, #2
 3249 1306 0843     		orrs	r0, r1
 3250 1308 4146     		mov	r1, r8
 3251 130a 4871     		strb	r0, [r1, #5]
 321:sc.c          ****     s[6] = (unsigned char) (s2 >> 6);
 3252              		.loc 1 321 0
 3253 130c A909     		lsrs	r1, r5, #6
 3254 130e 4746     		mov	r7, r8
 3255 1310 B971     		strb	r1, [r7, #6]
 322:sc.c          ****     s[7] = (unsigned char) ((s2 >> 14) | (s3 << 7));
 3256              		.loc 1 322 0
 3257 1312 B104     		lsls	r1, r6, #18
 3258 1314 AE0B     		lsrs	r6, r5, #14
 3259 1316 0E43     		orrs	r6, r1
 3260 1318 049C     		ldr	r4, [sp, #16]
 3261 131a 059D     		ldr	r5, [sp, #20]
 3262 131c E001     		lsls	r0, r4, #7
 3263 131e 0643     		orrs	r6, r0
 3264 1320 4146     		mov	r1, r8
 3265 1322 CE71     		strb	r6, [r1, #7]
 323:sc.c          ****     s[8] = (unsigned char) (s3 >> 1);
 3266              		.loc 1 323 0
 3267 1324 6108     		lsrs	r1, r4, #1
 3268 1326 4746     		mov	r7, r8
ARM GAS  C:\Users\NIGHDR~1\AppData\Local\Temp\ccvJ0Ig2.s 			page 64


 3269 1328 3972     		strb	r1, [r7, #8]
 324:sc.c          ****     s[9] = (unsigned char) (s3 >> 9);
 3270              		.loc 1 324 0
 3271 132a 2E00     		movs	r6, r5
 3272 132c 610A     		lsrs	r1, r4, #9
 3273 132e 7972     		strb	r1, [r7, #9]
 325:sc.c          ****     s[10] = (unsigned char) ((s3 >> 17) | (s4 << 4));
 3274              		.loc 1 325 0
 3275 1330 F103     		lsls	r1, r6, #15
 3276 1332 640C     		lsrs	r4, r4, #17
 3277 1334 0C43     		orrs	r4, r1
 3278 1336 0C9E     		ldr	r6, [sp, #48]
 3279 1338 0D9F     		ldr	r7, [sp, #52]
 3280 133a 3001     		lsls	r0, r6, #4
 3281 133c 0443     		orrs	r4, r0
 3282 133e 4146     		mov	r1, r8
 3283 1340 8C72     		strb	r4, [r1, #10]
 326:sc.c          ****     s[11] = (unsigned char) (s4 >> 4);
 3284              		.loc 1 326 0
 3285 1342 3109     		lsrs	r1, r6, #4
 3286 1344 4546     		mov	r5, r8
 3287 1346 E972     		strb	r1, [r5, #11]
 327:sc.c          ****     s[12] = (unsigned char) (s4 >> 12);
 3288              		.loc 1 327 0
 3289 1348 310B     		lsrs	r1, r6, #12
 3290 134a 2973     		strb	r1, [r5, #12]
 328:sc.c          ****     s[13] = (unsigned char) ((s4 >> 20) | (s5 << 1));
 3291              		.loc 1 328 0
 3292 134c 3903     		lsls	r1, r7, #12
 3293 134e 360D     		lsrs	r6, r6, #20
 3294 1350 0E43     		orrs	r6, r1
 3295 1352 0698     		ldr	r0, [sp, #24]
 3296 1354 0799     		ldr	r1, [sp, #28]
 3297 1356 0400     		movs	r4, r0
 3298 1358 0D00     		movs	r5, r1
 3299 135a 2418     		adds	r4, r4, r0
 3300 135c 4D41     		adcs	r5, r5, r1
 3301 135e 3443     		orrs	r4, r6
 3302 1360 4646     		mov	r6, r8
 3303 1362 7473     		strb	r4, [r6, #13]
 329:sc.c          ****     s[14] = (unsigned char) (s5 >> 7);
 3304              		.loc 1 329 0
 3305 1364 0400     		movs	r4, r0
 3306 1366 0D00     		movs	r5, r1
 3307 1368 C109     		lsrs	r1, r0, #7
 3308 136a B173     		strb	r1, [r6, #14]
 330:sc.c          ****     s[15] = (unsigned char) ((s5 >> 15) | (s6 << 6));
 3309              		.loc 1 330 0
 3310 136c 6904     		lsls	r1, r5, #17
 3311 136e E40B     		lsrs	r4, r4, #15
 3312 1370 0C43     		orrs	r4, r1
 3313 1372 109D     		ldr	r5, [sp, #64]
 3314 1374 119E     		ldr	r6, [sp, #68]
 3315 1376 A801     		lsls	r0, r5, #6
 3316 1378 0443     		orrs	r4, r0
 3317 137a 4146     		mov	r1, r8
 3318 137c CC73     		strb	r4, [r1, #15]
ARM GAS  C:\Users\NIGHDR~1\AppData\Local\Temp\ccvJ0Ig2.s 			page 65


 331:sc.c          ****     s[16] = (unsigned char) (s6 >> 2);
 3319              		.loc 1 331 0
 3320 137e 2C00     		movs	r4, r5
 3321 1380 3500     		movs	r5, r6
 3322 1382 A108     		lsrs	r1, r4, #2
 3323 1384 4646     		mov	r6, r8
 3324 1386 3174     		strb	r1, [r6, #16]
 332:sc.c          ****     s[17] = (unsigned char) (s6 >> 10);
 3325              		.loc 1 332 0
 3326 1388 A10A     		lsrs	r1, r4, #10
 3327 138a 7174     		strb	r1, [r6, #17]
 333:sc.c          ****     s[18] = (unsigned char) ((s6 >> 18) | (s7 << 3));
 3328              		.loc 1 333 0
 3329 138c A903     		lsls	r1, r5, #14
 3330 138e A60C     		lsrs	r6, r4, #18
 3331 1390 0E43     		orrs	r6, r1
 3332 1392 089C     		ldr	r4, [sp, #32]
 3333 1394 099D     		ldr	r5, [sp, #36]
 3334 1396 E100     		lsls	r1, r4, #3
 3335 1398 0E43     		orrs	r6, r1
 3336 139a 4146     		mov	r1, r8
 3337 139c 8E74     		strb	r6, [r1, #18]
 334:sc.c          ****     s[19] = (unsigned char) (s7 >> 5);
 3338              		.loc 1 334 0
 3339 139e 2600     		movs	r6, r4
 3340 13a0 6109     		lsrs	r1, r4, #5
 3341 13a2 4546     		mov	r5, r8
 3342 13a4 E974     		strb	r1, [r5, #19]
 335:sc.c          ****     s[20] = (unsigned char) (s7 >> 13);
 3343              		.loc 1 335 0
 3344 13a6 740B     		lsrs	r4, r6, #13
 3345 13a8 4146     		mov	r1, r8
 3346 13aa 2C75     		strb	r4, [r5, #20]
 336:sc.c          ****     s[21] = (unsigned char) (s8 >> 0);
 3347              		.loc 1 336 0
 3348 13ac 009D     		ldr	r5, [sp]
 3349 13ae 019E     		ldr	r6, [sp, #4]
 3350 13b0 4D75     		strb	r5, [r1, #21]
 337:sc.c          ****     s[22] = (unsigned char) (s8 >> 8);
 3351              		.loc 1 337 0
 3352 13b2 290A     		lsrs	r1, r5, #8
 3353 13b4 4746     		mov	r7, r8
 3354 13b6 B975     		strb	r1, [r7, #22]
 338:sc.c          ****     s[23] = (unsigned char) ((s8 >> 16) | (s9 << 5));
 3355              		.loc 1 338 0
 3356 13b8 3104     		lsls	r1, r6, #16
 3357 13ba 2E0C     		lsrs	r6, r5, #16
 3358 13bc 0E43     		orrs	r6, r1
 3359 13be 149C     		ldr	r4, [sp, #80]
 3360 13c0 159D     		ldr	r5, [sp, #84]
 3361 13c2 6101     		lsls	r1, r4, #5
 3362 13c4 0E43     		orrs	r6, r1
 3363 13c6 FE75     		strb	r6, [r7, #23]
 339:sc.c          ****     s[24] = (unsigned char) (s9 >> 3);
 3364              		.loc 1 339 0
 3365 13c8 E108     		lsrs	r1, r4, #3
 3366 13ca 3976     		strb	r1, [r7, #24]
ARM GAS  C:\Users\NIGHDR~1\AppData\Local\Temp\ccvJ0Ig2.s 			page 66


 340:sc.c          ****     s[25] = (unsigned char) (s9 >> 11);
 3367              		.loc 1 340 0
 3368 13cc E10A     		lsrs	r1, r4, #11
 3369 13ce 7976     		strb	r1, [r7, #25]
 341:sc.c          ****     s[26] = (unsigned char) ((s9 >> 19) | (s10 << 2));
 3370              		.loc 1 341 0
 3371 13d0 6903     		lsls	r1, r5, #13
 3372 13d2 E40C     		lsrs	r4, r4, #19
 3373 13d4 0C43     		orrs	r4, r1
 3374 13d6 9100     		lsls	r1, r2, #2
 3375 13d8 0C43     		orrs	r4, r1
 3376 13da BC76     		strb	r4, [r7, #26]
 342:sc.c          ****     s[27] = (unsigned char) (s10 >> 6);
 3377              		.loc 1 342 0
 3378 13dc 9109     		lsrs	r1, r2, #6
 3379 13de F976     		strb	r1, [r7, #27]
 343:sc.c          ****     s[28] = (unsigned char) ((s10 >> 14) | (s11 << 7));
 3380              		.loc 1 343 0
 3381 13e0 9B04     		lsls	r3, r3, #18
 3382 13e2 960B     		lsrs	r6, r2, #14
 3383 13e4 1E43     		orrs	r6, r3
 3384 13e6 1298     		ldr	r0, [sp, #72]
 3385 13e8 1399     		ldr	r1, [sp, #76]
 3386 13ea C201     		lsls	r2, r0, #7
 3387              	.LVL568:
 3388 13ec 1643     		orrs	r6, r2
 3389 13ee 3E77     		strb	r6, [r7, #28]
 344:sc.c          ****     s[29] = (unsigned char) (s11 >> 1);
 3390              		.loc 1 344 0
 3391 13f0 4308     		lsrs	r3, r0, #1
 3392 13f2 7B77     		strb	r3, [r7, #29]
 345:sc.c          ****     s[30] = (unsigned char) (s11 >> 9);
 3393              		.loc 1 345 0
 3394 13f4 430A     		lsrs	r3, r0, #9
 3395 13f6 BB77     		strb	r3, [r7, #30]
 346:sc.c          ****     s[31] = (unsigned char) (s11 >> 17);
 3396              		.loc 1 346 0
 3397 13f8 400C     		lsrs	r0, r0, #17
 3398 13fa F877     		strb	r0, [r7, #31]
 347:sc.c          **** }
 3399              		.loc 1 347 0
 3400 13fc 2EB0     		add	sp, sp, #184
 3401              	.LVL569:
 3402              		@ sp needed
 3403              	.LVL570:
 3404              	.LVL571:
 3405 13fe 04BC     		pop	{r2}
 3406 1400 9046     		mov	r8, r2
 3407 1402 F0BD     		pop	{r4, r5, r6, r7, pc}
 3408              		.cfi_endproc
 3409              	.LFE2:
 3410              		.size	sc_reduce, .-sc_reduce
 3411              		.section	.text.sc_muladd,"ax",%progbits
 3412              		.align	2
 3413              		.global	sc_muladd
 3414              		.code	16
 3415              		.thumb_func
ARM GAS  C:\Users\NIGHDR~1\AppData\Local\Temp\ccvJ0Ig2.s 			page 67


 3416              		.type	sc_muladd, %function
 3417              	sc_muladd:
 3418              	.LFB3:
 348:sc.c          **** 
 349:sc.c          **** 
 350:sc.c          **** 
 351:sc.c          **** /*
 352:sc.c          **** Input:
 353:sc.c          ****   a[0]+256*a[1]+...+256^31*a[31] = a
 354:sc.c          ****   b[0]+256*b[1]+...+256^31*b[31] = b
 355:sc.c          ****   c[0]+256*c[1]+...+256^31*c[31] = c
 356:sc.c          **** 
 357:sc.c          **** Output:
 358:sc.c          ****   s[0]+256*s[1]+...+256^31*s[31] = (ab+c) mod l
 359:sc.c          ****   where l = 2^252 + 27742317777372353535851937790883648493.
 360:sc.c          **** */
 361:sc.c          **** 
 362:sc.c          **** void sc_muladd(unsigned char *s, const unsigned char *a, const unsigned char *b, const unsigned cha
 3419              		.loc 1 362 0
 3420              		.cfi_startproc
 3421              		@ args = 0, pretend = 0, frame = 312
 3422              		@ frame_needed = 0, uses_anonymous_args = 0
 3423              	.LVL572:
 3424 0000 F0B5     		push	{r4, r5, r6, r7, lr}
 3425              		.cfi_def_cfa_offset 20
 3426              		.cfi_offset 4, -20
 3427              		.cfi_offset 5, -16
 3428              		.cfi_offset 6, -12
 3429              		.cfi_offset 7, -8
 3430              		.cfi_offset 14, -4
 3431 0002 4F46     		mov	r7, r9
 3432 0004 4646     		mov	r6, r8
 3433 0006 C0B4     		push	{r6, r7}
 3434              		.cfi_def_cfa_offset 28
 3435              		.cfi_offset 8, -28
 3436              		.cfi_offset 9, -24
 3437 0008 CFB0     		sub	sp, sp, #316
 3438              		.cfi_def_cfa_offset 344
 3439 000a 8046     		mov	r8, r0
 3440 000c 0C00     		movs	r4, r1
 3441 000e 1600     		movs	r6, r2
 3442 0010 1F00     		movs	r7, r3
 363:sc.c          ****     int64_t a0 = 2097151 & load_3(a);
 3443              		.loc 1 363 0
 3444 0012 0800     		movs	r0, r1
 3445              	.LVL573:
 3446 0014 FFF7FEFF 		bl	load_3
 3447              	.LVL574:
 3448 0018 C502     		lsls	r5, r0, #11
 3449 001a ED0A     		lsrs	r5, r5, #11
 3450              	.LVL575:
 364:sc.c          ****     int64_t a1 = 2097151 & (load_4(a + 2) >> 5);
 3451              		.loc 1 364 0
 3452 001c A01C     		adds	r0, r4, #2
 3453 001e FFF7FEFF 		bl	load_4
 3454              	.LVL576:
 3455 0022 4009     		lsrs	r0, r0, #5
ARM GAS  C:\Users\NIGHDR~1\AppData\Local\Temp\ccvJ0Ig2.s 			page 68


 3456 0024 C002     		lsls	r0, r0, #11
 3457 0026 C30A     		lsrs	r3, r0, #11
 3458 0028 2A93     		str	r3, [sp, #168]
 3459              	.LVL577:
 365:sc.c          ****     int64_t a2 = 2097151 & (load_3(a + 5) >> 2);
 3460              		.loc 1 365 0
 3461 002a 601D     		adds	r0, r4, #5
 3462 002c FFF7FEFF 		bl	load_3
 3463              	.LVL578:
 3464 0030 8008     		lsrs	r0, r0, #2
 3465 0032 C002     		lsls	r0, r0, #11
 3466 0034 C20A     		lsrs	r2, r0, #11
 3467 0036 0092     		str	r2, [sp]
 3468              	.LVL579:
 366:sc.c          ****     int64_t a3 = 2097151 & (load_4(a + 7) >> 7);
 3469              		.loc 1 366 0
 3470 0038 E01D     		adds	r0, r4, #7
 3471 003a FFF7FEFF 		bl	load_4
 3472              	.LVL580:
 3473 003e C009     		lsrs	r0, r0, #7
 3474 0040 C002     		lsls	r0, r0, #11
 3475 0042 C10A     		lsrs	r1, r0, #11
 3476 0044 0291     		str	r1, [sp, #8]
 3477              	.LVL581:
 367:sc.c          ****     int64_t a4 = 2097151 & (load_4(a + 10) >> 4);
 3478              		.loc 1 367 0
 3479 0046 2000     		movs	r0, r4
 3480 0048 0A30     		adds	r0, r0, #10
 3481 004a FFF7FEFF 		bl	load_4
 3482              	.LVL582:
 3483 004e 0009     		lsrs	r0, r0, #4
 3484 0050 C002     		lsls	r0, r0, #11
 3485 0052 C00A     		lsrs	r0, r0, #11
 3486 0054 0490     		str	r0, [sp, #16]
 3487              	.LVL583:
 368:sc.c          ****     int64_t a5 = 2097151 & (load_3(a + 13) >> 1);
 3488              		.loc 1 368 0
 3489 0056 2000     		movs	r0, r4
 3490              	.LVL584:
 3491 0058 0D30     		adds	r0, r0, #13
 3492 005a FFF7FEFF 		bl	load_3
 3493              	.LVL585:
 3494 005e 4008     		lsrs	r0, r0, #1
 3495 0060 C002     		lsls	r0, r0, #11
 3496 0062 C30A     		lsrs	r3, r0, #11
 3497 0064 0693     		str	r3, [sp, #24]
 3498              	.LVL586:
 369:sc.c          ****     int64_t a6 = 2097151 & (load_4(a + 15) >> 6);
 3499              		.loc 1 369 0
 3500 0066 2000     		movs	r0, r4
 3501 0068 0F30     		adds	r0, r0, #15
 3502 006a FFF7FEFF 		bl	load_4
 3503              	.LVL587:
 3504 006e 8009     		lsrs	r0, r0, #6
 3505 0070 C002     		lsls	r0, r0, #11
 3506 0072 C20A     		lsrs	r2, r0, #11
 3507 0074 0892     		str	r2, [sp, #32]
ARM GAS  C:\Users\NIGHDR~1\AppData\Local\Temp\ccvJ0Ig2.s 			page 69


 3508              	.LVL588:
 370:sc.c          ****     int64_t a7 = 2097151 & (load_3(a + 18) >> 3);
 3509              		.loc 1 370 0
 3510 0076 2000     		movs	r0, r4
 3511 0078 1230     		adds	r0, r0, #18
 3512 007a FFF7FEFF 		bl	load_3
 3513              	.LVL589:
 3514 007e C008     		lsrs	r0, r0, #3
 3515 0080 C002     		lsls	r0, r0, #11
 3516 0082 C10A     		lsrs	r1, r0, #11
 3517 0084 0A91     		str	r1, [sp, #40]
 3518              	.LVL590:
 371:sc.c          ****     int64_t a8 = 2097151 & load_3(a + 21);
 3519              		.loc 1 371 0
 3520 0086 2000     		movs	r0, r4
 3521 0088 1530     		adds	r0, r0, #21
 3522 008a FFF7FEFF 		bl	load_3
 3523              	.LVL591:
 3524 008e C002     		lsls	r0, r0, #11
 3525 0090 C00A     		lsrs	r0, r0, #11
 3526 0092 0C90     		str	r0, [sp, #48]
 3527              	.LVL592:
 372:sc.c          ****     int64_t a9 = 2097151 & (load_4(a + 23) >> 5);
 3528              		.loc 1 372 0
 3529 0094 2000     		movs	r0, r4
 3530              	.LVL593:
 3531 0096 1730     		adds	r0, r0, #23
 3532 0098 FFF7FEFF 		bl	load_4
 3533              	.LVL594:
 3534 009c 4009     		lsrs	r0, r0, #5
 3535 009e C002     		lsls	r0, r0, #11
 3536 00a0 C30A     		lsrs	r3, r0, #11
 3537 00a2 0E93     		str	r3, [sp, #56]
 3538              	.LVL595:
 373:sc.c          ****     int64_t a10 = 2097151 & (load_3(a + 26) >> 2);
 3539              		.loc 1 373 0
 3540 00a4 2000     		movs	r0, r4
 3541 00a6 1A30     		adds	r0, r0, #26
 3542 00a8 FFF7FEFF 		bl	load_3
 3543              	.LVL596:
 3544 00ac 8008     		lsrs	r0, r0, #2
 3545 00ae C002     		lsls	r0, r0, #11
 3546 00b0 C20A     		lsrs	r2, r0, #11
 3547 00b2 1092     		str	r2, [sp, #64]
 3548              	.LVL597:
 374:sc.c          ****     int64_t a11 = (load_4(a + 28) >> 7);
 3549              		.loc 1 374 0
 3550 00b4 1C34     		adds	r4, r4, #28
 3551              	.LVL598:
 3552 00b6 2000     		movs	r0, r4
 3553 00b8 FFF7FEFF 		bl	load_4
 3554              	.LVL599:
 3555 00bc 4B06     		lsls	r3, r1, #25
 3556 00be C209     		lsrs	r2, r0, #7
 3557 00c0 1A43     		orrs	r2, r3
 3558 00c2 4792     		str	r2, [sp, #284]
 3559 00c4 CC09     		lsrs	r4, r1, #7
ARM GAS  C:\Users\NIGHDR~1\AppData\Local\Temp\ccvJ0Ig2.s 			page 70


 3560              	.LVL600:
 3561 00c6 1294     		str	r4, [sp, #72]
 3562              	.LVL601:
 375:sc.c          ****     int64_t b0 = 2097151 & load_3(b);
 3563              		.loc 1 375 0
 3564 00c8 3000     		movs	r0, r6
 3565 00ca FFF7FEFF 		bl	load_3
 3566              	.LVL602:
 3567 00ce C402     		lsls	r4, r0, #11
 3568              	.LVL603:
 3569 00d0 E40A     		lsrs	r4, r4, #11
 3570              	.LVL604:
 376:sc.c          ****     int64_t b1 = 2097151 & (load_4(b + 2) >> 5);
 3571              		.loc 1 376 0
 3572 00d2 B01C     		adds	r0, r6, #2
 3573 00d4 FFF7FEFF 		bl	load_4
 3574              	.LVL605:
 3575 00d8 4009     		lsrs	r0, r0, #5
 3576 00da C002     		lsls	r0, r0, #11
 3577 00dc C10A     		lsrs	r1, r0, #11
 3578 00de 1491     		str	r1, [sp, #80]
 3579              	.LVL606:
 377:sc.c          ****     int64_t b2 = 2097151 & (load_3(b + 5) >> 2);
 3580              		.loc 1 377 0
 3581 00e0 701D     		adds	r0, r6, #5
 3582 00e2 FFF7FEFF 		bl	load_3
 3583              	.LVL607:
 3584 00e6 8008     		lsrs	r0, r0, #2
 3585 00e8 C002     		lsls	r0, r0, #11
 3586 00ea C00A     		lsrs	r0, r0, #11
 3587 00ec 1690     		str	r0, [sp, #88]
 3588              	.LVL608:
 378:sc.c          ****     int64_t b3 = 2097151 & (load_4(b + 7) >> 7);
 3589              		.loc 1 378 0
 3590 00ee F01D     		adds	r0, r6, #7
 3591              	.LVL609:
 3592 00f0 FFF7FEFF 		bl	load_4
 3593              	.LVL610:
 3594 00f4 C009     		lsrs	r0, r0, #7
 3595 00f6 C002     		lsls	r0, r0, #11
 3596 00f8 C30A     		lsrs	r3, r0, #11
 3597 00fa 1893     		str	r3, [sp, #96]
 3598              	.LVL611:
 379:sc.c          ****     int64_t b4 = 2097151 & (load_4(b + 10) >> 4);
 3599              		.loc 1 379 0
 3600 00fc 3000     		movs	r0, r6
 3601 00fe 0A30     		adds	r0, r0, #10
 3602 0100 FFF7FEFF 		bl	load_4
 3603              	.LVL612:
 3604 0104 0009     		lsrs	r0, r0, #4
 3605 0106 C002     		lsls	r0, r0, #11
 3606 0108 C10A     		lsrs	r1, r0, #11
 3607 010a 1A91     		str	r1, [sp, #104]
 3608              	.LVL613:
 380:sc.c          ****     int64_t b5 = 2097151 & (load_3(b + 13) >> 1);
 3609              		.loc 1 380 0
 3610 010c 3000     		movs	r0, r6
ARM GAS  C:\Users\NIGHDR~1\AppData\Local\Temp\ccvJ0Ig2.s 			page 71


 3611 010e 0D30     		adds	r0, r0, #13
 3612 0110 FFF7FEFF 		bl	load_3
 3613              	.LVL614:
 3614 0114 4008     		lsrs	r0, r0, #1
 3615 0116 C002     		lsls	r0, r0, #11
 3616 0118 C00A     		lsrs	r0, r0, #11
 3617 011a 1C90     		str	r0, [sp, #112]
 3618              	.LVL615:
 381:sc.c          ****     int64_t b6 = 2097151 & (load_4(b + 15) >> 6);
 3619              		.loc 1 381 0
 3620 011c 3000     		movs	r0, r6
 3621              	.LVL616:
 3622 011e 0F30     		adds	r0, r0, #15
 3623 0120 FFF7FEFF 		bl	load_4
 3624              	.LVL617:
 3625 0124 8009     		lsrs	r0, r0, #6
 3626 0126 C002     		lsls	r0, r0, #11
 3627 0128 C30A     		lsrs	r3, r0, #11
 3628 012a 1E93     		str	r3, [sp, #120]
 3629              	.LVL618:
 382:sc.c          ****     int64_t b7 = 2097151 & (load_3(b + 18) >> 3);
 3630              		.loc 1 382 0
 3631 012c 3000     		movs	r0, r6
 3632 012e 1230     		adds	r0, r0, #18
 3633 0130 FFF7FEFF 		bl	load_3
 3634              	.LVL619:
 3635 0134 C008     		lsrs	r0, r0, #3
 3636 0136 C002     		lsls	r0, r0, #11
 3637 0138 C10A     		lsrs	r1, r0, #11
 3638 013a 2091     		str	r1, [sp, #128]
 3639              	.LVL620:
 383:sc.c          ****     int64_t b8 = 2097151 & load_3(b + 21);
 3640              		.loc 1 383 0
 3641 013c 3000     		movs	r0, r6
 3642 013e 1530     		adds	r0, r0, #21
 3643 0140 FFF7FEFF 		bl	load_3
 3644              	.LVL621:
 3645 0144 C002     		lsls	r0, r0, #11
 3646 0146 C00A     		lsrs	r0, r0, #11
 3647 0148 2290     		str	r0, [sp, #136]
 3648              	.LVL622:
 384:sc.c          ****     int64_t b9 = 2097151 & (load_4(b + 23) >> 5);
 3649              		.loc 1 384 0
 3650 014a 3000     		movs	r0, r6
 3651              	.LVL623:
 3652 014c 1730     		adds	r0, r0, #23
 3653 014e FFF7FEFF 		bl	load_4
 3654              	.LVL624:
 3655 0152 4009     		lsrs	r0, r0, #5
 3656 0154 C002     		lsls	r0, r0, #11
 3657 0156 C20A     		lsrs	r2, r0, #11
 3658 0158 2492     		str	r2, [sp, #144]
 3659              	.LVL625:
 385:sc.c          ****     int64_t b10 = 2097151 & (load_3(b + 26) >> 2);
 3660              		.loc 1 385 0
 3661 015a 3000     		movs	r0, r6
 3662 015c 1A30     		adds	r0, r0, #26
ARM GAS  C:\Users\NIGHDR~1\AppData\Local\Temp\ccvJ0Ig2.s 			page 72


 3663 015e FFF7FEFF 		bl	load_3
 3664              	.LVL626:
 3665 0162 8008     		lsrs	r0, r0, #2
 3666 0164 C002     		lsls	r0, r0, #11
 3667 0166 C30A     		lsrs	r3, r0, #11
 3668 0168 2693     		str	r3, [sp, #152]
 3669              	.LVL627:
 386:sc.c          ****     int64_t b11 = (load_4(b + 28) >> 7);
 3670              		.loc 1 386 0
 3671 016a 1C36     		adds	r6, r6, #28
 3672              	.LVL628:
 3673 016c 3000     		movs	r0, r6
 3674 016e FFF7FEFF 		bl	load_4
 3675              	.LVL629:
 3676 0172 4B06     		lsls	r3, r1, #25
 3677 0174 C009     		lsrs	r0, r0, #7
 3678 0176 1843     		orrs	r0, r3
 3679 0178 2C90     		str	r0, [sp, #176]
 3680 017a CE09     		lsrs	r6, r1, #7
 3681              	.LVL630:
 3682 017c 2896     		str	r6, [sp, #160]
 3683              	.LVL631:
 387:sc.c          ****     int64_t c0 = 2097151 & load_3(c);
 3684              		.loc 1 387 0
 3685 017e 3800     		movs	r0, r7
 3686              	.LVL632:
 3687 0180 FFF7FEFF 		bl	load_3
 3688              	.LVL633:
 3689 0184 C002     		lsls	r0, r0, #11
 3690 0186 C60A     		lsrs	r6, r0, #11
 3691              	.LVL634:
 3692 0188 2E96     		str	r6, [sp, #184]
 3693 018a 0026     		movs	r6, #0
 3694 018c 2F96     		str	r6, [sp, #188]
 3695              	.LVL635:
 388:sc.c          ****     int64_t c1 = 2097151 & (load_4(c + 2) >> 5);
 3696              		.loc 1 388 0
 3697 018e B81C     		adds	r0, r7, #2
 3698 0190 FFF7FEFF 		bl	load_4
 3699              	.LVL636:
 3700 0194 4009     		lsrs	r0, r0, #5
 3701 0196 C002     		lsls	r0, r0, #11
 3702 0198 C60A     		lsrs	r6, r0, #11
 3703 019a 3096     		str	r6, [sp, #192]
 3704 019c 0026     		movs	r6, #0
 3705 019e 3196     		str	r6, [sp, #196]
 3706              	.LVL637:
 389:sc.c          ****     int64_t c2 = 2097151 & (load_3(c + 5) >> 2);
 3707              		.loc 1 389 0
 3708 01a0 781D     		adds	r0, r7, #5
 3709 01a2 FFF7FEFF 		bl	load_3
 3710              	.LVL638:
 3711 01a6 8008     		lsrs	r0, r0, #2
 3712 01a8 C002     		lsls	r0, r0, #11
 3713 01aa C60A     		lsrs	r6, r0, #11
 3714 01ac 3296     		str	r6, [sp, #200]
 3715 01ae 0026     		movs	r6, #0
ARM GAS  C:\Users\NIGHDR~1\AppData\Local\Temp\ccvJ0Ig2.s 			page 73


 3716 01b0 3396     		str	r6, [sp, #204]
 3717              	.LVL639:
 390:sc.c          ****     int64_t c3 = 2097151 & (load_4(c + 7) >> 7);
 3718              		.loc 1 390 0
 3719 01b2 F81D     		adds	r0, r7, #7
 3720 01b4 FFF7FEFF 		bl	load_4
 3721              	.LVL640:
 3722 01b8 C009     		lsrs	r0, r0, #7
 3723 01ba C002     		lsls	r0, r0, #11
 3724 01bc C60A     		lsrs	r6, r0, #11
 3725 01be 3496     		str	r6, [sp, #208]
 3726 01c0 0026     		movs	r6, #0
 3727 01c2 3596     		str	r6, [sp, #212]
 3728              	.LVL641:
 391:sc.c          ****     int64_t c4 = 2097151 & (load_4(c + 10) >> 4);
 3729              		.loc 1 391 0
 3730 01c4 3E00     		movs	r6, r7
 3731 01c6 0A36     		adds	r6, r6, #10
 3732 01c8 3000     		movs	r0, r6
 3733 01ca FFF7FEFF 		bl	load_4
 3734              	.LVL642:
 3735 01ce 0009     		lsrs	r0, r0, #4
 3736 01d0 C002     		lsls	r0, r0, #11
 3737 01d2 C60A     		lsrs	r6, r0, #11
 3738 01d4 3696     		str	r6, [sp, #216]
 3739 01d6 0026     		movs	r6, #0
 3740 01d8 3796     		str	r6, [sp, #220]
 3741              	.LVL643:
 392:sc.c          ****     int64_t c5 = 2097151 & (load_3(c + 13) >> 1);
 3742              		.loc 1 392 0
 3743 01da 3E00     		movs	r6, r7
 3744 01dc 0D36     		adds	r6, r6, #13
 3745 01de 3000     		movs	r0, r6
 3746 01e0 FFF7FEFF 		bl	load_3
 3747              	.LVL644:
 3748 01e4 4008     		lsrs	r0, r0, #1
 3749 01e6 C002     		lsls	r0, r0, #11
 3750 01e8 C60A     		lsrs	r6, r0, #11
 3751 01ea 3896     		str	r6, [sp, #224]
 3752 01ec 0026     		movs	r6, #0
 3753 01ee 3996     		str	r6, [sp, #228]
 3754              	.LVL645:
 393:sc.c          ****     int64_t c6 = 2097151 & (load_4(c + 15) >> 6);
 3755              		.loc 1 393 0
 3756 01f0 3E00     		movs	r6, r7
 3757 01f2 0F36     		adds	r6, r6, #15
 3758 01f4 3000     		movs	r0, r6
 3759 01f6 FFF7FEFF 		bl	load_4
 3760              	.LVL646:
 3761 01fa 8009     		lsrs	r0, r0, #6
 3762 01fc C002     		lsls	r0, r0, #11
 3763 01fe C60A     		lsrs	r6, r0, #11
 3764 0200 3A96     		str	r6, [sp, #232]
 3765 0202 0026     		movs	r6, #0
 3766 0204 3B96     		str	r6, [sp, #236]
 3767              	.LVL647:
 394:sc.c          ****     int64_t c7 = 2097151 & (load_3(c + 18) >> 3);
ARM GAS  C:\Users\NIGHDR~1\AppData\Local\Temp\ccvJ0Ig2.s 			page 74


 3768              		.loc 1 394 0
 3769 0206 3E00     		movs	r6, r7
 3770 0208 1236     		adds	r6, r6, #18
 3771 020a 3000     		movs	r0, r6
 3772 020c FFF7FEFF 		bl	load_3
 3773              	.LVL648:
 3774 0210 C008     		lsrs	r0, r0, #3
 3775 0212 C002     		lsls	r0, r0, #11
 3776 0214 C60A     		lsrs	r6, r0, #11
 3777 0216 3C96     		str	r6, [sp, #240]
 3778 0218 0026     		movs	r6, #0
 3779 021a 3D96     		str	r6, [sp, #244]
 3780              	.LVL649:
 395:sc.c          ****     int64_t c8 = 2097151 & load_3(c + 21);
 3781              		.loc 1 395 0
 3782 021c 3E00     		movs	r6, r7
 3783 021e 1536     		adds	r6, r6, #21
 3784 0220 3000     		movs	r0, r6
 3785 0222 FFF7FEFF 		bl	load_3
 3786              	.LVL650:
 3787 0226 C002     		lsls	r0, r0, #11
 3788 0228 C60A     		lsrs	r6, r0, #11
 3789 022a 3E96     		str	r6, [sp, #248]
 3790 022c 0026     		movs	r6, #0
 3791 022e 3F96     		str	r6, [sp, #252]
 3792              	.LVL651:
 396:sc.c          ****     int64_t c9 = 2097151 & (load_4(c + 23) >> 5);
 3793              		.loc 1 396 0
 3794 0230 3E00     		movs	r6, r7
 3795 0232 1736     		adds	r6, r6, #23
 3796 0234 3000     		movs	r0, r6
 3797 0236 FFF7FEFF 		bl	load_4
 3798              	.LVL652:
 3799 023a 4009     		lsrs	r0, r0, #5
 3800 023c C002     		lsls	r0, r0, #11
 3801 023e C60A     		lsrs	r6, r0, #11
 3802 0240 4096     		str	r6, [sp, #256]
 3803 0242 0026     		movs	r6, #0
 3804 0244 4196     		str	r6, [sp, #260]
 3805              	.LVL653:
 397:sc.c          ****     int64_t c10 = 2097151 & (load_3(c + 26) >> 2);
 3806              		.loc 1 397 0
 3807 0246 3E00     		movs	r6, r7
 3808 0248 1A36     		adds	r6, r6, #26
 3809 024a 3000     		movs	r0, r6
 3810 024c FFF7FEFF 		bl	load_3
 3811              	.LVL654:
 3812 0250 8008     		lsrs	r0, r0, #2
 3813 0252 C002     		lsls	r0, r0, #11
 3814 0254 C60A     		lsrs	r6, r0, #11
 3815 0256 4296     		str	r6, [sp, #264]
 3816 0258 0026     		movs	r6, #0
 3817 025a 4396     		str	r6, [sp, #268]
 3818              	.LVL655:
 398:sc.c          ****     int64_t c11 = (load_4(c + 28) >> 7);
 3819              		.loc 1 398 0
 3820 025c 1C37     		adds	r7, r7, #28
ARM GAS  C:\Users\NIGHDR~1\AppData\Local\Temp\ccvJ0Ig2.s 			page 75


 3821              	.LVL656:
 3822 025e 3800     		movs	r0, r7
 3823 0260 FFF7FEFF 		bl	load_4
 3824              	.LVL657:
 3825 0264 4B06     		lsls	r3, r1, #25
 3826 0266 C009     		lsrs	r0, r0, #7
 3827 0268 1F00     		movs	r7, r3
 3828              	.LVL658:
 3829 026a 0743     		orrs	r7, r0
 3830 026c 4497     		str	r7, [sp, #272]
 3831 026e CF09     		lsrs	r7, r1, #7
 3832 0270 4597     		str	r7, [sp, #276]
 3833              	.LVL659:
 399:sc.c          ****     int64_t s0;
 400:sc.c          ****     int64_t s1;
 401:sc.c          ****     int64_t s2;
 402:sc.c          ****     int64_t s3;
 403:sc.c          ****     int64_t s4;
 404:sc.c          ****     int64_t s5;
 405:sc.c          ****     int64_t s6;
 406:sc.c          ****     int64_t s7;
 407:sc.c          ****     int64_t s8;
 408:sc.c          ****     int64_t s9;
 409:sc.c          ****     int64_t s10;
 410:sc.c          ****     int64_t s11;
 411:sc.c          ****     int64_t s12;
 412:sc.c          ****     int64_t s13;
 413:sc.c          ****     int64_t s14;
 414:sc.c          ****     int64_t s15;
 415:sc.c          ****     int64_t s16;
 416:sc.c          ****     int64_t s17;
 417:sc.c          ****     int64_t s18;
 418:sc.c          ****     int64_t s19;
 419:sc.c          ****     int64_t s20;
 420:sc.c          ****     int64_t s21;
 421:sc.c          ****     int64_t s22;
 422:sc.c          ****     int64_t s23;
 423:sc.c          ****     int64_t carry0;
 424:sc.c          ****     int64_t carry1;
 425:sc.c          ****     int64_t carry2;
 426:sc.c          ****     int64_t carry3;
 427:sc.c          ****     int64_t carry4;
 428:sc.c          ****     int64_t carry5;
 429:sc.c          ****     int64_t carry6;
 430:sc.c          ****     int64_t carry7;
 431:sc.c          ****     int64_t carry8;
 432:sc.c          ****     int64_t carry9;
 433:sc.c          ****     int64_t carry10;
 434:sc.c          ****     int64_t carry11;
 435:sc.c          ****     int64_t carry12;
 436:sc.c          ****     int64_t carry13;
 437:sc.c          ****     int64_t carry14;
 438:sc.c          ****     int64_t carry15;
 439:sc.c          ****     int64_t carry16;
 440:sc.c          ****     int64_t carry17;
 441:sc.c          ****     int64_t carry18;
 442:sc.c          ****     int64_t carry19;
ARM GAS  C:\Users\NIGHDR~1\AppData\Local\Temp\ccvJ0Ig2.s 			page 76


 443:sc.c          ****     int64_t carry20;
 444:sc.c          ****     int64_t carry21;
 445:sc.c          ****     int64_t carry22;
 446:sc.c          **** 
 447:sc.c          ****     s0 = c0 + a0 * b0;
 3834              		.loc 1 447 0
 3835 0272 2200     		movs	r2, r4
 3836 0274 0023     		movs	r3, #0
 3837 0276 2800     		movs	r0, r5
 3838 0278 0021     		movs	r1, #0
 3839 027a FFF7FEFF 		bl	__aeabi_lmul
 3840              	.LVL660:
 3841 027e 2E9E     		ldr	r6, [sp, #184]
 3842 0280 2F9F     		ldr	r7, [sp, #188]
 3843 0282 3618     		adds	r6, r6, r0
 3844 0284 4F41     		adcs	r7, r7, r1
 3845 0286 2E96     		str	r6, [sp, #184]
 3846 0288 2F97     		str	r7, [sp, #188]
 3847              	.LVL661:
 448:sc.c          ****     s1 = c1 + a0 * b1 + a1 * b0;
 3848              		.loc 1 448 0
 3849 028a 149A     		ldr	r2, [sp, #80]
 3850 028c 0023     		movs	r3, #0
 3851 028e 2800     		movs	r0, r5
 3852 0290 0021     		movs	r1, #0
 3853 0292 FFF7FEFF 		bl	__aeabi_lmul
 3854              	.LVL662:
 3855 0296 309E     		ldr	r6, [sp, #192]
 3856 0298 319F     		ldr	r7, [sp, #196]
 3857              	.LVL663:
 3858 029a 3618     		adds	r6, r6, r0
 3859 029c 4F41     		adcs	r7, r7, r1
 3860 029e 2200     		movs	r2, r4
 3861 02a0 0023     		movs	r3, #0
 3862 02a2 2A98     		ldr	r0, [sp, #168]
 3863 02a4 0021     		movs	r1, #0
 3864 02a6 FFF7FEFF 		bl	__aeabi_lmul
 3865              	.LVL664:
 3866 02aa 3618     		adds	r6, r6, r0
 3867 02ac 4F41     		adcs	r7, r7, r1
 3868 02ae 4896     		str	r6, [sp, #288]
 3869 02b0 4997     		str	r7, [sp, #292]
 3870              	.LVL665:
 449:sc.c          ****     s2 = c2 + a0 * b2 + a1 * b1 + a2 * b0;
 3871              		.loc 1 449 0
 3872 02b2 169A     		ldr	r2, [sp, #88]
 3873 02b4 0023     		movs	r3, #0
 3874 02b6 2800     		movs	r0, r5
 3875 02b8 0021     		movs	r1, #0
 3876 02ba FFF7FEFF 		bl	__aeabi_lmul
 3877              	.LVL666:
 3878 02be 329E     		ldr	r6, [sp, #200]
 3879 02c0 339F     		ldr	r7, [sp, #204]
 3880              	.LVL667:
 3881 02c2 3618     		adds	r6, r6, r0
 3882 02c4 4F41     		adcs	r7, r7, r1
 3883 02c6 149A     		ldr	r2, [sp, #80]
ARM GAS  C:\Users\NIGHDR~1\AppData\Local\Temp\ccvJ0Ig2.s 			page 77


 3884 02c8 0023     		movs	r3, #0
 3885 02ca 2A98     		ldr	r0, [sp, #168]
 3886 02cc 0021     		movs	r1, #0
 3887 02ce FFF7FEFF 		bl	__aeabi_lmul
 3888              	.LVL668:
 3889 02d2 3618     		adds	r6, r6, r0
 3890 02d4 4F41     		adcs	r7, r7, r1
 3891 02d6 2200     		movs	r2, r4
 3892 02d8 0023     		movs	r3, #0
 3893 02da 0098     		ldr	r0, [sp]
 3894 02dc 0021     		movs	r1, #0
 3895 02de FFF7FEFF 		bl	__aeabi_lmul
 3896              	.LVL669:
 3897 02e2 3618     		adds	r6, r6, r0
 3898 02e4 4F41     		adcs	r7, r7, r1
 3899 02e6 3096     		str	r6, [sp, #192]
 3900 02e8 3197     		str	r7, [sp, #196]
 3901              	.LVL670:
 450:sc.c          ****     s3 = c3 + a0 * b3 + a1 * b2 + a2 * b1 + a3 * b0;
 3902              		.loc 1 450 0
 3903 02ea 189A     		ldr	r2, [sp, #96]
 3904 02ec 0023     		movs	r3, #0
 3905 02ee 2800     		movs	r0, r5
 3906 02f0 0021     		movs	r1, #0
 3907 02f2 FFF7FEFF 		bl	__aeabi_lmul
 3908              	.LVL671:
 3909 02f6 349E     		ldr	r6, [sp, #208]
 3910 02f8 359F     		ldr	r7, [sp, #212]
 3911              	.LVL672:
 3912 02fa 3618     		adds	r6, r6, r0
 3913 02fc 4F41     		adcs	r7, r7, r1
 3914 02fe 169A     		ldr	r2, [sp, #88]
 3915 0300 0023     		movs	r3, #0
 3916 0302 2A98     		ldr	r0, [sp, #168]
 3917 0304 0021     		movs	r1, #0
 3918 0306 FFF7FEFF 		bl	__aeabi_lmul
 3919              	.LVL673:
 3920 030a 3618     		adds	r6, r6, r0
 3921 030c 4F41     		adcs	r7, r7, r1
 3922 030e 149A     		ldr	r2, [sp, #80]
 3923 0310 0023     		movs	r3, #0
 3924 0312 0098     		ldr	r0, [sp]
 3925 0314 0021     		movs	r1, #0
 3926 0316 FFF7FEFF 		bl	__aeabi_lmul
 3927              	.LVL674:
 3928 031a 3618     		adds	r6, r6, r0
 3929 031c 4F41     		adcs	r7, r7, r1
 3930 031e 2200     		movs	r2, r4
 3931 0320 0023     		movs	r3, #0
 3932 0322 0298     		ldr	r0, [sp, #8]
 3933 0324 0021     		movs	r1, #0
 3934 0326 FFF7FEFF 		bl	__aeabi_lmul
 3935              	.LVL675:
 3936 032a 3618     		adds	r6, r6, r0
 3937 032c 4F41     		adcs	r7, r7, r1
 3938 032e 4A96     		str	r6, [sp, #296]
 3939 0330 4B97     		str	r7, [sp, #300]
ARM GAS  C:\Users\NIGHDR~1\AppData\Local\Temp\ccvJ0Ig2.s 			page 78


 3940              	.LVL676:
 451:sc.c          ****     s4 = c4 + a0 * b4 + a1 * b3 + a2 * b2 + a3 * b1 + a4 * b0;
 3941              		.loc 1 451 0
 3942 0332 1A9A     		ldr	r2, [sp, #104]
 3943 0334 0023     		movs	r3, #0
 3944 0336 2800     		movs	r0, r5
 3945 0338 0021     		movs	r1, #0
 3946 033a FFF7FEFF 		bl	__aeabi_lmul
 3947              	.LVL677:
 3948 033e 369A     		ldr	r2, [sp, #216]
 3949 0340 379B     		ldr	r3, [sp, #220]
 3950 0342 1218     		adds	r2, r2, r0
 3951 0344 4B41     		adcs	r3, r3, r1
 3952 0346 1600     		movs	r6, r2
 3953              	.LVL678:
 3954 0348 1F00     		movs	r7, r3
 3955 034a 189A     		ldr	r2, [sp, #96]
 3956 034c 0023     		movs	r3, #0
 3957 034e 2A98     		ldr	r0, [sp, #168]
 3958 0350 0021     		movs	r1, #0
 3959 0352 FFF7FEFF 		bl	__aeabi_lmul
 3960              	.LVL679:
 3961 0356 3618     		adds	r6, r6, r0
 3962 0358 4F41     		adcs	r7, r7, r1
 3963 035a 169A     		ldr	r2, [sp, #88]
 3964 035c 0023     		movs	r3, #0
 3965 035e 0098     		ldr	r0, [sp]
 3966 0360 0021     		movs	r1, #0
 3967 0362 FFF7FEFF 		bl	__aeabi_lmul
 3968              	.LVL680:
 3969 0366 3618     		adds	r6, r6, r0
 3970 0368 4F41     		adcs	r7, r7, r1
 3971 036a 149A     		ldr	r2, [sp, #80]
 3972 036c 0023     		movs	r3, #0
 3973 036e 0298     		ldr	r0, [sp, #8]
 3974 0370 0021     		movs	r1, #0
 3975 0372 FFF7FEFF 		bl	__aeabi_lmul
 3976              	.LVL681:
 3977 0376 3618     		adds	r6, r6, r0
 3978 0378 4F41     		adcs	r7, r7, r1
 3979 037a 2200     		movs	r2, r4
 3980 037c 0023     		movs	r3, #0
 3981 037e 0498     		ldr	r0, [sp, #16]
 3982 0380 0021     		movs	r1, #0
 3983 0382 FFF7FEFF 		bl	__aeabi_lmul
 3984              	.LVL682:
 3985 0386 3618     		adds	r6, r6, r0
 3986 0388 4F41     		adcs	r7, r7, r1
 3987 038a 3296     		str	r6, [sp, #200]
 3988 038c 3397     		str	r7, [sp, #204]
 3989              	.LVL683:
 452:sc.c          ****     s5 = c5 + a0 * b5 + a1 * b4 + a2 * b3 + a3 * b2 + a4 * b1 + a5 * b0;
 3990              		.loc 1 452 0
 3991 038e 1C9A     		ldr	r2, [sp, #112]
 3992 0390 0023     		movs	r3, #0
 3993 0392 2800     		movs	r0, r5
 3994 0394 0021     		movs	r1, #0
ARM GAS  C:\Users\NIGHDR~1\AppData\Local\Temp\ccvJ0Ig2.s 			page 79


 3995 0396 FFF7FEFF 		bl	__aeabi_lmul
 3996              	.LVL684:
 3997 039a 389A     		ldr	r2, [sp, #224]
 3998 039c 399B     		ldr	r3, [sp, #228]
 3999 039e 1218     		adds	r2, r2, r0
 4000 03a0 4B41     		adcs	r3, r3, r1
 4001 03a2 1600     		movs	r6, r2
 4002              	.LVL685:
 4003 03a4 1F00     		movs	r7, r3
 4004 03a6 1A9A     		ldr	r2, [sp, #104]
 4005 03a8 0023     		movs	r3, #0
 4006 03aa 2A98     		ldr	r0, [sp, #168]
 4007 03ac 0021     		movs	r1, #0
 4008 03ae FFF7FEFF 		bl	__aeabi_lmul
 4009              	.LVL686:
 4010 03b2 3618     		adds	r6, r6, r0
 4011 03b4 4F41     		adcs	r7, r7, r1
 4012 03b6 189A     		ldr	r2, [sp, #96]
 4013 03b8 0023     		movs	r3, #0
 4014 03ba 0098     		ldr	r0, [sp]
 4015 03bc 0021     		movs	r1, #0
 4016 03be FFF7FEFF 		bl	__aeabi_lmul
 4017              	.LVL687:
 4018 03c2 3618     		adds	r6, r6, r0
 4019 03c4 4F41     		adcs	r7, r7, r1
 4020 03c6 169A     		ldr	r2, [sp, #88]
 4021 03c8 0023     		movs	r3, #0
 4022 03ca 0298     		ldr	r0, [sp, #8]
 4023 03cc 0021     		movs	r1, #0
 4024 03ce FFF7FEFF 		bl	__aeabi_lmul
 4025              	.LVL688:
 4026 03d2 3618     		adds	r6, r6, r0
 4027 03d4 4F41     		adcs	r7, r7, r1
 4028 03d6 149A     		ldr	r2, [sp, #80]
 4029 03d8 0023     		movs	r3, #0
 4030 03da 0498     		ldr	r0, [sp, #16]
 4031 03dc 0021     		movs	r1, #0
 4032 03de FFF7FEFF 		bl	__aeabi_lmul
 4033              	.LVL689:
 4034 03e2 3618     		adds	r6, r6, r0
 4035 03e4 4F41     		adcs	r7, r7, r1
 4036 03e6 2200     		movs	r2, r4
 4037 03e8 0023     		movs	r3, #0
 4038 03ea 0698     		ldr	r0, [sp, #24]
 4039 03ec 0021     		movs	r1, #0
 4040 03ee FFF7FEFF 		bl	__aeabi_lmul
 4041              	.LVL690:
 4042 03f2 3618     		adds	r6, r6, r0
 4043 03f4 4F41     		adcs	r7, r7, r1
 4044 03f6 4C96     		str	r6, [sp, #304]
 4045 03f8 4D97     		str	r7, [sp, #308]
 4046              	.LVL691:
 453:sc.c          ****     s6 = c6 + a0 * b6 + a1 * b5 + a2 * b4 + a3 * b3 + a4 * b2 + a5 * b1 + a6 * b0;
 4047              		.loc 1 453 0
 4048 03fa 1E9A     		ldr	r2, [sp, #120]
 4049 03fc 0023     		movs	r3, #0
 4050 03fe 2800     		movs	r0, r5
ARM GAS  C:\Users\NIGHDR~1\AppData\Local\Temp\ccvJ0Ig2.s 			page 80


 4051 0400 0021     		movs	r1, #0
 4052 0402 FFF7FEFF 		bl	__aeabi_lmul
 4053              	.LVL692:
 4054 0406 3A9A     		ldr	r2, [sp, #232]
 4055 0408 3B9B     		ldr	r3, [sp, #236]
 4056 040a 1218     		adds	r2, r2, r0
 4057 040c 4B41     		adcs	r3, r3, r1
 4058 040e 1600     		movs	r6, r2
 4059              	.LVL693:
 4060 0410 1F00     		movs	r7, r3
 4061 0412 1C9A     		ldr	r2, [sp, #112]
 4062 0414 0023     		movs	r3, #0
 4063 0416 2A98     		ldr	r0, [sp, #168]
 4064 0418 0021     		movs	r1, #0
 4065 041a FFF7FEFF 		bl	__aeabi_lmul
 4066              	.LVL694:
 4067 041e 3618     		adds	r6, r6, r0
 4068 0420 4F41     		adcs	r7, r7, r1
 4069 0422 1A9A     		ldr	r2, [sp, #104]
 4070 0424 0023     		movs	r3, #0
 4071 0426 0098     		ldr	r0, [sp]
 4072 0428 0021     		movs	r1, #0
 4073 042a FFF7FEFF 		bl	__aeabi_lmul
 4074              	.LVL695:
 4075 042e 3618     		adds	r6, r6, r0
 4076 0430 4F41     		adcs	r7, r7, r1
 4077 0432 189A     		ldr	r2, [sp, #96]
 4078 0434 0023     		movs	r3, #0
 4079 0436 0298     		ldr	r0, [sp, #8]
 4080 0438 0021     		movs	r1, #0
 4081 043a FFF7FEFF 		bl	__aeabi_lmul
 4082              	.LVL696:
 4083 043e 3618     		adds	r6, r6, r0
 4084 0440 4F41     		adcs	r7, r7, r1
 4085 0442 169A     		ldr	r2, [sp, #88]
 4086 0444 0023     		movs	r3, #0
 4087 0446 0498     		ldr	r0, [sp, #16]
 4088 0448 0021     		movs	r1, #0
 4089 044a FFF7FEFF 		bl	__aeabi_lmul
 4090              	.LVL697:
 4091 044e 3618     		adds	r6, r6, r0
 4092 0450 4F41     		adcs	r7, r7, r1
 4093 0452 149A     		ldr	r2, [sp, #80]
 4094 0454 0023     		movs	r3, #0
 4095 0456 0698     		ldr	r0, [sp, #24]
 4096 0458 0021     		movs	r1, #0
 4097 045a FFF7FEFF 		bl	__aeabi_lmul
 4098              	.LVL698:
 4099 045e 3618     		adds	r6, r6, r0
 4100 0460 4F41     		adcs	r7, r7, r1
 4101 0462 2200     		movs	r2, r4
 4102 0464 0023     		movs	r3, #0
 4103 0466 0898     		ldr	r0, [sp, #32]
 4104 0468 0021     		movs	r1, #0
 4105 046a FFF7FEFF 		bl	__aeabi_lmul
 4106              	.LVL699:
 4107 046e 3200     		movs	r2, r6
ARM GAS  C:\Users\NIGHDR~1\AppData\Local\Temp\ccvJ0Ig2.s 			page 81


 4108 0470 3B00     		movs	r3, r7
 4109 0472 1218     		adds	r2, r2, r0
 4110 0474 4B41     		adcs	r3, r3, r1
 4111 0476 3492     		str	r2, [sp, #208]
 4112 0478 3593     		str	r3, [sp, #212]
 4113              	.LVL700:
 454:sc.c          ****     s7 = c7 + a0 * b7 + a1 * b6 + a2 * b5 + a3 * b4 + a4 * b3 + a5 * b2 + a6 * b1 + a7 * b0;
 4114              		.loc 1 454 0
 4115 047a 209A     		ldr	r2, [sp, #128]
 4116              	.LVL701:
 4117 047c 0023     		movs	r3, #0
 4118 047e 2800     		movs	r0, r5
 4119 0480 0021     		movs	r1, #0
 4120 0482 FFF7FEFF 		bl	__aeabi_lmul
 4121              	.LVL702:
 4122 0486 3C9A     		ldr	r2, [sp, #240]
 4123 0488 3D9B     		ldr	r3, [sp, #244]
 4124 048a 1218     		adds	r2, r2, r0
 4125 048c 4B41     		adcs	r3, r3, r1
 4126 048e 1600     		movs	r6, r2
 4127 0490 1F00     		movs	r7, r3
 4128 0492 1E9A     		ldr	r2, [sp, #120]
 4129 0494 0023     		movs	r3, #0
 4130 0496 2A98     		ldr	r0, [sp, #168]
 4131 0498 0021     		movs	r1, #0
 4132 049a FFF7FEFF 		bl	__aeabi_lmul
 4133              	.LVL703:
 4134 049e 3618     		adds	r6, r6, r0
 4135 04a0 4F41     		adcs	r7, r7, r1
 4136 04a2 1C9A     		ldr	r2, [sp, #112]
 4137 04a4 0023     		movs	r3, #0
 4138 04a6 0098     		ldr	r0, [sp]
 4139 04a8 0021     		movs	r1, #0
 4140 04aa FFF7FEFF 		bl	__aeabi_lmul
 4141              	.LVL704:
 4142 04ae 3618     		adds	r6, r6, r0
 4143 04b0 4F41     		adcs	r7, r7, r1
 4144 04b2 1A9A     		ldr	r2, [sp, #104]
 4145 04b4 0023     		movs	r3, #0
 4146 04b6 0298     		ldr	r0, [sp, #8]
 4147 04b8 0021     		movs	r1, #0
 4148 04ba FFF7FEFF 		bl	__aeabi_lmul
 4149              	.LVL705:
 4150 04be 3618     		adds	r6, r6, r0
 4151 04c0 4F41     		adcs	r7, r7, r1
 4152 04c2 189A     		ldr	r2, [sp, #96]
 4153 04c4 0023     		movs	r3, #0
 4154 04c6 0498     		ldr	r0, [sp, #16]
 4155 04c8 0021     		movs	r1, #0
 4156 04ca FFF7FEFF 		bl	__aeabi_lmul
 4157              	.LVL706:
 4158 04ce 3618     		adds	r6, r6, r0
 4159 04d0 4F41     		adcs	r7, r7, r1
 4160 04d2 169A     		ldr	r2, [sp, #88]
 4161 04d4 0023     		movs	r3, #0
 4162 04d6 0698     		ldr	r0, [sp, #24]
 4163 04d8 0021     		movs	r1, #0
ARM GAS  C:\Users\NIGHDR~1\AppData\Local\Temp\ccvJ0Ig2.s 			page 82


 4164 04da FFF7FEFF 		bl	__aeabi_lmul
 4165              	.LVL707:
 4166 04de 3618     		adds	r6, r6, r0
 4167 04e0 4F41     		adcs	r7, r7, r1
 4168 04e2 149A     		ldr	r2, [sp, #80]
 4169 04e4 0023     		movs	r3, #0
 4170 04e6 0898     		ldr	r0, [sp, #32]
 4171 04e8 0021     		movs	r1, #0
 4172 04ea FFF7FEFF 		bl	__aeabi_lmul
 4173              	.LVL708:
 4174 04ee 3618     		adds	r6, r6, r0
 4175 04f0 4F41     		adcs	r7, r7, r1
 4176 04f2 2200     		movs	r2, r4
 4177 04f4 0023     		movs	r3, #0
 4178 04f6 0A98     		ldr	r0, [sp, #40]
 4179 04f8 0021     		movs	r1, #0
 4180 04fa FFF7FEFF 		bl	__aeabi_lmul
 4181              	.LVL709:
 4182 04fe 3618     		adds	r6, r6, r0
 4183 0500 4F41     		adcs	r7, r7, r1
 4184 0502 3A96     		str	r6, [sp, #232]
 4185 0504 3B97     		str	r7, [sp, #236]
 4186              	.LVL710:
 455:sc.c          ****     s8 = c8 + a0 * b8 + a1 * b7 + a2 * b6 + a3 * b5 + a4 * b4 + a5 * b3 + a6 * b2 + a7 * b1 + a8 * 
 4187              		.loc 1 455 0
 4188 0506 229A     		ldr	r2, [sp, #136]
 4189 0508 0023     		movs	r3, #0
 4190 050a 2800     		movs	r0, r5
 4191 050c 0021     		movs	r1, #0
 4192 050e FFF7FEFF 		bl	__aeabi_lmul
 4193              	.LVL711:
 4194 0512 3E9A     		ldr	r2, [sp, #248]
 4195 0514 3F9B     		ldr	r3, [sp, #252]
 4196 0516 1218     		adds	r2, r2, r0
 4197 0518 4B41     		adcs	r3, r3, r1
 4198 051a 1600     		movs	r6, r2
 4199              	.LVL712:
 4200 051c 1F00     		movs	r7, r3
 4201 051e 209A     		ldr	r2, [sp, #128]
 4202 0520 0023     		movs	r3, #0
 4203 0522 2A98     		ldr	r0, [sp, #168]
 4204 0524 0021     		movs	r1, #0
 4205 0526 FFF7FEFF 		bl	__aeabi_lmul
 4206              	.LVL713:
 4207 052a 3618     		adds	r6, r6, r0
 4208 052c 4F41     		adcs	r7, r7, r1
 4209 052e 1E9A     		ldr	r2, [sp, #120]
 4210 0530 0023     		movs	r3, #0
 4211 0532 0098     		ldr	r0, [sp]
 4212 0534 0021     		movs	r1, #0
 4213 0536 FFF7FEFF 		bl	__aeabi_lmul
 4214              	.LVL714:
 4215 053a 3618     		adds	r6, r6, r0
 4216 053c 4F41     		adcs	r7, r7, r1
 4217 053e 1C9A     		ldr	r2, [sp, #112]
 4218 0540 0023     		movs	r3, #0
 4219 0542 0298     		ldr	r0, [sp, #8]
ARM GAS  C:\Users\NIGHDR~1\AppData\Local\Temp\ccvJ0Ig2.s 			page 83


 4220 0544 0021     		movs	r1, #0
 4221 0546 FFF7FEFF 		bl	__aeabi_lmul
 4222              	.LVL715:
 4223 054a 3618     		adds	r6, r6, r0
 4224 054c 4F41     		adcs	r7, r7, r1
 4225 054e 1A9A     		ldr	r2, [sp, #104]
 4226 0550 0023     		movs	r3, #0
 4227 0552 0498     		ldr	r0, [sp, #16]
 4228 0554 0021     		movs	r1, #0
 4229 0556 FFF7FEFF 		bl	__aeabi_lmul
 4230              	.LVL716:
 4231 055a 3618     		adds	r6, r6, r0
 4232 055c 4F41     		adcs	r7, r7, r1
 4233 055e 189A     		ldr	r2, [sp, #96]
 4234 0560 0023     		movs	r3, #0
 4235 0562 0698     		ldr	r0, [sp, #24]
 4236 0564 0021     		movs	r1, #0
 4237 0566 FFF7FEFF 		bl	__aeabi_lmul
 4238              	.LVL717:
 4239 056a 3618     		adds	r6, r6, r0
 4240 056c 4F41     		adcs	r7, r7, r1
 4241 056e 169A     		ldr	r2, [sp, #88]
 4242 0570 0023     		movs	r3, #0
 4243 0572 0898     		ldr	r0, [sp, #32]
 4244 0574 0021     		movs	r1, #0
 4245 0576 FFF7FEFF 		bl	__aeabi_lmul
 4246              	.LVL718:
 4247 057a 3618     		adds	r6, r6, r0
 4248 057c 4F41     		adcs	r7, r7, r1
 4249 057e 149A     		ldr	r2, [sp, #80]
 4250 0580 0023     		movs	r3, #0
 4251 0582 0A98     		ldr	r0, [sp, #40]
 4252 0584 0021     		movs	r1, #0
 4253 0586 FFF7FEFF 		bl	__aeabi_lmul
 4254              	.LVL719:
 4255 058a 3618     		adds	r6, r6, r0
 4256 058c 4F41     		adcs	r7, r7, r1
 4257 058e 2200     		movs	r2, r4
 4258 0590 0023     		movs	r3, #0
 4259 0592 0C98     		ldr	r0, [sp, #48]
 4260 0594 0021     		movs	r1, #0
 4261 0596 FFF7FEFF 		bl	__aeabi_lmul
 4262              	.LVL720:
 4263 059a 3200     		movs	r2, r6
 4264 059c 3B00     		movs	r3, r7
 4265 059e 1218     		adds	r2, r2, r0
 4266 05a0 4B41     		adcs	r3, r3, r1
 4267 05a2 3692     		str	r2, [sp, #216]
 4268 05a4 3793     		str	r3, [sp, #220]
 4269              	.LVL721:
 456:sc.c          ****     s9 = c9 + a0 * b9 + a1 * b8 + a2 * b7 + a3 * b6 + a4 * b5 + a5 * b4 + a6 * b3 + a7 * b2 + a8 * 
 4270              		.loc 1 456 0
 4271 05a6 249A     		ldr	r2, [sp, #144]
 4272              	.LVL722:
 4273 05a8 0023     		movs	r3, #0
 4274 05aa 2800     		movs	r0, r5
 4275 05ac 0021     		movs	r1, #0
ARM GAS  C:\Users\NIGHDR~1\AppData\Local\Temp\ccvJ0Ig2.s 			page 84


 4276 05ae FFF7FEFF 		bl	__aeabi_lmul
 4277              	.LVL723:
 4278 05b2 409A     		ldr	r2, [sp, #256]
 4279 05b4 419B     		ldr	r3, [sp, #260]
 4280 05b6 1218     		adds	r2, r2, r0
 4281 05b8 4B41     		adcs	r3, r3, r1
 4282 05ba 1600     		movs	r6, r2
 4283 05bc 1F00     		movs	r7, r3
 4284 05be 229A     		ldr	r2, [sp, #136]
 4285 05c0 0023     		movs	r3, #0
 4286 05c2 2A98     		ldr	r0, [sp, #168]
 4287 05c4 0021     		movs	r1, #0
 4288 05c6 FFF7FEFF 		bl	__aeabi_lmul
 4289              	.LVL724:
 4290 05ca 3618     		adds	r6, r6, r0
 4291 05cc 4F41     		adcs	r7, r7, r1
 4292 05ce 209A     		ldr	r2, [sp, #128]
 4293 05d0 0023     		movs	r3, #0
 4294 05d2 0098     		ldr	r0, [sp]
 4295 05d4 0021     		movs	r1, #0
 4296 05d6 FFF7FEFF 		bl	__aeabi_lmul
 4297              	.LVL725:
 4298 05da 3618     		adds	r6, r6, r0
 4299 05dc 4F41     		adcs	r7, r7, r1
 4300 05de 1E9A     		ldr	r2, [sp, #120]
 4301 05e0 0023     		movs	r3, #0
 4302 05e2 0298     		ldr	r0, [sp, #8]
 4303 05e4 0021     		movs	r1, #0
 4304 05e6 FFF7FEFF 		bl	__aeabi_lmul
 4305              	.LVL726:
 4306 05ea 3618     		adds	r6, r6, r0
 4307 05ec 4F41     		adcs	r7, r7, r1
 4308 05ee 1C9A     		ldr	r2, [sp, #112]
 4309 05f0 0023     		movs	r3, #0
 4310 05f2 0498     		ldr	r0, [sp, #16]
 4311 05f4 0021     		movs	r1, #0
 4312 05f6 FFF7FEFF 		bl	__aeabi_lmul
 4313              	.LVL727:
 4314 05fa 3618     		adds	r6, r6, r0
 4315 05fc 4F41     		adcs	r7, r7, r1
 4316 05fe 1A9A     		ldr	r2, [sp, #104]
 4317 0600 0023     		movs	r3, #0
 4318 0602 0698     		ldr	r0, [sp, #24]
 4319 0604 0021     		movs	r1, #0
 4320 0606 FFF7FEFF 		bl	__aeabi_lmul
 4321              	.LVL728:
 4322 060a 3618     		adds	r6, r6, r0
 4323 060c 4F41     		adcs	r7, r7, r1
 4324 060e 189A     		ldr	r2, [sp, #96]
 4325 0610 0023     		movs	r3, #0
 4326 0612 0898     		ldr	r0, [sp, #32]
 4327 0614 0021     		movs	r1, #0
 4328 0616 FFF7FEFF 		bl	__aeabi_lmul
 4329              	.LVL729:
 4330 061a 3618     		adds	r6, r6, r0
 4331 061c 4F41     		adcs	r7, r7, r1
 4332 061e 169A     		ldr	r2, [sp, #88]
ARM GAS  C:\Users\NIGHDR~1\AppData\Local\Temp\ccvJ0Ig2.s 			page 85


 4333 0620 0023     		movs	r3, #0
 4334 0622 0A98     		ldr	r0, [sp, #40]
 4335 0624 0021     		movs	r1, #0
 4336 0626 FFF7FEFF 		bl	__aeabi_lmul
 4337              	.LVL730:
 4338 062a 3618     		adds	r6, r6, r0
 4339 062c 4F41     		adcs	r7, r7, r1
 4340 062e 149A     		ldr	r2, [sp, #80]
 4341 0630 0023     		movs	r3, #0
 4342 0632 0C98     		ldr	r0, [sp, #48]
 4343 0634 0021     		movs	r1, #0
 4344 0636 FFF7FEFF 		bl	__aeabi_lmul
 4345              	.LVL731:
 4346 063a 3618     		adds	r6, r6, r0
 4347 063c 4F41     		adcs	r7, r7, r1
 4348 063e 2200     		movs	r2, r4
 4349 0640 0023     		movs	r3, #0
 4350 0642 0E98     		ldr	r0, [sp, #56]
 4351 0644 0021     		movs	r1, #0
 4352 0646 FFF7FEFF 		bl	__aeabi_lmul
 4353              	.LVL732:
 4354 064a 3200     		movs	r2, r6
 4355 064c 3B00     		movs	r3, r7
 4356 064e 1218     		adds	r2, r2, r0
 4357 0650 4B41     		adcs	r3, r3, r1
 4358 0652 3C92     		str	r2, [sp, #240]
 4359 0654 3D93     		str	r3, [sp, #244]
 4360              	.LVL733:
 457:sc.c          ****     s10 = c10 + a0 * b10 + a1 * b9 + a2 * b8 + a3 * b7 + a4 * b6 + a5 * b5 + a6 * b4 + a7 * b3 + a8
 4361              		.loc 1 457 0
 4362 0656 269A     		ldr	r2, [sp, #152]
 4363              	.LVL734:
 4364 0658 0023     		movs	r3, #0
 4365 065a 2800     		movs	r0, r5
 4366 065c 0021     		movs	r1, #0
 4367 065e FFF7FEFF 		bl	__aeabi_lmul
 4368              	.LVL735:
 4369 0662 429A     		ldr	r2, [sp, #264]
 4370 0664 439B     		ldr	r3, [sp, #268]
 4371 0666 1218     		adds	r2, r2, r0
 4372 0668 4B41     		adcs	r3, r3, r1
 4373 066a 1600     		movs	r6, r2
 4374 066c 1F00     		movs	r7, r3
 4375 066e 249A     		ldr	r2, [sp, #144]
 4376 0670 0023     		movs	r3, #0
 4377 0672 2A98     		ldr	r0, [sp, #168]
 4378 0674 0021     		movs	r1, #0
 4379 0676 FFF7FEFF 		bl	__aeabi_lmul
 4380              	.LVL736:
 4381 067a 3618     		adds	r6, r6, r0
 4382 067c 4F41     		adcs	r7, r7, r1
 4383 067e 229A     		ldr	r2, [sp, #136]
 4384 0680 0023     		movs	r3, #0
 4385 0682 0098     		ldr	r0, [sp]
 4386 0684 0021     		movs	r1, #0
 4387 0686 FFF7FEFF 		bl	__aeabi_lmul
 4388              	.LVL737:
ARM GAS  C:\Users\NIGHDR~1\AppData\Local\Temp\ccvJ0Ig2.s 			page 86


 4389 068a 3618     		adds	r6, r6, r0
 4390 068c 4F41     		adcs	r7, r7, r1
 4391 068e 209A     		ldr	r2, [sp, #128]
 4392 0690 0023     		movs	r3, #0
 4393 0692 0298     		ldr	r0, [sp, #8]
 4394 0694 0021     		movs	r1, #0
 4395 0696 FFF7FEFF 		bl	__aeabi_lmul
 4396              	.LVL738:
 4397 069a 3618     		adds	r6, r6, r0
 4398 069c 4F41     		adcs	r7, r7, r1
 4399 069e 1E9A     		ldr	r2, [sp, #120]
 4400 06a0 0023     		movs	r3, #0
 4401 06a2 0498     		ldr	r0, [sp, #16]
 4402 06a4 0021     		movs	r1, #0
 4403 06a6 FFF7FEFF 		bl	__aeabi_lmul
 4404              	.LVL739:
 4405 06aa 3618     		adds	r6, r6, r0
 4406 06ac 4F41     		adcs	r7, r7, r1
 4407 06ae 1C9A     		ldr	r2, [sp, #112]
 4408 06b0 0023     		movs	r3, #0
 4409 06b2 0698     		ldr	r0, [sp, #24]
 4410 06b4 0021     		movs	r1, #0
 4411 06b6 FFF7FEFF 		bl	__aeabi_lmul
 4412              	.LVL740:
 4413 06ba 3618     		adds	r6, r6, r0
 4414 06bc 4F41     		adcs	r7, r7, r1
 4415 06be 1A9A     		ldr	r2, [sp, #104]
 4416 06c0 0023     		movs	r3, #0
 4417 06c2 0898     		ldr	r0, [sp, #32]
 4418 06c4 0021     		movs	r1, #0
 4419 06c6 FFF7FEFF 		bl	__aeabi_lmul
 4420              	.LVL741:
 4421 06ca 3618     		adds	r6, r6, r0
 4422 06cc 4F41     		adcs	r7, r7, r1
 4423 06ce 189A     		ldr	r2, [sp, #96]
 4424 06d0 0023     		movs	r3, #0
 4425 06d2 0A98     		ldr	r0, [sp, #40]
 4426 06d4 0021     		movs	r1, #0
 4427 06d6 FFF7FEFF 		bl	__aeabi_lmul
 4428              	.LVL742:
 4429 06da 3618     		adds	r6, r6, r0
 4430 06dc 4F41     		adcs	r7, r7, r1
 4431 06de 169A     		ldr	r2, [sp, #88]
 4432 06e0 0023     		movs	r3, #0
 4433 06e2 0C98     		ldr	r0, [sp, #48]
 4434 06e4 0021     		movs	r1, #0
 4435 06e6 FFF7FEFF 		bl	__aeabi_lmul
 4436              	.LVL743:
 4437 06ea 3618     		adds	r6, r6, r0
 4438 06ec 4F41     		adcs	r7, r7, r1
 4439 06ee 149A     		ldr	r2, [sp, #80]
 4440 06f0 0023     		movs	r3, #0
 4441 06f2 0E98     		ldr	r0, [sp, #56]
 4442 06f4 0021     		movs	r1, #0
 4443 06f6 FFF7FEFF 		bl	__aeabi_lmul
 4444              	.LVL744:
 4445 06fa 3618     		adds	r6, r6, r0
ARM GAS  C:\Users\NIGHDR~1\AppData\Local\Temp\ccvJ0Ig2.s 			page 87


 4446 06fc 4F41     		adcs	r7, r7, r1
 4447 06fe 2200     		movs	r2, r4
 4448 0700 0023     		movs	r3, #0
 4449 0702 1098     		ldr	r0, [sp, #64]
 4450 0704 0021     		movs	r1, #0
 4451 0706 FFF7FEFF 		bl	__aeabi_lmul
 4452              	.LVL745:
 4453 070a 3200     		movs	r2, r6
 4454 070c 3B00     		movs	r3, r7
 4455 070e 1218     		adds	r2, r2, r0
 4456 0710 4B41     		adcs	r3, r3, r1
 4457 0712 3892     		str	r2, [sp, #224]
 4458 0714 3993     		str	r3, [sp, #228]
 4459              	.LVL746:
 458:sc.c          ****     s11 = c11 + a0 * b11 + a1 * b10 + a2 * b9 + a3 * b8 + a4 * b7 + a5 * b6 + a6 * b5 + a7 * b4 + a
 4460              		.loc 1 458 0
 4461 0716 2C9A     		ldr	r2, [sp, #176]
 4462              	.LVL747:
 4463 0718 289B     		ldr	r3, [sp, #160]
 4464 071a 2800     		movs	r0, r5
 4465 071c 0021     		movs	r1, #0
 4466 071e FFF7FEFF 		bl	__aeabi_lmul
 4467              	.LVL748:
 4468 0722 449D     		ldr	r5, [sp, #272]
 4469 0724 459E     		ldr	r6, [sp, #276]
 4470              	.LVL749:
 4471 0726 2D18     		adds	r5, r5, r0
 4472 0728 4E41     		adcs	r6, r6, r1
 4473 072a 3700     		movs	r7, r6
 4474 072c 2E00     		movs	r6, r5
 4475 072e 269A     		ldr	r2, [sp, #152]
 4476 0730 0023     		movs	r3, #0
 4477 0732 2A9D     		ldr	r5, [sp, #168]
 4478 0734 2800     		movs	r0, r5
 4479 0736 0021     		movs	r1, #0
 4480 0738 FFF7FEFF 		bl	__aeabi_lmul
 4481              	.LVL750:
 4482 073c 3618     		adds	r6, r6, r0
 4483 073e 4F41     		adcs	r7, r7, r1
 4484 0740 249A     		ldr	r2, [sp, #144]
 4485 0742 0023     		movs	r3, #0
 4486 0744 0098     		ldr	r0, [sp]
 4487 0746 0021     		movs	r1, #0
 4488 0748 FFF7FEFF 		bl	__aeabi_lmul
 4489              	.LVL751:
 4490 074c 3618     		adds	r6, r6, r0
 4491 074e 4F41     		adcs	r7, r7, r1
 4492 0750 229A     		ldr	r2, [sp, #136]
 4493 0752 0023     		movs	r3, #0
 4494 0754 0298     		ldr	r0, [sp, #8]
 4495 0756 0021     		movs	r1, #0
 4496 0758 FFF7FEFF 		bl	__aeabi_lmul
 4497              	.LVL752:
 4498 075c 3618     		adds	r6, r6, r0
 4499 075e 4F41     		adcs	r7, r7, r1
 4500 0760 209A     		ldr	r2, [sp, #128]
 4501 0762 0023     		movs	r3, #0
ARM GAS  C:\Users\NIGHDR~1\AppData\Local\Temp\ccvJ0Ig2.s 			page 88


 4502 0764 0498     		ldr	r0, [sp, #16]
 4503 0766 0021     		movs	r1, #0
 4504 0768 FFF7FEFF 		bl	__aeabi_lmul
 4505              	.LVL753:
 4506 076c 3618     		adds	r6, r6, r0
 4507 076e 4F41     		adcs	r7, r7, r1
 4508 0770 1E9A     		ldr	r2, [sp, #120]
 4509 0772 0023     		movs	r3, #0
 4510 0774 0698     		ldr	r0, [sp, #24]
 4511 0776 0021     		movs	r1, #0
 4512 0778 FFF7FEFF 		bl	__aeabi_lmul
 4513              	.LVL754:
 4514 077c 3618     		adds	r6, r6, r0
 4515 077e 4F41     		adcs	r7, r7, r1
 4516 0780 1C9A     		ldr	r2, [sp, #112]
 4517 0782 0023     		movs	r3, #0
 4518 0784 0898     		ldr	r0, [sp, #32]
 4519 0786 0021     		movs	r1, #0
 4520 0788 FFF7FEFF 		bl	__aeabi_lmul
 4521              	.LVL755:
 4522 078c 3618     		adds	r6, r6, r0
 4523 078e 4F41     		adcs	r7, r7, r1
 4524 0790 1A9A     		ldr	r2, [sp, #104]
 4525 0792 0023     		movs	r3, #0
 4526 0794 0A98     		ldr	r0, [sp, #40]
 4527 0796 0021     		movs	r1, #0
 4528 0798 FFF7FEFF 		bl	__aeabi_lmul
 4529              	.LVL756:
 4530 079c 3618     		adds	r6, r6, r0
 4531 079e 4F41     		adcs	r7, r7, r1
 4532 07a0 189A     		ldr	r2, [sp, #96]
 4533 07a2 0023     		movs	r3, #0
 4534 07a4 0C98     		ldr	r0, [sp, #48]
 4535 07a6 0021     		movs	r1, #0
 4536 07a8 FFF7FEFF 		bl	__aeabi_lmul
 4537              	.LVL757:
 4538 07ac 3618     		adds	r6, r6, r0
 4539 07ae 4F41     		adcs	r7, r7, r1
 4540 07b0 169A     		ldr	r2, [sp, #88]
 4541 07b2 0023     		movs	r3, #0
 4542 07b4 0E98     		ldr	r0, [sp, #56]
 4543 07b6 0021     		movs	r1, #0
 4544 07b8 FFF7FEFF 		bl	__aeabi_lmul
 4545              	.LVL758:
 4546 07bc 3618     		adds	r6, r6, r0
 4547 07be 4F41     		adcs	r7, r7, r1
 4548 07c0 149A     		ldr	r2, [sp, #80]
 4549 07c2 0023     		movs	r3, #0
 4550 07c4 1098     		ldr	r0, [sp, #64]
 4551 07c6 0021     		movs	r1, #0
 4552 07c8 FFF7FEFF 		bl	__aeabi_lmul
 4553              	.LVL759:
 4554 07cc 3618     		adds	r6, r6, r0
 4555 07ce 4F41     		adcs	r7, r7, r1
 4556 07d0 2200     		movs	r2, r4
 4557 07d2 0023     		movs	r3, #0
 4558 07d4 4798     		ldr	r0, [sp, #284]
ARM GAS  C:\Users\NIGHDR~1\AppData\Local\Temp\ccvJ0Ig2.s 			page 89


 4559 07d6 1299     		ldr	r1, [sp, #72]
 4560 07d8 FFF7FEFF 		bl	__aeabi_lmul
 4561              	.LVL760:
 4562 07dc 3300     		movs	r3, r6
 4563 07de 3C00     		movs	r4, r7
 4564              	.LVL761:
 4565 07e0 1B18     		adds	r3, r3, r0
 4566 07e2 4C41     		adcs	r4, r4, r1
 4567 07e4 2A93     		str	r3, [sp, #168]
 4568 07e6 2B94     		str	r4, [sp, #172]
 4569              	.LVL762:
 459:sc.c          ****     s12 = a1 * b11 + a2 * b10 + a3 * b9 + a4 * b8 + a5 * b7 + a6 * b6 + a7 * b5 + a8 * b4 + a9 * b3
 4570              		.loc 1 459 0
 4571 07e8 2C9E     		ldr	r6, [sp, #176]
 4572 07ea 3200     		movs	r2, r6
 4573 07ec 289B     		ldr	r3, [sp, #160]
 4574              	.LVL763:
 4575 07ee 2800     		movs	r0, r5
 4576 07f0 0021     		movs	r1, #0
 4577 07f2 FFF7FEFF 		bl	__aeabi_lmul
 4578              	.LVL764:
 4579 07f6 0400     		movs	r4, r0
 4580 07f8 0D00     		movs	r5, r1
 4581              	.LVL765:
 4582 07fa 269A     		ldr	r2, [sp, #152]
 4583 07fc 0023     		movs	r3, #0
 4584 07fe 0098     		ldr	r0, [sp]
 4585 0800 0021     		movs	r1, #0
 4586 0802 FFF7FEFF 		bl	__aeabi_lmul
 4587              	.LVL766:
 4588 0806 2418     		adds	r4, r4, r0
 4589 0808 4D41     		adcs	r5, r5, r1
 4590 080a 249A     		ldr	r2, [sp, #144]
 4591 080c 0023     		movs	r3, #0
 4592 080e 0298     		ldr	r0, [sp, #8]
 4593 0810 0021     		movs	r1, #0
 4594 0812 FFF7FEFF 		bl	__aeabi_lmul
 4595              	.LVL767:
 4596 0816 2418     		adds	r4, r4, r0
 4597 0818 4D41     		adcs	r5, r5, r1
 4598 081a 229A     		ldr	r2, [sp, #136]
 4599 081c 0023     		movs	r3, #0
 4600 081e 0498     		ldr	r0, [sp, #16]
 4601 0820 0021     		movs	r1, #0
 4602 0822 FFF7FEFF 		bl	__aeabi_lmul
 4603              	.LVL768:
 4604 0826 2418     		adds	r4, r4, r0
 4605 0828 4D41     		adcs	r5, r5, r1
 4606 082a 209A     		ldr	r2, [sp, #128]
 4607 082c 0023     		movs	r3, #0
 4608 082e 0698     		ldr	r0, [sp, #24]
 4609 0830 0021     		movs	r1, #0
 4610 0832 FFF7FEFF 		bl	__aeabi_lmul
 4611              	.LVL769:
 4612 0836 2418     		adds	r4, r4, r0
 4613 0838 4D41     		adcs	r5, r5, r1
 4614 083a 1E9A     		ldr	r2, [sp, #120]
ARM GAS  C:\Users\NIGHDR~1\AppData\Local\Temp\ccvJ0Ig2.s 			page 90


 4615 083c 0023     		movs	r3, #0
 4616 083e 0898     		ldr	r0, [sp, #32]
 4617 0840 0021     		movs	r1, #0
 4618 0842 FFF7FEFF 		bl	__aeabi_lmul
 4619              	.LVL770:
 4620 0846 2418     		adds	r4, r4, r0
 4621 0848 4D41     		adcs	r5, r5, r1
 4622 084a 1C9A     		ldr	r2, [sp, #112]
 4623 084c 0023     		movs	r3, #0
 4624 084e 0A98     		ldr	r0, [sp, #40]
 4625 0850 0021     		movs	r1, #0
 4626 0852 FFF7FEFF 		bl	__aeabi_lmul
 4627              	.LVL771:
 4628 0856 2418     		adds	r4, r4, r0
 4629 0858 4D41     		adcs	r5, r5, r1
 4630 085a 1A9A     		ldr	r2, [sp, #104]
 4631 085c 0023     		movs	r3, #0
 4632 085e 0C98     		ldr	r0, [sp, #48]
 4633 0860 0021     		movs	r1, #0
 4634 0862 FFF7FEFF 		bl	__aeabi_lmul
 4635              	.LVL772:
 4636 0866 2418     		adds	r4, r4, r0
 4637 0868 4D41     		adcs	r5, r5, r1
 4638 086a 189A     		ldr	r2, [sp, #96]
 4639 086c 0023     		movs	r3, #0
 4640 086e 0E98     		ldr	r0, [sp, #56]
 4641 0870 0021     		movs	r1, #0
 4642 0872 FFF7FEFF 		bl	__aeabi_lmul
 4643              	.LVL773:
 4644 0876 2418     		adds	r4, r4, r0
 4645 0878 4D41     		adcs	r5, r5, r1
 4646 087a 169A     		ldr	r2, [sp, #88]
 4647 087c 0023     		movs	r3, #0
 4648 087e 1098     		ldr	r0, [sp, #64]
 4649 0880 0021     		movs	r1, #0
 4650 0882 FFF7FEFF 		bl	__aeabi_lmul
 4651              	.LVL774:
 4652 0886 2418     		adds	r4, r4, r0
 4653 0888 4D41     		adcs	r5, r5, r1
 4654 088a 149A     		ldr	r2, [sp, #80]
 4655 088c 0023     		movs	r3, #0
 4656 088e 479F     		ldr	r7, [sp, #284]
 4657 0890 3800     		movs	r0, r7
 4658 0892 1299     		ldr	r1, [sp, #72]
 4659 0894 FFF7FEFF 		bl	__aeabi_lmul
 4660              	.LVL775:
 4661 0898 2300     		movs	r3, r4
 4662 089a 2C00     		movs	r4, r5
 4663 089c 1B18     		adds	r3, r3, r0
 4664 089e 4C41     		adcs	r4, r4, r1
 4665 08a0 1493     		str	r3, [sp, #80]
 4666 08a2 1594     		str	r4, [sp, #84]
 4667              	.LVL776:
 460:sc.c          ****     s13 = a2 * b11 + a3 * b10 + a4 * b9 + a5 * b8 + a6 * b7 + a7 * b6 + a8 * b5 + a9 * b4 + a10 * b
 4668              		.loc 1 460 0
 4669 08a4 2C96     		str	r6, [sp, #176]
 4670              	.LVL777:
ARM GAS  C:\Users\NIGHDR~1\AppData\Local\Temp\ccvJ0Ig2.s 			page 91


 4671 08a6 3200     		movs	r2, r6
 4672 08a8 289B     		ldr	r3, [sp, #160]
 4673              	.LVL778:
 4674 08aa 0098     		ldr	r0, [sp]
 4675 08ac 0021     		movs	r1, #0
 4676 08ae FFF7FEFF 		bl	__aeabi_lmul
 4677              	.LVL779:
 4678 08b2 0400     		movs	r4, r0
 4679 08b4 0D00     		movs	r5, r1
 4680 08b6 269A     		ldr	r2, [sp, #152]
 4681 08b8 0023     		movs	r3, #0
 4682 08ba 0298     		ldr	r0, [sp, #8]
 4683 08bc 0021     		movs	r1, #0
 4684 08be FFF7FEFF 		bl	__aeabi_lmul
 4685              	.LVL780:
 4686 08c2 2418     		adds	r4, r4, r0
 4687 08c4 4D41     		adcs	r5, r5, r1
 4688 08c6 249A     		ldr	r2, [sp, #144]
 4689 08c8 0023     		movs	r3, #0
 4690 08ca 0498     		ldr	r0, [sp, #16]
 4691 08cc 0021     		movs	r1, #0
 4692 08ce FFF7FEFF 		bl	__aeabi_lmul
 4693              	.LVL781:
 4694 08d2 2418     		adds	r4, r4, r0
 4695 08d4 4D41     		adcs	r5, r5, r1
 4696 08d6 229A     		ldr	r2, [sp, #136]
 4697 08d8 0023     		movs	r3, #0
 4698 08da 0698     		ldr	r0, [sp, #24]
 4699 08dc 0021     		movs	r1, #0
 4700 08de FFF7FEFF 		bl	__aeabi_lmul
 4701              	.LVL782:
 4702 08e2 2418     		adds	r4, r4, r0
 4703 08e4 4D41     		adcs	r5, r5, r1
 4704 08e6 209A     		ldr	r2, [sp, #128]
 4705 08e8 0023     		movs	r3, #0
 4706 08ea 0898     		ldr	r0, [sp, #32]
 4707 08ec 0021     		movs	r1, #0
 4708 08ee FFF7FEFF 		bl	__aeabi_lmul
 4709              	.LVL783:
 4710 08f2 2418     		adds	r4, r4, r0
 4711 08f4 4D41     		adcs	r5, r5, r1
 4712 08f6 1E9A     		ldr	r2, [sp, #120]
 4713 08f8 0023     		movs	r3, #0
 4714 08fa 0A98     		ldr	r0, [sp, #40]
 4715 08fc 0021     		movs	r1, #0
 4716 08fe FFF7FEFF 		bl	__aeabi_lmul
 4717              	.LVL784:
 4718 0902 2418     		adds	r4, r4, r0
 4719 0904 4D41     		adcs	r5, r5, r1
 4720 0906 1C9A     		ldr	r2, [sp, #112]
 4721 0908 0023     		movs	r3, #0
 4722 090a 0C98     		ldr	r0, [sp, #48]
 4723 090c 0021     		movs	r1, #0
 4724 090e FFF7FEFF 		bl	__aeabi_lmul
 4725              	.LVL785:
 4726 0912 2418     		adds	r4, r4, r0
 4727 0914 4D41     		adcs	r5, r5, r1
ARM GAS  C:\Users\NIGHDR~1\AppData\Local\Temp\ccvJ0Ig2.s 			page 92


 4728 0916 1A9A     		ldr	r2, [sp, #104]
 4729 0918 0023     		movs	r3, #0
 4730 091a 0E98     		ldr	r0, [sp, #56]
 4731 091c 0021     		movs	r1, #0
 4732 091e FFF7FEFF 		bl	__aeabi_lmul
 4733              	.LVL786:
 4734 0922 2418     		adds	r4, r4, r0
 4735 0924 4D41     		adcs	r5, r5, r1
 4736 0926 189A     		ldr	r2, [sp, #96]
 4737 0928 0023     		movs	r3, #0
 4738 092a 1098     		ldr	r0, [sp, #64]
 4739 092c 0021     		movs	r1, #0
 4740 092e FFF7FEFF 		bl	__aeabi_lmul
 4741              	.LVL787:
 4742 0932 2418     		adds	r4, r4, r0
 4743 0934 4D41     		adcs	r5, r5, r1
 4744 0936 169A     		ldr	r2, [sp, #88]
 4745 0938 0023     		movs	r3, #0
 4746 093a 3800     		movs	r0, r7
 4747 093c 1299     		ldr	r1, [sp, #72]
 4748 093e FFF7FEFF 		bl	__aeabi_lmul
 4749              	.LVL788:
 4750 0942 2E00     		movs	r6, r5
 4751              	.LVL789:
 4752 0944 2500     		movs	r5, r4
 4753 0946 2D18     		adds	r5, r5, r0
 4754 0948 4E41     		adcs	r6, r6, r1
 4755 094a 1695     		str	r5, [sp, #88]
 4756 094c 1796     		str	r6, [sp, #92]
 4757              	.LVL790:
 461:sc.c          ****     s14 = a3 * b11 + a4 * b10 + a5 * b9 + a6 * b8 + a7 * b7 + a8 * b6 + a9 * b5 + a10 * b4 + a11 * 
 4758              		.loc 1 461 0
 4759 094e 2C9E     		ldr	r6, [sp, #176]
 4760 0950 3200     		movs	r2, r6
 4761 0952 289B     		ldr	r3, [sp, #160]
 4762 0954 0298     		ldr	r0, [sp, #8]
 4763 0956 0021     		movs	r1, #0
 4764 0958 FFF7FEFF 		bl	__aeabi_lmul
 4765              	.LVL791:
 4766 095c 0400     		movs	r4, r0
 4767 095e 0D00     		movs	r5, r1
 4768              	.LVL792:
 4769 0960 269A     		ldr	r2, [sp, #152]
 4770 0962 0023     		movs	r3, #0
 4771 0964 0498     		ldr	r0, [sp, #16]
 4772 0966 0021     		movs	r1, #0
 4773 0968 FFF7FEFF 		bl	__aeabi_lmul
 4774              	.LVL793:
 4775 096c 2418     		adds	r4, r4, r0
 4776 096e 4D41     		adcs	r5, r5, r1
 4777 0970 249A     		ldr	r2, [sp, #144]
 4778 0972 0023     		movs	r3, #0
 4779 0974 0698     		ldr	r0, [sp, #24]
 4780 0976 0021     		movs	r1, #0
 4781 0978 FFF7FEFF 		bl	__aeabi_lmul
 4782              	.LVL794:
 4783 097c 2418     		adds	r4, r4, r0
ARM GAS  C:\Users\NIGHDR~1\AppData\Local\Temp\ccvJ0Ig2.s 			page 93


 4784 097e 4D41     		adcs	r5, r5, r1
 4785 0980 229A     		ldr	r2, [sp, #136]
 4786 0982 0023     		movs	r3, #0
 4787 0984 0898     		ldr	r0, [sp, #32]
 4788 0986 0021     		movs	r1, #0
 4789 0988 FFF7FEFF 		bl	__aeabi_lmul
 4790              	.LVL795:
 4791 098c 2418     		adds	r4, r4, r0
 4792 098e 4D41     		adcs	r5, r5, r1
 4793 0990 209A     		ldr	r2, [sp, #128]
 4794 0992 0023     		movs	r3, #0
 4795 0994 0A98     		ldr	r0, [sp, #40]
 4796 0996 0021     		movs	r1, #0
 4797 0998 FFF7FEFF 		bl	__aeabi_lmul
 4798              	.LVL796:
 4799 099c 2418     		adds	r4, r4, r0
 4800 099e 4D41     		adcs	r5, r5, r1
 4801 09a0 1E9A     		ldr	r2, [sp, #120]
 4802 09a2 0023     		movs	r3, #0
 4803 09a4 0C98     		ldr	r0, [sp, #48]
 4804 09a6 0021     		movs	r1, #0
 4805 09a8 FFF7FEFF 		bl	__aeabi_lmul
 4806              	.LVL797:
 4807 09ac 2418     		adds	r4, r4, r0
 4808 09ae 4D41     		adcs	r5, r5, r1
 4809 09b0 1C9A     		ldr	r2, [sp, #112]
 4810 09b2 0023     		movs	r3, #0
 4811 09b4 0E98     		ldr	r0, [sp, #56]
 4812 09b6 0021     		movs	r1, #0
 4813 09b8 FFF7FEFF 		bl	__aeabi_lmul
 4814              	.LVL798:
 4815 09bc 2418     		adds	r4, r4, r0
 4816 09be 4D41     		adcs	r5, r5, r1
 4817 09c0 1A9A     		ldr	r2, [sp, #104]
 4818 09c2 0023     		movs	r3, #0
 4819 09c4 1098     		ldr	r0, [sp, #64]
 4820 09c6 0021     		movs	r1, #0
 4821 09c8 FFF7FEFF 		bl	__aeabi_lmul
 4822              	.LVL799:
 4823 09cc 2418     		adds	r4, r4, r0
 4824 09ce 4D41     		adcs	r5, r5, r1
 4825 09d0 189A     		ldr	r2, [sp, #96]
 4826 09d2 0023     		movs	r3, #0
 4827 09d4 3800     		movs	r0, r7
 4828 09d6 1299     		ldr	r1, [sp, #72]
 4829 09d8 FFF7FEFF 		bl	__aeabi_lmul
 4830              	.LVL800:
 4831 09dc 2300     		movs	r3, r4
 4832 09de 2C00     		movs	r4, r5
 4833 09e0 1B18     		adds	r3, r3, r0
 4834 09e2 4C41     		adcs	r4, r4, r1
 4835 09e4 0293     		str	r3, [sp, #8]
 4836 09e6 0394     		str	r4, [sp, #12]
 4837              	.LVL801:
 462:sc.c          ****     s15 = a4 * b11 + a5 * b10 + a6 * b9 + a7 * b8 + a8 * b7 + a9 * b6 + a10 * b5 + a11 * b4;
 4838              		.loc 1 462 0
 4839 09e8 3200     		movs	r2, r6
ARM GAS  C:\Users\NIGHDR~1\AppData\Local\Temp\ccvJ0Ig2.s 			page 94


 4840 09ea 289B     		ldr	r3, [sp, #160]
 4841              	.LVL802:
 4842 09ec 0498     		ldr	r0, [sp, #16]
 4843 09ee 0021     		movs	r1, #0
 4844 09f0 FFF7FEFF 		bl	__aeabi_lmul
 4845              	.LVL803:
 4846 09f4 0400     		movs	r4, r0
 4847 09f6 0D00     		movs	r5, r1
 4848 09f8 269A     		ldr	r2, [sp, #152]
 4849 09fa 0023     		movs	r3, #0
 4850 09fc 0698     		ldr	r0, [sp, #24]
 4851 09fe 0021     		movs	r1, #0
 4852 0a00 FFF7FEFF 		bl	__aeabi_lmul
 4853              	.LVL804:
 4854 0a04 2418     		adds	r4, r4, r0
 4855 0a06 4D41     		adcs	r5, r5, r1
 4856 0a08 249A     		ldr	r2, [sp, #144]
 4857 0a0a 0023     		movs	r3, #0
 4858 0a0c 0898     		ldr	r0, [sp, #32]
 4859 0a0e 0021     		movs	r1, #0
 4860 0a10 FFF7FEFF 		bl	__aeabi_lmul
 4861              	.LVL805:
 4862 0a14 2418     		adds	r4, r4, r0
 4863 0a16 4D41     		adcs	r5, r5, r1
 4864 0a18 229A     		ldr	r2, [sp, #136]
 4865 0a1a 0023     		movs	r3, #0
 4866 0a1c 0A98     		ldr	r0, [sp, #40]
 4867 0a1e 0021     		movs	r1, #0
 4868 0a20 FFF7FEFF 		bl	__aeabi_lmul
 4869              	.LVL806:
 4870 0a24 2418     		adds	r4, r4, r0
 4871 0a26 4D41     		adcs	r5, r5, r1
 4872 0a28 209A     		ldr	r2, [sp, #128]
 4873 0a2a 0023     		movs	r3, #0
 4874 0a2c 0C98     		ldr	r0, [sp, #48]
 4875 0a2e 0021     		movs	r1, #0
 4876 0a30 FFF7FEFF 		bl	__aeabi_lmul
 4877              	.LVL807:
 4878 0a34 2418     		adds	r4, r4, r0
 4879 0a36 4D41     		adcs	r5, r5, r1
 4880 0a38 1E9A     		ldr	r2, [sp, #120]
 4881 0a3a 0023     		movs	r3, #0
 4882 0a3c 0E98     		ldr	r0, [sp, #56]
 4883 0a3e 0021     		movs	r1, #0
 4884 0a40 FFF7FEFF 		bl	__aeabi_lmul
 4885              	.LVL808:
 4886 0a44 2418     		adds	r4, r4, r0
 4887 0a46 4D41     		adcs	r5, r5, r1
 4888 0a48 1C9A     		ldr	r2, [sp, #112]
 4889 0a4a 0023     		movs	r3, #0
 4890 0a4c 1098     		ldr	r0, [sp, #64]
 4891 0a4e 0021     		movs	r1, #0
 4892 0a50 FFF7FEFF 		bl	__aeabi_lmul
 4893              	.LVL809:
 4894 0a54 2418     		adds	r4, r4, r0
 4895 0a56 4D41     		adcs	r5, r5, r1
 4896 0a58 1A9A     		ldr	r2, [sp, #104]
ARM GAS  C:\Users\NIGHDR~1\AppData\Local\Temp\ccvJ0Ig2.s 			page 95


 4897 0a5a 0023     		movs	r3, #0
 4898 0a5c 3800     		movs	r0, r7
 4899 0a5e 1299     		ldr	r1, [sp, #72]
 4900 0a60 FFF7FEFF 		bl	__aeabi_lmul
 4901              	.LVL810:
 4902 0a64 2200     		movs	r2, r4
 4903 0a66 2B00     		movs	r3, r5
 4904 0a68 1218     		adds	r2, r2, r0
 4905 0a6a 4B41     		adcs	r3, r3, r1
 4906 0a6c 1892     		str	r2, [sp, #96]
 4907 0a6e 1993     		str	r3, [sp, #100]
 4908              	.LVL811:
 463:sc.c          ****     s16 = a5 * b11 + a6 * b10 + a7 * b9 + a8 * b8 + a9 * b7 + a10 * b6 + a11 * b5;
 4909              		.loc 1 463 0
 4910 0a70 2C96     		str	r6, [sp, #176]
 4911              	.LVL812:
 4912 0a72 3200     		movs	r2, r6
 4913              	.LVL813:
 4914 0a74 289B     		ldr	r3, [sp, #160]
 4915 0a76 0698     		ldr	r0, [sp, #24]
 4916 0a78 0021     		movs	r1, #0
 4917 0a7a FFF7FEFF 		bl	__aeabi_lmul
 4918              	.LVL814:
 4919 0a7e 0400     		movs	r4, r0
 4920 0a80 0D00     		movs	r5, r1
 4921 0a82 269A     		ldr	r2, [sp, #152]
 4922 0a84 0023     		movs	r3, #0
 4923 0a86 0898     		ldr	r0, [sp, #32]
 4924 0a88 0021     		movs	r1, #0
 4925 0a8a FFF7FEFF 		bl	__aeabi_lmul
 4926              	.LVL815:
 4927 0a8e 2418     		adds	r4, r4, r0
 4928 0a90 4D41     		adcs	r5, r5, r1
 4929 0a92 249A     		ldr	r2, [sp, #144]
 4930 0a94 0023     		movs	r3, #0
 4931 0a96 0A98     		ldr	r0, [sp, #40]
 4932 0a98 0021     		movs	r1, #0
 4933 0a9a FFF7FEFF 		bl	__aeabi_lmul
 4934              	.LVL816:
 4935 0a9e 2418     		adds	r4, r4, r0
 4936 0aa0 4D41     		adcs	r5, r5, r1
 4937 0aa2 229A     		ldr	r2, [sp, #136]
 4938 0aa4 0023     		movs	r3, #0
 4939 0aa6 0C98     		ldr	r0, [sp, #48]
 4940 0aa8 0021     		movs	r1, #0
 4941 0aaa FFF7FEFF 		bl	__aeabi_lmul
 4942              	.LVL817:
 4943 0aae 2418     		adds	r4, r4, r0
 4944 0ab0 4D41     		adcs	r5, r5, r1
 4945 0ab2 209A     		ldr	r2, [sp, #128]
 4946 0ab4 0023     		movs	r3, #0
 4947 0ab6 0E98     		ldr	r0, [sp, #56]
 4948 0ab8 0021     		movs	r1, #0
 4949 0aba FFF7FEFF 		bl	__aeabi_lmul
 4950              	.LVL818:
 4951 0abe 2418     		adds	r4, r4, r0
 4952 0ac0 4D41     		adcs	r5, r5, r1
ARM GAS  C:\Users\NIGHDR~1\AppData\Local\Temp\ccvJ0Ig2.s 			page 96


 4953 0ac2 1E9A     		ldr	r2, [sp, #120]
 4954 0ac4 0023     		movs	r3, #0
 4955 0ac6 1098     		ldr	r0, [sp, #64]
 4956 0ac8 0021     		movs	r1, #0
 4957 0aca FFF7FEFF 		bl	__aeabi_lmul
 4958              	.LVL819:
 4959 0ace 2418     		adds	r4, r4, r0
 4960 0ad0 4D41     		adcs	r5, r5, r1
 4961 0ad2 1C9A     		ldr	r2, [sp, #112]
 4962 0ad4 0023     		movs	r3, #0
 4963 0ad6 3800     		movs	r0, r7
 4964 0ad8 1299     		ldr	r1, [sp, #72]
 4965 0ada FFF7FEFF 		bl	__aeabi_lmul
 4966              	.LVL820:
 4967 0ade 2E00     		movs	r6, r5
 4968              	.LVL821:
 4969 0ae0 2500     		movs	r5, r4
 4970 0ae2 2D18     		adds	r5, r5, r0
 4971 0ae4 4E41     		adcs	r6, r6, r1
 4972 0ae6 0495     		str	r5, [sp, #16]
 4973 0ae8 0596     		str	r6, [sp, #20]
 4974              	.LVL822:
 464:sc.c          ****     s17 = a6 * b11 + a7 * b10 + a8 * b9 + a9 * b8 + a10 * b7 + a11 * b6;
 4975              		.loc 1 464 0
 4976 0aea 2C9E     		ldr	r6, [sp, #176]
 4977 0aec 3200     		movs	r2, r6
 4978 0aee 289B     		ldr	r3, [sp, #160]
 4979 0af0 0898     		ldr	r0, [sp, #32]
 4980 0af2 0021     		movs	r1, #0
 4981 0af4 FFF7FEFF 		bl	__aeabi_lmul
 4982              	.LVL823:
 4983 0af8 0400     		movs	r4, r0
 4984 0afa 0D00     		movs	r5, r1
 4985              	.LVL824:
 4986 0afc 269A     		ldr	r2, [sp, #152]
 4987 0afe 0023     		movs	r3, #0
 4988 0b00 0A98     		ldr	r0, [sp, #40]
 4989 0b02 0021     		movs	r1, #0
 4990 0b04 FFF7FEFF 		bl	__aeabi_lmul
 4991              	.LVL825:
 4992 0b08 2418     		adds	r4, r4, r0
 4993 0b0a 4D41     		adcs	r5, r5, r1
 4994 0b0c 249A     		ldr	r2, [sp, #144]
 4995 0b0e 0023     		movs	r3, #0
 4996 0b10 0C98     		ldr	r0, [sp, #48]
 4997 0b12 0021     		movs	r1, #0
 4998 0b14 FFF7FEFF 		bl	__aeabi_lmul
 4999              	.LVL826:
 5000 0b18 2418     		adds	r4, r4, r0
 5001 0b1a 4D41     		adcs	r5, r5, r1
 5002 0b1c 229A     		ldr	r2, [sp, #136]
 5003 0b1e 0023     		movs	r3, #0
 5004 0b20 0E98     		ldr	r0, [sp, #56]
 5005 0b22 0021     		movs	r1, #0
 5006 0b24 FFF7FEFF 		bl	__aeabi_lmul
 5007              	.LVL827:
 5008 0b28 2418     		adds	r4, r4, r0
ARM GAS  C:\Users\NIGHDR~1\AppData\Local\Temp\ccvJ0Ig2.s 			page 97


 5009 0b2a 4D41     		adcs	r5, r5, r1
 5010 0b2c 209A     		ldr	r2, [sp, #128]
 5011 0b2e 0023     		movs	r3, #0
 5012 0b30 1098     		ldr	r0, [sp, #64]
 5013 0b32 0021     		movs	r1, #0
 5014 0b34 FFF7FEFF 		bl	__aeabi_lmul
 5015              	.LVL828:
 5016 0b38 2418     		adds	r4, r4, r0
 5017 0b3a 4D41     		adcs	r5, r5, r1
 5018 0b3c 1E9A     		ldr	r2, [sp, #120]
 5019 0b3e 0023     		movs	r3, #0
 5020 0b40 3800     		movs	r0, r7
 5021 0b42 1299     		ldr	r1, [sp, #72]
 5022 0b44 FFF7FEFF 		bl	__aeabi_lmul
 5023              	.LVL829:
 5024 0b48 2300     		movs	r3, r4
 5025 0b4a 2C00     		movs	r4, r5
 5026 0b4c 1B18     		adds	r3, r3, r0
 5027 0b4e 4C41     		adcs	r4, r4, r1
 5028 0b50 1C93     		str	r3, [sp, #112]
 5029 0b52 1D94     		str	r4, [sp, #116]
 5030              	.LVL830:
 465:sc.c          ****     s18 = a7 * b11 + a8 * b10 + a9 * b9 + a10 * b8 + a11 * b7;
 5031              		.loc 1 465 0
 5032 0b54 3200     		movs	r2, r6
 5033 0b56 289B     		ldr	r3, [sp, #160]
 5034              	.LVL831:
 5035 0b58 0A98     		ldr	r0, [sp, #40]
 5036 0b5a 0021     		movs	r1, #0
 5037 0b5c FFF7FEFF 		bl	__aeabi_lmul
 5038              	.LVL832:
 5039 0b60 0400     		movs	r4, r0
 5040 0b62 0D00     		movs	r5, r1
 5041 0b64 269A     		ldr	r2, [sp, #152]
 5042 0b66 0023     		movs	r3, #0
 5043 0b68 0C98     		ldr	r0, [sp, #48]
 5044 0b6a 0021     		movs	r1, #0
 5045 0b6c FFF7FEFF 		bl	__aeabi_lmul
 5046              	.LVL833:
 5047 0b70 2418     		adds	r4, r4, r0
 5048 0b72 4D41     		adcs	r5, r5, r1
 5049 0b74 249A     		ldr	r2, [sp, #144]
 5050 0b76 0023     		movs	r3, #0
 5051 0b78 0E98     		ldr	r0, [sp, #56]
 5052 0b7a 0021     		movs	r1, #0
 5053 0b7c FFF7FEFF 		bl	__aeabi_lmul
 5054              	.LVL834:
 5055 0b80 2418     		adds	r4, r4, r0
 5056 0b82 4D41     		adcs	r5, r5, r1
 5057 0b84 229A     		ldr	r2, [sp, #136]
 5058 0b86 0023     		movs	r3, #0
 5059 0b88 1098     		ldr	r0, [sp, #64]
 5060 0b8a 0021     		movs	r1, #0
 5061 0b8c FFF7FEFF 		bl	__aeabi_lmul
 5062              	.LVL835:
 5063 0b90 2418     		adds	r4, r4, r0
 5064 0b92 4D41     		adcs	r5, r5, r1
ARM GAS  C:\Users\NIGHDR~1\AppData\Local\Temp\ccvJ0Ig2.s 			page 98


 5065 0b94 209A     		ldr	r2, [sp, #128]
 5066 0b96 0023     		movs	r3, #0
 5067 0b98 3800     		movs	r0, r7
 5068 0b9a 1299     		ldr	r1, [sp, #72]
 5069 0b9c FFF7FEFF 		bl	__aeabi_lmul
 5070              	.LVL836:
 5071 0ba0 2300     		movs	r3, r4
 5072 0ba2 2C00     		movs	r4, r5
 5073 0ba4 1B18     		adds	r3, r3, r0
 5074 0ba6 4C41     		adcs	r4, r4, r1
 5075 0ba8 0693     		str	r3, [sp, #24]
 5076 0baa 0794     		str	r4, [sp, #28]
 5077              	.LVL837:
 466:sc.c          ****     s19 = a8 * b11 + a9 * b10 + a10 * b9 + a11 * b8;
 5078              		.loc 1 466 0
 5079 0bac 3200     		movs	r2, r6
 5080 0bae 289B     		ldr	r3, [sp, #160]
 5081              	.LVL838:
 5082 0bb0 0C98     		ldr	r0, [sp, #48]
 5083 0bb2 0021     		movs	r1, #0
 5084 0bb4 FFF7FEFF 		bl	__aeabi_lmul
 5085              	.LVL839:
 5086 0bb8 0400     		movs	r4, r0
 5087 0bba 0D00     		movs	r5, r1
 5088 0bbc 269A     		ldr	r2, [sp, #152]
 5089 0bbe 0023     		movs	r3, #0
 5090 0bc0 0E98     		ldr	r0, [sp, #56]
 5091 0bc2 0021     		movs	r1, #0
 5092 0bc4 FFF7FEFF 		bl	__aeabi_lmul
 5093              	.LVL840:
 5094 0bc8 2418     		adds	r4, r4, r0
 5095 0bca 4D41     		adcs	r5, r5, r1
 5096 0bcc 249A     		ldr	r2, [sp, #144]
 5097 0bce 0023     		movs	r3, #0
 5098 0bd0 1098     		ldr	r0, [sp, #64]
 5099 0bd2 0021     		movs	r1, #0
 5100 0bd4 FFF7FEFF 		bl	__aeabi_lmul
 5101              	.LVL841:
 5102 0bd8 2418     		adds	r4, r4, r0
 5103 0bda 4D41     		adcs	r5, r5, r1
 5104 0bdc 229A     		ldr	r2, [sp, #136]
 5105 0bde 0023     		movs	r3, #0
 5106 0be0 3800     		movs	r0, r7
 5107 0be2 1299     		ldr	r1, [sp, #72]
 5108 0be4 FFF7FEFF 		bl	__aeabi_lmul
 5109              	.LVL842:
 5110 0be8 2200     		movs	r2, r4
 5111 0bea 2B00     		movs	r3, r5
 5112 0bec 1218     		adds	r2, r2, r0
 5113 0bee 4B41     		adcs	r3, r3, r1
 5114 0bf0 1E92     		str	r2, [sp, #120]
 5115 0bf2 1F93     		str	r3, [sp, #124]
 5116              	.LVL843:
 467:sc.c          ****     s20 = a9 * b11 + a10 * b10 + a11 * b9;
 5117              		.loc 1 467 0
 5118 0bf4 3200     		movs	r2, r6
 5119              	.LVL844:
ARM GAS  C:\Users\NIGHDR~1\AppData\Local\Temp\ccvJ0Ig2.s 			page 99


 5120 0bf6 289B     		ldr	r3, [sp, #160]
 5121 0bf8 0E98     		ldr	r0, [sp, #56]
 5122 0bfa 0021     		movs	r1, #0
 5123 0bfc FFF7FEFF 		bl	__aeabi_lmul
 5124              	.LVL845:
 5125 0c00 0400     		movs	r4, r0
 5126 0c02 0D00     		movs	r5, r1
 5127 0c04 269A     		ldr	r2, [sp, #152]
 5128 0c06 0023     		movs	r3, #0
 5129 0c08 1098     		ldr	r0, [sp, #64]
 5130 0c0a 0021     		movs	r1, #0
 5131 0c0c FFF7FEFF 		bl	__aeabi_lmul
 5132              	.LVL846:
 5133 0c10 2418     		adds	r4, r4, r0
 5134 0c12 4D41     		adcs	r5, r5, r1
 5135 0c14 249A     		ldr	r2, [sp, #144]
 5136 0c16 0023     		movs	r3, #0
 5137 0c18 3800     		movs	r0, r7
 5138 0c1a 1299     		ldr	r1, [sp, #72]
 5139 0c1c FFF7FEFF 		bl	__aeabi_lmul
 5140              	.LVL847:
 5141 0c20 2300     		movs	r3, r4
 5142 0c22 2C00     		movs	r4, r5
 5143 0c24 1B18     		adds	r3, r3, r0
 5144 0c26 4C41     		adcs	r4, r4, r1
 5145 0c28 0893     		str	r3, [sp, #32]
 5146 0c2a 0994     		str	r4, [sp, #36]
 5147              	.LVL848:
 468:sc.c          ****     s21 = a10 * b11 + a11 * b10;
 5148              		.loc 1 468 0
 5149 0c2c 3200     		movs	r2, r6
 5150 0c2e 289B     		ldr	r3, [sp, #160]
 5151              	.LVL849:
 5152 0c30 1098     		ldr	r0, [sp, #64]
 5153 0c32 0021     		movs	r1, #0
 5154 0c34 FFF7FEFF 		bl	__aeabi_lmul
 5155              	.LVL850:
 5156 0c38 0400     		movs	r4, r0
 5157 0c3a 0D00     		movs	r5, r1
 5158 0c3c 269A     		ldr	r2, [sp, #152]
 5159 0c3e 0023     		movs	r3, #0
 5160 0c40 3800     		movs	r0, r7
 5161 0c42 1299     		ldr	r1, [sp, #72]
 5162 0c44 FFF7FEFF 		bl	__aeabi_lmul
 5163              	.LVL851:
 5164 0c48 2200     		movs	r2, r4
 5165 0c4a 2B00     		movs	r3, r5
 5166 0c4c 1218     		adds	r2, r2, r0
 5167 0c4e 4B41     		adcs	r3, r3, r1
 5168 0c50 2092     		str	r2, [sp, #128]
 5169 0c52 2193     		str	r3, [sp, #132]
 5170              	.LVL852:
 469:sc.c          ****     s22 = a11 * b11;
 5171              		.loc 1 469 0
 5172 0c54 3200     		movs	r2, r6
 5173              	.LVL853:
 5174 0c56 289B     		ldr	r3, [sp, #160]
ARM GAS  C:\Users\NIGHDR~1\AppData\Local\Temp\ccvJ0Ig2.s 			page 100


 5175 0c58 3800     		movs	r0, r7
 5176 0c5a 1299     		ldr	r1, [sp, #72]
 5177 0c5c FFF7FEFF 		bl	__aeabi_lmul
 5178              	.LVL854:
 5179 0c60 1A90     		str	r0, [sp, #104]
 5180 0c62 1B91     		str	r1, [sp, #108]
 5181              	.LVL855:
 470:sc.c          ****     s23 = 0;
 471:sc.c          ****     carry0 = (s0 + (1 << 20)) >> 21;
 5182              		.loc 1 471 0
 5183 0c64 8022     		movs	r2, #128
 5184 0c66 5203     		lsls	r2, r2, #13
 5185 0c68 0023     		movs	r3, #0
 5186 0c6a 2E9D     		ldr	r5, [sp, #184]
 5187 0c6c 2F9E     		ldr	r6, [sp, #188]
 5188 0c6e AD18     		adds	r5, r5, r2
 5189 0c70 5E41     		adcs	r6, r6, r3
 5190 0c72 2C00     		movs	r4, r5
 5191 0c74 3500     		movs	r5, r6
 5192 0c76 F602     		lsls	r6, r6, #11
 5193 0c78 610D     		lsrs	r1, r4, #21
 5194 0c7a 3143     		orrs	r1, r6
 5195 0c7c 0091     		str	r1, [sp]
 5196              	.LVL856:
 5197 0c7e 6915     		asrs	r1, r5, #21
 5198 0c80 0191     		str	r1, [sp, #4]
 5199              	.LVL857:
 472:sc.c          ****     s1 += carry0;
 5200              		.loc 1 472 0
 5201 0c82 489D     		ldr	r5, [sp, #288]
 5202 0c84 499E     		ldr	r6, [sp, #292]
 5203 0c86 0098     		ldr	r0, [sp]
 5204 0c88 0199     		ldr	r1, [sp, #4]
 5205              	.LVL858:
 5206 0c8a 2D18     		adds	r5, r5, r0
 5207 0c8c 4E41     		adcs	r6, r6, r1
 5208 0c8e 3700     		movs	r7, r6
 5209 0c90 2E00     		movs	r6, r5
 5210              	.LVL859:
 473:sc.c          ****     s0 -= carry0 << 21;
 5211              		.loc 1 473 0
 5212 0c92 C50A     		lsrs	r5, r0, #11
 5213 0c94 AC46     		mov	ip, r5
 5214 0c96 4D05     		lsls	r5, r1, #21
 5215 0c98 6146     		mov	r1, ip
 5216 0c9a 0D43     		orrs	r5, r1
 5217 0c9c 0099     		ldr	r1, [sp]
 5218 0c9e 4C05     		lsls	r4, r1, #21
 5219 0ca0 2E98     		ldr	r0, [sp, #184]
 5220 0ca2 2F99     		ldr	r1, [sp, #188]
 5221 0ca4 001B     		subs	r0, r0, r4
 5222 0ca6 A941     		sbcs	r1, r1, r5
 5223 0ca8 2290     		str	r0, [sp, #136]
 5224 0caa 2391     		str	r1, [sp, #140]
 5225              	.LVL860:
 474:sc.c          ****     carry2 = (s2 + (1 << 20)) >> 21;
 5226              		.loc 1 474 0
ARM GAS  C:\Users\NIGHDR~1\AppData\Local\Temp\ccvJ0Ig2.s 			page 101


 5227 0cac 3098     		ldr	r0, [sp, #192]
 5228 0cae 3199     		ldr	r1, [sp, #196]
 5229              	.LVL861:
 5230 0cb0 8018     		adds	r0, r0, r2
 5231 0cb2 5941     		adcs	r1, r1, r3
 5232 0cb4 0400     		movs	r4, r0
 5233 0cb6 0D00     		movs	r5, r1
 5234 0cb8 C902     		lsls	r1, r1, #11
 5235 0cba 8C46     		mov	ip, r1
 5236 0cbc 2900     		movs	r1, r5
 5237 0cbe 640D     		lsrs	r4, r4, #21
 5238 0cc0 6546     		mov	r5, ip
 5239 0cc2 2C43     		orrs	r4, r5
 5240 0cc4 0094     		str	r4, [sp]
 5241              	.LVL862:
 5242 0cc6 4915     		asrs	r1, r1, #21
 5243 0cc8 0191     		str	r1, [sp, #4]
 5244              	.LVL863:
 475:sc.c          ****     s3 += carry2;
 5245              		.loc 1 475 0
 5246 0cca 4A9C     		ldr	r4, [sp, #296]
 5247 0ccc 4B9D     		ldr	r5, [sp, #300]
 5248 0cce 0098     		ldr	r0, [sp]
 5249 0cd0 0199     		ldr	r1, [sp, #4]
 5250 0cd2 2418     		adds	r4, r4, r0
 5251 0cd4 4D41     		adcs	r5, r5, r1
 5252 0cd6 0A94     		str	r4, [sp, #40]
 5253 0cd8 0B95     		str	r5, [sp, #44]
 5254              	.LVL864:
 476:sc.c          ****     s2 -= carry2 << 21;
 5255              		.loc 1 476 0
 5256 0cda C50A     		lsrs	r5, r0, #11
 5257 0cdc AC46     		mov	ip, r5
 5258 0cde 4D05     		lsls	r5, r1, #21
 5259 0ce0 6146     		mov	r1, ip
 5260 0ce2 0D43     		orrs	r5, r1
 5261 0ce4 0099     		ldr	r1, [sp]
 5262 0ce6 4C05     		lsls	r4, r1, #21
 5263              	.LVL865:
 5264 0ce8 3098     		ldr	r0, [sp, #192]
 5265 0cea 3199     		ldr	r1, [sp, #196]
 5266 0cec 001B     		subs	r0, r0, r4
 5267 0cee A941     		sbcs	r1, r1, r5
 5268 0cf0 2490     		str	r0, [sp, #144]
 5269 0cf2 2591     		str	r1, [sp, #148]
 5270              	.LVL866:
 477:sc.c          ****     carry4 = (s4 + (1 << 20)) >> 21;
 5271              		.loc 1 477 0
 5272 0cf4 3298     		ldr	r0, [sp, #200]
 5273 0cf6 3399     		ldr	r1, [sp, #204]
 5274              	.LVL867:
 5275 0cf8 8018     		adds	r0, r0, r2
 5276 0cfa 5941     		adcs	r1, r1, r3
 5277 0cfc 0400     		movs	r4, r0
 5278 0cfe 0D00     		movs	r5, r1
 5279 0d00 C902     		lsls	r1, r1, #11
 5280 0d02 8C46     		mov	ip, r1
ARM GAS  C:\Users\NIGHDR~1\AppData\Local\Temp\ccvJ0Ig2.s 			page 102


 5281 0d04 2900     		movs	r1, r5
 5282 0d06 640D     		lsrs	r4, r4, #21
 5283 0d08 6546     		mov	r5, ip
 5284 0d0a 2C43     		orrs	r4, r5
 5285 0d0c 0094     		str	r4, [sp]
 5286              	.LVL868:
 5287 0d0e 4915     		asrs	r1, r1, #21
 5288 0d10 0191     		str	r1, [sp, #4]
 5289              	.LVL869:
 478:sc.c          ****     s5 += carry4;
 5290              		.loc 1 478 0
 5291 0d12 4C9C     		ldr	r4, [sp, #304]
 5292 0d14 4D9D     		ldr	r5, [sp, #308]
 5293 0d16 0098     		ldr	r0, [sp]
 5294 0d18 0199     		ldr	r1, [sp, #4]
 5295 0d1a 2418     		adds	r4, r4, r0
 5296 0d1c 4D41     		adcs	r5, r5, r1
 5297 0d1e 0C94     		str	r4, [sp, #48]
 5298 0d20 0D95     		str	r5, [sp, #52]
 5299              	.LVL870:
 479:sc.c          ****     s4 -= carry4 << 21;
 5300              		.loc 1 479 0
 5301 0d22 C50A     		lsrs	r5, r0, #11
 5302 0d24 AC46     		mov	ip, r5
 5303 0d26 4D05     		lsls	r5, r1, #21
 5304 0d28 6146     		mov	r1, ip
 5305 0d2a 0D43     		orrs	r5, r1
 5306 0d2c 0099     		ldr	r1, [sp]
 5307 0d2e 4C05     		lsls	r4, r1, #21
 5308              	.LVL871:
 5309 0d30 3298     		ldr	r0, [sp, #200]
 5310 0d32 3399     		ldr	r1, [sp, #204]
 5311 0d34 001B     		subs	r0, r0, r4
 5312 0d36 A941     		sbcs	r1, r1, r5
 5313 0d38 2690     		str	r0, [sp, #152]
 5314 0d3a 2791     		str	r1, [sp, #156]
 5315              	.LVL872:
 480:sc.c          ****     carry6 = (s6 + (1 << 20)) >> 21;
 5316              		.loc 1 480 0
 5317 0d3c 3498     		ldr	r0, [sp, #208]
 5318 0d3e 3599     		ldr	r1, [sp, #212]
 5319              	.LVL873:
 5320 0d40 8018     		adds	r0, r0, r2
 5321 0d42 5941     		adcs	r1, r1, r3
 5322 0d44 0400     		movs	r4, r0
 5323 0d46 0D00     		movs	r5, r1
 5324 0d48 C902     		lsls	r1, r1, #11
 5325 0d4a 8C46     		mov	ip, r1
 5326 0d4c 2900     		movs	r1, r5
 5327 0d4e 640D     		lsrs	r4, r4, #21
 5328 0d50 6546     		mov	r5, ip
 5329 0d52 2C43     		orrs	r4, r5
 5330 0d54 0094     		str	r4, [sp]
 5331              	.LVL874:
 5332 0d56 4915     		asrs	r1, r1, #21
 5333 0d58 0191     		str	r1, [sp, #4]
 5334              	.LVL875:
ARM GAS  C:\Users\NIGHDR~1\AppData\Local\Temp\ccvJ0Ig2.s 			page 103


 481:sc.c          ****     s7 += carry6;
 5335              		.loc 1 481 0
 5336 0d5a 3A9C     		ldr	r4, [sp, #232]
 5337 0d5c 3B9D     		ldr	r5, [sp, #236]
 5338 0d5e 0098     		ldr	r0, [sp]
 5339 0d60 0199     		ldr	r1, [sp, #4]
 5340 0d62 2418     		adds	r4, r4, r0
 5341 0d64 4D41     		adcs	r5, r5, r1
 5342 0d66 0E94     		str	r4, [sp, #56]
 5343 0d68 0F95     		str	r5, [sp, #60]
 5344              	.LVL876:
 482:sc.c          ****     s6 -= carry6 << 21;
 5345              		.loc 1 482 0
 5346 0d6a C50A     		lsrs	r5, r0, #11
 5347 0d6c AC46     		mov	ip, r5
 5348 0d6e 4D05     		lsls	r5, r1, #21
 5349 0d70 6146     		mov	r1, ip
 5350 0d72 0D43     		orrs	r5, r1
 5351 0d74 0099     		ldr	r1, [sp]
 5352 0d76 4C05     		lsls	r4, r1, #21
 5353              	.LVL877:
 5354 0d78 3498     		ldr	r0, [sp, #208]
 5355 0d7a 3599     		ldr	r1, [sp, #212]
 5356 0d7c 001B     		subs	r0, r0, r4
 5357 0d7e A941     		sbcs	r1, r1, r5
 5358 0d80 2890     		str	r0, [sp, #160]
 5359 0d82 2991     		str	r1, [sp, #164]
 5360              	.LVL878:
 483:sc.c          ****     carry8 = (s8 + (1 << 20)) >> 21;
 5361              		.loc 1 483 0
 5362 0d84 3698     		ldr	r0, [sp, #216]
 5363 0d86 3799     		ldr	r1, [sp, #220]
 5364              	.LVL879:
 5365 0d88 8018     		adds	r0, r0, r2
 5366 0d8a 5941     		adcs	r1, r1, r3
 5367 0d8c 0400     		movs	r4, r0
 5368 0d8e 0D00     		movs	r5, r1
 5369 0d90 C902     		lsls	r1, r1, #11
 5370 0d92 8C46     		mov	ip, r1
 5371 0d94 2900     		movs	r1, r5
 5372 0d96 640D     		lsrs	r4, r4, #21
 5373 0d98 6546     		mov	r5, ip
 5374 0d9a 2C43     		orrs	r4, r5
 5375 0d9c 0094     		str	r4, [sp]
 5376              	.LVL880:
 5377 0d9e 4915     		asrs	r1, r1, #21
 5378 0da0 0191     		str	r1, [sp, #4]
 5379              	.LVL881:
 484:sc.c          ****     s9 += carry8;
 5380              		.loc 1 484 0
 5381 0da2 3C9C     		ldr	r4, [sp, #240]
 5382 0da4 3D9D     		ldr	r5, [sp, #244]
 5383 0da6 0098     		ldr	r0, [sp]
 5384 0da8 0199     		ldr	r1, [sp, #4]
 5385 0daa 2418     		adds	r4, r4, r0
 5386 0dac 4D41     		adcs	r5, r5, r1
 5387 0dae 1094     		str	r4, [sp, #64]
ARM GAS  C:\Users\NIGHDR~1\AppData\Local\Temp\ccvJ0Ig2.s 			page 104


 5388 0db0 1195     		str	r5, [sp, #68]
 5389              	.LVL882:
 485:sc.c          ****     s8 -= carry8 << 21;
 5390              		.loc 1 485 0
 5391 0db2 C50A     		lsrs	r5, r0, #11
 5392 0db4 AC46     		mov	ip, r5
 5393 0db6 4D05     		lsls	r5, r1, #21
 5394 0db8 6146     		mov	r1, ip
 5395 0dba 0D43     		orrs	r5, r1
 5396 0dbc 0099     		ldr	r1, [sp]
 5397 0dbe 4C05     		lsls	r4, r1, #21
 5398              	.LVL883:
 5399 0dc0 3698     		ldr	r0, [sp, #216]
 5400 0dc2 3799     		ldr	r1, [sp, #220]
 5401 0dc4 001B     		subs	r0, r0, r4
 5402 0dc6 A941     		sbcs	r1, r1, r5
 5403 0dc8 2C90     		str	r0, [sp, #176]
 5404 0dca 2D91     		str	r1, [sp, #180]
 5405              	.LVL884:
 486:sc.c          ****     carry10 = (s10 + (1 << 20)) >> 21;
 5406              		.loc 1 486 0
 5407 0dcc 3898     		ldr	r0, [sp, #224]
 5408 0dce 3999     		ldr	r1, [sp, #228]
 5409              	.LVL885:
 5410 0dd0 8018     		adds	r0, r0, r2
 5411 0dd2 5941     		adcs	r1, r1, r3
 5412 0dd4 0400     		movs	r4, r0
 5413 0dd6 0D00     		movs	r5, r1
 5414 0dd8 C902     		lsls	r1, r1, #11
 5415 0dda 8C46     		mov	ip, r1
 5416 0ddc 2900     		movs	r1, r5
 5417 0dde 640D     		lsrs	r4, r4, #21
 5418 0de0 6546     		mov	r5, ip
 5419 0de2 2C43     		orrs	r4, r5
 5420 0de4 0094     		str	r4, [sp]
 5421              	.LVL886:
 5422 0de6 4915     		asrs	r1, r1, #21
 5423 0de8 0191     		str	r1, [sp, #4]
 5424              	.LVL887:
 487:sc.c          ****     s11 += carry10;
 5425              		.loc 1 487 0
 5426 0dea 2A9C     		ldr	r4, [sp, #168]
 5427 0dec 2B9D     		ldr	r5, [sp, #172]
 5428 0dee 0098     		ldr	r0, [sp]
 5429 0df0 0199     		ldr	r1, [sp, #4]
 5430 0df2 2418     		adds	r4, r4, r0
 5431 0df4 4D41     		adcs	r5, r5, r1
 5432 0df6 1294     		str	r4, [sp, #72]
 5433 0df8 1395     		str	r5, [sp, #76]
 5434              	.LVL888:
 488:sc.c          ****     s10 -= carry10 << 21;
 5435              		.loc 1 488 0
 5436 0dfa C50A     		lsrs	r5, r0, #11
 5437 0dfc AC46     		mov	ip, r5
 5438 0dfe 4D05     		lsls	r5, r1, #21
 5439 0e00 6146     		mov	r1, ip
 5440 0e02 0D43     		orrs	r5, r1
ARM GAS  C:\Users\NIGHDR~1\AppData\Local\Temp\ccvJ0Ig2.s 			page 105


 5441 0e04 0099     		ldr	r1, [sp]
 5442 0e06 4C05     		lsls	r4, r1, #21
 5443              	.LVL889:
 5444 0e08 3898     		ldr	r0, [sp, #224]
 5445 0e0a 3999     		ldr	r1, [sp, #228]
 5446 0e0c 001B     		subs	r0, r0, r4
 5447 0e0e A941     		sbcs	r1, r1, r5
 5448 0e10 2A90     		str	r0, [sp, #168]
 5449 0e12 2B91     		str	r1, [sp, #172]
 5450              	.LVL890:
 489:sc.c          ****     carry12 = (s12 + (1 << 20)) >> 21;
 5451              		.loc 1 489 0
 5452 0e14 149C     		ldr	r4, [sp, #80]
 5453 0e16 159D     		ldr	r5, [sp, #84]
 5454 0e18 A418     		adds	r4, r4, r2
 5455 0e1a 5D41     		adcs	r5, r5, r3
 5456 0e1c E902     		lsls	r1, r5, #11
 5457 0e1e 8C46     		mov	ip, r1
 5458 0e20 2900     		movs	r1, r5
 5459 0e22 640D     		lsrs	r4, r4, #21
 5460 0e24 6546     		mov	r5, ip
 5461 0e26 2C43     		orrs	r4, r5
 5462 0e28 0094     		str	r4, [sp]
 5463              	.LVL891:
 5464 0e2a 4915     		asrs	r1, r1, #21
 5465 0e2c 0191     		str	r1, [sp, #4]
 5466              	.LVL892:
 490:sc.c          ****     s13 += carry12;
 5467              		.loc 1 490 0
 5468 0e2e 169C     		ldr	r4, [sp, #88]
 5469 0e30 179D     		ldr	r5, [sp, #92]
 5470 0e32 0098     		ldr	r0, [sp]
 5471 0e34 0199     		ldr	r1, [sp, #4]
 5472              	.LVL893:
 5473 0e36 2418     		adds	r4, r4, r0
 5474 0e38 4D41     		adcs	r5, r5, r1
 5475 0e3a 1694     		str	r4, [sp, #88]
 5476 0e3c 1795     		str	r5, [sp, #92]
 5477              	.LVL894:
 491:sc.c          ****     s12 -= carry12 << 21;
 5478              		.loc 1 491 0
 5479 0e3e C50A     		lsrs	r5, r0, #11
 5480 0e40 AC46     		mov	ip, r5
 5481 0e42 4D05     		lsls	r5, r1, #21
 5482 0e44 6146     		mov	r1, ip
 5483 0e46 0D43     		orrs	r5, r1
 5484 0e48 0099     		ldr	r1, [sp]
 5485 0e4a 4C05     		lsls	r4, r1, #21
 5486              	.LVL895:
 5487 0e4c 1498     		ldr	r0, [sp, #80]
 5488 0e4e 1599     		ldr	r1, [sp, #84]
 5489 0e50 001B     		subs	r0, r0, r4
 5490 0e52 A941     		sbcs	r1, r1, r5
 5491 0e54 2E90     		str	r0, [sp, #184]
 5492 0e56 2F91     		str	r1, [sp, #188]
 5493              	.LVL896:
 492:sc.c          ****     carry14 = (s14 + (1 << 20)) >> 21;
ARM GAS  C:\Users\NIGHDR~1\AppData\Local\Temp\ccvJ0Ig2.s 			page 106


 5494              		.loc 1 492 0
 5495 0e58 029C     		ldr	r4, [sp, #8]
 5496 0e5a 039D     		ldr	r5, [sp, #12]
 5497 0e5c A418     		adds	r4, r4, r2
 5498 0e5e 5D41     		adcs	r5, r5, r3
 5499 0e60 E902     		lsls	r1, r5, #11
 5500 0e62 8C46     		mov	ip, r1
 5501 0e64 2900     		movs	r1, r5
 5502 0e66 640D     		lsrs	r4, r4, #21
 5503 0e68 6546     		mov	r5, ip
 5504 0e6a 2C43     		orrs	r4, r5
 5505 0e6c 0094     		str	r4, [sp]
 5506              	.LVL897:
 5507 0e6e 4915     		asrs	r1, r1, #21
 5508 0e70 0191     		str	r1, [sp, #4]
 5509              	.LVL898:
 493:sc.c          ****     s15 += carry14;
 5510              		.loc 1 493 0
 5511 0e72 189C     		ldr	r4, [sp, #96]
 5512 0e74 199D     		ldr	r5, [sp, #100]
 5513 0e76 0098     		ldr	r0, [sp]
 5514 0e78 0199     		ldr	r1, [sp, #4]
 5515              	.LVL899:
 5516 0e7a 2418     		adds	r4, r4, r0
 5517 0e7c 4D41     		adcs	r5, r5, r1
 5518 0e7e 1494     		str	r4, [sp, #80]
 5519 0e80 1595     		str	r5, [sp, #84]
 5520              	.LVL900:
 494:sc.c          ****     s14 -= carry14 << 21;
 5521              		.loc 1 494 0
 5522 0e82 C50A     		lsrs	r5, r0, #11
 5523 0e84 AC46     		mov	ip, r5
 5524 0e86 4D05     		lsls	r5, r1, #21
 5525 0e88 6146     		mov	r1, ip
 5526 0e8a 0D43     		orrs	r5, r1
 5527 0e8c 0099     		ldr	r1, [sp]
 5528 0e8e 4C05     		lsls	r4, r1, #21
 5529              	.LVL901:
 5530 0e90 0298     		ldr	r0, [sp, #8]
 5531 0e92 0399     		ldr	r1, [sp, #12]
 5532 0e94 001B     		subs	r0, r0, r4
 5533 0e96 A941     		sbcs	r1, r1, r5
 5534 0e98 3090     		str	r0, [sp, #192]
 5535 0e9a 3191     		str	r1, [sp, #196]
 5536              	.LVL902:
 495:sc.c          ****     carry16 = (s16 + (1 << 20)) >> 21;
 5537              		.loc 1 495 0
 5538 0e9c 049C     		ldr	r4, [sp, #16]
 5539 0e9e 059D     		ldr	r5, [sp, #20]
 5540 0ea0 A418     		adds	r4, r4, r2
 5541 0ea2 5D41     		adcs	r5, r5, r3
 5542 0ea4 E902     		lsls	r1, r5, #11
 5543 0ea6 8C46     		mov	ip, r1
 5544 0ea8 2900     		movs	r1, r5
 5545 0eaa 640D     		lsrs	r4, r4, #21
 5546 0eac 6546     		mov	r5, ip
 5547 0eae 2C43     		orrs	r4, r5
ARM GAS  C:\Users\NIGHDR~1\AppData\Local\Temp\ccvJ0Ig2.s 			page 107


 5548 0eb0 0094     		str	r4, [sp]
 5549              	.LVL903:
 5550 0eb2 4915     		asrs	r1, r1, #21
 5551 0eb4 0191     		str	r1, [sp, #4]
 5552              	.LVL904:
 496:sc.c          ****     s17 += carry16;
 5553              		.loc 1 496 0
 5554 0eb6 1C9C     		ldr	r4, [sp, #112]
 5555 0eb8 1D9D     		ldr	r5, [sp, #116]
 5556 0eba 0098     		ldr	r0, [sp]
 5557 0ebc 0199     		ldr	r1, [sp, #4]
 5558              	.LVL905:
 5559 0ebe 2418     		adds	r4, r4, r0
 5560 0ec0 4D41     		adcs	r5, r5, r1
 5561 0ec2 0294     		str	r4, [sp, #8]
 5562 0ec4 0395     		str	r5, [sp, #12]
 5563              	.LVL906:
 497:sc.c          ****     s16 -= carry16 << 21;
 5564              		.loc 1 497 0
 5565 0ec6 C50A     		lsrs	r5, r0, #11
 5566 0ec8 AC46     		mov	ip, r5
 5567 0eca 4D05     		lsls	r5, r1, #21
 5568 0ecc 6146     		mov	r1, ip
 5569 0ece 0D43     		orrs	r5, r1
 5570 0ed0 0099     		ldr	r1, [sp]
 5571 0ed2 4C05     		lsls	r4, r1, #21
 5572              	.LVL907:
 5573 0ed4 0498     		ldr	r0, [sp, #16]
 5574 0ed6 0599     		ldr	r1, [sp, #20]
 5575 0ed8 001B     		subs	r0, r0, r4
 5576 0eda A941     		sbcs	r1, r1, r5
 5577 0edc 1C90     		str	r0, [sp, #112]
 5578 0ede 1D91     		str	r1, [sp, #116]
 5579              	.LVL908:
 498:sc.c          ****     carry18 = (s18 + (1 << 20)) >> 21;
 5580              		.loc 1 498 0
 5581 0ee0 0698     		ldr	r0, [sp, #24]
 5582 0ee2 0799     		ldr	r1, [sp, #28]
 5583              	.LVL909:
 5584 0ee4 8018     		adds	r0, r0, r2
 5585 0ee6 5941     		adcs	r1, r1, r3
 5586 0ee8 0400     		movs	r4, r0
 5587 0eea 0D00     		movs	r5, r1
 5588 0eec C902     		lsls	r1, r1, #11
 5589 0eee 8C46     		mov	ip, r1
 5590 0ef0 2900     		movs	r1, r5
 5591 0ef2 640D     		lsrs	r4, r4, #21
 5592 0ef4 6546     		mov	r5, ip
 5593 0ef6 2C43     		orrs	r4, r5
 5594 0ef8 0094     		str	r4, [sp]
 5595              	.LVL910:
 5596 0efa 4915     		asrs	r1, r1, #21
 5597 0efc 0191     		str	r1, [sp, #4]
 5598              	.LVL911:
 499:sc.c          ****     s19 += carry18;
 5599              		.loc 1 499 0
 5600 0efe 1E9C     		ldr	r4, [sp, #120]
ARM GAS  C:\Users\NIGHDR~1\AppData\Local\Temp\ccvJ0Ig2.s 			page 108


 5601 0f00 1F9D     		ldr	r5, [sp, #124]
 5602 0f02 0098     		ldr	r0, [sp]
 5603 0f04 0199     		ldr	r1, [sp, #4]
 5604 0f06 2418     		adds	r4, r4, r0
 5605 0f08 4D41     		adcs	r5, r5, r1
 5606 0f0a 0494     		str	r4, [sp, #16]
 5607 0f0c 0595     		str	r5, [sp, #20]
 5608              	.LVL912:
 500:sc.c          ****     s18 -= carry18 << 21;
 5609              		.loc 1 500 0
 5610 0f0e C50A     		lsrs	r5, r0, #11
 5611 0f10 AC46     		mov	ip, r5
 5612 0f12 4D05     		lsls	r5, r1, #21
 5613 0f14 6146     		mov	r1, ip
 5614 0f16 0D43     		orrs	r5, r1
 5615 0f18 0099     		ldr	r1, [sp]
 5616 0f1a 4C05     		lsls	r4, r1, #21
 5617              	.LVL913:
 5618 0f1c 0698     		ldr	r0, [sp, #24]
 5619 0f1e 0799     		ldr	r1, [sp, #28]
 5620 0f20 001B     		subs	r0, r0, r4
 5621 0f22 A941     		sbcs	r1, r1, r5
 5622 0f24 0690     		str	r0, [sp, #24]
 5623 0f26 0791     		str	r1, [sp, #28]
 5624              	.LVL914:
 501:sc.c          ****     carry20 = (s20 + (1 << 20)) >> 21;
 5625              		.loc 1 501 0
 5626 0f28 0898     		ldr	r0, [sp, #32]
 5627 0f2a 0999     		ldr	r1, [sp, #36]
 5628              	.LVL915:
 5629 0f2c 8018     		adds	r0, r0, r2
 5630 0f2e 5941     		adcs	r1, r1, r3
 5631 0f30 0400     		movs	r4, r0
 5632 0f32 0D00     		movs	r5, r1
 5633 0f34 C902     		lsls	r1, r1, #11
 5634 0f36 8C46     		mov	ip, r1
 5635 0f38 2900     		movs	r1, r5
 5636 0f3a 640D     		lsrs	r4, r4, #21
 5637 0f3c 6546     		mov	r5, ip
 5638 0f3e 2C43     		orrs	r4, r5
 5639 0f40 0094     		str	r4, [sp]
 5640              	.LVL916:
 5641 0f42 4915     		asrs	r1, r1, #21
 5642 0f44 0191     		str	r1, [sp, #4]
 5643              	.LVL917:
 502:sc.c          ****     s21 += carry20;
 5644              		.loc 1 502 0
 5645 0f46 209C     		ldr	r4, [sp, #128]
 5646 0f48 219D     		ldr	r5, [sp, #132]
 5647 0f4a 0098     		ldr	r0, [sp]
 5648 0f4c 0199     		ldr	r1, [sp, #4]
 5649 0f4e 2418     		adds	r4, r4, r0
 5650 0f50 4D41     		adcs	r5, r5, r1
 5651 0f52 1894     		str	r4, [sp, #96]
 5652 0f54 1995     		str	r5, [sp, #100]
 5653              	.LVL918:
 503:sc.c          ****     s20 -= carry20 << 21;
ARM GAS  C:\Users\NIGHDR~1\AppData\Local\Temp\ccvJ0Ig2.s 			page 109


 5654              		.loc 1 503 0
 5655 0f56 C50A     		lsrs	r5, r0, #11
 5656 0f58 AC46     		mov	ip, r5
 5657 0f5a 4D05     		lsls	r5, r1, #21
 5658 0f5c 6146     		mov	r1, ip
 5659 0f5e 0D43     		orrs	r5, r1
 5660 0f60 0099     		ldr	r1, [sp]
 5661 0f62 4C05     		lsls	r4, r1, #21
 5662              	.LVL919:
 5663 0f64 0898     		ldr	r0, [sp, #32]
 5664 0f66 0999     		ldr	r1, [sp, #36]
 5665 0f68 001B     		subs	r0, r0, r4
 5666 0f6a A941     		sbcs	r1, r1, r5
 5667 0f6c 1E90     		str	r0, [sp, #120]
 5668 0f6e 1F91     		str	r1, [sp, #124]
 5669              	.LVL920:
 504:sc.c          ****     carry22 = (s22 + (1 << 20)) >> 21;
 5670              		.loc 1 504 0
 5671 0f70 1A98     		ldr	r0, [sp, #104]
 5672 0f72 1B99     		ldr	r1, [sp, #108]
 5673              	.LVL921:
 5674 0f74 8018     		adds	r0, r0, r2
 5675 0f76 5941     		adcs	r1, r1, r3
 5676 0f78 CC02     		lsls	r4, r1, #11
 5677 0f7a 450D     		lsrs	r5, r0, #21
 5678 0f7c 2543     		orrs	r5, r4
 5679 0f7e A946     		mov	r9, r5
 5680 0f80 4915     		asrs	r1, r1, #21
 5681 0f82 0D00     		movs	r5, r1
 5682              	.LVL922:
 505:sc.c          ****     s23 += carry22;
 506:sc.c          ****     s22 -= carry22 << 21;
 5683              		.loc 1 506 0
 5684 0f84 4946     		mov	r1, r9
 5685              	.LVL923:
 5686 0f86 CC0A     		lsrs	r4, r1, #11
 5687 0f88 0895     		str	r5, [sp, #32]
 5688 0f8a 6905     		lsls	r1, r5, #21
 5689 0f8c 2143     		orrs	r1, r4
 5690 0f8e 4D46     		mov	r5, r9
 5691              	.LVL924:
 5692 0f90 6805     		lsls	r0, r5, #21
 5693 0f92 1A9C     		ldr	r4, [sp, #104]
 5694 0f94 1B9D     		ldr	r5, [sp, #108]
 5695 0f96 241A     		subs	r4, r4, r0
 5696 0f98 8D41     		sbcs	r5, r5, r1
 5697 0f9a 1A94     		str	r4, [sp, #104]
 5698 0f9c 1B95     		str	r5, [sp, #108]
 5699              	.LVL925:
 507:sc.c          ****     carry1 = (s1 + (1 << 20)) >> 21;
 5700              		.loc 1 507 0
 5701 0f9e 3400     		movs	r4, r6
 5702              	.LVL926:
 5703 0fa0 3D00     		movs	r5, r7
 5704 0fa2 A418     		adds	r4, r4, r2
 5705 0fa4 5D41     		adcs	r5, r5, r3
 5706 0fa6 E902     		lsls	r1, r5, #11
ARM GAS  C:\Users\NIGHDR~1\AppData\Local\Temp\ccvJ0Ig2.s 			page 110


 5707 0fa8 8C46     		mov	ip, r1
 5708 0faa 2900     		movs	r1, r5
 5709 0fac 640D     		lsrs	r4, r4, #21
 5710 0fae 6546     		mov	r5, ip
 5711 0fb0 2C43     		orrs	r4, r5
 5712 0fb2 0094     		str	r4, [sp]
 5713              	.LVL927:
 5714 0fb4 4915     		asrs	r1, r1, #21
 5715 0fb6 0191     		str	r1, [sp, #4]
 5716              	.LVL928:
 508:sc.c          ****     s2 += carry1;
 5717              		.loc 1 508 0
 5718 0fb8 249C     		ldr	r4, [sp, #144]
 5719 0fba 259D     		ldr	r5, [sp, #148]
 5720 0fbc 0098     		ldr	r0, [sp]
 5721 0fbe 0199     		ldr	r1, [sp, #4]
 5722 0fc0 2418     		adds	r4, r4, r0
 5723 0fc2 4D41     		adcs	r5, r5, r1
 5724 0fc4 2094     		str	r4, [sp, #128]
 5725 0fc6 2195     		str	r5, [sp, #132]
 5726              	.LVL929:
 509:sc.c          ****     s1 -= carry1 << 21;
 5727              		.loc 1 509 0
 5728 0fc8 C50A     		lsrs	r5, r0, #11
 5729 0fca AC46     		mov	ip, r5
 5730 0fcc 4D05     		lsls	r5, r1, #21
 5731 0fce 6146     		mov	r1, ip
 5732 0fd0 0D43     		orrs	r5, r1
 5733 0fd2 0099     		ldr	r1, [sp]
 5734 0fd4 4C05     		lsls	r4, r1, #21
 5735              	.LVL930:
 5736 0fd6 361B     		subs	r6, r6, r4
 5737 0fd8 AF41     		sbcs	r7, r7, r5
 5738              	.LVL931:
 5739 0fda 2496     		str	r6, [sp, #144]
 5740 0fdc 2597     		str	r7, [sp, #148]
 5741              	.LVL932:
 510:sc.c          ****     carry3 = (s3 + (1 << 20)) >> 21;
 5742              		.loc 1 510 0
 5743 0fde 0A9E     		ldr	r6, [sp, #40]
 5744 0fe0 0B9F     		ldr	r7, [sp, #44]
 5745              	.LVL933:
 5746 0fe2 B618     		adds	r6, r6, r2
 5747 0fe4 5F41     		adcs	r7, r7, r3
 5748 0fe6 3400     		movs	r4, r6
 5749 0fe8 FE02     		lsls	r6, r7, #11
 5750 0fea 600D     		lsrs	r0, r4, #21
 5751 0fec 3043     		orrs	r0, r6
 5752 0fee 7915     		asrs	r1, r7, #21
 5753              	.LVL934:
 511:sc.c          ****     s4 += carry3;
 5754              		.loc 1 511 0
 5755 0ff0 269D     		ldr	r5, [sp, #152]
 5756 0ff2 279E     		ldr	r6, [sp, #156]
 5757 0ff4 2D18     		adds	r5, r5, r0
 5758 0ff6 4E41     		adcs	r6, r6, r1
 5759 0ff8 2695     		str	r5, [sp, #152]
ARM GAS  C:\Users\NIGHDR~1\AppData\Local\Temp\ccvJ0Ig2.s 			page 111


 5760 0ffa 2796     		str	r6, [sp, #156]
 5761              	.LVL935:
 512:sc.c          ****     s3 -= carry3 << 21;
 5762              		.loc 1 512 0
 5763 0ffc C60A     		lsrs	r6, r0, #11
 5764 0ffe 4D05     		lsls	r5, r1, #21
 5765              	.LVL936:
 5766 1000 3543     		orrs	r5, r6
 5767 1002 4405     		lsls	r4, r0, #21
 5768 1004 0A9E     		ldr	r6, [sp, #40]
 5769 1006 0B9F     		ldr	r7, [sp, #44]
 5770 1008 361B     		subs	r6, r6, r4
 5771 100a AF41     		sbcs	r7, r7, r5
 5772 100c 3296     		str	r6, [sp, #200]
 5773 100e 3397     		str	r7, [sp, #204]
 5774              	.LVL937:
 513:sc.c          ****     carry5 = (s5 + (1 << 20)) >> 21;
 5775              		.loc 1 513 0
 5776 1010 0C9E     		ldr	r6, [sp, #48]
 5777 1012 0D9F     		ldr	r7, [sp, #52]
 5778              	.LVL938:
 5779 1014 B618     		adds	r6, r6, r2
 5780 1016 5F41     		adcs	r7, r7, r3
 5781 1018 3400     		movs	r4, r6
 5782 101a FE02     		lsls	r6, r7, #11
 5783 101c 600D     		lsrs	r0, r4, #21
 5784              	.LVL939:
 5785 101e 3043     		orrs	r0, r6
 5786 1020 7915     		asrs	r1, r7, #21
 5787              	.LVL940:
 514:sc.c          ****     s6 += carry5;
 5788              		.loc 1 514 0
 5789 1022 289D     		ldr	r5, [sp, #160]
 5790 1024 299E     		ldr	r6, [sp, #164]
 5791 1026 2D18     		adds	r5, r5, r0
 5792 1028 4E41     		adcs	r6, r6, r1
 5793 102a 0A95     		str	r5, [sp, #40]
 5794 102c 0B96     		str	r6, [sp, #44]
 5795              	.LVL941:
 515:sc.c          ****     s5 -= carry5 << 21;
 5796              		.loc 1 515 0
 5797 102e C60A     		lsrs	r6, r0, #11
 5798 1030 4D05     		lsls	r5, r1, #21
 5799              	.LVL942:
 5800 1032 3543     		orrs	r5, r6
 5801 1034 4405     		lsls	r4, r0, #21
 5802 1036 0C9E     		ldr	r6, [sp, #48]
 5803 1038 0D9F     		ldr	r7, [sp, #52]
 5804 103a 361B     		subs	r6, r6, r4
 5805 103c AF41     		sbcs	r7, r7, r5
 5806 103e 0C96     		str	r6, [sp, #48]
 5807 1040 0D97     		str	r7, [sp, #52]
 5808              	.LVL943:
 516:sc.c          ****     carry7 = (s7 + (1 << 20)) >> 21;
 5809              		.loc 1 516 0
 5810 1042 0E9C     		ldr	r4, [sp, #56]
 5811 1044 0F9D     		ldr	r5, [sp, #60]
ARM GAS  C:\Users\NIGHDR~1\AppData\Local\Temp\ccvJ0Ig2.s 			page 112


 5812 1046 A418     		adds	r4, r4, r2
 5813 1048 5D41     		adcs	r5, r5, r3
 5814 104a EE02     		lsls	r6, r5, #11
 5815              	.LVL944:
 5816 104c 600D     		lsrs	r0, r4, #21
 5817              	.LVL945:
 5818 104e 3043     		orrs	r0, r6
 5819 1050 6915     		asrs	r1, r5, #21
 5820              	.LVL946:
 517:sc.c          ****     s8 += carry7;
 5821              		.loc 1 517 0
 5822 1052 2C9D     		ldr	r5, [sp, #176]
 5823 1054 2D9E     		ldr	r6, [sp, #180]
 5824 1056 2D18     		adds	r5, r5, r0
 5825 1058 4E41     		adcs	r6, r6, r1
 5826 105a 2895     		str	r5, [sp, #160]
 5827 105c 2996     		str	r6, [sp, #164]
 5828              	.LVL947:
 518:sc.c          ****     s7 -= carry7 << 21;
 5829              		.loc 1 518 0
 5830 105e C60A     		lsrs	r6, r0, #11
 5831 1060 4D05     		lsls	r5, r1, #21
 5832              	.LVL948:
 5833 1062 3543     		orrs	r5, r6
 5834 1064 4405     		lsls	r4, r0, #21
 5835 1066 0E9E     		ldr	r6, [sp, #56]
 5836 1068 0F9F     		ldr	r7, [sp, #60]
 5837 106a 361B     		subs	r6, r6, r4
 5838 106c AF41     		sbcs	r7, r7, r5
 5839 106e 0E96     		str	r6, [sp, #56]
 5840 1070 0F97     		str	r7, [sp, #60]
 5841              	.LVL949:
 519:sc.c          ****     carry9 = (s9 + (1 << 20)) >> 21;
 5842              		.loc 1 519 0
 5843 1072 109D     		ldr	r5, [sp, #64]
 5844 1074 119E     		ldr	r6, [sp, #68]
 5845 1076 AD18     		adds	r5, r5, r2
 5846 1078 5E41     		adcs	r6, r6, r3
 5847 107a 2C00     		movs	r4, r5
 5848 107c 3500     		movs	r5, r6
 5849 107e F602     		lsls	r6, r6, #11
 5850              	.LVL950:
 5851 1080 600D     		lsrs	r0, r4, #21
 5852              	.LVL951:
 5853 1082 3043     		orrs	r0, r6
 5854 1084 6915     		asrs	r1, r5, #21
 5855              	.LVL952:
 520:sc.c          ****     s10 += carry9;
 5856              		.loc 1 520 0
 5857 1086 2A9D     		ldr	r5, [sp, #168]
 5858 1088 2B9E     		ldr	r6, [sp, #172]
 5859 108a 2D18     		adds	r5, r5, r0
 5860 108c 4E41     		adcs	r6, r6, r1
 5861 108e 2A95     		str	r5, [sp, #168]
 5862 1090 2B96     		str	r6, [sp, #172]
 5863              	.LVL953:
 521:sc.c          ****     s9 -= carry9 << 21;
ARM GAS  C:\Users\NIGHDR~1\AppData\Local\Temp\ccvJ0Ig2.s 			page 113


 5864              		.loc 1 521 0
 5865 1092 C60A     		lsrs	r6, r0, #11
 5866 1094 4D05     		lsls	r5, r1, #21
 5867              	.LVL954:
 5868 1096 3543     		orrs	r5, r6
 5869 1098 4405     		lsls	r4, r0, #21
 5870 109a 109E     		ldr	r6, [sp, #64]
 5871 109c 119F     		ldr	r7, [sp, #68]
 5872 109e 361B     		subs	r6, r6, r4
 5873 10a0 AF41     		sbcs	r7, r7, r5
 5874 10a2 1096     		str	r6, [sp, #64]
 5875 10a4 1197     		str	r7, [sp, #68]
 5876              	.LVL955:
 522:sc.c          ****     carry11 = (s11 + (1 << 20)) >> 21;
 5877              		.loc 1 522 0
 5878 10a6 129D     		ldr	r5, [sp, #72]
 5879 10a8 139E     		ldr	r6, [sp, #76]
 5880 10aa AD18     		adds	r5, r5, r2
 5881 10ac 5E41     		adcs	r6, r6, r3
 5882 10ae 2C00     		movs	r4, r5
 5883 10b0 3500     		movs	r5, r6
 5884 10b2 F602     		lsls	r6, r6, #11
 5885              	.LVL956:
 5886 10b4 600D     		lsrs	r0, r4, #21
 5887              	.LVL957:
 5888 10b6 3043     		orrs	r0, r6
 5889 10b8 6915     		asrs	r1, r5, #21
 5890              	.LVL958:
 523:sc.c          ****     s12 += carry11;
 5891              		.loc 1 523 0
 5892 10ba 2E9C     		ldr	r4, [sp, #184]
 5893 10bc 2F9D     		ldr	r5, [sp, #188]
 5894 10be 2418     		adds	r4, r4, r0
 5895 10c0 4D41     		adcs	r5, r5, r1
 5896 10c2 2C94     		str	r4, [sp, #176]
 5897 10c4 2D95     		str	r5, [sp, #180]
 5898              	.LVL959:
 524:sc.c          ****     s11 -= carry11 << 21;
 5899              		.loc 1 524 0
 5900 10c6 C60A     		lsrs	r6, r0, #11
 5901 10c8 4D05     		lsls	r5, r1, #21
 5902 10ca 3543     		orrs	r5, r6
 5903 10cc 4405     		lsls	r4, r0, #21
 5904              	.LVL960:
 5905 10ce 129E     		ldr	r6, [sp, #72]
 5906 10d0 139F     		ldr	r7, [sp, #76]
 5907 10d2 361B     		subs	r6, r6, r4
 5908 10d4 AF41     		sbcs	r7, r7, r5
 5909              	.LVL961:
 525:sc.c          ****     carry13 = (s13 + (1 << 20)) >> 21;
 5910              		.loc 1 525 0
 5911 10d6 1698     		ldr	r0, [sp, #88]
 5912 10d8 1799     		ldr	r1, [sp, #92]
 5913              	.LVL962:
 5914 10da 8018     		adds	r0, r0, r2
 5915 10dc 5941     		adcs	r1, r1, r3
 5916 10de 0400     		movs	r4, r0
ARM GAS  C:\Users\NIGHDR~1\AppData\Local\Temp\ccvJ0Ig2.s 			page 114


 5917 10e0 0D00     		movs	r5, r1
 5918 10e2 C902     		lsls	r1, r1, #11
 5919 10e4 8C46     		mov	ip, r1
 5920 10e6 2900     		movs	r1, r5
 5921 10e8 640D     		lsrs	r4, r4, #21
 5922 10ea 6546     		mov	r5, ip
 5923 10ec 2C43     		orrs	r4, r5
 5924 10ee 0094     		str	r4, [sp]
 5925              	.LVL963:
 5926 10f0 4915     		asrs	r1, r1, #21
 5927 10f2 0191     		str	r1, [sp, #4]
 5928              	.LVL964:
 526:sc.c          ****     s14 += carry13;
 5929              		.loc 1 526 0
 5930 10f4 309C     		ldr	r4, [sp, #192]
 5931 10f6 319D     		ldr	r5, [sp, #196]
 5932 10f8 0098     		ldr	r0, [sp]
 5933 10fa 0199     		ldr	r1, [sp, #4]
 5934 10fc 2418     		adds	r4, r4, r0
 5935 10fe 4D41     		adcs	r5, r5, r1
 5936 1100 1294     		str	r4, [sp, #72]
 5937 1102 1395     		str	r5, [sp, #76]
 5938              	.LVL965:
 527:sc.c          ****     s13 -= carry13 << 21;
 5939              		.loc 1 527 0
 5940 1104 C50A     		lsrs	r5, r0, #11
 5941 1106 AC46     		mov	ip, r5
 5942 1108 4D05     		lsls	r5, r1, #21
 5943 110a 6146     		mov	r1, ip
 5944 110c 0D43     		orrs	r5, r1
 5945 110e 0099     		ldr	r1, [sp]
 5946 1110 4C05     		lsls	r4, r1, #21
 5947              	.LVL966:
 5948 1112 1698     		ldr	r0, [sp, #88]
 5949 1114 1799     		ldr	r1, [sp, #92]
 5950 1116 001B     		subs	r0, r0, r4
 5951 1118 A941     		sbcs	r1, r1, r5
 5952 111a 1690     		str	r0, [sp, #88]
 5953 111c 1791     		str	r1, [sp, #92]
 5954              	.LVL967:
 528:sc.c          ****     carry15 = (s15 + (1 << 20)) >> 21;
 5955              		.loc 1 528 0
 5956 111e 1498     		ldr	r0, [sp, #80]
 5957 1120 1599     		ldr	r1, [sp, #84]
 5958              	.LVL968:
 5959 1122 8018     		adds	r0, r0, r2
 5960 1124 5941     		adcs	r1, r1, r3
 5961 1126 0400     		movs	r4, r0
 5962 1128 0D00     		movs	r5, r1
 5963 112a C902     		lsls	r1, r1, #11
 5964 112c 8C46     		mov	ip, r1
 5965 112e 2900     		movs	r1, r5
 5966 1130 640D     		lsrs	r4, r4, #21
 5967 1132 6546     		mov	r5, ip
 5968 1134 2C43     		orrs	r4, r5
 5969 1136 0094     		str	r4, [sp]
 5970              	.LVL969:
ARM GAS  C:\Users\NIGHDR~1\AppData\Local\Temp\ccvJ0Ig2.s 			page 115


 5971 1138 4915     		asrs	r1, r1, #21
 5972 113a 0191     		str	r1, [sp, #4]
 5973              	.LVL970:
 529:sc.c          ****     s16 += carry15;
 5974              		.loc 1 529 0
 5975 113c 1C9C     		ldr	r4, [sp, #112]
 5976 113e 1D9D     		ldr	r5, [sp, #116]
 5977 1140 0098     		ldr	r0, [sp]
 5978 1142 0199     		ldr	r1, [sp, #4]
 5979 1144 2418     		adds	r4, r4, r0
 5980 1146 4D41     		adcs	r5, r5, r1
 5981 1148 1C94     		str	r4, [sp, #112]
 5982 114a 1D95     		str	r5, [sp, #116]
 5983              	.LVL971:
 530:sc.c          ****     s15 -= carry15 << 21;
 5984              		.loc 1 530 0
 5985 114c C50A     		lsrs	r5, r0, #11
 5986 114e AC46     		mov	ip, r5
 5987 1150 4D05     		lsls	r5, r1, #21
 5988 1152 6146     		mov	r1, ip
 5989 1154 0D43     		orrs	r5, r1
 5990 1156 0099     		ldr	r1, [sp]
 5991 1158 4C05     		lsls	r4, r1, #21
 5992              	.LVL972:
 5993 115a 1498     		ldr	r0, [sp, #80]
 5994 115c 1599     		ldr	r1, [sp, #84]
 5995 115e 001B     		subs	r0, r0, r4
 5996 1160 A941     		sbcs	r1, r1, r5
 5997 1162 1490     		str	r0, [sp, #80]
 5998 1164 1591     		str	r1, [sp, #84]
 5999              	.LVL973:
 531:sc.c          ****     carry17 = (s17 + (1 << 20)) >> 21;
 6000              		.loc 1 531 0
 6001 1166 0298     		ldr	r0, [sp, #8]
 6002 1168 0399     		ldr	r1, [sp, #12]
 6003              	.LVL974:
 6004 116a 8018     		adds	r0, r0, r2
 6005 116c 5941     		adcs	r1, r1, r3
 6006 116e 0400     		movs	r4, r0
 6007 1170 0D00     		movs	r5, r1
 6008 1172 C902     		lsls	r1, r1, #11
 6009 1174 8C46     		mov	ip, r1
 6010 1176 2900     		movs	r1, r5
 6011 1178 640D     		lsrs	r4, r4, #21
 6012 117a 6546     		mov	r5, ip
 6013 117c 2C43     		orrs	r4, r5
 6014 117e 0094     		str	r4, [sp]
 6015              	.LVL975:
 6016 1180 4915     		asrs	r1, r1, #21
 6017 1182 0191     		str	r1, [sp, #4]
 6018              	.LVL976:
 532:sc.c          ****     s18 += carry17;
 6019              		.loc 1 532 0
 6020 1184 069C     		ldr	r4, [sp, #24]
 6021 1186 079D     		ldr	r5, [sp, #28]
 6022 1188 0098     		ldr	r0, [sp]
 6023 118a 0199     		ldr	r1, [sp, #4]
ARM GAS  C:\Users\NIGHDR~1\AppData\Local\Temp\ccvJ0Ig2.s 			page 116


 6024 118c 2418     		adds	r4, r4, r0
 6025 118e 4D41     		adcs	r5, r5, r1
 6026 1190 2E94     		str	r4, [sp, #184]
 6027 1192 2F95     		str	r5, [sp, #188]
 6028              	.LVL977:
 533:sc.c          ****     s17 -= carry17 << 21;
 6029              		.loc 1 533 0
 6030 1194 C50A     		lsrs	r5, r0, #11
 6031 1196 AC46     		mov	ip, r5
 6032 1198 4D05     		lsls	r5, r1, #21
 6033 119a 6146     		mov	r1, ip
 6034 119c 0D43     		orrs	r5, r1
 6035 119e 0099     		ldr	r1, [sp]
 6036 11a0 4C05     		lsls	r4, r1, #21
 6037              	.LVL978:
 6038 11a2 0298     		ldr	r0, [sp, #8]
 6039 11a4 0399     		ldr	r1, [sp, #12]
 6040 11a6 001B     		subs	r0, r0, r4
 6041 11a8 A941     		sbcs	r1, r1, r5
 6042 11aa 3090     		str	r0, [sp, #192]
 6043 11ac 3191     		str	r1, [sp, #196]
 6044              	.LVL979:
 534:sc.c          ****     carry19 = (s19 + (1 << 20)) >> 21;
 6045              		.loc 1 534 0
 6046 11ae 0498     		ldr	r0, [sp, #16]
 6047 11b0 0599     		ldr	r1, [sp, #20]
 6048              	.LVL980:
 6049 11b2 8018     		adds	r0, r0, r2
 6050 11b4 5941     		adcs	r1, r1, r3
 6051 11b6 0400     		movs	r4, r0
 6052 11b8 0D00     		movs	r5, r1
 6053 11ba C902     		lsls	r1, r1, #11
 6054 11bc 8C46     		mov	ip, r1
 6055 11be 2900     		movs	r1, r5
 6056 11c0 640D     		lsrs	r4, r4, #21
 6057 11c2 6546     		mov	r5, ip
 6058 11c4 2C43     		orrs	r4, r5
 6059 11c6 0094     		str	r4, [sp]
 6060              	.LVL981:
 6061 11c8 4915     		asrs	r1, r1, #21
 6062 11ca 0191     		str	r1, [sp, #4]
 6063              	.LVL982:
 535:sc.c          ****     s20 += carry19;
 6064              		.loc 1 535 0
 6065 11cc 1E9C     		ldr	r4, [sp, #120]
 6066 11ce 1F9D     		ldr	r5, [sp, #124]
 6067 11d0 0098     		ldr	r0, [sp]
 6068 11d2 0199     		ldr	r1, [sp, #4]
 6069 11d4 2418     		adds	r4, r4, r0
 6070 11d6 4D41     		adcs	r5, r5, r1
 6071 11d8 0294     		str	r4, [sp, #8]
 6072 11da 0395     		str	r5, [sp, #12]
 6073              	.LVL983:
 536:sc.c          ****     s19 -= carry19 << 21;
 6074              		.loc 1 536 0
 6075 11dc C50A     		lsrs	r5, r0, #11
 6076 11de AC46     		mov	ip, r5
ARM GAS  C:\Users\NIGHDR~1\AppData\Local\Temp\ccvJ0Ig2.s 			page 117


 6077 11e0 4D05     		lsls	r5, r1, #21
 6078 11e2 6146     		mov	r1, ip
 6079 11e4 0D43     		orrs	r5, r1
 6080 11e6 0099     		ldr	r1, [sp]
 6081 11e8 4C05     		lsls	r4, r1, #21
 6082              	.LVL984:
 6083 11ea 0498     		ldr	r0, [sp, #16]
 6084 11ec 0599     		ldr	r1, [sp, #20]
 6085 11ee 001B     		subs	r0, r0, r4
 6086 11f0 A941     		sbcs	r1, r1, r5
 6087 11f2 0690     		str	r0, [sp, #24]
 6088 11f4 0791     		str	r1, [sp, #28]
 6089              	.LVL985:
 537:sc.c          ****     carry21 = (s21 + (1 << 20)) >> 21;
 6090              		.loc 1 537 0
 6091 11f6 1898     		ldr	r0, [sp, #96]
 6092 11f8 1999     		ldr	r1, [sp, #100]
 6093              	.LVL986:
 6094 11fa 1218     		adds	r2, r2, r0
 6095 11fc 4B41     		adcs	r3, r3, r1
 6096 11fe DC02     		lsls	r4, r3, #11
 6097 1200 500D     		lsrs	r0, r2, #21
 6098 1202 2043     		orrs	r0, r4
 6099 1204 5915     		asrs	r1, r3, #21
 6100              	.LVL987:
 538:sc.c          ****     s22 += carry21;
 6101              		.loc 1 538 0
 6102 1206 1A9B     		ldr	r3, [sp, #104]
 6103 1208 1B9C     		ldr	r4, [sp, #108]
 6104 120a 1B18     		adds	r3, r3, r0
 6105 120c 4C41     		adcs	r4, r4, r1
 6106 120e 0093     		str	r3, [sp]
 6107 1210 0194     		str	r4, [sp, #4]
 6108              	.LVL988:
 539:sc.c          ****     s21 -= carry21 << 21;
 6109              		.loc 1 539 0
 6110 1212 C40A     		lsrs	r4, r0, #11
 6111 1214 4B05     		lsls	r3, r1, #21
 6112              	.LVL989:
 6113 1216 2343     		orrs	r3, r4
 6114 1218 4205     		lsls	r2, r0, #21
 6115 121a 1898     		ldr	r0, [sp, #96]
 6116 121c 1999     		ldr	r1, [sp, #100]
 6117              	.LVL990:
 6118 121e 801A     		subs	r0, r0, r2
 6119 1220 9941     		sbcs	r1, r1, r3
 6120 1222 0490     		str	r0, [sp, #16]
 6121 1224 0591     		str	r1, [sp, #20]
 6122              	.LVL991:
 540:sc.c          ****     s11 += s23 * 666643;
 6123              		.loc 1 540 0
 6124 1226 E24A     		ldr	r2, .L14
 6125 1228 0023     		movs	r3, #0
 6126 122a 4846     		mov	r0, r9
 6127              	.LVL992:
 6128 122c 089D     		ldr	r5, [sp, #32]
 6129 122e 2900     		movs	r1, r5
ARM GAS  C:\Users\NIGHDR~1\AppData\Local\Temp\ccvJ0Ig2.s 			page 118


 6130 1230 FFF7FEFF 		bl	__aeabi_lmul
 6131              	.LVL993:
 6132 1234 3618     		adds	r6, r6, r0
 6133 1236 4F41     		adcs	r7, r7, r1
 6134              	.LVL994:
 541:sc.c          ****     s12 += s23 * 470296;
 6135              		.loc 1 541 0
 6136 1238 DE4A     		ldr	r2, .L14+4
 6137 123a 0023     		movs	r3, #0
 6138 123c 4846     		mov	r0, r9
 6139 123e 0895     		str	r5, [sp, #32]
 6140              	.LVL995:
 6141 1240 2900     		movs	r1, r5
 6142 1242 FFF7FEFF 		bl	__aeabi_lmul
 6143              	.LVL996:
 6144 1246 2C9C     		ldr	r4, [sp, #176]
 6145 1248 2D9D     		ldr	r5, [sp, #180]
 6146 124a 2418     		adds	r4, r4, r0
 6147 124c 4D41     		adcs	r5, r5, r1
 6148 124e 1894     		str	r4, [sp, #96]
 6149 1250 1995     		str	r5, [sp, #100]
 6150              	.LVL997:
 542:sc.c          ****     s13 += s23 * 654183;
 6151              		.loc 1 542 0
 6152 1252 D94A     		ldr	r2, .L14+8
 6153 1254 0023     		movs	r3, #0
 6154 1256 4846     		mov	r0, r9
 6155 1258 089D     		ldr	r5, [sp, #32]
 6156 125a 2900     		movs	r1, r5
 6157 125c FFF7FEFF 		bl	__aeabi_lmul
 6158              	.LVL998:
 6159 1260 169B     		ldr	r3, [sp, #88]
 6160 1262 179C     		ldr	r4, [sp, #92]
 6161 1264 1B18     		adds	r3, r3, r0
 6162 1266 4C41     		adcs	r4, r4, r1
 6163 1268 1693     		str	r3, [sp, #88]
 6164 126a 1794     		str	r4, [sp, #92]
 6165              	.LVL999:
 543:sc.c          ****     s14 -= s23 * 997805;
 6166              		.loc 1 543 0
 6167 126c D34A     		ldr	r2, .L14+12
 6168 126e 0123     		movs	r3, #1
 6169              	.LVL1000:
 6170 1270 5B42     		rsbs	r3, r3, #0
 6171 1272 4846     		mov	r0, r9
 6172 1274 0895     		str	r5, [sp, #32]
 6173 1276 2900     		movs	r1, r5
 6174 1278 FFF7FEFF 		bl	__aeabi_lmul
 6175              	.LVL1001:
 6176 127c 129C     		ldr	r4, [sp, #72]
 6177 127e 139D     		ldr	r5, [sp, #76]
 6178              	.LVL1002:
 6179 1280 2418     		adds	r4, r4, r0
 6180 1282 4D41     		adcs	r5, r5, r1
 6181 1284 1294     		str	r4, [sp, #72]
 6182 1286 1395     		str	r5, [sp, #76]
 6183              	.LVL1003:
ARM GAS  C:\Users\NIGHDR~1\AppData\Local\Temp\ccvJ0Ig2.s 			page 119


 544:sc.c          ****     s15 += s23 * 136657;
 6184              		.loc 1 544 0
 6185 1288 CD4A     		ldr	r2, .L14+16
 6186 128a 0023     		movs	r3, #0
 6187 128c 4846     		mov	r0, r9
 6188 128e 089D     		ldr	r5, [sp, #32]
 6189 1290 2900     		movs	r1, r5
 6190 1292 FFF7FEFF 		bl	__aeabi_lmul
 6191              	.LVL1004:
 6192 1296 149B     		ldr	r3, [sp, #80]
 6193 1298 159C     		ldr	r4, [sp, #84]
 6194 129a 1B18     		adds	r3, r3, r0
 6195 129c 4C41     		adcs	r4, r4, r1
 6196 129e 1493     		str	r3, [sp, #80]
 6197 12a0 1594     		str	r4, [sp, #84]
 6198              	.LVL1005:
 545:sc.c          ****     s16 -= s23 * 683901;
 6199              		.loc 1 545 0
 6200 12a2 C84A     		ldr	r2, .L14+20
 6201 12a4 0123     		movs	r3, #1
 6202              	.LVL1006:
 6203 12a6 5B42     		rsbs	r3, r3, #0
 6204 12a8 4846     		mov	r0, r9
 6205 12aa 2900     		movs	r1, r5
 6206 12ac FFF7FEFF 		bl	__aeabi_lmul
 6207              	.LVL1007:
 6208 12b0 1C9C     		ldr	r4, [sp, #112]
 6209 12b2 1D9D     		ldr	r5, [sp, #116]
 6210              	.LVL1008:
 6211 12b4 2418     		adds	r4, r4, r0
 6212 12b6 4D41     		adcs	r5, r5, r1
 6213 12b8 0894     		str	r4, [sp, #32]
 6214 12ba 0995     		str	r5, [sp, #36]
 6215              	.LVL1009:
 546:sc.c          ****     s23 = 0;
 547:sc.c          ****     s10 += s22 * 666643;
 6216              		.loc 1 547 0
 6217 12bc BC4A     		ldr	r2, .L14
 6218 12be 0023     		movs	r3, #0
 6219 12c0 0098     		ldr	r0, [sp]
 6220 12c2 0199     		ldr	r1, [sp, #4]
 6221 12c4 FFF7FEFF 		bl	__aeabi_lmul
 6222              	.LVL1010:
 6223 12c8 2A9B     		ldr	r3, [sp, #168]
 6224 12ca 2B9C     		ldr	r4, [sp, #172]
 6225 12cc 1B18     		adds	r3, r3, r0
 6226 12ce 4C41     		adcs	r4, r4, r1
 6227 12d0 2500     		movs	r5, r4
 6228              	.LVL1011:
 6229 12d2 1C00     		movs	r4, r3
 6230              	.LVL1012:
 548:sc.c          ****     s11 += s22 * 470296;
 6231              		.loc 1 548 0
 6232 12d4 B74A     		ldr	r2, .L14+4
 6233 12d6 0023     		movs	r3, #0
 6234 12d8 0098     		ldr	r0, [sp]
 6235 12da 0199     		ldr	r1, [sp, #4]
ARM GAS  C:\Users\NIGHDR~1\AppData\Local\Temp\ccvJ0Ig2.s 			page 120


 6236 12dc FFF7FEFF 		bl	__aeabi_lmul
 6237              	.LVL1013:
 6238 12e0 3618     		adds	r6, r6, r0
 6239 12e2 4F41     		adcs	r7, r7, r1
 6240              	.LVL1014:
 549:sc.c          ****     s12 += s22 * 654183;
 6241              		.loc 1 549 0
 6242 12e4 B44A     		ldr	r2, .L14+8
 6243 12e6 0023     		movs	r3, #0
 6244 12e8 0098     		ldr	r0, [sp]
 6245 12ea 0199     		ldr	r1, [sp, #4]
 6246 12ec FFF7FEFF 		bl	__aeabi_lmul
 6247              	.LVL1015:
 6248 12f0 189A     		ldr	r2, [sp, #96]
 6249 12f2 199B     		ldr	r3, [sp, #100]
 6250 12f4 1218     		adds	r2, r2, r0
 6251 12f6 4B41     		adcs	r3, r3, r1
 6252 12f8 1892     		str	r2, [sp, #96]
 6253 12fa 1993     		str	r3, [sp, #100]
 6254              	.LVL1016:
 550:sc.c          ****     s13 -= s22 * 997805;
 6255              		.loc 1 550 0
 6256 12fc AF4A     		ldr	r2, .L14+12
 6257              	.LVL1017:
 6258 12fe 0123     		movs	r3, #1
 6259 1300 5B42     		rsbs	r3, r3, #0
 6260 1302 0098     		ldr	r0, [sp]
 6261 1304 0199     		ldr	r1, [sp, #4]
 6262 1306 FFF7FEFF 		bl	__aeabi_lmul
 6263              	.LVL1018:
 6264 130a 169A     		ldr	r2, [sp, #88]
 6265 130c 179B     		ldr	r3, [sp, #92]
 6266 130e 1218     		adds	r2, r2, r0
 6267 1310 4B41     		adcs	r3, r3, r1
 6268 1312 1692     		str	r2, [sp, #88]
 6269 1314 1793     		str	r3, [sp, #92]
 6270              	.LVL1019:
 551:sc.c          ****     s14 += s22 * 136657;
 6271              		.loc 1 551 0
 6272 1316 AA4A     		ldr	r2, .L14+16
 6273              	.LVL1020:
 6274 1318 0023     		movs	r3, #0
 6275 131a 0098     		ldr	r0, [sp]
 6276 131c 0199     		ldr	r1, [sp, #4]
 6277 131e FFF7FEFF 		bl	__aeabi_lmul
 6278              	.LVL1021:
 6279 1322 129A     		ldr	r2, [sp, #72]
 6280 1324 139B     		ldr	r3, [sp, #76]
 6281 1326 1218     		adds	r2, r2, r0
 6282 1328 4B41     		adcs	r3, r3, r1
 6283 132a 1292     		str	r2, [sp, #72]
 6284 132c 1393     		str	r3, [sp, #76]
 6285              	.LVL1022:
 552:sc.c          ****     s15 -= s22 * 683901;
 6286              		.loc 1 552 0
 6287 132e A54A     		ldr	r2, .L14+20
 6288              	.LVL1023:
ARM GAS  C:\Users\NIGHDR~1\AppData\Local\Temp\ccvJ0Ig2.s 			page 121


 6289 1330 0123     		movs	r3, #1
 6290 1332 5B42     		rsbs	r3, r3, #0
 6291 1334 0098     		ldr	r0, [sp]
 6292 1336 0199     		ldr	r1, [sp, #4]
 6293 1338 FFF7FEFF 		bl	__aeabi_lmul
 6294              	.LVL1024:
 6295 133c 149A     		ldr	r2, [sp, #80]
 6296 133e 159B     		ldr	r3, [sp, #84]
 6297 1340 1218     		adds	r2, r2, r0
 6298 1342 4B41     		adcs	r3, r3, r1
 6299 1344 1492     		str	r2, [sp, #80]
 6300 1346 1593     		str	r3, [sp, #84]
 6301              	.LVL1025:
 553:sc.c          ****     s22 = 0;
 554:sc.c          ****     s9 += s21 * 666643;
 6302              		.loc 1 554 0
 6303 1348 994A     		ldr	r2, .L14
 6304              	.LVL1026:
 6305 134a 0023     		movs	r3, #0
 6306 134c 0498     		ldr	r0, [sp, #16]
 6307 134e 0599     		ldr	r1, [sp, #20]
 6308 1350 FFF7FEFF 		bl	__aeabi_lmul
 6309              	.LVL1027:
 6310 1354 109A     		ldr	r2, [sp, #64]
 6311 1356 119B     		ldr	r3, [sp, #68]
 6312 1358 1218     		adds	r2, r2, r0
 6313 135a 4B41     		adcs	r3, r3, r1
 6314 135c 1092     		str	r2, [sp, #64]
 6315 135e 1193     		str	r3, [sp, #68]
 6316              	.LVL1028:
 555:sc.c          ****     s10 += s21 * 470296;
 6317              		.loc 1 555 0
 6318 1360 944A     		ldr	r2, .L14+4
 6319              	.LVL1029:
 6320 1362 0023     		movs	r3, #0
 6321 1364 0498     		ldr	r0, [sp, #16]
 6322 1366 0599     		ldr	r1, [sp, #20]
 6323 1368 FFF7FEFF 		bl	__aeabi_lmul
 6324              	.LVL1030:
 6325 136c 2418     		adds	r4, r4, r0
 6326 136e 4D41     		adcs	r5, r5, r1
 6327              	.LVL1031:
 556:sc.c          ****     s11 += s21 * 654183;
 6328              		.loc 1 556 0
 6329 1370 914A     		ldr	r2, .L14+8
 6330 1372 0023     		movs	r3, #0
 6331 1374 0498     		ldr	r0, [sp, #16]
 6332 1376 0599     		ldr	r1, [sp, #20]
 6333 1378 FFF7FEFF 		bl	__aeabi_lmul
 6334              	.LVL1032:
 6335 137c 3618     		adds	r6, r6, r0
 6336 137e 4F41     		adcs	r7, r7, r1
 6337              	.LVL1033:
 557:sc.c          ****     s12 -= s21 * 997805;
 6338              		.loc 1 557 0
 6339 1380 8E4A     		ldr	r2, .L14+12
 6340 1382 0123     		movs	r3, #1
ARM GAS  C:\Users\NIGHDR~1\AppData\Local\Temp\ccvJ0Ig2.s 			page 122


 6341 1384 5B42     		rsbs	r3, r3, #0
 6342 1386 0498     		ldr	r0, [sp, #16]
 6343 1388 0599     		ldr	r1, [sp, #20]
 6344 138a FFF7FEFF 		bl	__aeabi_lmul
 6345              	.LVL1034:
 6346 138e 189A     		ldr	r2, [sp, #96]
 6347 1390 199B     		ldr	r3, [sp, #100]
 6348 1392 1218     		adds	r2, r2, r0
 6349 1394 4B41     		adcs	r3, r3, r1
 6350 1396 1892     		str	r2, [sp, #96]
 6351 1398 1993     		str	r3, [sp, #100]
 6352              	.LVL1035:
 558:sc.c          ****     s13 += s21 * 136657;
 6353              		.loc 1 558 0
 6354 139a 894A     		ldr	r2, .L14+16
 6355              	.LVL1036:
 6356 139c 0023     		movs	r3, #0
 6357 139e 0498     		ldr	r0, [sp, #16]
 6358 13a0 0599     		ldr	r1, [sp, #20]
 6359 13a2 FFF7FEFF 		bl	__aeabi_lmul
 6360              	.LVL1037:
 6361 13a6 169A     		ldr	r2, [sp, #88]
 6362 13a8 179B     		ldr	r3, [sp, #92]
 6363 13aa 1218     		adds	r2, r2, r0
 6364 13ac 4B41     		adcs	r3, r3, r1
 6365 13ae 1692     		str	r2, [sp, #88]
 6366 13b0 1793     		str	r3, [sp, #92]
 6367              	.LVL1038:
 559:sc.c          ****     s14 -= s21 * 683901;
 6368              		.loc 1 559 0
 6369 13b2 844A     		ldr	r2, .L14+20
 6370              	.LVL1039:
 6371 13b4 0123     		movs	r3, #1
 6372 13b6 5B42     		rsbs	r3, r3, #0
 6373 13b8 0498     		ldr	r0, [sp, #16]
 6374 13ba 0599     		ldr	r1, [sp, #20]
 6375 13bc FFF7FEFF 		bl	__aeabi_lmul
 6376              	.LVL1040:
 6377 13c0 129A     		ldr	r2, [sp, #72]
 6378 13c2 139B     		ldr	r3, [sp, #76]
 6379 13c4 1218     		adds	r2, r2, r0
 6380 13c6 4B41     		adcs	r3, r3, r1
 6381 13c8 0092     		str	r2, [sp]
 6382 13ca 0193     		str	r3, [sp, #4]
 6383              	.LVL1041:
 560:sc.c          ****     s21 = 0;
 561:sc.c          ****     s8 += s20 * 666643;
 6384              		.loc 1 561 0
 6385 13cc 784A     		ldr	r2, .L14
 6386              	.LVL1042:
 6387 13ce 0023     		movs	r3, #0
 6388 13d0 0298     		ldr	r0, [sp, #8]
 6389 13d2 0399     		ldr	r1, [sp, #12]
 6390 13d4 FFF7FEFF 		bl	__aeabi_lmul
 6391              	.LVL1043:
 6392 13d8 289A     		ldr	r2, [sp, #160]
 6393 13da 299B     		ldr	r3, [sp, #164]
ARM GAS  C:\Users\NIGHDR~1\AppData\Local\Temp\ccvJ0Ig2.s 			page 123


 6394 13dc 1218     		adds	r2, r2, r0
 6395 13de 4B41     		adcs	r3, r3, r1
 6396 13e0 0492     		str	r2, [sp, #16]
 6397 13e2 0593     		str	r3, [sp, #20]
 6398              	.LVL1044:
 562:sc.c          ****     s9 += s20 * 470296;
 6399              		.loc 1 562 0
 6400 13e4 734A     		ldr	r2, .L14+4
 6401              	.LVL1045:
 6402 13e6 0023     		movs	r3, #0
 6403 13e8 0298     		ldr	r0, [sp, #8]
 6404 13ea 0399     		ldr	r1, [sp, #12]
 6405 13ec FFF7FEFF 		bl	__aeabi_lmul
 6406              	.LVL1046:
 6407 13f0 109A     		ldr	r2, [sp, #64]
 6408 13f2 119B     		ldr	r3, [sp, #68]
 6409 13f4 1218     		adds	r2, r2, r0
 6410 13f6 4B41     		adcs	r3, r3, r1
 6411 13f8 1092     		str	r2, [sp, #64]
 6412 13fa 1193     		str	r3, [sp, #68]
 6413              	.LVL1047:
 563:sc.c          ****     s10 += s20 * 654183;
 6414              		.loc 1 563 0
 6415 13fc 6E4A     		ldr	r2, .L14+8
 6416              	.LVL1048:
 6417 13fe 0023     		movs	r3, #0
 6418 1400 0298     		ldr	r0, [sp, #8]
 6419 1402 0399     		ldr	r1, [sp, #12]
 6420 1404 FFF7FEFF 		bl	__aeabi_lmul
 6421              	.LVL1049:
 6422 1408 2418     		adds	r4, r4, r0
 6423 140a 4D41     		adcs	r5, r5, r1
 6424              	.LVL1050:
 564:sc.c          ****     s11 -= s20 * 997805;
 6425              		.loc 1 564 0
 6426 140c 6B4A     		ldr	r2, .L14+12
 6427 140e 0123     		movs	r3, #1
 6428 1410 5B42     		rsbs	r3, r3, #0
 6429 1412 0298     		ldr	r0, [sp, #8]
 6430 1414 0399     		ldr	r1, [sp, #12]
 6431 1416 FFF7FEFF 		bl	__aeabi_lmul
 6432              	.LVL1051:
 6433 141a 3618     		adds	r6, r6, r0
 6434 141c 4F41     		adcs	r7, r7, r1
 6435              	.LVL1052:
 565:sc.c          ****     s12 += s20 * 136657;
 6436              		.loc 1 565 0
 6437 141e 684A     		ldr	r2, .L14+16
 6438 1420 0023     		movs	r3, #0
 6439 1422 0298     		ldr	r0, [sp, #8]
 6440 1424 0399     		ldr	r1, [sp, #12]
 6441 1426 FFF7FEFF 		bl	__aeabi_lmul
 6442              	.LVL1053:
 6443 142a 189A     		ldr	r2, [sp, #96]
 6444 142c 199B     		ldr	r3, [sp, #100]
 6445 142e 1218     		adds	r2, r2, r0
 6446 1430 4B41     		adcs	r3, r3, r1
ARM GAS  C:\Users\NIGHDR~1\AppData\Local\Temp\ccvJ0Ig2.s 			page 124


 6447 1432 1292     		str	r2, [sp, #72]
 6448 1434 1393     		str	r3, [sp, #76]
 6449              	.LVL1054:
 566:sc.c          ****     s13 -= s20 * 683901;
 6450              		.loc 1 566 0
 6451 1436 634A     		ldr	r2, .L14+20
 6452              	.LVL1055:
 6453 1438 0123     		movs	r3, #1
 6454 143a 5B42     		rsbs	r3, r3, #0
 6455 143c 0298     		ldr	r0, [sp, #8]
 6456 143e 0399     		ldr	r1, [sp, #12]
 6457 1440 FFF7FEFF 		bl	__aeabi_lmul
 6458              	.LVL1056:
 6459 1444 169A     		ldr	r2, [sp, #88]
 6460 1446 179B     		ldr	r3, [sp, #92]
 6461 1448 1218     		adds	r2, r2, r0
 6462 144a 4B41     		adcs	r3, r3, r1
 6463 144c 1692     		str	r2, [sp, #88]
 6464 144e 1793     		str	r3, [sp, #92]
 6465              	.LVL1057:
 567:sc.c          ****     s20 = 0;
 568:sc.c          ****     s7 += s19 * 666643;
 6466              		.loc 1 568 0
 6467 1450 574A     		ldr	r2, .L14
 6468              	.LVL1058:
 6469 1452 0023     		movs	r3, #0
 6470 1454 0698     		ldr	r0, [sp, #24]
 6471 1456 0799     		ldr	r1, [sp, #28]
 6472 1458 FFF7FEFF 		bl	__aeabi_lmul
 6473              	.LVL1059:
 6474 145c 0E9A     		ldr	r2, [sp, #56]
 6475 145e 0F9B     		ldr	r3, [sp, #60]
 6476 1460 1218     		adds	r2, r2, r0
 6477 1462 4B41     		adcs	r3, r3, r1
 6478 1464 0E92     		str	r2, [sp, #56]
 6479 1466 0F93     		str	r3, [sp, #60]
 6480              	.LVL1060:
 569:sc.c          ****     s8 += s19 * 470296;
 6481              		.loc 1 569 0
 6482 1468 524A     		ldr	r2, .L14+4
 6483              	.LVL1061:
 6484 146a 0023     		movs	r3, #0
 6485 146c 0698     		ldr	r0, [sp, #24]
 6486 146e 0799     		ldr	r1, [sp, #28]
 6487 1470 FFF7FEFF 		bl	__aeabi_lmul
 6488              	.LVL1062:
 6489 1474 049A     		ldr	r2, [sp, #16]
 6490 1476 059B     		ldr	r3, [sp, #20]
 6491 1478 1218     		adds	r2, r2, r0
 6492 147a 4B41     		adcs	r3, r3, r1
 6493 147c 1892     		str	r2, [sp, #96]
 6494 147e 1993     		str	r3, [sp, #100]
 6495              	.LVL1063:
 570:sc.c          ****     s9 += s19 * 654183;
 6496              		.loc 1 570 0
 6497 1480 4D4A     		ldr	r2, .L14+8
 6498              	.LVL1064:
ARM GAS  C:\Users\NIGHDR~1\AppData\Local\Temp\ccvJ0Ig2.s 			page 125


 6499 1482 0023     		movs	r3, #0
 6500 1484 0698     		ldr	r0, [sp, #24]
 6501 1486 0799     		ldr	r1, [sp, #28]
 6502 1488 FFF7FEFF 		bl	__aeabi_lmul
 6503              	.LVL1065:
 6504 148c 109A     		ldr	r2, [sp, #64]
 6505 148e 119B     		ldr	r3, [sp, #68]
 6506 1490 1218     		adds	r2, r2, r0
 6507 1492 4B41     		adcs	r3, r3, r1
 6508 1494 1092     		str	r2, [sp, #64]
 6509 1496 1193     		str	r3, [sp, #68]
 6510              	.LVL1066:
 571:sc.c          ****     s10 -= s19 * 997805;
 6511              		.loc 1 571 0
 6512 1498 484A     		ldr	r2, .L14+12
 6513              	.LVL1067:
 6514 149a 0123     		movs	r3, #1
 6515 149c 5B42     		rsbs	r3, r3, #0
 6516 149e 0698     		ldr	r0, [sp, #24]
 6517 14a0 0799     		ldr	r1, [sp, #28]
 6518 14a2 FFF7FEFF 		bl	__aeabi_lmul
 6519              	.LVL1068:
 6520 14a6 2300     		movs	r3, r4
 6521 14a8 2C00     		movs	r4, r5
 6522              	.LVL1069:
 6523 14aa 1B18     		adds	r3, r3, r0
 6524 14ac 4C41     		adcs	r4, r4, r1
 6525 14ae 1A93     		str	r3, [sp, #104]
 6526 14b0 1B94     		str	r4, [sp, #108]
 6527              	.LVL1070:
 572:sc.c          ****     s11 += s19 * 136657;
 6528              		.loc 1 572 0
 6529 14b2 434A     		ldr	r2, .L14+16
 6530 14b4 0023     		movs	r3, #0
 6531              	.LVL1071:
 6532 14b6 069C     		ldr	r4, [sp, #24]
 6533 14b8 079D     		ldr	r5, [sp, #28]
 6534 14ba 2000     		movs	r0, r4
 6535 14bc 2900     		movs	r1, r5
 6536 14be FFF7FEFF 		bl	__aeabi_lmul
 6537              	.LVL1072:
 6538 14c2 3618     		adds	r6, r6, r0
 6539 14c4 4F41     		adcs	r7, r7, r1
 6540              	.LVL1073:
 6541 14c6 0696     		str	r6, [sp, #24]
 6542 14c8 0797     		str	r7, [sp, #28]
 6543              	.LVL1074:
 573:sc.c          ****     s12 -= s19 * 683901;
 6544              		.loc 1 573 0
 6545 14ca 3E4A     		ldr	r2, .L14+20
 6546 14cc 0123     		movs	r3, #1
 6547 14ce 5B42     		rsbs	r3, r3, #0
 6548 14d0 2000     		movs	r0, r4
 6549 14d2 2900     		movs	r1, r5
 6550 14d4 FFF7FEFF 		bl	__aeabi_lmul
 6551              	.LVL1075:
 6552 14d8 129B     		ldr	r3, [sp, #72]
ARM GAS  C:\Users\NIGHDR~1\AppData\Local\Temp\ccvJ0Ig2.s 			page 126


 6553 14da 139C     		ldr	r4, [sp, #76]
 6554 14dc 1B18     		adds	r3, r3, r0
 6555 14de 4C41     		adcs	r4, r4, r1
 6556 14e0 0293     		str	r3, [sp, #8]
 6557 14e2 0394     		str	r4, [sp, #12]
 6558              	.LVL1076:
 574:sc.c          ****     s19 = 0;
 575:sc.c          ****     s6 += s18 * 666643;
 6559              		.loc 1 575 0
 6560 14e4 324A     		ldr	r2, .L14
 6561 14e6 0023     		movs	r3, #0
 6562              	.LVL1077:
 6563 14e8 2E9E     		ldr	r6, [sp, #184]
 6564 14ea 2F9F     		ldr	r7, [sp, #188]
 6565              	.LVL1078:
 6566 14ec 3000     		movs	r0, r6
 6567 14ee 3900     		movs	r1, r7
 6568 14f0 FFF7FEFF 		bl	__aeabi_lmul
 6569              	.LVL1079:
 6570 14f4 0A9C     		ldr	r4, [sp, #40]
 6571 14f6 0B9D     		ldr	r5, [sp, #44]
 6572 14f8 2418     		adds	r4, r4, r0
 6573 14fa 4D41     		adcs	r5, r5, r1
 6574 14fc 0494     		str	r4, [sp, #16]
 6575 14fe 0595     		str	r5, [sp, #20]
 6576              	.LVL1080:
 576:sc.c          ****     s7 += s18 * 470296;
 6577              		.loc 1 576 0
 6578 1500 2C4A     		ldr	r2, .L14+4
 6579 1502 0023     		movs	r3, #0
 6580 1504 3000     		movs	r0, r6
 6581 1506 3900     		movs	r1, r7
 6582 1508 FFF7FEFF 		bl	__aeabi_lmul
 6583              	.LVL1081:
 6584 150c 0E9A     		ldr	r2, [sp, #56]
 6585 150e 0F9B     		ldr	r3, [sp, #60]
 6586 1510 1218     		adds	r2, r2, r0
 6587 1512 4B41     		adcs	r3, r3, r1
 6588 1514 0A92     		str	r2, [sp, #40]
 6589 1516 0B93     		str	r3, [sp, #44]
 6590              	.LVL1082:
 577:sc.c          ****     s8 += s18 * 654183;
 6591              		.loc 1 577 0
 6592 1518 274A     		ldr	r2, .L14+8
 6593              	.LVL1083:
 6594 151a 0023     		movs	r3, #0
 6595 151c 3400     		movs	r4, r6
 6596              	.LVL1084:
 6597 151e 3D00     		movs	r5, r7
 6598 1520 3000     		movs	r0, r6
 6599 1522 3900     		movs	r1, r7
 6600 1524 FFF7FEFF 		bl	__aeabi_lmul
 6601              	.LVL1085:
 6602 1528 189E     		ldr	r6, [sp, #96]
 6603 152a 199F     		ldr	r7, [sp, #100]
 6604 152c 3618     		adds	r6, r6, r0
 6605 152e 4F41     		adcs	r7, r7, r1
ARM GAS  C:\Users\NIGHDR~1\AppData\Local\Temp\ccvJ0Ig2.s 			page 127


 6606              	.LVL1086:
 578:sc.c          ****     s9 -= s18 * 997805;
 6607              		.loc 1 578 0
 6608 1530 224A     		ldr	r2, .L14+12
 6609 1532 0123     		movs	r3, #1
 6610 1534 5B42     		rsbs	r3, r3, #0
 6611 1536 2000     		movs	r0, r4
 6612 1538 2900     		movs	r1, r5
 6613 153a FFF7FEFF 		bl	__aeabi_lmul
 6614              	.LVL1087:
 6615 153e 109A     		ldr	r2, [sp, #64]
 6616 1540 119B     		ldr	r3, [sp, #68]
 6617 1542 1218     		adds	r2, r2, r0
 6618 1544 4B41     		adcs	r3, r3, r1
 6619 1546 0E92     		str	r2, [sp, #56]
 6620 1548 0F93     		str	r3, [sp, #60]
 6621              	.LVL1088:
 579:sc.c          ****     s10 += s18 * 136657;
 6622              		.loc 1 579 0
 6623 154a 1D4A     		ldr	r2, .L14+16
 6624              	.LVL1089:
 6625 154c 0023     		movs	r3, #0
 6626 154e 2000     		movs	r0, r4
 6627 1550 2900     		movs	r1, r5
 6628 1552 FFF7FEFF 		bl	__aeabi_lmul
 6629              	.LVL1090:
 6630 1556 1A9A     		ldr	r2, [sp, #104]
 6631 1558 1B9B     		ldr	r3, [sp, #108]
 6632 155a 1218     		adds	r2, r2, r0
 6633 155c 4B41     		adcs	r3, r3, r1
 6634 155e 1092     		str	r2, [sp, #64]
 6635 1560 1193     		str	r3, [sp, #68]
 6636              	.LVL1091:
 580:sc.c          ****     s11 -= s18 * 683901;
 6637              		.loc 1 580 0
 6638 1562 184A     		ldr	r2, .L14+20
 6639              	.LVL1092:
 6640 1564 0123     		movs	r3, #1
 6641 1566 5B42     		rsbs	r3, r3, #0
 6642 1568 2000     		movs	r0, r4
 6643 156a 2900     		movs	r1, r5
 6644 156c FFF7FEFF 		bl	__aeabi_lmul
 6645              	.LVL1093:
 6646 1570 069A     		ldr	r2, [sp, #24]
 6647 1572 079B     		ldr	r3, [sp, #28]
 6648 1574 1218     		adds	r2, r2, r0
 6649 1576 4B41     		adcs	r3, r3, r1
 6650 1578 1292     		str	r2, [sp, #72]
 6651 157a 1393     		str	r3, [sp, #76]
 6652              	.LVL1094:
 581:sc.c          ****     s18 = 0;
 582:sc.c          ****     carry6 = (s6 + (1 << 20)) >> 21;
 6653              		.loc 1 582 0
 6654 157c 8021     		movs	r1, #128
 6655 157e 4903     		lsls	r1, r1, #13
 6656 1580 0022     		movs	r2, #0
 6657              	.LVL1095:
ARM GAS  C:\Users\NIGHDR~1\AppData\Local\Temp\ccvJ0Ig2.s 			page 128


 6658 1582 049B     		ldr	r3, [sp, #16]
 6659 1584 059C     		ldr	r4, [sp, #20]
 6660 1586 C918     		adds	r1, r1, r3
 6661 1588 6241     		adcs	r2, r2, r4
 6662 158a 0800     		movs	r0, r1
 6663 158c 1100     		movs	r1, r2
 6664 158e D302     		lsls	r3, r2, #11
 6665 1590 420D     		lsrs	r2, r0, #21
 6666 1592 1A43     		orrs	r2, r3
 6667 1594 4B15     		asrs	r3, r1, #21
 6668              	.LVL1096:
 583:sc.c          ****     s7 += carry6;
 6669              		.loc 1 583 0
 6670 1596 0A98     		ldr	r0, [sp, #40]
 6671 1598 0B99     		ldr	r1, [sp, #44]
 6672 159a 8018     		adds	r0, r0, r2
 6673 159c 5941     		adcs	r1, r1, r3
 6674 159e 0690     		str	r0, [sp, #24]
 6675 15a0 0791     		str	r1, [sp, #28]
 6676              	.LVL1097:
 584:sc.c          ****     s6 -= carry6 << 21;
 6677              		.loc 1 584 0
 6678 15a2 D50A     		lsrs	r5, r2, #11
 6679 15a4 5905     		lsls	r1, r3, #21
 6680 15a6 2943     		orrs	r1, r5
 6681 15a8 5005     		lsls	r0, r2, #21
 6682              	.LVL1098:
 6683 15aa 049B     		ldr	r3, [sp, #16]
 6684 15ac 059C     		ldr	r4, [sp, #20]
 6685 15ae 0BE0     		b	.L15
 6686              	.L16:
 6687              		.align	2
 6688              	.L14:
 6689 15b0 132C0A00 		.word	666643
 6690 15b4 182D0700 		.word	470296
 6691 15b8 67FB0900 		.word	654183
 6692 15bc 53C6F0FF 		.word	-997805
 6693 15c0 D1150200 		.word	136657
 6694 15c4 8390F5FF 		.word	-683901
 6695              	.L15:
 6696 15c8 1B1A     		subs	r3, r3, r0
 6697 15ca 8C41     		sbcs	r4, r4, r1
 6698 15cc 1893     		str	r3, [sp, #96]
 6699 15ce 1994     		str	r4, [sp, #100]
 6700              	.LVL1099:
 585:sc.c          ****     carry8 = (s8 + (1 << 20)) >> 21;
 6701              		.loc 1 585 0
 6702 15d0 8021     		movs	r1, #128
 6703 15d2 4903     		lsls	r1, r1, #13
 6704 15d4 0022     		movs	r2, #0
 6705              	.LVL1100:
 6706 15d6 8919     		adds	r1, r1, r6
 6707 15d8 7A41     		adcs	r2, r2, r7
 6708 15da 0800     		movs	r0, r1
 6709 15dc 1100     		movs	r1, r2
 6710 15de D402     		lsls	r4, r2, #11
 6711 15e0 420D     		lsrs	r2, r0, #21
ARM GAS  C:\Users\NIGHDR~1\AppData\Local\Temp\ccvJ0Ig2.s 			page 129


 6712 15e2 2243     		orrs	r2, r4
 6713 15e4 4B15     		asrs	r3, r1, #21
 6714              	.LVL1101:
 586:sc.c          ****     s9 += carry8;
 6715              		.loc 1 586 0
 6716 15e6 0E9C     		ldr	r4, [sp, #56]
 6717 15e8 0F9D     		ldr	r5, [sp, #60]
 6718 15ea A418     		adds	r4, r4, r2
 6719 15ec 5D41     		adcs	r5, r5, r3
 6720 15ee 0494     		str	r4, [sp, #16]
 6721 15f0 0595     		str	r5, [sp, #20]
 6722              	.LVL1102:
 587:sc.c          ****     s8 -= carry8 << 21;
 6723              		.loc 1 587 0
 6724 15f2 D50A     		lsrs	r5, r2, #11
 6725 15f4 5905     		lsls	r1, r3, #21
 6726 15f6 2943     		orrs	r1, r5
 6727 15f8 5005     		lsls	r0, r2, #21
 6728 15fa 361A     		subs	r6, r6, r0
 6729 15fc 8F41     		sbcs	r7, r7, r1
 6730              	.LVL1103:
 6731 15fe 0A96     		str	r6, [sp, #40]
 6732 1600 0B97     		str	r7, [sp, #44]
 6733              	.LVL1104:
 588:sc.c          ****     carry10 = (s10 + (1 << 20)) >> 21;
 6734              		.loc 1 588 0
 6735 1602 8021     		movs	r1, #128
 6736 1604 4903     		lsls	r1, r1, #13
 6737 1606 0022     		movs	r2, #0
 6738              	.LVL1105:
 6739 1608 109C     		ldr	r4, [sp, #64]
 6740 160a 119D     		ldr	r5, [sp, #68]
 6741              	.LVL1106:
 6742 160c 2600     		movs	r6, r4
 6743              	.LVL1107:
 6744 160e 2F00     		movs	r7, r5
 6745 1610 8919     		adds	r1, r1, r6
 6746 1612 7A41     		adcs	r2, r2, r7
 6747 1614 0800     		movs	r0, r1
 6748 1616 1100     		movs	r1, r2
 6749 1618 D602     		lsls	r6, r2, #11
 6750 161a 420D     		lsrs	r2, r0, #21
 6751 161c 3243     		orrs	r2, r6
 6752 161e 4B15     		asrs	r3, r1, #21
 6753              	.LVL1108:
 589:sc.c          ****     s11 += carry10;
 6754              		.loc 1 589 0
 6755 1620 129E     		ldr	r6, [sp, #72]
 6756 1622 139F     		ldr	r7, [sp, #76]
 6757 1624 B618     		adds	r6, r6, r2
 6758 1626 5F41     		adcs	r7, r7, r3
 6759 1628 0E96     		str	r6, [sp, #56]
 6760 162a 0F97     		str	r7, [sp, #60]
 6761              	.LVL1109:
 590:sc.c          ****     s10 -= carry10 << 21;
 6762              		.loc 1 590 0
 6763 162c D70A     		lsrs	r7, r2, #11
ARM GAS  C:\Users\NIGHDR~1\AppData\Local\Temp\ccvJ0Ig2.s 			page 130


 6764 162e 5905     		lsls	r1, r3, #21
 6765 1630 3943     		orrs	r1, r7
 6766 1632 5005     		lsls	r0, r2, #21
 6767 1634 2200     		movs	r2, r4
 6768              	.LVL1110:
 6769 1636 2B00     		movs	r3, r5
 6770 1638 121A     		subs	r2, r2, r0
 6771 163a 8B41     		sbcs	r3, r3, r1
 6772 163c 1092     		str	r2, [sp, #64]
 6773 163e 1193     		str	r3, [sp, #68]
 6774              	.LVL1111:
 591:sc.c          ****     carry12 = (s12 + (1 << 20)) >> 21;
 6775              		.loc 1 591 0
 6776 1640 8025     		movs	r5, #128
 6777 1642 6D03     		lsls	r5, r5, #13
 6778 1644 0026     		movs	r6, #0
 6779              	.LVL1112:
 6780 1646 0299     		ldr	r1, [sp, #8]
 6781 1648 039A     		ldr	r2, [sp, #12]
 6782 164a 6D18     		adds	r5, r5, r1
 6783 164c 5641     		adcs	r6, r6, r2
 6784 164e F702     		lsls	r7, r6, #11
 6785 1650 6A0D     		lsrs	r2, r5, #21
 6786              	.LVL1113:
 6787 1652 3A43     		orrs	r2, r7
 6788 1654 7315     		asrs	r3, r6, #21
 6789              	.LVL1114:
 592:sc.c          ****     s13 += carry12;
 6790              		.loc 1 592 0
 6791 1656 1698     		ldr	r0, [sp, #88]
 6792 1658 1799     		ldr	r1, [sp, #92]
 6793 165a 8018     		adds	r0, r0, r2
 6794 165c 5941     		adcs	r1, r1, r3
 6795 165e 1290     		str	r0, [sp, #72]
 6796 1660 1391     		str	r1, [sp, #76]
 6797              	.LVL1115:
 593:sc.c          ****     s12 -= carry12 << 21;
 6798              		.loc 1 593 0
 6799 1662 D70A     		lsrs	r7, r2, #11
 6800 1664 5905     		lsls	r1, r3, #21
 6801 1666 3943     		orrs	r1, r7
 6802 1668 5005     		lsls	r0, r2, #21
 6803              	.LVL1116:
 6804 166a 029A     		ldr	r2, [sp, #8]
 6805 166c 039B     		ldr	r3, [sp, #12]
 6806              	.LVL1117:
 6807 166e 121A     		subs	r2, r2, r0
 6808 1670 8B41     		sbcs	r3, r3, r1
 6809 1672 0292     		str	r2, [sp, #8]
 6810 1674 0393     		str	r3, [sp, #12]
 6811              	.LVL1118:
 594:sc.c          ****     carry14 = (s14 + (1 << 20)) >> 21;
 6812              		.loc 1 594 0
 6813 1676 8025     		movs	r5, #128
 6814 1678 6D03     		lsls	r5, r5, #13
 6815 167a 0026     		movs	r6, #0
 6816 167c 0099     		ldr	r1, [sp]
ARM GAS  C:\Users\NIGHDR~1\AppData\Local\Temp\ccvJ0Ig2.s 			page 131


 6817 167e 019A     		ldr	r2, [sp, #4]
 6818 1680 6D18     		adds	r5, r5, r1
 6819 1682 5641     		adcs	r6, r6, r2
 6820 1684 F702     		lsls	r7, r6, #11
 6821 1686 6A0D     		lsrs	r2, r5, #21
 6822              	.LVL1119:
 6823 1688 3A43     		orrs	r2, r7
 6824 168a 7315     		asrs	r3, r6, #21
 6825              	.LVL1120:
 595:sc.c          ****     s15 += carry14;
 6826              		.loc 1 595 0
 6827 168c 1498     		ldr	r0, [sp, #80]
 6828 168e 1599     		ldr	r1, [sp, #84]
 6829 1690 8018     		adds	r0, r0, r2
 6830 1692 5941     		adcs	r1, r1, r3
 6831 1694 1490     		str	r0, [sp, #80]
 6832 1696 1591     		str	r1, [sp, #84]
 6833              	.LVL1121:
 596:sc.c          ****     s14 -= carry14 << 21;
 6834              		.loc 1 596 0
 6835 1698 D70A     		lsrs	r7, r2, #11
 6836 169a 5905     		lsls	r1, r3, #21
 6837 169c 3943     		orrs	r1, r7
 6838 169e 5005     		lsls	r0, r2, #21
 6839              	.LVL1122:
 6840 16a0 009A     		ldr	r2, [sp]
 6841 16a2 019B     		ldr	r3, [sp, #4]
 6842              	.LVL1123:
 6843 16a4 121A     		subs	r2, r2, r0
 6844 16a6 8B41     		sbcs	r3, r3, r1
 6845 16a8 1692     		str	r2, [sp, #88]
 6846 16aa 1793     		str	r3, [sp, #92]
 6847              	.LVL1124:
 597:sc.c          ****     carry16 = (s16 + (1 << 20)) >> 21;
 6848              		.loc 1 597 0
 6849 16ac 8025     		movs	r5, #128
 6850 16ae 6D03     		lsls	r5, r5, #13
 6851 16b0 0026     		movs	r6, #0
 6852 16b2 0899     		ldr	r1, [sp, #32]
 6853 16b4 099A     		ldr	r2, [sp, #36]
 6854 16b6 6D18     		adds	r5, r5, r1
 6855 16b8 5641     		adcs	r6, r6, r2
 6856 16ba F702     		lsls	r7, r6, #11
 6857 16bc 6A0D     		lsrs	r2, r5, #21
 6858              	.LVL1125:
 6859 16be 3A43     		orrs	r2, r7
 6860 16c0 7315     		asrs	r3, r6, #21
 6861              	.LVL1126:
 598:sc.c          ****     s17 += carry16;
 6862              		.loc 1 598 0
 6863 16c2 3098     		ldr	r0, [sp, #192]
 6864 16c4 3199     		ldr	r1, [sp, #196]
 6865 16c6 8018     		adds	r0, r0, r2
 6866 16c8 5941     		adcs	r1, r1, r3
 6867 16ca 0090     		str	r0, [sp]
 6868 16cc 0191     		str	r1, [sp, #4]
 6869              	.LVL1127:
ARM GAS  C:\Users\NIGHDR~1\AppData\Local\Temp\ccvJ0Ig2.s 			page 132


 599:sc.c          ****     s16 -= carry16 << 21;
 6870              		.loc 1 599 0
 6871 16ce D70A     		lsrs	r7, r2, #11
 6872 16d0 5905     		lsls	r1, r3, #21
 6873 16d2 3943     		orrs	r1, r7
 6874 16d4 5005     		lsls	r0, r2, #21
 6875              	.LVL1128:
 6876 16d6 089A     		ldr	r2, [sp, #32]
 6877 16d8 099B     		ldr	r3, [sp, #36]
 6878              	.LVL1129:
 6879 16da 121A     		subs	r2, r2, r0
 6880 16dc 8B41     		sbcs	r3, r3, r1
 6881 16de 0892     		str	r2, [sp, #32]
 6882 16e0 0993     		str	r3, [sp, #36]
 6883              	.LVL1130:
 600:sc.c          ****     carry7 = (s7 + (1 << 20)) >> 21;
 6884              		.loc 1 600 0
 6885 16e2 8025     		movs	r5, #128
 6886 16e4 6D03     		lsls	r5, r5, #13
 6887 16e6 0026     		movs	r6, #0
 6888 16e8 069A     		ldr	r2, [sp, #24]
 6889 16ea 079B     		ldr	r3, [sp, #28]
 6890              	.LVL1131:
 6891 16ec AD18     		adds	r5, r5, r2
 6892 16ee 5E41     		adcs	r6, r6, r3
 6893 16f0 F702     		lsls	r7, r6, #11
 6894 16f2 6A0D     		lsrs	r2, r5, #21
 6895 16f4 3A43     		orrs	r2, r7
 6896 16f6 7315     		asrs	r3, r6, #21
 6897              	.LVL1132:
 601:sc.c          ****     s8 += carry7;
 6898              		.loc 1 601 0
 6899 16f8 0A98     		ldr	r0, [sp, #40]
 6900 16fa 0B99     		ldr	r1, [sp, #44]
 6901 16fc 8018     		adds	r0, r0, r2
 6902 16fe 5941     		adcs	r1, r1, r3
 6903 1700 1A90     		str	r0, [sp, #104]
 6904 1702 1B91     		str	r1, [sp, #108]
 6905              	.LVL1133:
 602:sc.c          ****     s7 -= carry7 << 21;
 6906              		.loc 1 602 0
 6907 1704 D10A     		lsrs	r1, r2, #11
 6908 1706 8C46     		mov	ip, r1
 6909 1708 5905     		lsls	r1, r3, #21
 6910 170a 6746     		mov	r7, ip
 6911 170c 3943     		orrs	r1, r7
 6912 170e 5005     		lsls	r0, r2, #21
 6913              	.LVL1134:
 6914 1710 069A     		ldr	r2, [sp, #24]
 6915 1712 079B     		ldr	r3, [sp, #28]
 6916              	.LVL1135:
 6917 1714 121A     		subs	r2, r2, r0
 6918 1716 8B41     		sbcs	r3, r3, r1
 6919 1718 1C92     		str	r2, [sp, #112]
 6920 171a 1D93     		str	r3, [sp, #116]
 6921              	.LVL1136:
 603:sc.c          ****     carry9 = (s9 + (1 << 20)) >> 21;
ARM GAS  C:\Users\NIGHDR~1\AppData\Local\Temp\ccvJ0Ig2.s 			page 133


 6922              		.loc 1 603 0
 6923 171c 8021     		movs	r1, #128
 6924 171e 4903     		lsls	r1, r1, #13
 6925 1720 0022     		movs	r2, #0
 6926              	.LVL1137:
 6927 1722 049C     		ldr	r4, [sp, #16]
 6928 1724 059D     		ldr	r5, [sp, #20]
 6929 1726 0919     		adds	r1, r1, r4
 6930 1728 6A41     		adcs	r2, r2, r5
 6931 172a 0800     		movs	r0, r1
 6932 172c 1100     		movs	r1, r2
 6933 172e D702     		lsls	r7, r2, #11
 6934 1730 420D     		lsrs	r2, r0, #21
 6935 1732 3A43     		orrs	r2, r7
 6936 1734 4B15     		asrs	r3, r1, #21
 6937              	.LVL1138:
 604:sc.c          ****     s10 += carry9;
 6938              		.loc 1 604 0
 6939 1736 1098     		ldr	r0, [sp, #64]
 6940 1738 1199     		ldr	r1, [sp, #68]
 6941 173a 8018     		adds	r0, r0, r2
 6942 173c 5941     		adcs	r1, r1, r3
 6943 173e 1090     		str	r0, [sp, #64]
 6944 1740 1191     		str	r1, [sp, #68]
 6945              	.LVL1139:
 605:sc.c          ****     s9 -= carry9 << 21;
 6946              		.loc 1 605 0
 6947 1742 D10A     		lsrs	r1, r2, #11
 6948 1744 8C46     		mov	ip, r1
 6949 1746 5905     		lsls	r1, r3, #21
 6950 1748 6746     		mov	r7, ip
 6951 174a 3943     		orrs	r1, r7
 6952 174c 5005     		lsls	r0, r2, #21
 6953              	.LVL1140:
 6954 174e 2300     		movs	r3, r4
 6955 1750 2C00     		movs	r4, r5
 6956 1752 1B1A     		subs	r3, r3, r0
 6957 1754 8C41     		sbcs	r4, r4, r1
 6958 1756 1E93     		str	r3, [sp, #120]
 6959 1758 1F94     		str	r4, [sp, #124]
 6960              	.LVL1141:
 606:sc.c          ****     carry11 = (s11 + (1 << 20)) >> 21;
 6961              		.loc 1 606 0
 6962 175a 8021     		movs	r1, #128
 6963 175c 4903     		lsls	r1, r1, #13
 6964 175e 0022     		movs	r2, #0
 6965              	.LVL1142:
 6966 1760 0E9E     		ldr	r6, [sp, #56]
 6967 1762 0F9F     		ldr	r7, [sp, #60]
 6968 1764 3300     		movs	r3, r6
 6969              	.LVL1143:
 6970 1766 3C00     		movs	r4, r7
 6971 1768 C918     		adds	r1, r1, r3
 6972 176a 6241     		adcs	r2, r2, r4
 6973 176c 0800     		movs	r0, r1
 6974 176e 1100     		movs	r1, r2
 6975 1770 D402     		lsls	r4, r2, #11
ARM GAS  C:\Users\NIGHDR~1\AppData\Local\Temp\ccvJ0Ig2.s 			page 134


 6976 1772 420D     		lsrs	r2, r0, #21
 6977 1774 2243     		orrs	r2, r4
 6978 1776 4B15     		asrs	r3, r1, #21
 6979              	.LVL1144:
 607:sc.c          ****     s12 += carry11;
 6980              		.loc 1 607 0
 6981 1778 029C     		ldr	r4, [sp, #8]
 6982 177a 039D     		ldr	r5, [sp, #12]
 6983 177c A418     		adds	r4, r4, r2
 6984 177e 5D41     		adcs	r5, r5, r3
 6985 1780 0A94     		str	r4, [sp, #40]
 6986 1782 0B95     		str	r5, [sp, #44]
 6987              	.LVL1145:
 608:sc.c          ****     s11 -= carry11 << 21;
 6988              		.loc 1 608 0
 6989 1784 D40A     		lsrs	r4, r2, #11
 6990              	.LVL1146:
 6991 1786 5905     		lsls	r1, r3, #21
 6992 1788 2143     		orrs	r1, r4
 6993 178a 5005     		lsls	r0, r2, #21
 6994 178c 3500     		movs	r5, r6
 6995 178e 3E00     		movs	r6, r7
 6996 1790 2D1A     		subs	r5, r5, r0
 6997 1792 8E41     		sbcs	r6, r6, r1
 6998 1794 0E95     		str	r5, [sp, #56]
 6999 1796 0F96     		str	r6, [sp, #60]
 7000              	.LVL1147:
 609:sc.c          ****     carry13 = (s13 + (1 << 20)) >> 21;
 7001              		.loc 1 609 0
 7002 1798 8021     		movs	r1, #128
 7003 179a 4903     		lsls	r1, r1, #13
 7004 179c 0022     		movs	r2, #0
 7005              	.LVL1148:
 7006 179e 129D     		ldr	r5, [sp, #72]
 7007 17a0 139E     		ldr	r6, [sp, #76]
 7008              	.LVL1149:
 7009 17a2 2B00     		movs	r3, r5
 7010 17a4 3400     		movs	r4, r6
 7011 17a6 C918     		adds	r1, r1, r3
 7012 17a8 6241     		adcs	r2, r2, r4
 7013 17aa 0800     		movs	r0, r1
 7014 17ac 1100     		movs	r1, r2
 7015 17ae D402     		lsls	r4, r2, #11
 7016 17b0 420D     		lsrs	r2, r0, #21
 7017 17b2 2243     		orrs	r2, r4
 7018 17b4 4B15     		asrs	r3, r1, #21
 7019              	.LVL1150:
 610:sc.c          ****     s14 += carry13;
 7020              		.loc 1 610 0
 7021 17b6 1698     		ldr	r0, [sp, #88]
 7022 17b8 1799     		ldr	r1, [sp, #92]
 7023 17ba 8018     		adds	r0, r0, r2
 7024 17bc 5941     		adcs	r1, r1, r3
 7025 17be 0290     		str	r0, [sp, #8]
 7026 17c0 0391     		str	r1, [sp, #12]
 7027              	.LVL1151:
 611:sc.c          ****     s13 -= carry13 << 21;
ARM GAS  C:\Users\NIGHDR~1\AppData\Local\Temp\ccvJ0Ig2.s 			page 135


 7028              		.loc 1 611 0
 7029 17c2 D40A     		lsrs	r4, r2, #11
 7030 17c4 5905     		lsls	r1, r3, #21
 7031 17c6 2143     		orrs	r1, r4
 7032 17c8 5005     		lsls	r0, r2, #21
 7033              	.LVL1152:
 7034 17ca 2B00     		movs	r3, r5
 7035 17cc 3400     		movs	r4, r6
 7036 17ce 1B1A     		subs	r3, r3, r0
 7037 17d0 8C41     		sbcs	r4, r4, r1
 7038 17d2 0493     		str	r3, [sp, #16]
 7039 17d4 0594     		str	r4, [sp, #20]
 7040              	.LVL1153:
 612:sc.c          ****     carry15 = (s15 + (1 << 20)) >> 21;
 7041              		.loc 1 612 0
 7042 17d6 8024     		movs	r4, #128
 7043 17d8 6403     		lsls	r4, r4, #13
 7044 17da 0025     		movs	r5, #0
 7045 17dc 149E     		ldr	r6, [sp, #80]
 7046 17de 159F     		ldr	r7, [sp, #84]
 7047 17e0 3100     		movs	r1, r6
 7048 17e2 3A00     		movs	r2, r7
 7049              	.LVL1154:
 7050 17e4 6418     		adds	r4, r4, r1
 7051 17e6 5541     		adcs	r5, r5, r2
 7052 17e8 2000     		movs	r0, r4
 7053 17ea EC02     		lsls	r4, r5, #11
 7054 17ec 420D     		lsrs	r2, r0, #21
 7055 17ee 2243     		orrs	r2, r4
 7056 17f0 6B15     		asrs	r3, r5, #21
 7057              	.LVL1155:
 613:sc.c          ****     s16 += carry15;
 7058              		.loc 1 613 0
 7059 17f2 0898     		ldr	r0, [sp, #32]
 7060 17f4 0999     		ldr	r1, [sp, #36]
 7061 17f6 8018     		adds	r0, r0, r2
 7062 17f8 5941     		adcs	r1, r1, r3
 7063 17fa 0690     		str	r0, [sp, #24]
 7064 17fc 0791     		str	r1, [sp, #28]
 7065              	.LVL1156:
 614:sc.c          ****     s15 -= carry15 << 21;
 7066              		.loc 1 614 0
 7067 17fe D40A     		lsrs	r4, r2, #11
 7068 1800 5905     		lsls	r1, r3, #21
 7069 1802 2143     		orrs	r1, r4
 7070 1804 5005     		lsls	r0, r2, #21
 7071              	.LVL1157:
 7072 1806 361A     		subs	r6, r6, r0
 7073 1808 8F41     		sbcs	r7, r7, r1
 7074 180a 0896     		str	r6, [sp, #32]
 7075 180c 0997     		str	r7, [sp, #36]
 7076              	.LVL1158:
 615:sc.c          ****     s5 += s17 * 666643;
 7077              		.loc 1 615 0
 7078 180e E04A     		ldr	r2, .L17
 7079              	.LVL1159:
 7080 1810 0023     		movs	r3, #0
ARM GAS  C:\Users\NIGHDR~1\AppData\Local\Temp\ccvJ0Ig2.s 			page 136


 7081 1812 009C     		ldr	r4, [sp]
 7082 1814 019D     		ldr	r5, [sp, #4]
 7083 1816 2000     		movs	r0, r4
 7084 1818 2900     		movs	r1, r5
 7085 181a FFF7FEFF 		bl	__aeabi_lmul
 7086              	.LVL1160:
 7087 181e 0C9E     		ldr	r6, [sp, #48]
 7088 1820 0D9F     		ldr	r7, [sp, #52]
 7089              	.LVL1161:
 7090 1822 3618     		adds	r6, r6, r0
 7091 1824 4F41     		adcs	r7, r7, r1
 7092              	.LVL1162:
 616:sc.c          ****     s6 += s17 * 470296;
 7093              		.loc 1 616 0
 7094 1826 DB4A     		ldr	r2, .L17+4
 7095 1828 0023     		movs	r3, #0
 7096 182a 0094     		str	r4, [sp]
 7097 182c 0195     		str	r5, [sp, #4]
 7098              	.LVL1163:
 7099 182e 2000     		movs	r0, r4
 7100 1830 2900     		movs	r1, r5
 7101 1832 FFF7FEFF 		bl	__aeabi_lmul
 7102              	.LVL1164:
 7103 1836 189B     		ldr	r3, [sp, #96]
 7104 1838 199C     		ldr	r4, [sp, #100]
 7105 183a 1B18     		adds	r3, r3, r0
 7106 183c 4C41     		adcs	r4, r4, r1
 7107 183e 2500     		movs	r5, r4
 7108 1840 1C00     		movs	r4, r3
 7109              	.LVL1165:
 617:sc.c          ****     s7 += s17 * 654183;
 7110              		.loc 1 617 0
 7111 1842 D54A     		ldr	r2, .L17+8
 7112 1844 0023     		movs	r3, #0
 7113 1846 0098     		ldr	r0, [sp]
 7114 1848 0199     		ldr	r1, [sp, #4]
 7115 184a FFF7FEFF 		bl	__aeabi_lmul
 7116              	.LVL1166:
 7117 184e 1C9A     		ldr	r2, [sp, #112]
 7118 1850 1D9B     		ldr	r3, [sp, #116]
 7119 1852 1218     		adds	r2, r2, r0
 7120 1854 4B41     		adcs	r3, r3, r1
 7121 1856 0C92     		str	r2, [sp, #48]
 7122 1858 0D93     		str	r3, [sp, #52]
 7123              	.LVL1167:
 618:sc.c          ****     s8 -= s17 * 997805;
 7124              		.loc 1 618 0
 7125 185a D04A     		ldr	r2, .L17+12
 7126              	.LVL1168:
 7127 185c 0123     		movs	r3, #1
 7128 185e 5B42     		rsbs	r3, r3, #0
 7129 1860 0098     		ldr	r0, [sp]
 7130 1862 0199     		ldr	r1, [sp, #4]
 7131 1864 FFF7FEFF 		bl	__aeabi_lmul
 7132              	.LVL1169:
 7133 1868 1A9A     		ldr	r2, [sp, #104]
 7134 186a 1B9B     		ldr	r3, [sp, #108]
ARM GAS  C:\Users\NIGHDR~1\AppData\Local\Temp\ccvJ0Ig2.s 			page 137


 7135 186c 1218     		adds	r2, r2, r0
 7136 186e 4B41     		adcs	r3, r3, r1
 7137 1870 1292     		str	r2, [sp, #72]
 7138 1872 1393     		str	r3, [sp, #76]
 7139              	.LVL1170:
 619:sc.c          ****     s9 += s17 * 136657;
 7140              		.loc 1 619 0
 7141 1874 CA4A     		ldr	r2, .L17+16
 7142              	.LVL1171:
 7143 1876 0023     		movs	r3, #0
 7144 1878 0098     		ldr	r0, [sp]
 7145 187a 0199     		ldr	r1, [sp, #4]
 7146 187c FFF7FEFF 		bl	__aeabi_lmul
 7147              	.LVL1172:
 7148 1880 1E9A     		ldr	r2, [sp, #120]
 7149 1882 1F9B     		ldr	r3, [sp, #124]
 7150 1884 1218     		adds	r2, r2, r0
 7151 1886 4B41     		adcs	r3, r3, r1
 7152 1888 1492     		str	r2, [sp, #80]
 7153 188a 1593     		str	r3, [sp, #84]
 7154              	.LVL1173:
 620:sc.c          ****     s10 -= s17 * 683901;
 7155              		.loc 1 620 0
 7156 188c C54A     		ldr	r2, .L17+20
 7157              	.LVL1174:
 7158 188e 0123     		movs	r3, #1
 7159 1890 5B42     		rsbs	r3, r3, #0
 7160 1892 0098     		ldr	r0, [sp]
 7161 1894 0199     		ldr	r1, [sp, #4]
 7162 1896 FFF7FEFF 		bl	__aeabi_lmul
 7163              	.LVL1175:
 7164 189a 109A     		ldr	r2, [sp, #64]
 7165 189c 119B     		ldr	r3, [sp, #68]
 7166 189e 1218     		adds	r2, r2, r0
 7167 18a0 4B41     		adcs	r3, r3, r1
 7168 18a2 0092     		str	r2, [sp]
 7169 18a4 0193     		str	r3, [sp, #4]
 7170              	.LVL1176:
 621:sc.c          ****     s17 = 0;
 622:sc.c          ****     s4 += s16 * 666643;
 7171              		.loc 1 622 0
 7172 18a6 BA4A     		ldr	r2, .L17
 7173              	.LVL1177:
 7174 18a8 0023     		movs	r3, #0
 7175 18aa 0698     		ldr	r0, [sp, #24]
 7176 18ac 0799     		ldr	r1, [sp, #28]
 7177 18ae FFF7FEFF 		bl	__aeabi_lmul
 7178              	.LVL1178:
 7179 18b2 269A     		ldr	r2, [sp, #152]
 7180 18b4 279B     		ldr	r3, [sp, #156]
 7181 18b6 1218     		adds	r2, r2, r0
 7182 18b8 4B41     		adcs	r3, r3, r1
 7183 18ba 1092     		str	r2, [sp, #64]
 7184 18bc 1193     		str	r3, [sp, #68]
 7185              	.LVL1179:
 623:sc.c          ****     s5 += s16 * 470296;
 7186              		.loc 1 623 0
ARM GAS  C:\Users\NIGHDR~1\AppData\Local\Temp\ccvJ0Ig2.s 			page 138


 7187 18be B54A     		ldr	r2, .L17+4
 7188              	.LVL1180:
 7189 18c0 0023     		movs	r3, #0
 7190 18c2 0698     		ldr	r0, [sp, #24]
 7191 18c4 0799     		ldr	r1, [sp, #28]
 7192 18c6 FFF7FEFF 		bl	__aeabi_lmul
 7193              	.LVL1181:
 7194 18ca 3618     		adds	r6, r6, r0
 7195 18cc 4F41     		adcs	r7, r7, r1
 7196              	.LVL1182:
 624:sc.c          ****     s6 += s16 * 654183;
 7197              		.loc 1 624 0
 7198 18ce B24A     		ldr	r2, .L17+8
 7199 18d0 0023     		movs	r3, #0
 7200 18d2 0698     		ldr	r0, [sp, #24]
 7201 18d4 0799     		ldr	r1, [sp, #28]
 7202 18d6 FFF7FEFF 		bl	__aeabi_lmul
 7203              	.LVL1183:
 7204 18da 2418     		adds	r4, r4, r0
 7205 18dc 4D41     		adcs	r5, r5, r1
 7206              	.LVL1184:
 625:sc.c          ****     s7 -= s16 * 997805;
 7207              		.loc 1 625 0
 7208 18de AF4A     		ldr	r2, .L17+12
 7209 18e0 0123     		movs	r3, #1
 7210 18e2 5B42     		rsbs	r3, r3, #0
 7211 18e4 0698     		ldr	r0, [sp, #24]
 7212 18e6 0799     		ldr	r1, [sp, #28]
 7213 18e8 FFF7FEFF 		bl	__aeabi_lmul
 7214              	.LVL1185:
 7215 18ec 0C9A     		ldr	r2, [sp, #48]
 7216 18ee 0D9B     		ldr	r3, [sp, #52]
 7217 18f0 1218     		adds	r2, r2, r0
 7218 18f2 4B41     		adcs	r3, r3, r1
 7219 18f4 0C92     		str	r2, [sp, #48]
 7220 18f6 0D93     		str	r3, [sp, #52]
 7221              	.LVL1186:
 626:sc.c          ****     s8 += s16 * 136657;
 7222              		.loc 1 626 0
 7223 18f8 A94A     		ldr	r2, .L17+16
 7224              	.LVL1187:
 7225 18fa 0023     		movs	r3, #0
 7226 18fc 0698     		ldr	r0, [sp, #24]
 7227 18fe 0799     		ldr	r1, [sp, #28]
 7228 1900 FFF7FEFF 		bl	__aeabi_lmul
 7229              	.LVL1188:
 7230 1904 129A     		ldr	r2, [sp, #72]
 7231 1906 139B     		ldr	r3, [sp, #76]
 7232 1908 1218     		adds	r2, r2, r0
 7233 190a 4B41     		adcs	r3, r3, r1
 7234 190c 1292     		str	r2, [sp, #72]
 7235 190e 1393     		str	r3, [sp, #76]
 7236              	.LVL1189:
 627:sc.c          ****     s9 -= s16 * 683901;
 7237              		.loc 1 627 0
 7238 1910 A44A     		ldr	r2, .L17+20
 7239              	.LVL1190:
ARM GAS  C:\Users\NIGHDR~1\AppData\Local\Temp\ccvJ0Ig2.s 			page 139


 7240 1912 0123     		movs	r3, #1
 7241 1914 5B42     		rsbs	r3, r3, #0
 7242 1916 0698     		ldr	r0, [sp, #24]
 7243 1918 0799     		ldr	r1, [sp, #28]
 7244 191a FFF7FEFF 		bl	__aeabi_lmul
 7245              	.LVL1191:
 7246 191e 149A     		ldr	r2, [sp, #80]
 7247 1920 159B     		ldr	r3, [sp, #84]
 7248 1922 1218     		adds	r2, r2, r0
 7249 1924 4B41     		adcs	r3, r3, r1
 7250 1926 1492     		str	r2, [sp, #80]
 7251 1928 1593     		str	r3, [sp, #84]
 7252              	.LVL1192:
 628:sc.c          ****     s16 = 0;
 629:sc.c          ****     s3 += s15 * 666643;
 7253              		.loc 1 629 0
 7254 192a 994A     		ldr	r2, .L17
 7255              	.LVL1193:
 7256 192c 0023     		movs	r3, #0
 7257 192e 0898     		ldr	r0, [sp, #32]
 7258 1930 0999     		ldr	r1, [sp, #36]
 7259 1932 FFF7FEFF 		bl	__aeabi_lmul
 7260              	.LVL1194:
 7261 1936 329A     		ldr	r2, [sp, #200]
 7262 1938 339B     		ldr	r3, [sp, #204]
 7263 193a 1218     		adds	r2, r2, r0
 7264 193c 4B41     		adcs	r3, r3, r1
 7265 193e 0692     		str	r2, [sp, #24]
 7266 1940 0793     		str	r3, [sp, #28]
 7267              	.LVL1195:
 630:sc.c          ****     s4 += s15 * 470296;
 7268              		.loc 1 630 0
 7269 1942 944A     		ldr	r2, .L17+4
 7270              	.LVL1196:
 7271 1944 0023     		movs	r3, #0
 7272 1946 0898     		ldr	r0, [sp, #32]
 7273 1948 0999     		ldr	r1, [sp, #36]
 7274 194a FFF7FEFF 		bl	__aeabi_lmul
 7275              	.LVL1197:
 7276 194e 109A     		ldr	r2, [sp, #64]
 7277 1950 119B     		ldr	r3, [sp, #68]
 7278 1952 1218     		adds	r2, r2, r0
 7279 1954 4B41     		adcs	r3, r3, r1
 7280 1956 1092     		str	r2, [sp, #64]
 7281 1958 1193     		str	r3, [sp, #68]
 7282              	.LVL1198:
 631:sc.c          ****     s5 += s15 * 654183;
 7283              		.loc 1 631 0
 7284 195a 8F4A     		ldr	r2, .L17+8
 7285              	.LVL1199:
 7286 195c 0023     		movs	r3, #0
 7287 195e 0898     		ldr	r0, [sp, #32]
 7288 1960 0999     		ldr	r1, [sp, #36]
 7289 1962 FFF7FEFF 		bl	__aeabi_lmul
 7290              	.LVL1200:
 7291 1966 3618     		adds	r6, r6, r0
 7292 1968 4F41     		adcs	r7, r7, r1
ARM GAS  C:\Users\NIGHDR~1\AppData\Local\Temp\ccvJ0Ig2.s 			page 140


 7293              	.LVL1201:
 632:sc.c          ****     s6 -= s15 * 997805;
 7294              		.loc 1 632 0
 7295 196a 8C4A     		ldr	r2, .L17+12
 7296 196c 0123     		movs	r3, #1
 7297 196e 5B42     		rsbs	r3, r3, #0
 7298 1970 0898     		ldr	r0, [sp, #32]
 7299 1972 0999     		ldr	r1, [sp, #36]
 7300 1974 FFF7FEFF 		bl	__aeabi_lmul
 7301              	.LVL1202:
 7302 1978 2418     		adds	r4, r4, r0
 7303 197a 4D41     		adcs	r5, r5, r1
 7304              	.LVL1203:
 633:sc.c          ****     s7 += s15 * 136657;
 7305              		.loc 1 633 0
 7306 197c 884A     		ldr	r2, .L17+16
 7307 197e 0023     		movs	r3, #0
 7308 1980 0898     		ldr	r0, [sp, #32]
 7309 1982 0999     		ldr	r1, [sp, #36]
 7310 1984 FFF7FEFF 		bl	__aeabi_lmul
 7311              	.LVL1204:
 7312 1988 0C9A     		ldr	r2, [sp, #48]
 7313 198a 0D9B     		ldr	r3, [sp, #52]
 7314 198c 1218     		adds	r2, r2, r0
 7315 198e 4B41     		adcs	r3, r3, r1
 7316 1990 0C92     		str	r2, [sp, #48]
 7317 1992 0D93     		str	r3, [sp, #52]
 7318              	.LVL1205:
 634:sc.c          ****     s8 -= s15 * 683901;
 7319              		.loc 1 634 0
 7320 1994 834A     		ldr	r2, .L17+20
 7321              	.LVL1206:
 7322 1996 0123     		movs	r3, #1
 7323 1998 5B42     		rsbs	r3, r3, #0
 7324 199a 0898     		ldr	r0, [sp, #32]
 7325 199c 0999     		ldr	r1, [sp, #36]
 7326 199e FFF7FEFF 		bl	__aeabi_lmul
 7327              	.LVL1207:
 7328 19a2 129A     		ldr	r2, [sp, #72]
 7329 19a4 139B     		ldr	r3, [sp, #76]
 7330 19a6 1218     		adds	r2, r2, r0
 7331 19a8 4B41     		adcs	r3, r3, r1
 7332 19aa 1292     		str	r2, [sp, #72]
 7333 19ac 1393     		str	r3, [sp, #76]
 7334              	.LVL1208:
 635:sc.c          ****     s15 = 0;
 636:sc.c          ****     s2 += s14 * 666643;
 7335              		.loc 1 636 0
 7336 19ae 784A     		ldr	r2, .L17
 7337              	.LVL1209:
 7338 19b0 0023     		movs	r3, #0
 7339 19b2 0298     		ldr	r0, [sp, #8]
 7340 19b4 0399     		ldr	r1, [sp, #12]
 7341 19b6 FFF7FEFF 		bl	__aeabi_lmul
 7342              	.LVL1210:
 7343 19ba 209A     		ldr	r2, [sp, #128]
 7344 19bc 219B     		ldr	r3, [sp, #132]
ARM GAS  C:\Users\NIGHDR~1\AppData\Local\Temp\ccvJ0Ig2.s 			page 141


 7345 19be 1218     		adds	r2, r2, r0
 7346 19c0 4B41     		adcs	r3, r3, r1
 7347 19c2 0892     		str	r2, [sp, #32]
 7348 19c4 0993     		str	r3, [sp, #36]
 7349              	.LVL1211:
 637:sc.c          ****     s3 += s14 * 470296;
 7350              		.loc 1 637 0
 7351 19c6 734A     		ldr	r2, .L17+4
 7352              	.LVL1212:
 7353 19c8 0023     		movs	r3, #0
 7354 19ca 0298     		ldr	r0, [sp, #8]
 7355 19cc 0399     		ldr	r1, [sp, #12]
 7356 19ce FFF7FEFF 		bl	__aeabi_lmul
 7357              	.LVL1213:
 7358 19d2 069A     		ldr	r2, [sp, #24]
 7359 19d4 079B     		ldr	r3, [sp, #28]
 7360 19d6 1218     		adds	r2, r2, r0
 7361 19d8 4B41     		adcs	r3, r3, r1
 7362 19da 0692     		str	r2, [sp, #24]
 7363 19dc 0793     		str	r3, [sp, #28]
 7364              	.LVL1214:
 638:sc.c          ****     s4 += s14 * 654183;
 7365              		.loc 1 638 0
 7366 19de 6E4A     		ldr	r2, .L17+8
 7367              	.LVL1215:
 7368 19e0 0023     		movs	r3, #0
 7369 19e2 0298     		ldr	r0, [sp, #8]
 7370 19e4 0399     		ldr	r1, [sp, #12]
 7371 19e6 FFF7FEFF 		bl	__aeabi_lmul
 7372              	.LVL1216:
 7373 19ea 109A     		ldr	r2, [sp, #64]
 7374 19ec 119B     		ldr	r3, [sp, #68]
 7375 19ee 1218     		adds	r2, r2, r0
 7376 19f0 4B41     		adcs	r3, r3, r1
 7377 19f2 1092     		str	r2, [sp, #64]
 7378 19f4 1193     		str	r3, [sp, #68]
 7379              	.LVL1217:
 639:sc.c          ****     s5 -= s14 * 997805;
 7380              		.loc 1 639 0
 7381 19f6 694A     		ldr	r2, .L17+12
 7382              	.LVL1218:
 7383 19f8 0123     		movs	r3, #1
 7384 19fa 5B42     		rsbs	r3, r3, #0
 7385 19fc 0298     		ldr	r0, [sp, #8]
 7386 19fe 0399     		ldr	r1, [sp, #12]
 7387 1a00 FFF7FEFF 		bl	__aeabi_lmul
 7388              	.LVL1219:
 7389 1a04 3618     		adds	r6, r6, r0
 7390 1a06 4F41     		adcs	r7, r7, r1
 7391              	.LVL1220:
 640:sc.c          ****     s6 += s14 * 136657;
 7392              		.loc 1 640 0
 7393 1a08 654A     		ldr	r2, .L17+16
 7394 1a0a 0023     		movs	r3, #0
 7395 1a0c 0298     		ldr	r0, [sp, #8]
 7396 1a0e 0399     		ldr	r1, [sp, #12]
 7397 1a10 FFF7FEFF 		bl	__aeabi_lmul
ARM GAS  C:\Users\NIGHDR~1\AppData\Local\Temp\ccvJ0Ig2.s 			page 142


 7398              	.LVL1221:
 7399 1a14 2418     		adds	r4, r4, r0
 7400 1a16 4D41     		adcs	r5, r5, r1
 7401              	.LVL1222:
 641:sc.c          ****     s7 -= s14 * 683901;
 7402              		.loc 1 641 0
 7403 1a18 624A     		ldr	r2, .L17+20
 7404 1a1a 0123     		movs	r3, #1
 7405 1a1c 5B42     		rsbs	r3, r3, #0
 7406 1a1e 0298     		ldr	r0, [sp, #8]
 7407 1a20 0399     		ldr	r1, [sp, #12]
 7408 1a22 FFF7FEFF 		bl	__aeabi_lmul
 7409              	.LVL1223:
 7410 1a26 0C9A     		ldr	r2, [sp, #48]
 7411 1a28 0D9B     		ldr	r3, [sp, #52]
 7412 1a2a 1218     		adds	r2, r2, r0
 7413 1a2c 4B41     		adcs	r3, r3, r1
 7414 1a2e 0C92     		str	r2, [sp, #48]
 7415 1a30 0D93     		str	r3, [sp, #52]
 7416              	.LVL1224:
 642:sc.c          ****     s14 = 0;
 643:sc.c          ****     s1 += s13 * 666643;
 7417              		.loc 1 643 0
 7418 1a32 574A     		ldr	r2, .L17
 7419              	.LVL1225:
 7420 1a34 0023     		movs	r3, #0
 7421 1a36 0498     		ldr	r0, [sp, #16]
 7422 1a38 0599     		ldr	r1, [sp, #20]
 7423 1a3a FFF7FEFF 		bl	__aeabi_lmul
 7424              	.LVL1226:
 7425 1a3e 249A     		ldr	r2, [sp, #144]
 7426 1a40 259B     		ldr	r3, [sp, #148]
 7427 1a42 1218     		adds	r2, r2, r0
 7428 1a44 4B41     		adcs	r3, r3, r1
 7429 1a46 0292     		str	r2, [sp, #8]
 7430 1a48 0393     		str	r3, [sp, #12]
 7431              	.LVL1227:
 644:sc.c          ****     s2 += s13 * 470296;
 7432              		.loc 1 644 0
 7433 1a4a 524A     		ldr	r2, .L17+4
 7434              	.LVL1228:
 7435 1a4c 0023     		movs	r3, #0
 7436 1a4e 0498     		ldr	r0, [sp, #16]
 7437 1a50 0599     		ldr	r1, [sp, #20]
 7438 1a52 FFF7FEFF 		bl	__aeabi_lmul
 7439              	.LVL1229:
 7440 1a56 089A     		ldr	r2, [sp, #32]
 7441 1a58 099B     		ldr	r3, [sp, #36]
 7442 1a5a 1218     		adds	r2, r2, r0
 7443 1a5c 4B41     		adcs	r3, r3, r1
 7444 1a5e 0892     		str	r2, [sp, #32]
 7445 1a60 0993     		str	r3, [sp, #36]
 7446              	.LVL1230:
 645:sc.c          ****     s3 += s13 * 654183;
 7447              		.loc 1 645 0
 7448 1a62 4D4A     		ldr	r2, .L17+8
 7449              	.LVL1231:
ARM GAS  C:\Users\NIGHDR~1\AppData\Local\Temp\ccvJ0Ig2.s 			page 143


 7450 1a64 0023     		movs	r3, #0
 7451 1a66 0498     		ldr	r0, [sp, #16]
 7452 1a68 0599     		ldr	r1, [sp, #20]
 7453 1a6a FFF7FEFF 		bl	__aeabi_lmul
 7454              	.LVL1232:
 7455 1a6e 069A     		ldr	r2, [sp, #24]
 7456 1a70 079B     		ldr	r3, [sp, #28]
 7457 1a72 1218     		adds	r2, r2, r0
 7458 1a74 4B41     		adcs	r3, r3, r1
 7459 1a76 0692     		str	r2, [sp, #24]
 7460 1a78 0793     		str	r3, [sp, #28]
 7461              	.LVL1233:
 646:sc.c          ****     s4 -= s13 * 997805;
 7462              		.loc 1 646 0
 7463 1a7a 484A     		ldr	r2, .L17+12
 7464              	.LVL1234:
 7465 1a7c 0123     		movs	r3, #1
 7466 1a7e 5B42     		rsbs	r3, r3, #0
 7467 1a80 0498     		ldr	r0, [sp, #16]
 7468 1a82 0599     		ldr	r1, [sp, #20]
 7469 1a84 FFF7FEFF 		bl	__aeabi_lmul
 7470              	.LVL1235:
 7471 1a88 109A     		ldr	r2, [sp, #64]
 7472 1a8a 119B     		ldr	r3, [sp, #68]
 7473 1a8c 1218     		adds	r2, r2, r0
 7474 1a8e 4B41     		adcs	r3, r3, r1
 7475 1a90 1092     		str	r2, [sp, #64]
 7476 1a92 1193     		str	r3, [sp, #68]
 7477              	.LVL1236:
 647:sc.c          ****     s5 += s13 * 136657;
 7478              		.loc 1 647 0
 7479 1a94 424A     		ldr	r2, .L17+16
 7480              	.LVL1237:
 7481 1a96 0023     		movs	r3, #0
 7482 1a98 0498     		ldr	r0, [sp, #16]
 7483 1a9a 0599     		ldr	r1, [sp, #20]
 7484 1a9c FFF7FEFF 		bl	__aeabi_lmul
 7485              	.LVL1238:
 7486 1aa0 3618     		adds	r6, r6, r0
 7487 1aa2 4F41     		adcs	r7, r7, r1
 7488              	.LVL1239:
 7489 1aa4 1696     		str	r6, [sp, #88]
 7490 1aa6 1797     		str	r7, [sp, #92]
 7491              	.LVL1240:
 648:sc.c          ****     s6 -= s13 * 683901;
 7492              		.loc 1 648 0
 7493 1aa8 3E4A     		ldr	r2, .L17+20
 7494 1aaa 0123     		movs	r3, #1
 7495 1aac 5B42     		rsbs	r3, r3, #0
 7496 1aae 0498     		ldr	r0, [sp, #16]
 7497 1ab0 0599     		ldr	r1, [sp, #20]
 7498 1ab2 FFF7FEFF 		bl	__aeabi_lmul
 7499              	.LVL1241:
 7500 1ab6 2300     		movs	r3, r4
 7501 1ab8 2C00     		movs	r4, r5
 7502              	.LVL1242:
 7503 1aba 1B18     		adds	r3, r3, r0
ARM GAS  C:\Users\NIGHDR~1\AppData\Local\Temp\ccvJ0Ig2.s 			page 144


 7504 1abc 4C41     		adcs	r4, r4, r1
 7505 1abe 1893     		str	r3, [sp, #96]
 7506 1ac0 1994     		str	r4, [sp, #100]
 7507              	.LVL1243:
 649:sc.c          ****     s13 = 0;
 650:sc.c          ****     s0 += s12 * 666643;
 7508              		.loc 1 650 0
 7509 1ac2 334A     		ldr	r2, .L17
 7510 1ac4 0023     		movs	r3, #0
 7511              	.LVL1244:
 7512 1ac6 0A9C     		ldr	r4, [sp, #40]
 7513 1ac8 0B9D     		ldr	r5, [sp, #44]
 7514 1aca 2000     		movs	r0, r4
 7515 1acc 2900     		movs	r1, r5
 7516 1ace FFF7FEFF 		bl	__aeabi_lmul
 7517              	.LVL1245:
 7518 1ad2 229E     		ldr	r6, [sp, #136]
 7519 1ad4 239F     		ldr	r7, [sp, #140]
 7520              	.LVL1246:
 7521 1ad6 3618     		adds	r6, r6, r0
 7522 1ad8 4F41     		adcs	r7, r7, r1
 7523              	.LVL1247:
 651:sc.c          ****     s1 += s12 * 470296;
 7524              		.loc 1 651 0
 7525 1ada 2E4A     		ldr	r2, .L17+4
 7526 1adc 0023     		movs	r3, #0
 7527 1ade 0A94     		str	r4, [sp, #40]
 7528 1ae0 0B95     		str	r5, [sp, #44]
 7529              	.LVL1248:
 7530 1ae2 2000     		movs	r0, r4
 7531 1ae4 2900     		movs	r1, r5
 7532 1ae6 FFF7FEFF 		bl	__aeabi_lmul
 7533              	.LVL1249:
 7534 1aea 029C     		ldr	r4, [sp, #8]
 7535 1aec 039D     		ldr	r5, [sp, #12]
 7536              	.LVL1250:
 7537 1aee 2418     		adds	r4, r4, r0
 7538 1af0 4D41     		adcs	r5, r5, r1
 7539 1af2 0294     		str	r4, [sp, #8]
 7540 1af4 0395     		str	r5, [sp, #12]
 7541              	.LVL1251:
 652:sc.c          ****     s2 += s12 * 654183;
 7542              		.loc 1 652 0
 7543 1af6 284A     		ldr	r2, .L17+8
 7544 1af8 0023     		movs	r3, #0
 7545 1afa 0A9C     		ldr	r4, [sp, #40]
 7546 1afc 0B9D     		ldr	r5, [sp, #44]
 7547              	.LVL1252:
 7548 1afe 2000     		movs	r0, r4
 7549 1b00 2900     		movs	r1, r5
 7550 1b02 FFF7FEFF 		bl	__aeabi_lmul
 7551              	.LVL1253:
 7552 1b06 089A     		ldr	r2, [sp, #32]
 7553 1b08 099B     		ldr	r3, [sp, #36]
 7554 1b0a 1218     		adds	r2, r2, r0
 7555 1b0c 4B41     		adcs	r3, r3, r1
 7556 1b0e 0492     		str	r2, [sp, #16]
ARM GAS  C:\Users\NIGHDR~1\AppData\Local\Temp\ccvJ0Ig2.s 			page 145


 7557 1b10 0593     		str	r3, [sp, #20]
 7558              	.LVL1254:
 653:sc.c          ****     s3 -= s12 * 997805;
 7559              		.loc 1 653 0
 7560 1b12 224A     		ldr	r2, .L17+12
 7561              	.LVL1255:
 7562 1b14 0123     		movs	r3, #1
 7563 1b16 5B42     		rsbs	r3, r3, #0
 7564 1b18 2000     		movs	r0, r4
 7565 1b1a 2900     		movs	r1, r5
 7566 1b1c FFF7FEFF 		bl	__aeabi_lmul
 7567              	.LVL1256:
 7568 1b20 069A     		ldr	r2, [sp, #24]
 7569 1b22 079B     		ldr	r3, [sp, #28]
 7570 1b24 1218     		adds	r2, r2, r0
 7571 1b26 4B41     		adcs	r3, r3, r1
 7572 1b28 0692     		str	r2, [sp, #24]
 7573 1b2a 0793     		str	r3, [sp, #28]
 7574              	.LVL1257:
 654:sc.c          ****     s4 += s12 * 136657;
 7575              		.loc 1 654 0
 7576 1b2c 1C4A     		ldr	r2, .L17+16
 7577              	.LVL1258:
 7578 1b2e 0023     		movs	r3, #0
 7579 1b30 2000     		movs	r0, r4
 7580 1b32 2900     		movs	r1, r5
 7581 1b34 FFF7FEFF 		bl	__aeabi_lmul
 7582              	.LVL1259:
 7583 1b38 109A     		ldr	r2, [sp, #64]
 7584 1b3a 119B     		ldr	r3, [sp, #68]
 7585 1b3c 1218     		adds	r2, r2, r0
 7586 1b3e 4B41     		adcs	r3, r3, r1
 7587 1b40 0892     		str	r2, [sp, #32]
 7588 1b42 0993     		str	r3, [sp, #36]
 7589              	.LVL1260:
 655:sc.c          ****     s5 -= s12 * 683901;
 7590              		.loc 1 655 0
 7591 1b44 174A     		ldr	r2, .L17+20
 7592              	.LVL1261:
 7593 1b46 0123     		movs	r3, #1
 7594 1b48 5B42     		rsbs	r3, r3, #0
 7595 1b4a 2000     		movs	r0, r4
 7596 1b4c 2900     		movs	r1, r5
 7597 1b4e FFF7FEFF 		bl	__aeabi_lmul
 7598              	.LVL1262:
 7599 1b52 169A     		ldr	r2, [sp, #88]
 7600 1b54 179B     		ldr	r3, [sp, #92]
 7601 1b56 1218     		adds	r2, r2, r0
 7602 1b58 4B41     		adcs	r3, r3, r1
 7603 1b5a 0A92     		str	r2, [sp, #40]
 7604 1b5c 0B93     		str	r3, [sp, #44]
 7605              	.LVL1263:
 656:sc.c          ****     s12 = 0;
 657:sc.c          ****     carry0 = (s0 + (1 << 20)) >> 21;
 7606              		.loc 1 657 0
 7607 1b5e 8020     		movs	r0, #128
 7608 1b60 4003     		lsls	r0, r0, #13
ARM GAS  C:\Users\NIGHDR~1\AppData\Local\Temp\ccvJ0Ig2.s 			page 146


 7609 1b62 0021     		movs	r1, #0
 7610 1b64 8019     		adds	r0, r0, r6
 7611 1b66 7941     		adcs	r1, r1, r7
 7612 1b68 CB02     		lsls	r3, r1, #11
 7613 1b6a 420D     		lsrs	r2, r0, #21
 7614              	.LVL1264:
 7615 1b6c 1A43     		orrs	r2, r3
 7616 1b6e 4B15     		asrs	r3, r1, #21
 7617              	.LVL1265:
 658:sc.c          ****     s1 += carry0;
 7618              		.loc 1 658 0
 7619 1b70 0298     		ldr	r0, [sp, #8]
 7620 1b72 0399     		ldr	r1, [sp, #12]
 7621 1b74 8018     		adds	r0, r0, r2
 7622 1b76 5941     		adcs	r1, r1, r3
 7623 1b78 0290     		str	r0, [sp, #8]
 7624 1b7a 0391     		str	r1, [sp, #12]
 7625              	.LVL1266:
 659:sc.c          ****     s0 -= carry0 << 21;
 7626              		.loc 1 659 0
 7627 1b7c D10A     		lsrs	r1, r2, #11
 7628 1b7e 8C46     		mov	ip, r1
 7629 1b80 5905     		lsls	r1, r3, #21
 7630 1b82 6446     		mov	r4, ip
 7631 1b84 2143     		orrs	r1, r4
 7632 1b86 5005     		lsls	r0, r2, #21
 7633              	.LVL1267:
 7634 1b88 361A     		subs	r6, r6, r0
 7635 1b8a 8F41     		sbcs	r7, r7, r1
 7636 1b8c 0CE0     		b	.L18
 7637              	.L19:
 7638 1b8e C046     		.align	2
 7639              	.L17:
 7640 1b90 132C0A00 		.word	666643
 7641 1b94 182D0700 		.word	470296
 7642 1b98 67FB0900 		.word	654183
 7643 1b9c 53C6F0FF 		.word	-997805
 7644 1ba0 D1150200 		.word	136657
 7645 1ba4 8390F5FF 		.word	-683901
 7646              	.L18:
 7647              	.LVL1268:
 7648 1ba8 1096     		str	r6, [sp, #64]
 7649 1baa 1197     		str	r7, [sp, #68]
 7650              	.LVL1269:
 660:sc.c          ****     carry2 = (s2 + (1 << 20)) >> 21;
 7651              		.loc 1 660 0
 7652 1bac 8026     		movs	r6, #128
 7653              	.LVL1270:
 7654 1bae 7603     		lsls	r6, r6, #13
 7655 1bb0 0027     		movs	r7, #0
 7656 1bb2 049C     		ldr	r4, [sp, #16]
 7657 1bb4 059D     		ldr	r5, [sp, #20]
 7658 1bb6 2100     		movs	r1, r4
 7659 1bb8 2A00     		movs	r2, r5
 7660              	.LVL1271:
 7661 1bba 7618     		adds	r6, r6, r1
 7662 1bbc 5741     		adcs	r7, r7, r2
ARM GAS  C:\Users\NIGHDR~1\AppData\Local\Temp\ccvJ0Ig2.s 			page 147


 7663 1bbe 3000     		movs	r0, r6
 7664 1bc0 FE02     		lsls	r6, r7, #11
 7665 1bc2 420D     		lsrs	r2, r0, #21
 7666 1bc4 3243     		orrs	r2, r6
 7667 1bc6 7B15     		asrs	r3, r7, #21
 7668              	.LVL1272:
 661:sc.c          ****     s3 += carry2;
 7669              		.loc 1 661 0
 7670 1bc8 069E     		ldr	r6, [sp, #24]
 7671 1bca 079F     		ldr	r7, [sp, #28]
 7672 1bcc B618     		adds	r6, r6, r2
 7673 1bce 5F41     		adcs	r7, r7, r3
 7674 1bd0 0496     		str	r6, [sp, #16]
 7675 1bd2 0597     		str	r7, [sp, #20]
 7676              	.LVL1273:
 662:sc.c          ****     s2 -= carry2 << 21;
 7677              		.loc 1 662 0
 7678 1bd4 D60A     		lsrs	r6, r2, #11
 7679              	.LVL1274:
 7680 1bd6 5905     		lsls	r1, r3, #21
 7681 1bd8 3143     		orrs	r1, r6
 7682 1bda 5005     		lsls	r0, r2, #21
 7683 1bdc 2600     		movs	r6, r4
 7684 1bde 2F00     		movs	r7, r5
 7685 1be0 361A     		subs	r6, r6, r0
 7686 1be2 8F41     		sbcs	r7, r7, r1
 7687 1be4 1696     		str	r6, [sp, #88]
 7688 1be6 1797     		str	r7, [sp, #92]
 7689              	.LVL1275:
 663:sc.c          ****     carry4 = (s4 + (1 << 20)) >> 21;
 7690              		.loc 1 663 0
 7691 1be8 8026     		movs	r6, #128
 7692              	.LVL1276:
 7693 1bea 7603     		lsls	r6, r6, #13
 7694 1bec 0027     		movs	r7, #0
 7695 1bee 089C     		ldr	r4, [sp, #32]
 7696 1bf0 099D     		ldr	r5, [sp, #36]
 7697 1bf2 2100     		movs	r1, r4
 7698 1bf4 2A00     		movs	r2, r5
 7699              	.LVL1277:
 7700 1bf6 7618     		adds	r6, r6, r1
 7701 1bf8 5741     		adcs	r7, r7, r2
 7702 1bfa 3000     		movs	r0, r6
 7703 1bfc FE02     		lsls	r6, r7, #11
 7704 1bfe 420D     		lsrs	r2, r0, #21
 7705 1c00 3243     		orrs	r2, r6
 7706 1c02 7B15     		asrs	r3, r7, #21
 7707              	.LVL1278:
 664:sc.c          ****     s5 += carry4;
 7708              		.loc 1 664 0
 7709 1c04 0A9E     		ldr	r6, [sp, #40]
 7710 1c06 0B9F     		ldr	r7, [sp, #44]
 7711 1c08 B618     		adds	r6, r6, r2
 7712 1c0a 5F41     		adcs	r7, r7, r3
 7713 1c0c 0696     		str	r6, [sp, #24]
 7714 1c0e 0797     		str	r7, [sp, #28]
 7715              	.LVL1279:
ARM GAS  C:\Users\NIGHDR~1\AppData\Local\Temp\ccvJ0Ig2.s 			page 148


 665:sc.c          ****     s4 -= carry4 << 21;
 7716              		.loc 1 665 0
 7717 1c10 D60A     		lsrs	r6, r2, #11
 7718              	.LVL1280:
 7719 1c12 5905     		lsls	r1, r3, #21
 7720 1c14 3143     		orrs	r1, r6
 7721 1c16 5005     		lsls	r0, r2, #21
 7722 1c18 2600     		movs	r6, r4
 7723 1c1a 2F00     		movs	r7, r5
 7724 1c1c 361A     		subs	r6, r6, r0
 7725 1c1e 8F41     		sbcs	r7, r7, r1
 7726 1c20 1A96     		str	r6, [sp, #104]
 7727 1c22 1B97     		str	r7, [sp, #108]
 7728              	.LVL1281:
 666:sc.c          ****     carry6 = (s6 + (1 << 20)) >> 21;
 7729              		.loc 1 666 0
 7730 1c24 8026     		movs	r6, #128
 7731              	.LVL1282:
 7732 1c26 7603     		lsls	r6, r6, #13
 7733 1c28 0027     		movs	r7, #0
 7734 1c2a 189C     		ldr	r4, [sp, #96]
 7735 1c2c 199D     		ldr	r5, [sp, #100]
 7736 1c2e 2100     		movs	r1, r4
 7737 1c30 2A00     		movs	r2, r5
 7738              	.LVL1283:
 7739 1c32 7618     		adds	r6, r6, r1
 7740 1c34 5741     		adcs	r7, r7, r2
 7741 1c36 3000     		movs	r0, r6
 7742 1c38 FE02     		lsls	r6, r7, #11
 7743 1c3a 420D     		lsrs	r2, r0, #21
 7744 1c3c 3243     		orrs	r2, r6
 7745 1c3e 7B15     		asrs	r3, r7, #21
 7746              	.LVL1284:
 667:sc.c          ****     s7 += carry6;
 7747              		.loc 1 667 0
 7748 1c40 0C98     		ldr	r0, [sp, #48]
 7749 1c42 0D99     		ldr	r1, [sp, #52]
 7750 1c44 8018     		adds	r0, r0, r2
 7751 1c46 5941     		adcs	r1, r1, r3
 7752 1c48 0890     		str	r0, [sp, #32]
 7753 1c4a 0991     		str	r1, [sp, #36]
 7754              	.LVL1285:
 668:sc.c          ****     s6 -= carry6 << 21;
 7755              		.loc 1 668 0
 7756 1c4c D60A     		lsrs	r6, r2, #11
 7757 1c4e 5905     		lsls	r1, r3, #21
 7758 1c50 3143     		orrs	r1, r6
 7759 1c52 5005     		lsls	r0, r2, #21
 7760              	.LVL1286:
 7761 1c54 2600     		movs	r6, r4
 7762 1c56 2F00     		movs	r7, r5
 7763 1c58 361A     		subs	r6, r6, r0
 7764 1c5a 8F41     		sbcs	r7, r7, r1
 7765 1c5c 0C96     		str	r6, [sp, #48]
 7766 1c5e 0D97     		str	r7, [sp, #52]
 7767              	.LVL1287:
 669:sc.c          ****     carry8 = (s8 + (1 << 20)) >> 21;
ARM GAS  C:\Users\NIGHDR~1\AppData\Local\Temp\ccvJ0Ig2.s 			page 149


 7768              		.loc 1 669 0
 7769 1c60 8026     		movs	r6, #128
 7770              	.LVL1288:
 7771 1c62 7603     		lsls	r6, r6, #13
 7772 1c64 0027     		movs	r7, #0
 7773 1c66 129C     		ldr	r4, [sp, #72]
 7774 1c68 139D     		ldr	r5, [sp, #76]
 7775 1c6a 2100     		movs	r1, r4
 7776 1c6c 2A00     		movs	r2, r5
 7777              	.LVL1289:
 7778 1c6e 7618     		adds	r6, r6, r1
 7779 1c70 5741     		adcs	r7, r7, r2
 7780 1c72 3000     		movs	r0, r6
 7781 1c74 FE02     		lsls	r6, r7, #11
 7782 1c76 420D     		lsrs	r2, r0, #21
 7783 1c78 3243     		orrs	r2, r6
 7784 1c7a 7B15     		asrs	r3, r7, #21
 7785              	.LVL1290:
 670:sc.c          ****     s9 += carry8;
 7786              		.loc 1 670 0
 7787 1c7c 1498     		ldr	r0, [sp, #80]
 7788 1c7e 1599     		ldr	r1, [sp, #84]
 7789 1c80 8018     		adds	r0, r0, r2
 7790 1c82 5941     		adcs	r1, r1, r3
 7791 1c84 0A90     		str	r0, [sp, #40]
 7792 1c86 0B91     		str	r1, [sp, #44]
 7793              	.LVL1291:
 671:sc.c          ****     s8 -= carry8 << 21;
 7794              		.loc 1 671 0
 7795 1c88 D60A     		lsrs	r6, r2, #11
 7796 1c8a 5905     		lsls	r1, r3, #21
 7797 1c8c 3143     		orrs	r1, r6
 7798 1c8e 5005     		lsls	r0, r2, #21
 7799              	.LVL1292:
 7800 1c90 2200     		movs	r2, r4
 7801              	.LVL1293:
 7802 1c92 2B00     		movs	r3, r5
 7803 1c94 121A     		subs	r2, r2, r0
 7804 1c96 8B41     		sbcs	r3, r3, r1
 7805 1c98 1292     		str	r2, [sp, #72]
 7806 1c9a 1393     		str	r3, [sp, #76]
 7807              	.LVL1294:
 672:sc.c          ****     carry10 = (s10 + (1 << 20)) >> 21;
 7808              		.loc 1 672 0
 7809 1c9c 8026     		movs	r6, #128
 7810 1c9e 7603     		lsls	r6, r6, #13
 7811 1ca0 0027     		movs	r7, #0
 7812 1ca2 0099     		ldr	r1, [sp]
 7813 1ca4 019A     		ldr	r2, [sp, #4]
 7814 1ca6 7618     		adds	r6, r6, r1
 7815 1ca8 5741     		adcs	r7, r7, r2
 7816 1caa 3000     		movs	r0, r6
 7817 1cac FE02     		lsls	r6, r7, #11
 7818 1cae 420D     		lsrs	r2, r0, #21
 7819              	.LVL1295:
 7820 1cb0 3243     		orrs	r2, r6
 7821 1cb2 7B15     		asrs	r3, r7, #21
ARM GAS  C:\Users\NIGHDR~1\AppData\Local\Temp\ccvJ0Ig2.s 			page 150


 7822              	.LVL1296:
 673:sc.c          ****     s11 += carry10;
 7823              		.loc 1 673 0
 7824 1cb4 0E98     		ldr	r0, [sp, #56]
 7825 1cb6 0F99     		ldr	r1, [sp, #60]
 7826 1cb8 8018     		adds	r0, r0, r2
 7827 1cba 5941     		adcs	r1, r1, r3
 7828 1cbc 0600     		movs	r6, r0
 7829 1cbe 0F00     		movs	r7, r1
 7830              	.LVL1297:
 674:sc.c          ****     s10 -= carry10 << 21;
 7831              		.loc 1 674 0
 7832 1cc0 D50A     		lsrs	r5, r2, #11
 7833 1cc2 5905     		lsls	r1, r3, #21
 7834 1cc4 2943     		orrs	r1, r5
 7835 1cc6 5005     		lsls	r0, r2, #21
 7836 1cc8 009A     		ldr	r2, [sp]
 7837 1cca 019B     		ldr	r3, [sp, #4]
 7838              	.LVL1298:
 7839 1ccc 121A     		subs	r2, r2, r0
 7840 1cce 8B41     		sbcs	r3, r3, r1
 7841 1cd0 0092     		str	r2, [sp]
 7842 1cd2 0193     		str	r3, [sp, #4]
 7843              	.LVL1299:
 675:sc.c          ****     carry1 = (s1 + (1 << 20)) >> 21;
 7844              		.loc 1 675 0
 7845 1cd4 8021     		movs	r1, #128
 7846 1cd6 4903     		lsls	r1, r1, #13
 7847 1cd8 0022     		movs	r2, #0
 7848              	.LVL1300:
 7849 1cda 029B     		ldr	r3, [sp, #8]
 7850 1cdc 039C     		ldr	r4, [sp, #12]
 7851 1cde C918     		adds	r1, r1, r3
 7852 1ce0 6241     		adcs	r2, r2, r4
 7853 1ce2 0800     		movs	r0, r1
 7854 1ce4 1100     		movs	r1, r2
 7855 1ce6 D502     		lsls	r5, r2, #11
 7856 1ce8 420D     		lsrs	r2, r0, #21
 7857 1cea 2A43     		orrs	r2, r5
 7858 1cec 4B15     		asrs	r3, r1, #21
 7859              	.LVL1301:
 676:sc.c          ****     s2 += carry1;
 7860              		.loc 1 676 0
 7861 1cee 1698     		ldr	r0, [sp, #88]
 7862 1cf0 1799     		ldr	r1, [sp, #92]
 7863 1cf2 8018     		adds	r0, r0, r2
 7864 1cf4 5941     		adcs	r1, r1, r3
 7865 1cf6 0E90     		str	r0, [sp, #56]
 7866 1cf8 0F91     		str	r1, [sp, #60]
 7867              	.LVL1302:
 677:sc.c          ****     s1 -= carry1 << 21;
 7868              		.loc 1 677 0
 7869 1cfa D50A     		lsrs	r5, r2, #11
 7870 1cfc 5905     		lsls	r1, r3, #21
 7871 1cfe 2943     		orrs	r1, r5
 7872 1d00 5005     		lsls	r0, r2, #21
 7873              	.LVL1303:
ARM GAS  C:\Users\NIGHDR~1\AppData\Local\Temp\ccvJ0Ig2.s 			page 151


 7874 1d02 029B     		ldr	r3, [sp, #8]
 7875 1d04 039C     		ldr	r4, [sp, #12]
 7876 1d06 1B1A     		subs	r3, r3, r0
 7877 1d08 8C41     		sbcs	r4, r4, r1
 7878 1d0a 0293     		str	r3, [sp, #8]
 7879 1d0c 0394     		str	r4, [sp, #12]
 7880              	.LVL1304:
 678:sc.c          ****     carry3 = (s3 + (1 << 20)) >> 21;
 7881              		.loc 1 678 0
 7882 1d0e 8021     		movs	r1, #128
 7883 1d10 4903     		lsls	r1, r1, #13
 7884 1d12 0022     		movs	r2, #0
 7885              	.LVL1305:
 7886 1d14 049B     		ldr	r3, [sp, #16]
 7887 1d16 059C     		ldr	r4, [sp, #20]
 7888              	.LVL1306:
 7889 1d18 C918     		adds	r1, r1, r3
 7890 1d1a 6241     		adcs	r2, r2, r4
 7891 1d1c 0800     		movs	r0, r1
 7892 1d1e 1100     		movs	r1, r2
 7893 1d20 D402     		lsls	r4, r2, #11
 7894 1d22 420D     		lsrs	r2, r0, #21
 7895 1d24 2243     		orrs	r2, r4
 7896 1d26 4B15     		asrs	r3, r1, #21
 7897              	.LVL1307:
 679:sc.c          ****     s4 += carry3;
 7898              		.loc 1 679 0
 7899 1d28 1A9C     		ldr	r4, [sp, #104]
 7900 1d2a 1B9D     		ldr	r5, [sp, #108]
 7901 1d2c A418     		adds	r4, r4, r2
 7902 1d2e 5D41     		adcs	r5, r5, r3
 7903 1d30 1494     		str	r4, [sp, #80]
 7904 1d32 1595     		str	r5, [sp, #84]
 7905              	.LVL1308:
 680:sc.c          ****     s3 -= carry3 << 21;
 7906              		.loc 1 680 0
 7907 1d34 D40A     		lsrs	r4, r2, #11
 7908              	.LVL1309:
 7909 1d36 5905     		lsls	r1, r3, #21
 7910 1d38 2143     		orrs	r1, r4
 7911 1d3a 5005     		lsls	r0, r2, #21
 7912 1d3c 049B     		ldr	r3, [sp, #16]
 7913 1d3e 059C     		ldr	r4, [sp, #20]
 7914 1d40 1B1A     		subs	r3, r3, r0
 7915 1d42 8C41     		sbcs	r4, r4, r1
 7916 1d44 0493     		str	r3, [sp, #16]
 7917 1d46 0594     		str	r4, [sp, #20]
 7918              	.LVL1310:
 681:sc.c          ****     carry5 = (s5 + (1 << 20)) >> 21;
 7919              		.loc 1 681 0
 7920 1d48 8024     		movs	r4, #128
 7921 1d4a 6403     		lsls	r4, r4, #13
 7922 1d4c 0025     		movs	r5, #0
 7923 1d4e 0699     		ldr	r1, [sp, #24]
 7924 1d50 079A     		ldr	r2, [sp, #28]
 7925 1d52 6418     		adds	r4, r4, r1
 7926 1d54 5541     		adcs	r5, r5, r2
ARM GAS  C:\Users\NIGHDR~1\AppData\Local\Temp\ccvJ0Ig2.s 			page 152


 7927 1d56 2000     		movs	r0, r4
 7928 1d58 EC02     		lsls	r4, r5, #11
 7929 1d5a 420D     		lsrs	r2, r0, #21
 7930              	.LVL1311:
 7931 1d5c 2243     		orrs	r2, r4
 7932 1d5e 6B15     		asrs	r3, r5, #21
 7933              	.LVL1312:
 682:sc.c          ****     s6 += carry5;
 7934              		.loc 1 682 0
 7935 1d60 0C9C     		ldr	r4, [sp, #48]
 7936 1d62 0D9D     		ldr	r5, [sp, #52]
 7937 1d64 A418     		adds	r4, r4, r2
 7938 1d66 5D41     		adcs	r5, r5, r3
 7939 1d68 0C94     		str	r4, [sp, #48]
 7940 1d6a 0D95     		str	r5, [sp, #52]
 7941              	.LVL1313:
 683:sc.c          ****     s5 -= carry5 << 21;
 7942              		.loc 1 683 0
 7943 1d6c D40A     		lsrs	r4, r2, #11
 7944              	.LVL1314:
 7945 1d6e 5905     		lsls	r1, r3, #21
 7946 1d70 2143     		orrs	r1, r4
 7947 1d72 5005     		lsls	r0, r2, #21
 7948 1d74 069B     		ldr	r3, [sp, #24]
 7949 1d76 079C     		ldr	r4, [sp, #28]
 7950 1d78 1B1A     		subs	r3, r3, r0
 7951 1d7a 8C41     		sbcs	r4, r4, r1
 7952 1d7c 0693     		str	r3, [sp, #24]
 7953 1d7e 0794     		str	r4, [sp, #28]
 7954              	.LVL1315:
 684:sc.c          ****     carry7 = (s7 + (1 << 20)) >> 21;
 7955              		.loc 1 684 0
 7956 1d80 8024     		movs	r4, #128
 7957 1d82 6403     		lsls	r4, r4, #13
 7958 1d84 0025     		movs	r5, #0
 7959 1d86 089A     		ldr	r2, [sp, #32]
 7960 1d88 099B     		ldr	r3, [sp, #36]
 7961              	.LVL1316:
 7962 1d8a A418     		adds	r4, r4, r2
 7963 1d8c 5D41     		adcs	r5, r5, r3
 7964 1d8e 2000     		movs	r0, r4
 7965 1d90 EC02     		lsls	r4, r5, #11
 7966 1d92 420D     		lsrs	r2, r0, #21
 7967 1d94 2243     		orrs	r2, r4
 7968 1d96 6B15     		asrs	r3, r5, #21
 7969              	.LVL1317:
 685:sc.c          ****     s8 += carry7;
 7970              		.loc 1 685 0
 7971 1d98 129C     		ldr	r4, [sp, #72]
 7972 1d9a 139D     		ldr	r5, [sp, #76]
 7973 1d9c A418     		adds	r4, r4, r2
 7974 1d9e 5D41     		adcs	r5, r5, r3
 7975 1da0 1294     		str	r4, [sp, #72]
 7976 1da2 1395     		str	r5, [sp, #76]
 7977              	.LVL1318:
 686:sc.c          ****     s7 -= carry7 << 21;
 7978              		.loc 1 686 0
ARM GAS  C:\Users\NIGHDR~1\AppData\Local\Temp\ccvJ0Ig2.s 			page 153


 7979 1da4 D40A     		lsrs	r4, r2, #11
 7980              	.LVL1319:
 7981 1da6 5905     		lsls	r1, r3, #21
 7982 1da8 2143     		orrs	r1, r4
 7983 1daa 5005     		lsls	r0, r2, #21
 7984 1dac 089A     		ldr	r2, [sp, #32]
 7985 1dae 099B     		ldr	r3, [sp, #36]
 7986              	.LVL1320:
 7987 1db0 121A     		subs	r2, r2, r0
 7988 1db2 8B41     		sbcs	r3, r3, r1
 7989 1db4 0892     		str	r2, [sp, #32]
 7990 1db6 0993     		str	r3, [sp, #36]
 7991              	.LVL1321:
 687:sc.c          ****     carry9 = (s9 + (1 << 20)) >> 21;
 7992              		.loc 1 687 0
 7993 1db8 8024     		movs	r4, #128
 7994 1dba 6403     		lsls	r4, r4, #13
 7995 1dbc 0025     		movs	r5, #0
 7996 1dbe 0A99     		ldr	r1, [sp, #40]
 7997 1dc0 0B9A     		ldr	r2, [sp, #44]
 7998 1dc2 6418     		adds	r4, r4, r1
 7999 1dc4 5541     		adcs	r5, r5, r2
 8000 1dc6 2000     		movs	r0, r4
 8001 1dc8 EC02     		lsls	r4, r5, #11
 8002 1dca 420D     		lsrs	r2, r0, #21
 8003              	.LVL1322:
 8004 1dcc 2243     		orrs	r2, r4
 8005 1dce 6B15     		asrs	r3, r5, #21
 8006              	.LVL1323:
 688:sc.c          ****     s10 += carry9;
 8007              		.loc 1 688 0
 8008 1dd0 0098     		ldr	r0, [sp]
 8009 1dd2 0199     		ldr	r1, [sp, #4]
 8010 1dd4 8018     		adds	r0, r0, r2
 8011 1dd6 5941     		adcs	r1, r1, r3
 8012 1dd8 1690     		str	r0, [sp, #88]
 8013 1dda 1791     		str	r1, [sp, #92]
 8014              	.LVL1324:
 689:sc.c          ****     s9 -= carry9 << 21;
 8015              		.loc 1 689 0
 8016 1ddc D40A     		lsrs	r4, r2, #11
 8017 1dde 5905     		lsls	r1, r3, #21
 8018 1de0 2143     		orrs	r1, r4
 8019 1de2 5005     		lsls	r0, r2, #21
 8020              	.LVL1325:
 8021 1de4 0A9B     		ldr	r3, [sp, #40]
 8022 1de6 0B9C     		ldr	r4, [sp, #44]
 8023 1de8 1B1A     		subs	r3, r3, r0
 8024 1dea 8C41     		sbcs	r4, r4, r1
 8025 1dec 0A93     		str	r3, [sp, #40]
 8026 1dee 0B94     		str	r4, [sp, #44]
 8027              	.LVL1326:
 690:sc.c          ****     carry11 = (s11 + (1 << 20)) >> 21;
 8028              		.loc 1 690 0
 8029 1df0 8021     		movs	r1, #128
 8030 1df2 4903     		lsls	r1, r1, #13
 8031 1df4 0022     		movs	r2, #0
ARM GAS  C:\Users\NIGHDR~1\AppData\Local\Temp\ccvJ0Ig2.s 			page 154


 8032              	.LVL1327:
 8033 1df6 8919     		adds	r1, r1, r6
 8034 1df8 7A41     		adcs	r2, r2, r7
 8035 1dfa 1300     		movs	r3, r2
 8036              	.LVL1328:
 8037 1dfc 0A00     		movs	r2, r1
 8038 1dfe D902     		lsls	r1, r3, #11
 8039 1e00 540D     		lsrs	r4, r2, #21
 8040 1e02 0C43     		orrs	r4, r1
 8041 1e04 5D15     		asrs	r5, r3, #21
 8042              	.LVL1329:
 691:sc.c          ****     s12 += carry11;
 692:sc.c          ****     s11 -= carry11 << 21;
 8043              		.loc 1 692 0
 8044 1e06 E10A     		lsrs	r1, r4, #11
 8045 1e08 6B05     		lsls	r3, r5, #21
 8046 1e0a 0B43     		orrs	r3, r1
 8047 1e0c 6205     		lsls	r2, r4, #21
 8048 1e0e 3000     		movs	r0, r6
 8049 1e10 3900     		movs	r1, r7
 8050 1e12 801A     		subs	r0, r0, r2
 8051 1e14 9941     		sbcs	r1, r1, r3
 8052 1e16 1890     		str	r0, [sp, #96]
 8053 1e18 1991     		str	r1, [sp, #100]
 8054              	.LVL1330:
 693:sc.c          ****     s0 += s12 * 666643;
 8055              		.loc 1 693 0
 8056 1e1a E94A     		ldr	r2, .L20
 8057 1e1c 0023     		movs	r3, #0
 8058 1e1e 2000     		movs	r0, r4
 8059              	.LVL1331:
 8060 1e20 2900     		movs	r1, r5
 8061 1e22 FFF7FEFF 		bl	__aeabi_lmul
 8062              	.LVL1332:
 8063 1e26 109E     		ldr	r6, [sp, #64]
 8064 1e28 119F     		ldr	r7, [sp, #68]
 8065 1e2a 3618     		adds	r6, r6, r0
 8066 1e2c 4F41     		adcs	r7, r7, r1
 8067              	.LVL1333:
 694:sc.c          ****     s1 += s12 * 470296;
 8068              		.loc 1 694 0
 8069 1e2e E54A     		ldr	r2, .L20+4
 8070 1e30 0023     		movs	r3, #0
 8071 1e32 2000     		movs	r0, r4
 8072 1e34 2900     		movs	r1, r5
 8073 1e36 FFF7FEFF 		bl	__aeabi_lmul
 8074              	.LVL1334:
 8075 1e3a 029A     		ldr	r2, [sp, #8]
 8076 1e3c 039B     		ldr	r3, [sp, #12]
 8077 1e3e 1218     		adds	r2, r2, r0
 8078 1e40 4B41     		adcs	r3, r3, r1
 8079 1e42 0092     		str	r2, [sp]
 8080 1e44 0193     		str	r3, [sp, #4]
 8081              	.LVL1335:
 695:sc.c          ****     s2 += s12 * 654183;
 8082              		.loc 1 695 0
 8083 1e46 E04A     		ldr	r2, .L20+8
ARM GAS  C:\Users\NIGHDR~1\AppData\Local\Temp\ccvJ0Ig2.s 			page 155


 8084              	.LVL1336:
 8085 1e48 0023     		movs	r3, #0
 8086 1e4a 2000     		movs	r0, r4
 8087 1e4c 2900     		movs	r1, r5
 8088 1e4e FFF7FEFF 		bl	__aeabi_lmul
 8089              	.LVL1337:
 8090 1e52 0E9A     		ldr	r2, [sp, #56]
 8091 1e54 0F9B     		ldr	r3, [sp, #60]
 8092 1e56 1218     		adds	r2, r2, r0
 8093 1e58 4B41     		adcs	r3, r3, r1
 8094 1e5a 0292     		str	r2, [sp, #8]
 8095 1e5c 0393     		str	r3, [sp, #12]
 8096              	.LVL1338:
 696:sc.c          ****     s3 -= s12 * 997805;
 8097              		.loc 1 696 0
 8098 1e5e DB4A     		ldr	r2, .L20+12
 8099              	.LVL1339:
 8100 1e60 0123     		movs	r3, #1
 8101 1e62 5B42     		rsbs	r3, r3, #0
 8102 1e64 2000     		movs	r0, r4
 8103 1e66 2900     		movs	r1, r5
 8104 1e68 FFF7FEFF 		bl	__aeabi_lmul
 8105              	.LVL1340:
 8106 1e6c 049A     		ldr	r2, [sp, #16]
 8107 1e6e 059B     		ldr	r3, [sp, #20]
 8108 1e70 1218     		adds	r2, r2, r0
 8109 1e72 4B41     		adcs	r3, r3, r1
 8110 1e74 0492     		str	r2, [sp, #16]
 8111 1e76 0593     		str	r3, [sp, #20]
 8112              	.LVL1341:
 697:sc.c          ****     s4 += s12 * 136657;
 8113              		.loc 1 697 0
 8114 1e78 D54A     		ldr	r2, .L20+16
 8115              	.LVL1342:
 8116 1e7a 0023     		movs	r3, #0
 8117 1e7c 2000     		movs	r0, r4
 8118 1e7e 2900     		movs	r1, r5
 8119 1e80 FFF7FEFF 		bl	__aeabi_lmul
 8120              	.LVL1343:
 8121 1e84 149A     		ldr	r2, [sp, #80]
 8122 1e86 159B     		ldr	r3, [sp, #84]
 8123 1e88 1218     		adds	r2, r2, r0
 8124 1e8a 4B41     		adcs	r3, r3, r1
 8125 1e8c 0E92     		str	r2, [sp, #56]
 8126 1e8e 0F93     		str	r3, [sp, #60]
 8127              	.LVL1344:
 698:sc.c          ****     s5 -= s12 * 683901;
 8128              		.loc 1 698 0
 8129 1e90 D04A     		ldr	r2, .L20+20
 8130              	.LVL1345:
 8131 1e92 0123     		movs	r3, #1
 8132 1e94 5B42     		rsbs	r3, r3, #0
 8133 1e96 2000     		movs	r0, r4
 8134 1e98 2900     		movs	r1, r5
 8135 1e9a FFF7FEFF 		bl	__aeabi_lmul
 8136              	.LVL1346:
 8137 1e9e 069B     		ldr	r3, [sp, #24]
ARM GAS  C:\Users\NIGHDR~1\AppData\Local\Temp\ccvJ0Ig2.s 			page 156


 8138 1ea0 079C     		ldr	r4, [sp, #28]
 8139 1ea2 1B18     		adds	r3, r3, r0
 8140 1ea4 4C41     		adcs	r4, r4, r1
 8141 1ea6 0693     		str	r3, [sp, #24]
 8142 1ea8 0794     		str	r4, [sp, #28]
 8143              	.LVL1347:
 699:sc.c          ****     s12 = 0;
 700:sc.c          ****     carry0 = s0 >> 21;
 8144              		.loc 1 700 0
 8145 1eaa F902     		lsls	r1, r7, #11
 8146 1eac 720D     		lsrs	r2, r6, #21
 8147 1eae 0A43     		orrs	r2, r1
 8148 1eb0 7B15     		asrs	r3, r7, #21
 8149              	.LVL1348:
 701:sc.c          ****     s1 += carry0;
 8150              		.loc 1 701 0
 8151 1eb2 0098     		ldr	r0, [sp]
 8152 1eb4 0199     		ldr	r1, [sp, #4]
 8153 1eb6 8018     		adds	r0, r0, r2
 8154 1eb8 5941     		adcs	r1, r1, r3
 8155 1eba 0090     		str	r0, [sp]
 8156 1ebc 0191     		str	r1, [sp, #4]
 8157              	.LVL1349:
 702:sc.c          ****     s0 -= carry0 << 21;
 8158              		.loc 1 702 0
 8159 1ebe D50A     		lsrs	r5, r2, #11
 8160              	.LVL1350:
 8161 1ec0 AC46     		mov	ip, r5
 8162 1ec2 5D05     		lsls	r5, r3, #21
 8163 1ec4 6146     		mov	r1, ip
 8164 1ec6 0D43     		orrs	r5, r1
 8165 1ec8 5405     		lsls	r4, r2, #21
 8166              	.LVL1351:
 8167 1eca 361B     		subs	r6, r6, r4
 8168 1ecc AF41     		sbcs	r7, r7, r5
 8169              	.LVL1352:
 8170 1ece 1096     		str	r6, [sp, #64]
 8171 1ed0 1197     		str	r7, [sp, #68]
 8172              	.LVL1353:
 703:sc.c          ****     carry1 = s1 >> 21;
 8173              		.loc 1 703 0
 8174 1ed2 0098     		ldr	r0, [sp]
 8175 1ed4 0199     		ldr	r1, [sp, #4]
 8176 1ed6 CC02     		lsls	r4, r1, #11
 8177 1ed8 420D     		lsrs	r2, r0, #21
 8178              	.LVL1354:
 8179 1eda 2243     		orrs	r2, r4
 8180 1edc 4B15     		asrs	r3, r1, #21
 8181              	.LVL1355:
 704:sc.c          ****     s2 += carry1;
 8182              		.loc 1 704 0
 8183 1ede 029E     		ldr	r6, [sp, #8]
 8184 1ee0 039F     		ldr	r7, [sp, #12]
 8185              	.LVL1356:
 8186 1ee2 B618     		adds	r6, r6, r2
 8187 1ee4 5F41     		adcs	r7, r7, r3
 8188              	.LVL1357:
ARM GAS  C:\Users\NIGHDR~1\AppData\Local\Temp\ccvJ0Ig2.s 			page 157


 705:sc.c          ****     s1 -= carry1 << 21;
 8189              		.loc 1 705 0
 8190 1ee6 D10A     		lsrs	r1, r2, #11
 8191 1ee8 5D05     		lsls	r5, r3, #21
 8192 1eea 0D43     		orrs	r5, r1
 8193 1eec 5405     		lsls	r4, r2, #21
 8194 1eee 0099     		ldr	r1, [sp]
 8195 1ef0 019A     		ldr	r2, [sp, #4]
 8196 1ef2 091B     		subs	r1, r1, r4
 8197 1ef4 AA41     		sbcs	r2, r2, r5
 8198 1ef6 0291     		str	r1, [sp, #8]
 8199 1ef8 0392     		str	r2, [sp, #12]
 8200              	.LVL1358:
 706:sc.c          ****     carry2 = s2 >> 21;
 8201              		.loc 1 706 0
 8202 1efa F902     		lsls	r1, r7, #11
 8203              	.LVL1359:
 8204 1efc 720D     		lsrs	r2, r6, #21
 8205              	.LVL1360:
 8206 1efe 0A43     		orrs	r2, r1
 8207 1f00 7B15     		asrs	r3, r7, #21
 8208              	.LVL1361:
 707:sc.c          ****     s3 += carry2;
 8209              		.loc 1 707 0
 8210 1f02 0498     		ldr	r0, [sp, #16]
 8211 1f04 0599     		ldr	r1, [sp, #20]
 8212 1f06 8018     		adds	r0, r0, r2
 8213 1f08 5941     		adcs	r1, r1, r3
 8214 1f0a 0090     		str	r0, [sp]
 8215 1f0c 0191     		str	r1, [sp, #4]
 8216              	.LVL1362:
 708:sc.c          ****     s2 -= carry2 << 21;
 8217              		.loc 1 708 0
 8218 1f0e D10A     		lsrs	r1, r2, #11
 8219 1f10 8C46     		mov	ip, r1
 8220 1f12 5905     		lsls	r1, r3, #21
 8221 1f14 6546     		mov	r5, ip
 8222 1f16 2943     		orrs	r1, r5
 8223 1f18 5005     		lsls	r0, r2, #21
 8224              	.LVL1363:
 8225 1f1a 361A     		subs	r6, r6, r0
 8226 1f1c 8F41     		sbcs	r7, r7, r1
 8227              	.LVL1364:
 8228 1f1e 0496     		str	r6, [sp, #16]
 8229 1f20 0597     		str	r7, [sp, #20]
 8230              	.LVL1365:
 709:sc.c          ****     carry3 = s3 >> 21;
 8231              		.loc 1 709 0
 8232 1f22 009C     		ldr	r4, [sp]
 8233 1f24 019D     		ldr	r5, [sp, #4]
 8234 1f26 E902     		lsls	r1, r5, #11
 8235 1f28 620D     		lsrs	r2, r4, #21
 8236              	.LVL1366:
 8237 1f2a 0A43     		orrs	r2, r1
 8238 1f2c 6B15     		asrs	r3, r5, #21
 8239              	.LVL1367:
 710:sc.c          ****     s4 += carry3;
ARM GAS  C:\Users\NIGHDR~1\AppData\Local\Temp\ccvJ0Ig2.s 			page 158


 8240              		.loc 1 710 0
 8241 1f2e 0E9E     		ldr	r6, [sp, #56]
 8242 1f30 0F9F     		ldr	r7, [sp, #60]
 8243              	.LVL1368:
 8244 1f32 B618     		adds	r6, r6, r2
 8245 1f34 5F41     		adcs	r7, r7, r3
 8246              	.LVL1369:
 711:sc.c          ****     s3 -= carry3 << 21;
 8247              		.loc 1 711 0
 8248 1f36 D50A     		lsrs	r5, r2, #11
 8249 1f38 5905     		lsls	r1, r3, #21
 8250 1f3a 2943     		orrs	r1, r5
 8251 1f3c 5005     		lsls	r0, r2, #21
 8252 1f3e 009B     		ldr	r3, [sp]
 8253 1f40 019C     		ldr	r4, [sp, #4]
 8254 1f42 1B1A     		subs	r3, r3, r0
 8255 1f44 8C41     		sbcs	r4, r4, r1
 8256 1f46 0E93     		str	r3, [sp, #56]
 8257 1f48 0F94     		str	r4, [sp, #60]
 8258              	.LVL1370:
 712:sc.c          ****     carry4 = s4 >> 21;
 8259              		.loc 1 712 0
 8260 1f4a F902     		lsls	r1, r7, #11
 8261 1f4c 720D     		lsrs	r2, r6, #21
 8262              	.LVL1371:
 8263 1f4e 0A43     		orrs	r2, r1
 8264 1f50 7B15     		asrs	r3, r7, #21
 8265              	.LVL1372:
 713:sc.c          ****     s5 += carry4;
 8266              		.loc 1 713 0
 8267 1f52 0698     		ldr	r0, [sp, #24]
 8268 1f54 0799     		ldr	r1, [sp, #28]
 8269 1f56 8018     		adds	r0, r0, r2
 8270 1f58 5941     		adcs	r1, r1, r3
 8271 1f5a 0090     		str	r0, [sp]
 8272 1f5c 0191     		str	r1, [sp, #4]
 8273              	.LVL1373:
 714:sc.c          ****     s4 -= carry4 << 21;
 8274              		.loc 1 714 0
 8275 1f5e D10A     		lsrs	r1, r2, #11
 8276 1f60 8C46     		mov	ip, r1
 8277 1f62 5905     		lsls	r1, r3, #21
 8278 1f64 6546     		mov	r5, ip
 8279 1f66 2943     		orrs	r1, r5
 8280 1f68 5005     		lsls	r0, r2, #21
 8281              	.LVL1374:
 8282 1f6a 361A     		subs	r6, r6, r0
 8283 1f6c 8F41     		sbcs	r7, r7, r1
 8284              	.LVL1375:
 8285 1f6e 0696     		str	r6, [sp, #24]
 8286 1f70 0797     		str	r7, [sp, #28]
 8287              	.LVL1376:
 715:sc.c          ****     carry5 = s5 >> 21;
 8288              		.loc 1 715 0
 8289 1f72 009C     		ldr	r4, [sp]
 8290 1f74 019D     		ldr	r5, [sp, #4]
 8291 1f76 E902     		lsls	r1, r5, #11
ARM GAS  C:\Users\NIGHDR~1\AppData\Local\Temp\ccvJ0Ig2.s 			page 159


 8292 1f78 620D     		lsrs	r2, r4, #21
 8293              	.LVL1377:
 8294 1f7a 0A43     		orrs	r2, r1
 8295 1f7c 6B15     		asrs	r3, r5, #21
 8296              	.LVL1378:
 716:sc.c          ****     s6 += carry5;
 8297              		.loc 1 716 0
 8298 1f7e 0C9E     		ldr	r6, [sp, #48]
 8299 1f80 0D9F     		ldr	r7, [sp, #52]
 8300              	.LVL1379:
 8301 1f82 B618     		adds	r6, r6, r2
 8302 1f84 5F41     		adcs	r7, r7, r3
 8303              	.LVL1380:
 717:sc.c          ****     s5 -= carry5 << 21;
 8304              		.loc 1 717 0
 8305 1f86 D50A     		lsrs	r5, r2, #11
 8306 1f88 5905     		lsls	r1, r3, #21
 8307 1f8a 2943     		orrs	r1, r5
 8308 1f8c 5005     		lsls	r0, r2, #21
 8309 1f8e 009B     		ldr	r3, [sp]
 8310 1f90 019C     		ldr	r4, [sp, #4]
 8311 1f92 1B1A     		subs	r3, r3, r0
 8312 1f94 8C41     		sbcs	r4, r4, r1
 8313 1f96 0C93     		str	r3, [sp, #48]
 8314 1f98 0D94     		str	r4, [sp, #52]
 8315              	.LVL1381:
 718:sc.c          ****     carry6 = s6 >> 21;
 8316              		.loc 1 718 0
 8317 1f9a F902     		lsls	r1, r7, #11
 8318 1f9c 720D     		lsrs	r2, r6, #21
 8319              	.LVL1382:
 8320 1f9e 0A43     		orrs	r2, r1
 8321 1fa0 7B15     		asrs	r3, r7, #21
 8322              	.LVL1383:
 719:sc.c          ****     s7 += carry6;
 8323              		.loc 1 719 0
 8324 1fa2 089C     		ldr	r4, [sp, #32]
 8325 1fa4 099D     		ldr	r5, [sp, #36]
 8326 1fa6 A418     		adds	r4, r4, r2
 8327 1fa8 5D41     		adcs	r5, r5, r3
 8328 1faa 0094     		str	r4, [sp]
 8329 1fac 0195     		str	r5, [sp, #4]
 8330              	.LVL1384:
 720:sc.c          ****     s6 -= carry6 << 21;
 8331              		.loc 1 720 0
 8332 1fae D10A     		lsrs	r1, r2, #11
 8333 1fb0 8C46     		mov	ip, r1
 8334 1fb2 5905     		lsls	r1, r3, #21
 8335 1fb4 6546     		mov	r5, ip
 8336 1fb6 2943     		orrs	r1, r5
 8337 1fb8 5005     		lsls	r0, r2, #21
 8338 1fba 3200     		movs	r2, r6
 8339              	.LVL1385:
 8340 1fbc 3B00     		movs	r3, r7
 8341 1fbe 121A     		subs	r2, r2, r0
 8342 1fc0 8B41     		sbcs	r3, r3, r1
 8343 1fc2 0892     		str	r2, [sp, #32]
ARM GAS  C:\Users\NIGHDR~1\AppData\Local\Temp\ccvJ0Ig2.s 			page 160


 8344 1fc4 0993     		str	r3, [sp, #36]
 8345              	.LVL1386:
 721:sc.c          ****     carry7 = s7 >> 21;
 8346              		.loc 1 721 0
 8347 1fc6 009C     		ldr	r4, [sp]
 8348 1fc8 019D     		ldr	r5, [sp, #4]
 8349 1fca E902     		lsls	r1, r5, #11
 8350 1fcc 620D     		lsrs	r2, r4, #21
 8351              	.LVL1387:
 8352 1fce 0A43     		orrs	r2, r1
 8353 1fd0 6B15     		asrs	r3, r5, #21
 8354              	.LVL1388:
 722:sc.c          ****     s8 += carry7;
 8355              		.loc 1 722 0
 8356 1fd2 129E     		ldr	r6, [sp, #72]
 8357 1fd4 139F     		ldr	r7, [sp, #76]
 8358 1fd6 B618     		adds	r6, r6, r2
 8359 1fd8 5F41     		adcs	r7, r7, r3
 8360              	.LVL1389:
 723:sc.c          ****     s7 -= carry7 << 21;
 8361              		.loc 1 723 0
 8362 1fda D50A     		lsrs	r5, r2, #11
 8363 1fdc 5905     		lsls	r1, r3, #21
 8364 1fde 2943     		orrs	r1, r5
 8365 1fe0 5005     		lsls	r0, r2, #21
 8366 1fe2 009C     		ldr	r4, [sp]
 8367 1fe4 019D     		ldr	r5, [sp, #4]
 8368 1fe6 241A     		subs	r4, r4, r0
 8369 1fe8 8D41     		sbcs	r5, r5, r1
 8370              	.LVL1390:
 8371 1fea 1294     		str	r4, [sp, #72]
 8372 1fec 1395     		str	r5, [sp, #76]
 8373              	.LVL1391:
 724:sc.c          ****     carry8 = s8 >> 21;
 8374              		.loc 1 724 0
 8375 1fee F902     		lsls	r1, r7, #11
 8376 1ff0 720D     		lsrs	r2, r6, #21
 8377              	.LVL1392:
 8378 1ff2 0A43     		orrs	r2, r1
 8379 1ff4 7B15     		asrs	r3, r7, #21
 8380              	.LVL1393:
 725:sc.c          ****     s9 += carry8;
 8381              		.loc 1 725 0
 8382 1ff6 0A9C     		ldr	r4, [sp, #40]
 8383 1ff8 0B9D     		ldr	r5, [sp, #44]
 8384              	.LVL1394:
 8385 1ffa A418     		adds	r4, r4, r2
 8386 1ffc 5D41     		adcs	r5, r5, r3
 8387 1ffe 0094     		str	r4, [sp]
 8388 2000 0195     		str	r5, [sp, #4]
 8389              	.LVL1395:
 726:sc.c          ****     s8 -= carry8 << 21;
 8390              		.loc 1 726 0
 8391 2002 D10A     		lsrs	r1, r2, #11
 8392 2004 8C46     		mov	ip, r1
 8393 2006 5905     		lsls	r1, r3, #21
 8394 2008 6546     		mov	r5, ip
ARM GAS  C:\Users\NIGHDR~1\AppData\Local\Temp\ccvJ0Ig2.s 			page 161


 8395 200a 2943     		orrs	r1, r5
 8396 200c 5005     		lsls	r0, r2, #21
 8397 200e 361A     		subs	r6, r6, r0
 8398 2010 8F41     		sbcs	r7, r7, r1
 8399              	.LVL1396:
 8400 2012 0A96     		str	r6, [sp, #40]
 8401 2014 0B97     		str	r7, [sp, #44]
 8402              	.LVL1397:
 727:sc.c          ****     carry9 = s9 >> 21;
 8403              		.loc 1 727 0
 8404 2016 009C     		ldr	r4, [sp]
 8405 2018 019D     		ldr	r5, [sp, #4]
 8406 201a E902     		lsls	r1, r5, #11
 8407 201c 620D     		lsrs	r2, r4, #21
 8408              	.LVL1398:
 8409 201e 0A43     		orrs	r2, r1
 8410 2020 6B15     		asrs	r3, r5, #21
 8411              	.LVL1399:
 728:sc.c          ****     s10 += carry9;
 8412              		.loc 1 728 0
 8413 2022 169E     		ldr	r6, [sp, #88]
 8414 2024 179F     		ldr	r7, [sp, #92]
 8415              	.LVL1400:
 8416 2026 B618     		adds	r6, r6, r2
 8417 2028 5F41     		adcs	r7, r7, r3
 8418              	.LVL1401:
 729:sc.c          ****     s9 -= carry9 << 21;
 8419              		.loc 1 729 0
 8420 202a D50A     		lsrs	r5, r2, #11
 8421 202c 5905     		lsls	r1, r3, #21
 8422 202e 2943     		orrs	r1, r5
 8423 2030 5005     		lsls	r0, r2, #21
 8424 2032 009C     		ldr	r4, [sp]
 8425 2034 019D     		ldr	r5, [sp, #4]
 8426 2036 241A     		subs	r4, r4, r0
 8427 2038 8D41     		sbcs	r5, r5, r1
 8428              	.LVL1402:
 8429 203a 1494     		str	r4, [sp, #80]
 8430 203c 1595     		str	r5, [sp, #84]
 8431              	.LVL1403:
 730:sc.c          ****     carry10 = s10 >> 21;
 8432              		.loc 1 730 0
 8433 203e F902     		lsls	r1, r7, #11
 8434 2040 3400     		movs	r4, r6
 8435              	.LVL1404:
 8436 2042 3D00     		movs	r5, r7
 8437 2044 720D     		lsrs	r2, r6, #21
 8438              	.LVL1405:
 8439 2046 0A43     		orrs	r2, r1
 8440 2048 0094     		str	r4, [sp]
 8441 204a 0195     		str	r5, [sp, #4]
 8442 204c 7B15     		asrs	r3, r7, #21
 8443              	.LVL1406:
 731:sc.c          ****     s11 += carry10;
 8444              		.loc 1 731 0
 8445 204e 1898     		ldr	r0, [sp, #96]
 8446 2050 1999     		ldr	r1, [sp, #100]
ARM GAS  C:\Users\NIGHDR~1\AppData\Local\Temp\ccvJ0Ig2.s 			page 162


 8447 2052 8018     		adds	r0, r0, r2
 8448 2054 5941     		adcs	r1, r1, r3
 8449              	.LVL1407:
 732:sc.c          ****     s10 -= carry10 << 21;
 8450              		.loc 1 732 0
 8451 2056 D50A     		lsrs	r5, r2, #11
 8452 2058 AC46     		mov	ip, r5
 8453 205a 5D05     		lsls	r5, r3, #21
 8454 205c 6746     		mov	r7, ip
 8455 205e 3D43     		orrs	r5, r7
 8456 2060 5405     		lsls	r4, r2, #21
 8457 2062 009A     		ldr	r2, [sp]
 8458 2064 019B     		ldr	r3, [sp, #4]
 8459              	.LVL1408:
 8460 2066 121B     		subs	r2, r2, r4
 8461 2068 AB41     		sbcs	r3, r3, r5
 8462 206a 1692     		str	r2, [sp, #88]
 8463 206c 1793     		str	r3, [sp, #92]
 8464              	.LVL1409:
 733:sc.c          ****     carry11 = s11 >> 21;
 8465              		.loc 1 733 0
 8466 206e CB02     		lsls	r3, r1, #11
 8467 2070 440D     		lsrs	r4, r0, #21
 8468 2072 1C43     		orrs	r4, r3
 8469 2074 4D15     		asrs	r5, r1, #21
 8470              	.LVL1410:
 734:sc.c          ****     s12 += carry11;
 735:sc.c          ****     s11 -= carry11 << 21;
 8471              		.loc 1 735 0
 8472 2076 E60A     		lsrs	r6, r4, #11
 8473 2078 6B05     		lsls	r3, r5, #21
 8474 207a 3343     		orrs	r3, r6
 8475 207c 6205     		lsls	r2, r4, #21
 8476              	.LVL1411:
 8477 207e 801A     		subs	r0, r0, r2
 8478 2080 9941     		sbcs	r1, r1, r3
 8479              	.LVL1412:
 8480 2082 1890     		str	r0, [sp, #96]
 8481 2084 1991     		str	r1, [sp, #100]
 8482              	.LVL1413:
 736:sc.c          ****     s0 += s12 * 666643;
 8483              		.loc 1 736 0
 8484 2086 4E4A     		ldr	r2, .L20
 8485 2088 0023     		movs	r3, #0
 8486 208a 2000     		movs	r0, r4
 8487              	.LVL1414:
 8488 208c 2900     		movs	r1, r5
 8489 208e FFF7FEFF 		bl	__aeabi_lmul
 8490              	.LVL1415:
 8491 2092 109E     		ldr	r6, [sp, #64]
 8492 2094 119F     		ldr	r7, [sp, #68]
 8493 2096 3618     		adds	r6, r6, r0
 8494 2098 4F41     		adcs	r7, r7, r1
 8495              	.LVL1416:
 737:sc.c          ****     s1 += s12 * 470296;
 8496              		.loc 1 737 0
 8497 209a 4A4A     		ldr	r2, .L20+4
ARM GAS  C:\Users\NIGHDR~1\AppData\Local\Temp\ccvJ0Ig2.s 			page 163


 8498 209c 0023     		movs	r3, #0
 8499 209e 2000     		movs	r0, r4
 8500 20a0 2900     		movs	r1, r5
 8501 20a2 FFF7FEFF 		bl	__aeabi_lmul
 8502              	.LVL1417:
 8503 20a6 029A     		ldr	r2, [sp, #8]
 8504 20a8 039B     		ldr	r3, [sp, #12]
 8505 20aa 1218     		adds	r2, r2, r0
 8506 20ac 4B41     		adcs	r3, r3, r1
 8507 20ae 0092     		str	r2, [sp]
 8508 20b0 0193     		str	r3, [sp, #4]
 8509              	.LVL1418:
 738:sc.c          ****     s2 += s12 * 654183;
 8510              		.loc 1 738 0
 8511 20b2 454A     		ldr	r2, .L20+8
 8512              	.LVL1419:
 8513 20b4 0023     		movs	r3, #0
 8514 20b6 2000     		movs	r0, r4
 8515 20b8 2900     		movs	r1, r5
 8516 20ba FFF7FEFF 		bl	__aeabi_lmul
 8517              	.LVL1420:
 8518 20be 049A     		ldr	r2, [sp, #16]
 8519 20c0 059B     		ldr	r3, [sp, #20]
 8520 20c2 1218     		adds	r2, r2, r0
 8521 20c4 4B41     		adcs	r3, r3, r1
 8522 20c6 0292     		str	r2, [sp, #8]
 8523 20c8 0393     		str	r3, [sp, #12]
 8524              	.LVL1421:
 739:sc.c          ****     s3 -= s12 * 997805;
 8525              		.loc 1 739 0
 8526 20ca 404A     		ldr	r2, .L20+12
 8527              	.LVL1422:
 8528 20cc 0123     		movs	r3, #1
 8529 20ce 5B42     		rsbs	r3, r3, #0
 8530 20d0 2000     		movs	r0, r4
 8531 20d2 2900     		movs	r1, r5
 8532 20d4 FFF7FEFF 		bl	__aeabi_lmul
 8533              	.LVL1423:
 8534 20d8 0E9A     		ldr	r2, [sp, #56]
 8535 20da 0F9B     		ldr	r3, [sp, #60]
 8536 20dc 1218     		adds	r2, r2, r0
 8537 20de 4B41     		adcs	r3, r3, r1
 8538 20e0 0492     		str	r2, [sp, #16]
 8539 20e2 0593     		str	r3, [sp, #20]
 8540              	.LVL1424:
 740:sc.c          ****     s4 += s12 * 136657;
 8541              		.loc 1 740 0
 8542 20e4 3A4A     		ldr	r2, .L20+16
 8543              	.LVL1425:
 8544 20e6 0023     		movs	r3, #0
 8545 20e8 2000     		movs	r0, r4
 8546 20ea 2900     		movs	r1, r5
 8547 20ec FFF7FEFF 		bl	__aeabi_lmul
 8548              	.LVL1426:
 8549 20f0 069A     		ldr	r2, [sp, #24]
 8550 20f2 079B     		ldr	r3, [sp, #28]
 8551 20f4 1218     		adds	r2, r2, r0
ARM GAS  C:\Users\NIGHDR~1\AppData\Local\Temp\ccvJ0Ig2.s 			page 164


 8552 20f6 4B41     		adcs	r3, r3, r1
 8553 20f8 0692     		str	r2, [sp, #24]
 8554 20fa 0793     		str	r3, [sp, #28]
 8555              	.LVL1427:
 741:sc.c          ****     s5 -= s12 * 683901;
 8556              		.loc 1 741 0
 8557 20fc 354A     		ldr	r2, .L20+20
 8558              	.LVL1428:
 8559 20fe 0123     		movs	r3, #1
 8560 2100 5B42     		rsbs	r3, r3, #0
 8561 2102 2000     		movs	r0, r4
 8562 2104 2900     		movs	r1, r5
 8563 2106 FFF7FEFF 		bl	__aeabi_lmul
 8564              	.LVL1429:
 8565 210a 0C9B     		ldr	r3, [sp, #48]
 8566 210c 0D9C     		ldr	r4, [sp, #52]
 8567 210e 1B18     		adds	r3, r3, r0
 8568 2110 4C41     		adcs	r4, r4, r1
 8569 2112 0C93     		str	r3, [sp, #48]
 8570 2114 0D94     		str	r4, [sp, #52]
 8571              	.LVL1430:
 742:sc.c          ****     s12 = 0;
 743:sc.c          ****     carry0 = s0 >> 21;
 8572              		.loc 1 743 0
 8573 2116 F902     		lsls	r1, r7, #11
 8574 2118 720D     		lsrs	r2, r6, #21
 8575 211a 0A43     		orrs	r2, r1
 8576 211c 7B15     		asrs	r3, r7, #21
 8577              	.LVL1431:
 744:sc.c          ****     s1 += carry0;
 8578              		.loc 1 744 0
 8579 211e 009C     		ldr	r4, [sp]
 8580 2120 019D     		ldr	r5, [sp, #4]
 8581              	.LVL1432:
 8582 2122 A418     		adds	r4, r4, r2
 8583 2124 5D41     		adcs	r5, r5, r3
 8584 2126 0094     		str	r4, [sp]
 8585 2128 0195     		str	r5, [sp, #4]
 8586              	.LVL1433:
 745:sc.c          ****     s0 -= carry0 << 21;
 8587              		.loc 1 745 0
 8588 212a D50A     		lsrs	r5, r2, #11
 8589 212c AC46     		mov	ip, r5
 8590 212e 5D05     		lsls	r5, r3, #21
 8591 2130 6146     		mov	r1, ip
 8592 2132 0D43     		orrs	r5, r1
 8593 2134 5405     		lsls	r4, r2, #21
 8594              	.LVL1434:
 8595 2136 361B     		subs	r6, r6, r4
 8596 2138 AF41     		sbcs	r7, r7, r5
 8597              	.LVL1435:
 8598 213a 0E96     		str	r6, [sp, #56]
 8599 213c 0F97     		str	r7, [sp, #60]
 8600              	.LVL1436:
 746:sc.c          ****     carry1 = s1 >> 21;
 8601              		.loc 1 746 0
 8602 213e 0098     		ldr	r0, [sp]
ARM GAS  C:\Users\NIGHDR~1\AppData\Local\Temp\ccvJ0Ig2.s 			page 165


 8603 2140 0199     		ldr	r1, [sp, #4]
 8604 2142 CC02     		lsls	r4, r1, #11
 8605 2144 420D     		lsrs	r2, r0, #21
 8606              	.LVL1437:
 8607 2146 2243     		orrs	r2, r4
 8608 2148 4B15     		asrs	r3, r1, #21
 8609              	.LVL1438:
 747:sc.c          ****     s2 += carry1;
 8610              		.loc 1 747 0
 8611 214a 029E     		ldr	r6, [sp, #8]
 8612 214c 039F     		ldr	r7, [sp, #12]
 8613              	.LVL1439:
 8614 214e B618     		adds	r6, r6, r2
 8615 2150 5F41     		adcs	r7, r7, r3
 8616              	.LVL1440:
 748:sc.c          ****     s1 -= carry1 << 21;
 8617              		.loc 1 748 0
 8618 2152 D10A     		lsrs	r1, r2, #11
 8619 2154 5D05     		lsls	r5, r3, #21
 8620 2156 0D43     		orrs	r5, r1
 8621 2158 5405     		lsls	r4, r2, #21
 8622 215a 009A     		ldr	r2, [sp]
 8623 215c 019B     		ldr	r3, [sp, #4]
 8624              	.LVL1441:
 8625 215e 121B     		subs	r2, r2, r4
 8626 2160 AB41     		sbcs	r3, r3, r5
 8627 2162 0292     		str	r2, [sp, #8]
 8628 2164 0393     		str	r3, [sp, #12]
 8629              	.LVL1442:
 749:sc.c          ****     carry2 = s2 >> 21;
 8630              		.loc 1 749 0
 8631 2166 F902     		lsls	r1, r7, #11
 8632 2168 3400     		movs	r4, r6
 8633 216a 3D00     		movs	r5, r7
 8634 216c 720D     		lsrs	r2, r6, #21
 8635              	.LVL1443:
 8636 216e 0A43     		orrs	r2, r1
 8637 2170 0094     		str	r4, [sp]
 8638 2172 0195     		str	r5, [sp, #4]
 8639 2174 7B15     		asrs	r3, r7, #21
 8640              	.LVL1444:
 750:sc.c          ****     s3 += carry2;
 8641              		.loc 1 750 0
 8642 2176 049C     		ldr	r4, [sp, #16]
 8643 2178 059D     		ldr	r5, [sp, #20]
 8644 217a A418     		adds	r4, r4, r2
 8645 217c 5D41     		adcs	r5, r5, r3
 8646              	.LVL1445:
 751:sc.c          ****     s2 -= carry2 << 21;
 8647              		.loc 1 751 0
 8648 217e D10A     		lsrs	r1, r2, #11
 8649 2180 8C46     		mov	ip, r1
 8650 2182 5905     		lsls	r1, r3, #21
 8651 2184 6746     		mov	r7, ip
 8652 2186 3943     		orrs	r1, r7
 8653 2188 5005     		lsls	r0, r2, #21
 8654 218a 009E     		ldr	r6, [sp]
ARM GAS  C:\Users\NIGHDR~1\AppData\Local\Temp\ccvJ0Ig2.s 			page 166


 8655 218c 019F     		ldr	r7, [sp, #4]
 8656              	.LVL1446:
 8657 218e 361A     		subs	r6, r6, r0
 8658 2190 8F41     		sbcs	r7, r7, r1
 8659 2192 0496     		str	r6, [sp, #16]
 8660 2194 0597     		str	r7, [sp, #20]
 8661              	.LVL1447:
 752:sc.c          ****     carry3 = s3 >> 21;
 8662              		.loc 1 752 0
 8663 2196 E902     		lsls	r1, r5, #11
 8664 2198 620D     		lsrs	r2, r4, #21
 8665              	.LVL1448:
 8666 219a 0A43     		orrs	r2, r1
 8667 219c 6B15     		asrs	r3, r5, #21
 8668              	.LVL1449:
 753:sc.c          ****     s4 += carry3;
 8669              		.loc 1 753 0
 8670 219e 069E     		ldr	r6, [sp, #24]
 8671 21a0 079F     		ldr	r7, [sp, #28]
 8672              	.LVL1450:
 8673 21a2 B618     		adds	r6, r6, r2
 8674 21a4 5F41     		adcs	r7, r7, r3
 8675 21a6 0096     		str	r6, [sp]
 8676 21a8 0197     		str	r7, [sp, #4]
 8677              	.LVL1451:
 754:sc.c          ****     s3 -= carry3 << 21;
 8678              		.loc 1 754 0
 8679 21aa D10A     		lsrs	r1, r2, #11
 8680 21ac 8C46     		mov	ip, r1
 8681 21ae 5905     		lsls	r1, r3, #21
 8682 21b0 6746     		mov	r7, ip
 8683 21b2 3943     		orrs	r1, r7
 8684 21b4 5005     		lsls	r0, r2, #21
 8685 21b6 2300     		movs	r3, r4
 8686 21b8 2C00     		movs	r4, r5
 8687              	.LVL1452:
 8688 21ba 1B1A     		subs	r3, r3, r0
 8689 21bc 8C41     		sbcs	r4, r4, r1
 8690 21be 0BE0     		b	.L21
 8691              	.L22:
 8692              		.align	2
 8693              	.L20:
 8694 21c0 132C0A00 		.word	666643
 8695 21c4 182D0700 		.word	470296
 8696 21c8 67FB0900 		.word	654183
 8697 21cc 53C6F0FF 		.word	-997805
 8698 21d0 D1150200 		.word	136657
 8699 21d4 8390F5FF 		.word	-683901
 8700              	.L21:
 8701 21d8 0693     		str	r3, [sp, #24]
 8702 21da 0794     		str	r4, [sp, #28]
 8703              	.LVL1453:
 755:sc.c          ****     carry4 = s4 >> 21;
 8704              		.loc 1 755 0
 8705 21dc 009C     		ldr	r4, [sp]
 8706 21de 019D     		ldr	r5, [sp, #4]
 8707 21e0 E902     		lsls	r1, r5, #11
ARM GAS  C:\Users\NIGHDR~1\AppData\Local\Temp\ccvJ0Ig2.s 			page 167


 8708 21e2 620D     		lsrs	r2, r4, #21
 8709              	.LVL1454:
 8710 21e4 0A43     		orrs	r2, r1
 8711 21e6 6B15     		asrs	r3, r5, #21
 8712              	.LVL1455:
 756:sc.c          ****     s5 += carry4;
 8713              		.loc 1 756 0
 8714 21e8 0C9C     		ldr	r4, [sp, #48]
 8715 21ea 0D9D     		ldr	r5, [sp, #52]
 8716 21ec A418     		adds	r4, r4, r2
 8717 21ee 5D41     		adcs	r5, r5, r3
 8718              	.LVL1456:
 757:sc.c          ****     s4 -= carry4 << 21;
 8719              		.loc 1 757 0
 8720 21f0 D10A     		lsrs	r1, r2, #11
 8721 21f2 8C46     		mov	ip, r1
 8722 21f4 5905     		lsls	r1, r3, #21
 8723 21f6 6746     		mov	r7, ip
 8724 21f8 3943     		orrs	r1, r7
 8725 21fa 5005     		lsls	r0, r2, #21
 8726 21fc 009E     		ldr	r6, [sp]
 8727 21fe 019F     		ldr	r7, [sp, #4]
 8728 2200 361A     		subs	r6, r6, r0
 8729 2202 8F41     		sbcs	r7, r7, r1
 8730              	.LVL1457:
 8731 2204 0C96     		str	r6, [sp, #48]
 8732 2206 0D97     		str	r7, [sp, #52]
 8733              	.LVL1458:
 758:sc.c          ****     carry5 = s5 >> 21;
 8734              		.loc 1 758 0
 8735 2208 E902     		lsls	r1, r5, #11
 8736 220a 620D     		lsrs	r2, r4, #21
 8737              	.LVL1459:
 8738 220c 0A43     		orrs	r2, r1
 8739 220e 6B15     		asrs	r3, r5, #21
 8740              	.LVL1460:
 759:sc.c          ****     s6 += carry5;
 8741              		.loc 1 759 0
 8742 2210 0898     		ldr	r0, [sp, #32]
 8743 2212 0999     		ldr	r1, [sp, #36]
 8744 2214 8018     		adds	r0, r0, r2
 8745 2216 5941     		adcs	r1, r1, r3
 8746 2218 0090     		str	r0, [sp]
 8747 221a 0191     		str	r1, [sp, #4]
 8748              	.LVL1461:
 760:sc.c          ****     s5 -= carry5 << 21;
 8749              		.loc 1 760 0
 8750 221c D10A     		lsrs	r1, r2, #11
 8751 221e 8C46     		mov	ip, r1
 8752 2220 5905     		lsls	r1, r3, #21
 8753 2222 6746     		mov	r7, ip
 8754 2224 3943     		orrs	r1, r7
 8755 2226 5005     		lsls	r0, r2, #21
 8756              	.LVL1462:
 8757 2228 241A     		subs	r4, r4, r0
 8758 222a 8D41     		sbcs	r5, r5, r1
 8759              	.LVL1463:
ARM GAS  C:\Users\NIGHDR~1\AppData\Local\Temp\ccvJ0Ig2.s 			page 168


 8760 222c 0894     		str	r4, [sp, #32]
 8761 222e 0995     		str	r5, [sp, #36]
 8762              	.LVL1464:
 761:sc.c          ****     carry6 = s6 >> 21;
 8763              		.loc 1 761 0
 8764 2230 009C     		ldr	r4, [sp]
 8765 2232 019D     		ldr	r5, [sp, #4]
 8766              	.LVL1465:
 8767 2234 E902     		lsls	r1, r5, #11
 8768 2236 620D     		lsrs	r2, r4, #21
 8769              	.LVL1466:
 8770 2238 0A43     		orrs	r2, r1
 8771 223a 6B15     		asrs	r3, r5, #21
 8772              	.LVL1467:
 762:sc.c          ****     s7 += carry6;
 8773              		.loc 1 762 0
 8774 223c 129C     		ldr	r4, [sp, #72]
 8775 223e 139D     		ldr	r5, [sp, #76]
 8776 2240 A418     		adds	r4, r4, r2
 8777 2242 5D41     		adcs	r5, r5, r3
 8778              	.LVL1468:
 763:sc.c          ****     s6 -= carry6 << 21;
 8779              		.loc 1 763 0
 8780 2244 D10A     		lsrs	r1, r2, #11
 8781 2246 8C46     		mov	ip, r1
 8782 2248 5905     		lsls	r1, r3, #21
 8783 224a 6746     		mov	r7, ip
 8784 224c 3943     		orrs	r1, r7
 8785 224e 5005     		lsls	r0, r2, #21
 8786 2250 009A     		ldr	r2, [sp]
 8787 2252 019B     		ldr	r3, [sp, #4]
 8788              	.LVL1469:
 8789 2254 121A     		subs	r2, r2, r0
 8790 2256 8B41     		sbcs	r3, r3, r1
 8791 2258 1092     		str	r2, [sp, #64]
 8792 225a 1193     		str	r3, [sp, #68]
 8793              	.LVL1470:
 764:sc.c          ****     carry7 = s7 >> 21;
 8794              		.loc 1 764 0
 8795 225c E902     		lsls	r1, r5, #11
 8796 225e 620D     		lsrs	r2, r4, #21
 8797              	.LVL1471:
 8798 2260 0A43     		orrs	r2, r1
 8799 2262 6B15     		asrs	r3, r5, #21
 8800              	.LVL1472:
 765:sc.c          ****     s8 += carry7;
 8801              		.loc 1 765 0
 8802 2264 0A9E     		ldr	r6, [sp, #40]
 8803 2266 0B9F     		ldr	r7, [sp, #44]
 8804              	.LVL1473:
 8805 2268 B618     		adds	r6, r6, r2
 8806 226a 5F41     		adcs	r7, r7, r3
 8807 226c 0096     		str	r6, [sp]
 8808 226e 0197     		str	r7, [sp, #4]
 8809              	.LVL1474:
 766:sc.c          ****     s7 -= carry7 << 21;
 8810              		.loc 1 766 0
ARM GAS  C:\Users\NIGHDR~1\AppData\Local\Temp\ccvJ0Ig2.s 			page 169


 8811 2270 D10A     		lsrs	r1, r2, #11
 8812 2272 8C46     		mov	ip, r1
 8813 2274 5905     		lsls	r1, r3, #21
 8814 2276 6746     		mov	r7, ip
 8815 2278 3943     		orrs	r1, r7
 8816 227a 5005     		lsls	r0, r2, #21
 8817 227c 2300     		movs	r3, r4
 8818 227e 2C00     		movs	r4, r5
 8819              	.LVL1475:
 8820 2280 1B1A     		subs	r3, r3, r0
 8821 2282 8C41     		sbcs	r4, r4, r1
 8822 2284 0A93     		str	r3, [sp, #40]
 8823 2286 0B94     		str	r4, [sp, #44]
 8824              	.LVL1476:
 767:sc.c          ****     carry8 = s8 >> 21;
 8825              		.loc 1 767 0
 8826 2288 009C     		ldr	r4, [sp]
 8827 228a 019D     		ldr	r5, [sp, #4]
 8828 228c E902     		lsls	r1, r5, #11
 8829 228e 620D     		lsrs	r2, r4, #21
 8830              	.LVL1477:
 8831 2290 0A43     		orrs	r2, r1
 8832 2292 6B15     		asrs	r3, r5, #21
 8833              	.LVL1478:
 768:sc.c          ****     s9 += carry8;
 8834              		.loc 1 768 0
 8835 2294 149C     		ldr	r4, [sp, #80]
 8836 2296 159D     		ldr	r5, [sp, #84]
 8837 2298 A418     		adds	r4, r4, r2
 8838 229a 5D41     		adcs	r5, r5, r3
 8839              	.LVL1479:
 769:sc.c          ****     s8 -= carry8 << 21;
 8840              		.loc 1 769 0
 8841 229c D10A     		lsrs	r1, r2, #11
 8842 229e 8C46     		mov	ip, r1
 8843 22a0 5905     		lsls	r1, r3, #21
 8844 22a2 6746     		mov	r7, ip
 8845 22a4 3943     		orrs	r1, r7
 8846 22a6 5005     		lsls	r0, r2, #21
 8847 22a8 009A     		ldr	r2, [sp]
 8848 22aa 019B     		ldr	r3, [sp, #4]
 8849              	.LVL1480:
 8850 22ac 121A     		subs	r2, r2, r0
 8851 22ae 8B41     		sbcs	r3, r3, r1
 8852 22b0 0092     		str	r2, [sp]
 8853 22b2 0193     		str	r3, [sp, #4]
 8854              	.LVL1481:
 770:sc.c          ****     carry9 = s9 >> 21;
 8855              		.loc 1 770 0
 8856 22b4 E902     		lsls	r1, r5, #11
 8857 22b6 620D     		lsrs	r2, r4, #21
 8858              	.LVL1482:
 8859 22b8 0A43     		orrs	r2, r1
 8860 22ba 6B15     		asrs	r3, r5, #21
 8861              	.LVL1483:
 771:sc.c          ****     s10 += carry9;
 8862              		.loc 1 771 0
ARM GAS  C:\Users\NIGHDR~1\AppData\Local\Temp\ccvJ0Ig2.s 			page 170


 8863 22bc 1698     		ldr	r0, [sp, #88]
 8864 22be 1799     		ldr	r1, [sp, #92]
 8865 22c0 8018     		adds	r0, r0, r2
 8866 22c2 5941     		adcs	r1, r1, r3
 8867 22c4 1290     		str	r0, [sp, #72]
 8868 22c6 1391     		str	r1, [sp, #76]
 8869              	.LVL1484:
 772:sc.c          ****     s9 -= carry9 << 21;
 8870              		.loc 1 772 0
 8871 22c8 D10A     		lsrs	r1, r2, #11
 8872 22ca 8C46     		mov	ip, r1
 8873 22cc 5905     		lsls	r1, r3, #21
 8874 22ce 6746     		mov	r7, ip
 8875 22d0 3943     		orrs	r1, r7
 8876 22d2 5005     		lsls	r0, r2, #21
 8877              	.LVL1485:
 8878 22d4 2300     		movs	r3, r4
 8879 22d6 2C00     		movs	r4, r5
 8880              	.LVL1486:
 8881 22d8 1B1A     		subs	r3, r3, r0
 8882 22da 8C41     		sbcs	r4, r4, r1
 8883 22dc 1493     		str	r3, [sp, #80]
 8884 22de 1594     		str	r4, [sp, #84]
 8885              	.LVL1487:
 773:sc.c          ****     carry10 = s10 >> 21;
 8886              		.loc 1 773 0
 8887 22e0 129D     		ldr	r5, [sp, #72]
 8888 22e2 139E     		ldr	r6, [sp, #76]
 8889 22e4 F102     		lsls	r1, r6, #11
 8890 22e6 6A0D     		lsrs	r2, r5, #21
 8891              	.LVL1488:
 8892 22e8 0A43     		orrs	r2, r1
 8893 22ea 7315     		asrs	r3, r6, #21
 8894              	.LVL1489:
 774:sc.c          ****     s11 += carry10;
 8895              		.loc 1 774 0
 8896 22ec 1898     		ldr	r0, [sp, #96]
 8897 22ee 1999     		ldr	r1, [sp, #100]
 8898 22f0 8018     		adds	r0, r0, r2
 8899 22f2 5941     		adcs	r1, r1, r3
 8900 22f4 1290     		str	r0, [sp, #72]
 8901 22f6 1391     		str	r1, [sp, #76]
 8902              	.LVL1490:
 775:sc.c          ****     s10 -= carry10 << 21;
 8903              		.loc 1 775 0
 8904 22f8 D40A     		lsrs	r4, r2, #11
 8905 22fa 5905     		lsls	r1, r3, #21
 8906 22fc 2143     		orrs	r1, r4
 8907 22fe 5005     		lsls	r0, r2, #21
 8908              	.LVL1491:
 8909 2300 2A00     		movs	r2, r5
 8910              	.LVL1492:
 8911 2302 3300     		movs	r3, r6
 8912 2304 121A     		subs	r2, r2, r0
 8913 2306 8B41     		sbcs	r3, r3, r1
 8914              	.LVL1493:
 776:sc.c          ****     
ARM GAS  C:\Users\NIGHDR~1\AppData\Local\Temp\ccvJ0Ig2.s 			page 171


 777:sc.c          ****     s[0] = (unsigned char) (s0 >> 0);
 8915              		.loc 1 777 0
 8916 2308 4146     		mov	r1, r8
 8917 230a 0E9D     		ldr	r5, [sp, #56]
 8918 230c 0F9E     		ldr	r6, [sp, #60]
 8919 230e 0D70     		strb	r5, [r1]
 778:sc.c          ****     s[1] = (unsigned char) (s0 >> 8);
 8920              		.loc 1 778 0
 8921 2310 290A     		lsrs	r1, r5, #8
 8922 2312 4746     		mov	r7, r8
 8923 2314 7970     		strb	r1, [r7, #1]
 779:sc.c          ****     s[2] = (unsigned char) ((s0 >> 16) | (s1 << 5));
 8924              		.loc 1 779 0
 8925 2316 3104     		lsls	r1, r6, #16
 8926 2318 2E0C     		lsrs	r6, r5, #16
 8927 231a 0E43     		orrs	r6, r1
 8928 231c 029C     		ldr	r4, [sp, #8]
 8929 231e 039D     		ldr	r5, [sp, #12]
 8930 2320 6001     		lsls	r0, r4, #5
 8931 2322 0643     		orrs	r6, r0
 8932 2324 4146     		mov	r1, r8
 8933 2326 8E70     		strb	r6, [r1, #2]
 780:sc.c          ****     s[3] = (unsigned char) (s1 >> 3);
 8934              		.loc 1 780 0
 8935 2328 E108     		lsrs	r1, r4, #3
 8936 232a 4746     		mov	r7, r8
 8937 232c F970     		strb	r1, [r7, #3]
 781:sc.c          ****     s[4] = (unsigned char) (s1 >> 11);
 8938              		.loc 1 781 0
 8939 232e 2E00     		movs	r6, r5
 8940 2330 E10A     		lsrs	r1, r4, #11
 8941 2332 3971     		strb	r1, [r7, #4]
 782:sc.c          ****     s[5] = (unsigned char) ((s1 >> 19) | (s2 << 2));
 8942              		.loc 1 782 0
 8943 2334 7103     		lsls	r1, r6, #13
 8944 2336 E00C     		lsrs	r0, r4, #19
 8945 2338 0843     		orrs	r0, r1
 8946 233a 049D     		ldr	r5, [sp, #16]
 8947 233c 059E     		ldr	r6, [sp, #20]
 8948 233e A900     		lsls	r1, r5, #2
 8949 2340 0843     		orrs	r0, r1
 8950 2342 4146     		mov	r1, r8
 8951 2344 4871     		strb	r0, [r1, #5]
 783:sc.c          ****     s[6] = (unsigned char) (s2 >> 6);
 8952              		.loc 1 783 0
 8953 2346 A909     		lsrs	r1, r5, #6
 8954 2348 4746     		mov	r7, r8
 8955 234a B971     		strb	r1, [r7, #6]
 784:sc.c          ****     s[7] = (unsigned char) ((s2 >> 14) | (s3 << 7));
 8956              		.loc 1 784 0
 8957 234c B104     		lsls	r1, r6, #18
 8958 234e AE0B     		lsrs	r6, r5, #14
 8959 2350 0E43     		orrs	r6, r1
 8960 2352 069C     		ldr	r4, [sp, #24]
 8961 2354 079D     		ldr	r5, [sp, #28]
 8962 2356 E001     		lsls	r0, r4, #7
 8963 2358 0643     		orrs	r6, r0
ARM GAS  C:\Users\NIGHDR~1\AppData\Local\Temp\ccvJ0Ig2.s 			page 172


 8964 235a 4146     		mov	r1, r8
 8965 235c CE71     		strb	r6, [r1, #7]
 785:sc.c          ****     s[8] = (unsigned char) (s3 >> 1);
 8966              		.loc 1 785 0
 8967 235e 6108     		lsrs	r1, r4, #1
 8968 2360 4746     		mov	r7, r8
 8969 2362 3972     		strb	r1, [r7, #8]
 786:sc.c          ****     s[9] = (unsigned char) (s3 >> 9);
 8970              		.loc 1 786 0
 8971 2364 2E00     		movs	r6, r5
 8972 2366 610A     		lsrs	r1, r4, #9
 8973 2368 7972     		strb	r1, [r7, #9]
 787:sc.c          ****     s[10] = (unsigned char) ((s3 >> 17) | (s4 << 4));
 8974              		.loc 1 787 0
 8975 236a F103     		lsls	r1, r6, #15
 8976 236c 640C     		lsrs	r4, r4, #17
 8977 236e 0C43     		orrs	r4, r1
 8978 2370 0C9E     		ldr	r6, [sp, #48]
 8979 2372 0D9F     		ldr	r7, [sp, #52]
 8980 2374 3001     		lsls	r0, r6, #4
 8981 2376 0443     		orrs	r4, r0
 8982 2378 4146     		mov	r1, r8
 8983 237a 8C72     		strb	r4, [r1, #10]
 788:sc.c          ****     s[11] = (unsigned char) (s4 >> 4);
 8984              		.loc 1 788 0
 8985 237c 3109     		lsrs	r1, r6, #4
 8986 237e 4546     		mov	r5, r8
 8987 2380 E972     		strb	r1, [r5, #11]
 789:sc.c          ****     s[12] = (unsigned char) (s4 >> 12);
 8988              		.loc 1 789 0
 8989 2382 310B     		lsrs	r1, r6, #12
 8990 2384 2973     		strb	r1, [r5, #12]
 790:sc.c          ****     s[13] = (unsigned char) ((s4 >> 20) | (s5 << 1));
 8991              		.loc 1 790 0
 8992 2386 3903     		lsls	r1, r7, #12
 8993 2388 360D     		lsrs	r6, r6, #20
 8994 238a 0E43     		orrs	r6, r1
 8995 238c 0898     		ldr	r0, [sp, #32]
 8996 238e 0999     		ldr	r1, [sp, #36]
 8997 2390 0400     		movs	r4, r0
 8998 2392 0D00     		movs	r5, r1
 8999 2394 2418     		adds	r4, r4, r0
 9000 2396 4D41     		adcs	r5, r5, r1
 9001 2398 3443     		orrs	r4, r6
 9002 239a 4646     		mov	r6, r8
 9003 239c 7473     		strb	r4, [r6, #13]
 791:sc.c          ****     s[14] = (unsigned char) (s5 >> 7);
 9004              		.loc 1 791 0
 9005 239e 0400     		movs	r4, r0
 9006 23a0 0D00     		movs	r5, r1
 9007 23a2 C109     		lsrs	r1, r0, #7
 9008 23a4 B173     		strb	r1, [r6, #14]
 792:sc.c          ****     s[15] = (unsigned char) ((s5 >> 15) | (s6 << 6));
 9009              		.loc 1 792 0
 9010 23a6 6904     		lsls	r1, r5, #17
 9011 23a8 E40B     		lsrs	r4, r4, #15
 9012 23aa 0C43     		orrs	r4, r1
ARM GAS  C:\Users\NIGHDR~1\AppData\Local\Temp\ccvJ0Ig2.s 			page 173


 9013 23ac 109D     		ldr	r5, [sp, #64]
 9014 23ae 119E     		ldr	r6, [sp, #68]
 9015 23b0 A801     		lsls	r0, r5, #6
 9016 23b2 0443     		orrs	r4, r0
 9017 23b4 4146     		mov	r1, r8
 9018 23b6 CC73     		strb	r4, [r1, #15]
 793:sc.c          ****     s[16] = (unsigned char) (s6 >> 2);
 9019              		.loc 1 793 0
 9020 23b8 2C00     		movs	r4, r5
 9021 23ba 3500     		movs	r5, r6
 9022 23bc A108     		lsrs	r1, r4, #2
 9023 23be 4646     		mov	r6, r8
 9024 23c0 3174     		strb	r1, [r6, #16]
 794:sc.c          ****     s[17] = (unsigned char) (s6 >> 10);
 9025              		.loc 1 794 0
 9026 23c2 A10A     		lsrs	r1, r4, #10
 9027 23c4 7174     		strb	r1, [r6, #17]
 795:sc.c          ****     s[18] = (unsigned char) ((s6 >> 18) | (s7 << 3));
 9028              		.loc 1 795 0
 9029 23c6 A903     		lsls	r1, r5, #14
 9030 23c8 A60C     		lsrs	r6, r4, #18
 9031 23ca 0E43     		orrs	r6, r1
 9032 23cc 0A9C     		ldr	r4, [sp, #40]
 9033 23ce 0B9D     		ldr	r5, [sp, #44]
 9034 23d0 E100     		lsls	r1, r4, #3
 9035 23d2 0E43     		orrs	r6, r1
 9036 23d4 4146     		mov	r1, r8
 9037 23d6 8E74     		strb	r6, [r1, #18]
 796:sc.c          ****     s[19] = (unsigned char) (s7 >> 5);
 9038              		.loc 1 796 0
 9039 23d8 2600     		movs	r6, r4
 9040 23da 6109     		lsrs	r1, r4, #5
 9041 23dc 4546     		mov	r5, r8
 9042 23de E974     		strb	r1, [r5, #19]
 797:sc.c          ****     s[20] = (unsigned char) (s7 >> 13);
 9043              		.loc 1 797 0
 9044 23e0 740B     		lsrs	r4, r6, #13
 9045 23e2 4146     		mov	r1, r8
 9046 23e4 2C75     		strb	r4, [r5, #20]
 798:sc.c          ****     s[21] = (unsigned char) (s8 >> 0);
 9047              		.loc 1 798 0
 9048 23e6 009D     		ldr	r5, [sp]
 9049 23e8 019E     		ldr	r6, [sp, #4]
 9050 23ea 4D75     		strb	r5, [r1, #21]
 799:sc.c          ****     s[22] = (unsigned char) (s8 >> 8);
 9051              		.loc 1 799 0
 9052 23ec 290A     		lsrs	r1, r5, #8
 9053 23ee 4746     		mov	r7, r8
 9054 23f0 B975     		strb	r1, [r7, #22]
 800:sc.c          ****     s[23] = (unsigned char) ((s8 >> 16) | (s9 << 5));
 9055              		.loc 1 800 0
 9056 23f2 3104     		lsls	r1, r6, #16
 9057 23f4 2E0C     		lsrs	r6, r5, #16
 9058 23f6 0E43     		orrs	r6, r1
 9059 23f8 149C     		ldr	r4, [sp, #80]
 9060 23fa 159D     		ldr	r5, [sp, #84]
 9061 23fc 6101     		lsls	r1, r4, #5
ARM GAS  C:\Users\NIGHDR~1\AppData\Local\Temp\ccvJ0Ig2.s 			page 174


 9062 23fe 0E43     		orrs	r6, r1
 9063 2400 FE75     		strb	r6, [r7, #23]
 801:sc.c          ****     s[24] = (unsigned char) (s9 >> 3);
 9064              		.loc 1 801 0
 9065 2402 E108     		lsrs	r1, r4, #3
 9066 2404 3976     		strb	r1, [r7, #24]
 802:sc.c          ****     s[25] = (unsigned char) (s9 >> 11);
 9067              		.loc 1 802 0
 9068 2406 E10A     		lsrs	r1, r4, #11
 9069 2408 7976     		strb	r1, [r7, #25]
 803:sc.c          ****     s[26] = (unsigned char) ((s9 >> 19) | (s10 << 2));
 9070              		.loc 1 803 0
 9071 240a 6903     		lsls	r1, r5, #13
 9072 240c E40C     		lsrs	r4, r4, #19
 9073 240e 0C43     		orrs	r4, r1
 9074 2410 9100     		lsls	r1, r2, #2
 9075 2412 0C43     		orrs	r4, r1
 9076 2414 BC76     		strb	r4, [r7, #26]
 804:sc.c          ****     s[27] = (unsigned char) (s10 >> 6);
 9077              		.loc 1 804 0
 9078 2416 9109     		lsrs	r1, r2, #6
 9079 2418 F976     		strb	r1, [r7, #27]
 805:sc.c          ****     s[28] = (unsigned char) ((s10 >> 14) | (s11 << 7));
 9080              		.loc 1 805 0
 9081 241a 9B04     		lsls	r3, r3, #18
 9082 241c 960B     		lsrs	r6, r2, #14
 9083 241e 1E43     		orrs	r6, r3
 9084 2420 1298     		ldr	r0, [sp, #72]
 9085 2422 1399     		ldr	r1, [sp, #76]
 9086 2424 C201     		lsls	r2, r0, #7
 9087              	.LVL1494:
 9088 2426 1643     		orrs	r6, r2
 9089 2428 3E77     		strb	r6, [r7, #28]
 806:sc.c          ****     s[29] = (unsigned char) (s11 >> 1);
 9090              		.loc 1 806 0
 9091 242a 4308     		lsrs	r3, r0, #1
 9092 242c 7B77     		strb	r3, [r7, #29]
 807:sc.c          ****     s[30] = (unsigned char) (s11 >> 9);
 9093              		.loc 1 807 0
 9094 242e 430A     		lsrs	r3, r0, #9
 9095 2430 BB77     		strb	r3, [r7, #30]
 808:sc.c          ****     s[31] = (unsigned char) (s11 >> 17);
 9096              		.loc 1 808 0
 9097 2432 400C     		lsrs	r0, r0, #17
 9098 2434 F877     		strb	r0, [r7, #31]
 809:sc.c          **** }
 9099              		.loc 1 809 0
 9100 2436 4FB0     		add	sp, sp, #316
 9101              	.LVL1495:
 9102              		@ sp needed
 9103              	.LVL1496:
 9104              	.LVL1497:
 9105 2438 0CBC     		pop	{r2, r3}
 9106 243a 9046     		mov	r8, r2
 9107 243c 9946     		mov	r9, r3
 9108 243e F0BD     		pop	{r4, r5, r6, r7, pc}
 9109              		.cfi_endproc
ARM GAS  C:\Users\NIGHDR~1\AppData\Local\Temp\ccvJ0Ig2.s 			page 175


 9110              	.LFE3:
 9111              		.size	sc_muladd, .-sc_muladd
 9112              		.text
 9113              	.Letext0:
 9114              		.file 2 "c:\\program files (x86)\\cypress\\psoc creator\\4.1\\psoc creator\\import\\gnu\\arm\\5.4.
 9115              		.file 3 "c:\\program files (x86)\\cypress\\psoc creator\\4.1\\psoc creator\\import\\gnu\\arm\\5.4.
 9116              		.section	.debug_info,"",%progbits
 9117              	.Ldebug_info0:
 9118 0000 320D0000 		.4byte	0xd32
 9119 0004 0400     		.2byte	0x4
 9120 0006 00000000 		.4byte	.Ldebug_abbrev0
 9121 000a 04       		.byte	0x4
 9122 000b 01       		.uleb128 0x1
 9123 000c 8F000000 		.4byte	.LASF39
 9124 0010 0C       		.byte	0xc
 9125 0011 82000000 		.4byte	.LASF40
 9126 0015 5B010000 		.4byte	.LASF41
 9127 0019 00000000 		.4byte	.Ldebug_ranges0+0
 9128 001d 00000000 		.4byte	0
 9129 0021 00000000 		.4byte	.Ldebug_line0
 9130 0025 02       		.uleb128 0x2
 9131 0026 01       		.byte	0x1
 9132 0027 06       		.byte	0x6
 9133 0028 90010000 		.4byte	.LASF0
 9134 002c 02       		.uleb128 0x2
 9135 002d 01       		.byte	0x1
 9136 002e 08       		.byte	0x8
 9137 002f 4D010000 		.4byte	.LASF1
 9138 0033 02       		.uleb128 0x2
 9139 0034 02       		.byte	0x2
 9140 0035 05       		.byte	0x5
 9141 0036 48000000 		.4byte	.LASF2
 9142 003a 02       		.uleb128 0x2
 9143 003b 02       		.byte	0x2
 9144 003c 07       		.byte	0x7
 9145 003d C7010000 		.4byte	.LASF3
 9146 0041 02       		.uleb128 0x2
 9147 0042 04       		.byte	0x4
 9148 0043 05       		.byte	0x5
 9149 0044 3A010000 		.4byte	.LASF4
 9150 0048 02       		.uleb128 0x2
 9151 0049 04       		.byte	0x4
 9152 004a 07       		.byte	0x7
 9153 004b EF010000 		.4byte	.LASF5
 9154 004f 03       		.uleb128 0x3
 9155 0050 43010000 		.4byte	.LASF7
 9156 0054 02       		.byte	0x2
 9157 0055 59       		.byte	0x59
 9158 0056 5A000000 		.4byte	0x5a
 9159 005a 02       		.uleb128 0x2
 9160 005b 08       		.byte	0x8
 9161 005c 05       		.byte	0x5
 9162 005d 2C010000 		.4byte	.LASF6
 9163 0061 03       		.uleb128 0x3
 9164 0062 E4010000 		.4byte	.LASF8
 9165 0066 02       		.byte	0x2
 9166 0067 5B       		.byte	0x5b
ARM GAS  C:\Users\NIGHDR~1\AppData\Local\Temp\ccvJ0Ig2.s 			page 176


 9167 0068 6C000000 		.4byte	0x6c
 9168 006c 02       		.uleb128 0x2
 9169 006d 08       		.byte	0x8
 9170 006e 07       		.byte	0x7
 9171 006f 9C010000 		.4byte	.LASF9
 9172 0073 04       		.uleb128 0x4
 9173 0074 04       		.byte	0x4
 9174 0075 05       		.byte	0x5
 9175 0076 696E7400 		.ascii	"int\000"
 9176 007a 02       		.uleb128 0x2
 9177 007b 04       		.byte	0x4
 9178 007c 07       		.byte	0x7
 9179 007d B3010000 		.4byte	.LASF10
 9180 0081 03       		.uleb128 0x3
 9181 0082 87000000 		.4byte	.LASF11
 9182 0086 03       		.byte	0x3
 9183 0087 38       		.byte	0x38
 9184 0088 4F000000 		.4byte	0x4f
 9185 008c 03       		.uleb128 0x3
 9186 008d 3F000000 		.4byte	.LASF12
 9187 0091 03       		.byte	0x3
 9188 0092 3C       		.byte	0x3c
 9189 0093 61000000 		.4byte	0x61
 9190 0097 05       		.uleb128 0x5
 9191 0098 74000000 		.4byte	.LASF13
 9192 009c 01       		.byte	0x1
 9193 009d 04       		.byte	0x4
 9194 009e 8C000000 		.4byte	0x8c
 9195 00a2 00000000 		.4byte	.LFB0
 9196 00a6 1A000000 		.4byte	.LFE0-.LFB0
 9197 00aa 01       		.uleb128 0x1
 9198 00ab 9C       		.byte	0x9c
 9199 00ac CE000000 		.4byte	0xce
 9200 00b0 06       		.uleb128 0x6
 9201 00b1 696E00   		.ascii	"in\000"
 9202 00b4 01       		.byte	0x1
 9203 00b5 04       		.byte	0x4
 9204 00b6 CE000000 		.4byte	0xce
 9205 00ba 00000000 		.4byte	.LLST0
 9206 00be 07       		.uleb128 0x7
 9207 00bf 15000000 		.4byte	.LASF15
 9208 00c3 01       		.byte	0x1
 9209 00c4 05       		.byte	0x5
 9210 00c5 8C000000 		.4byte	0x8c
 9211 00c9 21000000 		.4byte	.LLST1
 9212 00cd 00       		.byte	0
 9213 00ce 08       		.uleb128 0x8
 9214 00cf 04       		.byte	0x4
 9215 00d0 D4000000 		.4byte	0xd4
 9216 00d4 09       		.uleb128 0x9
 9217 00d5 2C000000 		.4byte	0x2c
 9218 00d9 05       		.uleb128 0x5
 9219 00da 7B000000 		.4byte	.LASF14
 9220 00de 01       		.byte	0x1
 9221 00df 0E       		.byte	0xe
 9222 00e0 8C000000 		.4byte	0x8c
 9223 00e4 00000000 		.4byte	.LFB1
ARM GAS  C:\Users\NIGHDR~1\AppData\Local\Temp\ccvJ0Ig2.s 			page 177


 9224 00e8 1A000000 		.4byte	.LFE1-.LFB1
 9225 00ec 01       		.uleb128 0x1
 9226 00ed 9C       		.byte	0x9c
 9227 00ee 0C010000 		.4byte	0x10c
 9228 00f2 06       		.uleb128 0x6
 9229 00f3 696E00   		.ascii	"in\000"
 9230 00f6 01       		.byte	0x1
 9231 00f7 0E       		.byte	0xe
 9232 00f8 CE000000 		.4byte	0xce
 9233 00fc 49000000 		.4byte	.LLST2
 9234 0100 0A       		.uleb128 0xa
 9235 0101 15000000 		.4byte	.LASF15
 9236 0105 01       		.byte	0x1
 9237 0106 0F       		.byte	0xf
 9238 0107 8C000000 		.4byte	0x8c
 9239 010b 00       		.byte	0
 9240 010c 0B       		.uleb128 0xb
 9241 010d DA010000 		.4byte	.LASF42
 9242 0111 01       		.byte	0x1
 9243 0112 23       		.byte	0x23
 9244 0113 00000000 		.4byte	.LFB2
 9245 0117 04140000 		.4byte	.LFE2-.LFB2
 9246 011b 01       		.uleb128 0x1
 9247 011c 9C       		.byte	0x9c
 9248 011d 68050000 		.4byte	0x568
 9249 0121 06       		.uleb128 0x6
 9250 0122 7300     		.ascii	"s\000"
 9251 0124 01       		.byte	0x1
 9252 0125 23       		.byte	0x23
 9253 0126 68050000 		.4byte	0x568
 9254 012a 6A000000 		.4byte	.LLST3
 9255 012e 0C       		.uleb128 0xc
 9256 012f 733000   		.ascii	"s0\000"
 9257 0132 01       		.byte	0x1
 9258 0133 24       		.byte	0x24
 9259 0134 81000000 		.4byte	0x81
 9260 0138 96000000 		.4byte	.LLST4
 9261 013c 0C       		.uleb128 0xc
 9262 013d 733100   		.ascii	"s1\000"
 9263 0140 01       		.byte	0x1
 9264 0141 25       		.byte	0x25
 9265 0142 81000000 		.4byte	0x81
 9266 0146 32010000 		.4byte	.LLST5
 9267 014a 0C       		.uleb128 0xc
 9268 014b 733200   		.ascii	"s2\000"
 9269 014e 01       		.byte	0x1
 9270 014f 26       		.byte	0x26
 9271 0150 81000000 		.4byte	0x81
 9272 0154 69020000 		.4byte	.LLST6
 9273 0158 0C       		.uleb128 0xc
 9274 0159 733300   		.ascii	"s3\000"
 9275 015c 01       		.byte	0x1
 9276 015d 27       		.byte	0x27
 9277 015e 81000000 		.4byte	0x81
 9278 0162 A3030000 		.4byte	.LLST7
 9279 0166 0C       		.uleb128 0xc
 9280 0167 733400   		.ascii	"s4\000"
ARM GAS  C:\Users\NIGHDR~1\AppData\Local\Temp\ccvJ0Ig2.s 			page 178


 9281 016a 01       		.byte	0x1
 9282 016b 28       		.byte	0x28
 9283 016c 81000000 		.4byte	0x81
 9284 0170 06050000 		.4byte	.LLST8
 9285 0174 0C       		.uleb128 0xc
 9286 0175 733500   		.ascii	"s5\000"
 9287 0178 01       		.byte	0x1
 9288 0179 29       		.byte	0x29
 9289 017a 81000000 		.4byte	0x81
 9290 017e 86060000 		.4byte	.LLST9
 9291 0182 0C       		.uleb128 0xc
 9292 0183 733600   		.ascii	"s6\000"
 9293 0186 01       		.byte	0x1
 9294 0187 2A       		.byte	0x2a
 9295 0188 81000000 		.4byte	0x81
 9296 018c B3070000 		.4byte	.LLST10
 9297 0190 0C       		.uleb128 0xc
 9298 0191 733700   		.ascii	"s7\000"
 9299 0194 01       		.byte	0x1
 9300 0195 2B       		.byte	0x2b
 9301 0196 81000000 		.4byte	0x81
 9302 019a C2080000 		.4byte	.LLST11
 9303 019e 0C       		.uleb128 0xc
 9304 019f 733800   		.ascii	"s8\000"
 9305 01a2 01       		.byte	0x1
 9306 01a3 2C       		.byte	0x2c
 9307 01a4 81000000 		.4byte	0x81
 9308 01a8 5E0A0000 		.4byte	.LLST12
 9309 01ac 0C       		.uleb128 0xc
 9310 01ad 733900   		.ascii	"s9\000"
 9311 01b0 01       		.byte	0x1
 9312 01b1 2D       		.byte	0x2d
 9313 01b2 81000000 		.4byte	0x81
 9314 01b6 010C0000 		.4byte	.LLST13
 9315 01ba 0C       		.uleb128 0xc
 9316 01bb 73313000 		.ascii	"s10\000"
 9317 01bf 01       		.byte	0x1
 9318 01c0 2E       		.byte	0x2e
 9319 01c1 81000000 		.4byte	0x81
 9320 01c5 9D0D0000 		.4byte	.LLST14
 9321 01c9 0C       		.uleb128 0xc
 9322 01ca 73313100 		.ascii	"s11\000"
 9323 01ce 01       		.byte	0x1
 9324 01cf 2F       		.byte	0x2f
 9325 01d0 81000000 		.4byte	0x81
 9326 01d4 D70E0000 		.4byte	.LLST15
 9327 01d8 0C       		.uleb128 0xc
 9328 01d9 73313200 		.ascii	"s12\000"
 9329 01dd 01       		.byte	0x1
 9330 01de 30       		.byte	0x30
 9331 01df 81000000 		.4byte	0x81
 9332 01e3 5A100000 		.4byte	.LLST16
 9333 01e7 0C       		.uleb128 0xc
 9334 01e8 73313300 		.ascii	"s13\000"
 9335 01ec 01       		.byte	0x1
 9336 01ed 31       		.byte	0x31
 9337 01ee 81000000 		.4byte	0x81
ARM GAS  C:\Users\NIGHDR~1\AppData\Local\Temp\ccvJ0Ig2.s 			page 179


 9338 01f2 B2110000 		.4byte	.LLST17
 9339 01f6 0C       		.uleb128 0xc
 9340 01f7 73313400 		.ascii	"s14\000"
 9341 01fb 01       		.byte	0x1
 9342 01fc 32       		.byte	0x32
 9343 01fd 81000000 		.4byte	0x81
 9344 0201 89120000 		.4byte	.LLST18
 9345 0205 0C       		.uleb128 0xc
 9346 0206 73313500 		.ascii	"s15\000"
 9347 020a 01       		.byte	0x1
 9348 020b 33       		.byte	0x33
 9349 020c 81000000 		.4byte	0x81
 9350 0210 19130000 		.4byte	.LLST19
 9351 0214 0C       		.uleb128 0xc
 9352 0215 73313600 		.ascii	"s16\000"
 9353 0219 01       		.byte	0x1
 9354 021a 34       		.byte	0x34
 9355 021b 81000000 		.4byte	0x81
 9356 021f B5130000 		.4byte	.LLST20
 9357 0223 0C       		.uleb128 0xc
 9358 0224 73313700 		.ascii	"s17\000"
 9359 0228 01       		.byte	0x1
 9360 0229 35       		.byte	0x35
 9361 022a 81000000 		.4byte	0x81
 9362 022e 34140000 		.4byte	.LLST21
 9363 0232 0C       		.uleb128 0xc
 9364 0233 73313800 		.ascii	"s18\000"
 9365 0237 01       		.byte	0x1
 9366 0238 36       		.byte	0x36
 9367 0239 81000000 		.4byte	0x81
 9368 023d 94140000 		.4byte	.LLST22
 9369 0241 0C       		.uleb128 0xc
 9370 0242 73313900 		.ascii	"s19\000"
 9371 0246 01       		.byte	0x1
 9372 0247 37       		.byte	0x37
 9373 0248 81000000 		.4byte	0x81
 9374 024c B0140000 		.4byte	.LLST23
 9375 0250 0C       		.uleb128 0xc
 9376 0251 73323000 		.ascii	"s20\000"
 9377 0255 01       		.byte	0x1
 9378 0256 38       		.byte	0x38
 9379 0257 81000000 		.4byte	0x81
 9380 025b CC140000 		.4byte	.LLST24
 9381 025f 0C       		.uleb128 0xc
 9382 0260 73323100 		.ascii	"s21\000"
 9383 0264 01       		.byte	0x1
 9384 0265 39       		.byte	0x39
 9385 0266 81000000 		.4byte	0x81
 9386 026a E8140000 		.4byte	.LLST25
 9387 026e 0C       		.uleb128 0xc
 9388 026f 73323200 		.ascii	"s22\000"
 9389 0273 01       		.byte	0x1
 9390 0274 3A       		.byte	0x3a
 9391 0275 81000000 		.4byte	0x81
 9392 0279 04150000 		.4byte	.LLST26
 9393 027d 0C       		.uleb128 0xc
 9394 027e 73323300 		.ascii	"s23\000"
ARM GAS  C:\Users\NIGHDR~1\AppData\Local\Temp\ccvJ0Ig2.s 			page 180


 9395 0282 01       		.byte	0x1
 9396 0283 3B       		.byte	0x3b
 9397 0284 81000000 		.4byte	0x81
 9398 0288 20150000 		.4byte	.LLST27
 9399 028c 07       		.uleb128 0x7
 9400 028d 00000000 		.4byte	.LASF16
 9401 0291 01       		.byte	0x1
 9402 0292 3C       		.byte	0x3c
 9403 0293 81000000 		.4byte	0x81
 9404 0297 4C150000 		.4byte	.LLST28
 9405 029b 07       		.uleb128 0x7
 9406 029c 07000000 		.4byte	.LASF17
 9407 02a0 01       		.byte	0x1
 9408 02a1 3D       		.byte	0x3d
 9409 02a2 81000000 		.4byte	0x81
 9410 02a6 84150000 		.4byte	.LLST29
 9411 02aa 07       		.uleb128 0x7
 9412 02ab C0010000 		.4byte	.LASF18
 9413 02af 01       		.byte	0x1
 9414 02b0 3E       		.byte	0x3e
 9415 02b1 81000000 		.4byte	0x81
 9416 02b5 BC150000 		.4byte	.LLST30
 9417 02b9 07       		.uleb128 0x7
 9418 02ba 0E000000 		.4byte	.LASF19
 9419 02be 01       		.byte	0x1
 9420 02bf 3F       		.byte	0x3f
 9421 02c0 81000000 		.4byte	0x81
 9422 02c4 F4150000 		.4byte	.LLST31
 9423 02c8 07       		.uleb128 0x7
 9424 02c9 25010000 		.4byte	.LASF20
 9425 02cd 01       		.byte	0x1
 9426 02ce 40       		.byte	0x40
 9427 02cf 81000000 		.4byte	0x81
 9428 02d3 2C160000 		.4byte	.LLST32
 9429 02d7 07       		.uleb128 0x7
 9430 02d8 1C000000 		.4byte	.LASF21
 9431 02dc 01       		.byte	0x1
 9432 02dd 41       		.byte	0x41
 9433 02de 81000000 		.4byte	0x81
 9434 02e2 64160000 		.4byte	.LLST33
 9435 02e6 07       		.uleb128 0x7
 9436 02e7 23000000 		.4byte	.LASF22
 9437 02eb 01       		.byte	0x1
 9438 02ec 42       		.byte	0x42
 9439 02ed 81000000 		.4byte	0x81
 9440 02f1 9C160000 		.4byte	.LLST34
 9441 02f5 07       		.uleb128 0x7
 9442 02f6 2A000000 		.4byte	.LASF23
 9443 02fa 01       		.byte	0x1
 9444 02fb 43       		.byte	0x43
 9445 02fc 81000000 		.4byte	0x81
 9446 0300 E4160000 		.4byte	.LLST35
 9447 0304 07       		.uleb128 0x7
 9448 0305 31000000 		.4byte	.LASF24
 9449 0309 01       		.byte	0x1
 9450 030a 44       		.byte	0x44
 9451 030b 81000000 		.4byte	0x81
ARM GAS  C:\Users\NIGHDR~1\AppData\Local\Temp\ccvJ0Ig2.s 			page 181


 9452 030f 2C170000 		.4byte	.LLST36
 9453 0313 07       		.uleb128 0x7
 9454 0314 38000000 		.4byte	.LASF25
 9455 0318 01       		.byte	0x1
 9456 0319 45       		.byte	0x45
 9457 031a 81000000 		.4byte	0x81
 9458 031e 74170000 		.4byte	.LLST37
 9459 0322 07       		.uleb128 0x7
 9460 0323 01020000 		.4byte	.LASF26
 9461 0327 01       		.byte	0x1
 9462 0328 46       		.byte	0x46
 9463 0329 81000000 		.4byte	0x81
 9464 032d BC170000 		.4byte	.LLST38
 9465 0331 07       		.uleb128 0x7
 9466 0332 09020000 		.4byte	.LASF27
 9467 0336 01       		.byte	0x1
 9468 0337 47       		.byte	0x47
 9469 0338 81000000 		.4byte	0x81
 9470 033c 04180000 		.4byte	.LLST39
 9471 0340 07       		.uleb128 0x7
 9472 0341 11020000 		.4byte	.LASF28
 9473 0345 01       		.byte	0x1
 9474 0346 48       		.byte	0x48
 9475 0347 81000000 		.4byte	0x81
 9476 034b 3C180000 		.4byte	.LLST40
 9477 034f 07       		.uleb128 0x7
 9478 0350 19020000 		.4byte	.LASF29
 9479 0354 01       		.byte	0x1
 9480 0355 49       		.byte	0x49
 9481 0356 81000000 		.4byte	0x81
 9482 035a 54180000 		.4byte	.LLST41
 9483 035e 07       		.uleb128 0x7
 9484 035f 21020000 		.4byte	.LASF30
 9485 0363 01       		.byte	0x1
 9486 0364 4A       		.byte	0x4a
 9487 0365 81000000 		.4byte	0x81
 9488 0369 6C180000 		.4byte	.LLST42
 9489 036d 07       		.uleb128 0x7
 9490 036e 29020000 		.4byte	.LASF31
 9491 0372 01       		.byte	0x1
 9492 0373 4B       		.byte	0x4b
 9493 0374 81000000 		.4byte	0x81
 9494 0378 84180000 		.4byte	.LLST43
 9495 037c 07       		.uleb128 0x7
 9496 037d 31020000 		.4byte	.LASF32
 9497 0381 01       		.byte	0x1
 9498 0382 4C       		.byte	0x4c
 9499 0383 81000000 		.4byte	0x81
 9500 0387 9C180000 		.4byte	.LLST44
 9501 038b 0D       		.uleb128 0xd
 9502 038c 0E000000 		.4byte	.LVL11
 9503 0390 97000000 		.4byte	0x97
 9504 0394 9F030000 		.4byte	0x39f
 9505 0398 0E       		.uleb128 0xe
 9506 0399 01       		.uleb128 0x1
 9507 039a 50       		.byte	0x50
 9508 039b 02       		.uleb128 0x2
ARM GAS  C:\Users\NIGHDR~1\AppData\Local\Temp\ccvJ0Ig2.s 			page 182


 9509 039c 78       		.byte	0x78
 9510 039d 00       		.sleb128 0
 9511 039e 00       		.byte	0
 9512 039f 0D       		.uleb128 0xd
 9513 03a0 20000000 		.4byte	.LVL13
 9514 03a4 D9000000 		.4byte	0xd9
 9515 03a8 B3030000 		.4byte	0x3b3
 9516 03ac 0E       		.uleb128 0xe
 9517 03ad 01       		.uleb128 0x1
 9518 03ae 50       		.byte	0x50
 9519 03af 02       		.uleb128 0x2
 9520 03b0 78       		.byte	0x78
 9521 03b1 02       		.sleb128 2
 9522 03b2 00       		.byte	0
 9523 03b3 0D       		.uleb128 0xd
 9524 03b4 34000000 		.4byte	.LVL15
 9525 03b8 97000000 		.4byte	0x97
 9526 03bc C7030000 		.4byte	0x3c7
 9527 03c0 0E       		.uleb128 0xe
 9528 03c1 01       		.uleb128 0x1
 9529 03c2 50       		.byte	0x50
 9530 03c3 02       		.uleb128 0x2
 9531 03c4 78       		.byte	0x78
 9532 03c5 05       		.sleb128 5
 9533 03c6 00       		.byte	0
 9534 03c7 0D       		.uleb128 0xd
 9535 03c8 48000000 		.4byte	.LVL17
 9536 03cc D9000000 		.4byte	0xd9
 9537 03d0 DB030000 		.4byte	0x3db
 9538 03d4 0E       		.uleb128 0xe
 9539 03d5 01       		.uleb128 0x1
 9540 03d6 50       		.byte	0x50
 9541 03d7 02       		.uleb128 0x2
 9542 03d8 78       		.byte	0x78
 9543 03d9 07       		.sleb128 7
 9544 03da 00       		.byte	0
 9545 03db 0D       		.uleb128 0xd
 9546 03dc 5C000000 		.4byte	.LVL19
 9547 03e0 D9000000 		.4byte	0xd9
 9548 03e4 EF030000 		.4byte	0x3ef
 9549 03e8 0E       		.uleb128 0xe
 9550 03e9 01       		.uleb128 0x1
 9551 03ea 50       		.byte	0x50
 9552 03eb 02       		.uleb128 0x2
 9553 03ec 78       		.byte	0x78
 9554 03ed 0A       		.sleb128 10
 9555 03ee 00       		.byte	0
 9556 03ef 0D       		.uleb128 0xd
 9557 03f0 70000000 		.4byte	.LVL21
 9558 03f4 97000000 		.4byte	0x97
 9559 03f8 03040000 		.4byte	0x403
 9560 03fc 0E       		.uleb128 0xe
 9561 03fd 01       		.uleb128 0x1
 9562 03fe 50       		.byte	0x50
 9563 03ff 02       		.uleb128 0x2
 9564 0400 78       		.byte	0x78
 9565 0401 0D       		.sleb128 13
ARM GAS  C:\Users\NIGHDR~1\AppData\Local\Temp\ccvJ0Ig2.s 			page 183


 9566 0402 00       		.byte	0
 9567 0403 0D       		.uleb128 0xd
 9568 0404 84000000 		.4byte	.LVL23
 9569 0408 D9000000 		.4byte	0xd9
 9570 040c 17040000 		.4byte	0x417
 9571 0410 0E       		.uleb128 0xe
 9572 0411 01       		.uleb128 0x1
 9573 0412 50       		.byte	0x50
 9574 0413 02       		.uleb128 0x2
 9575 0414 78       		.byte	0x78
 9576 0415 0F       		.sleb128 15
 9577 0416 00       		.byte	0
 9578 0417 0D       		.uleb128 0xd
 9579 0418 98000000 		.4byte	.LVL25
 9580 041c 97000000 		.4byte	0x97
 9581 0420 2B040000 		.4byte	0x42b
 9582 0424 0E       		.uleb128 0xe
 9583 0425 01       		.uleb128 0x1
 9584 0426 50       		.byte	0x50
 9585 0427 02       		.uleb128 0x2
 9586 0428 78       		.byte	0x78
 9587 0429 12       		.sleb128 18
 9588 042a 00       		.byte	0
 9589 042b 0D       		.uleb128 0xd
 9590 042c AC000000 		.4byte	.LVL27
 9591 0430 97000000 		.4byte	0x97
 9592 0434 3F040000 		.4byte	0x43f
 9593 0438 0E       		.uleb128 0xe
 9594 0439 01       		.uleb128 0x1
 9595 043a 50       		.byte	0x50
 9596 043b 02       		.uleb128 0x2
 9597 043c 78       		.byte	0x78
 9598 043d 15       		.sleb128 21
 9599 043e 00       		.byte	0
 9600 043f 0D       		.uleb128 0xd
 9601 0440 BE000000 		.4byte	.LVL29
 9602 0444 D9000000 		.4byte	0xd9
 9603 0448 53040000 		.4byte	0x453
 9604 044c 0E       		.uleb128 0xe
 9605 044d 01       		.uleb128 0x1
 9606 044e 50       		.byte	0x50
 9607 044f 02       		.uleb128 0x2
 9608 0450 78       		.byte	0x78
 9609 0451 17       		.sleb128 23
 9610 0452 00       		.byte	0
 9611 0453 0D       		.uleb128 0xd
 9612 0454 D2000000 		.4byte	.LVL31
 9613 0458 97000000 		.4byte	0x97
 9614 045c 67040000 		.4byte	0x467
 9615 0460 0E       		.uleb128 0xe
 9616 0461 01       		.uleb128 0x1
 9617 0462 50       		.byte	0x50
 9618 0463 02       		.uleb128 0x2
 9619 0464 78       		.byte	0x78
 9620 0465 1A       		.sleb128 26
 9621 0466 00       		.byte	0
 9622 0467 0D       		.uleb128 0xd
ARM GAS  C:\Users\NIGHDR~1\AppData\Local\Temp\ccvJ0Ig2.s 			page 184


 9623 0468 E6000000 		.4byte	.LVL33
 9624 046c D9000000 		.4byte	0xd9
 9625 0470 7B040000 		.4byte	0x47b
 9626 0474 0E       		.uleb128 0xe
 9627 0475 01       		.uleb128 0x1
 9628 0476 50       		.byte	0x50
 9629 0477 02       		.uleb128 0x2
 9630 0478 78       		.byte	0x78
 9631 0479 1C       		.sleb128 28
 9632 047a 00       		.byte	0
 9633 047b 0D       		.uleb128 0xd
 9634 047c FA000000 		.4byte	.LVL35
 9635 0480 D9000000 		.4byte	0xd9
 9636 0484 8F040000 		.4byte	0x48f
 9637 0488 0E       		.uleb128 0xe
 9638 0489 01       		.uleb128 0x1
 9639 048a 50       		.byte	0x50
 9640 048b 02       		.uleb128 0x2
 9641 048c 78       		.byte	0x78
 9642 048d 1F       		.sleb128 31
 9643 048e 00       		.byte	0
 9644 048f 0D       		.uleb128 0xd
 9645 0490 0E010000 		.4byte	.LVL37
 9646 0494 97000000 		.4byte	0x97
 9647 0498 A3040000 		.4byte	0x4a3
 9648 049c 0E       		.uleb128 0xe
 9649 049d 01       		.uleb128 0x1
 9650 049e 50       		.byte	0x50
 9651 049f 02       		.uleb128 0x2
 9652 04a0 78       		.byte	0x78
 9653 04a1 22       		.sleb128 34
 9654 04a2 00       		.byte	0
 9655 04a3 0D       		.uleb128 0xd
 9656 04a4 22010000 		.4byte	.LVL39
 9657 04a8 D9000000 		.4byte	0xd9
 9658 04ac B7040000 		.4byte	0x4b7
 9659 04b0 0E       		.uleb128 0xe
 9660 04b1 01       		.uleb128 0x1
 9661 04b2 50       		.byte	0x50
 9662 04b3 02       		.uleb128 0x2
 9663 04b4 78       		.byte	0x78
 9664 04b5 24       		.sleb128 36
 9665 04b6 00       		.byte	0
 9666 04b7 0D       		.uleb128 0xd
 9667 04b8 36010000 		.4byte	.LVL41
 9668 04bc 97000000 		.4byte	0x97
 9669 04c0 CB040000 		.4byte	0x4cb
 9670 04c4 0E       		.uleb128 0xe
 9671 04c5 01       		.uleb128 0x1
 9672 04c6 50       		.byte	0x50
 9673 04c7 02       		.uleb128 0x2
 9674 04c8 78       		.byte	0x78
 9675 04c9 27       		.sleb128 39
 9676 04ca 00       		.byte	0
 9677 04cb 0D       		.uleb128 0xd
 9678 04cc 4A010000 		.4byte	.LVL43
 9679 04d0 97000000 		.4byte	0x97
ARM GAS  C:\Users\NIGHDR~1\AppData\Local\Temp\ccvJ0Ig2.s 			page 185


 9680 04d4 DF040000 		.4byte	0x4df
 9681 04d8 0E       		.uleb128 0xe
 9682 04d9 01       		.uleb128 0x1
 9683 04da 50       		.byte	0x50
 9684 04db 02       		.uleb128 0x2
 9685 04dc 78       		.byte	0x78
 9686 04dd 2A       		.sleb128 42
 9687 04de 00       		.byte	0
 9688 04df 0D       		.uleb128 0xd
 9689 04e0 5C010000 		.4byte	.LVL45
 9690 04e4 D9000000 		.4byte	0xd9
 9691 04e8 F3040000 		.4byte	0x4f3
 9692 04ec 0E       		.uleb128 0xe
 9693 04ed 01       		.uleb128 0x1
 9694 04ee 50       		.byte	0x50
 9695 04ef 02       		.uleb128 0x2
 9696 04f0 78       		.byte	0x78
 9697 04f1 2C       		.sleb128 44
 9698 04f2 00       		.byte	0
 9699 04f3 0D       		.uleb128 0xd
 9700 04f4 70010000 		.4byte	.LVL47
 9701 04f8 97000000 		.4byte	0x97
 9702 04fc 07050000 		.4byte	0x507
 9703 0500 0E       		.uleb128 0xe
 9704 0501 01       		.uleb128 0x1
 9705 0502 50       		.byte	0x50
 9706 0503 02       		.uleb128 0x2
 9707 0504 78       		.byte	0x78
 9708 0505 2F       		.sleb128 47
 9709 0506 00       		.byte	0
 9710 0507 0D       		.uleb128 0xd
 9711 0508 80010000 		.4byte	.LVL49
 9712 050c D9000000 		.4byte	0xd9
 9713 0510 1B050000 		.4byte	0x51b
 9714 0514 0E       		.uleb128 0xe
 9715 0515 01       		.uleb128 0x1
 9716 0516 50       		.byte	0x50
 9717 0517 02       		.uleb128 0x2
 9718 0518 78       		.byte	0x78
 9719 0519 31       		.sleb128 49
 9720 051a 00       		.byte	0
 9721 051b 0D       		.uleb128 0xd
 9722 051c 90010000 		.4byte	.LVL51
 9723 0520 D9000000 		.4byte	0xd9
 9724 0524 2F050000 		.4byte	0x52f
 9725 0528 0E       		.uleb128 0xe
 9726 0529 01       		.uleb128 0x1
 9727 052a 50       		.byte	0x50
 9728 052b 02       		.uleb128 0x2
 9729 052c 78       		.byte	0x78
 9730 052d 34       		.sleb128 52
 9731 052e 00       		.byte	0
 9732 052f 0D       		.uleb128 0xd
 9733 0530 A0010000 		.4byte	.LVL53
 9734 0534 97000000 		.4byte	0x97
 9735 0538 43050000 		.4byte	0x543
 9736 053c 0E       		.uleb128 0xe
ARM GAS  C:\Users\NIGHDR~1\AppData\Local\Temp\ccvJ0Ig2.s 			page 186


 9737 053d 01       		.uleb128 0x1
 9738 053e 50       		.byte	0x50
 9739 053f 02       		.uleb128 0x2
 9740 0540 78       		.byte	0x78
 9741 0541 37       		.sleb128 55
 9742 0542 00       		.byte	0
 9743 0543 0D       		.uleb128 0xd
 9744 0544 B0010000 		.4byte	.LVL55
 9745 0548 D9000000 		.4byte	0xd9
 9746 054c 57050000 		.4byte	0x557
 9747 0550 0E       		.uleb128 0xe
 9748 0551 01       		.uleb128 0x1
 9749 0552 50       		.byte	0x50
 9750 0553 02       		.uleb128 0x2
 9751 0554 78       		.byte	0x78
 9752 0555 39       		.sleb128 57
 9753 0556 00       		.byte	0
 9754 0557 0F       		.uleb128 0xf
 9755 0558 C0010000 		.4byte	.LVL59
 9756 055c D9000000 		.4byte	0xd9
 9757 0560 0E       		.uleb128 0xe
 9758 0561 01       		.uleb128 0x1
 9759 0562 50       		.byte	0x50
 9760 0563 02       		.uleb128 0x2
 9761 0564 78       		.byte	0x78
 9762 0565 3C       		.sleb128 60
 9763 0566 00       		.byte	0
 9764 0567 00       		.byte	0
 9765 0568 08       		.uleb128 0x8
 9766 0569 04       		.byte	0x4
 9767 056a 2C000000 		.4byte	0x2c
 9768 056e 10       		.uleb128 0x10
 9769 056f 52000000 		.4byte	.LASF43
 9770 0573 01       		.byte	0x1
 9771 0574 6A01     		.2byte	0x16a
 9772 0576 00000000 		.4byte	.LFB3
 9773 057a 40240000 		.4byte	.LFE3-.LFB3
 9774 057e 01       		.uleb128 0x1
 9775 057f 9C       		.byte	0x9c
 9776 0580 11       		.uleb128 0x11
 9777 0581 7300     		.ascii	"s\000"
 9778 0583 01       		.byte	0x1
 9779 0584 6A01     		.2byte	0x16a
 9780 0586 68050000 		.4byte	0x568
 9781 058a B4180000 		.4byte	.LLST45
 9782 058e 11       		.uleb128 0x11
 9783 058f 6100     		.ascii	"a\000"
 9784 0591 01       		.byte	0x1
 9785 0592 6A01     		.2byte	0x16a
 9786 0594 CE000000 		.4byte	0xce
 9787 0598 E0180000 		.4byte	.LLST46
 9788 059c 11       		.uleb128 0x11
 9789 059d 6200     		.ascii	"b\000"
 9790 059f 01       		.byte	0x1
 9791 05a0 6A01     		.2byte	0x16a
 9792 05a2 CE000000 		.4byte	0xce
 9793 05a6 19190000 		.4byte	.LLST47
ARM GAS  C:\Users\NIGHDR~1\AppData\Local\Temp\ccvJ0Ig2.s 			page 187


 9794 05aa 11       		.uleb128 0x11
 9795 05ab 6300     		.ascii	"c\000"
 9796 05ad 01       		.byte	0x1
 9797 05ae 6A01     		.2byte	0x16a
 9798 05b0 CE000000 		.4byte	0xce
 9799 05b4 52190000 		.4byte	.LLST48
 9800 05b8 12       		.uleb128 0x12
 9801 05b9 613000   		.ascii	"a0\000"
 9802 05bc 01       		.byte	0x1
 9803 05bd 6B01     		.2byte	0x16b
 9804 05bf 81000000 		.4byte	0x81
 9805 05c3 12       		.uleb128 0x12
 9806 05c4 613100   		.ascii	"a1\000"
 9807 05c7 01       		.byte	0x1
 9808 05c8 6C01     		.2byte	0x16c
 9809 05ca 81000000 		.4byte	0x81
 9810 05ce 12       		.uleb128 0x12
 9811 05cf 613200   		.ascii	"a2\000"
 9812 05d2 01       		.byte	0x1
 9813 05d3 6D01     		.2byte	0x16d
 9814 05d5 81000000 		.4byte	0x81
 9815 05d9 12       		.uleb128 0x12
 9816 05da 613300   		.ascii	"a3\000"
 9817 05dd 01       		.byte	0x1
 9818 05de 6E01     		.2byte	0x16e
 9819 05e0 81000000 		.4byte	0x81
 9820 05e4 12       		.uleb128 0x12
 9821 05e5 613400   		.ascii	"a4\000"
 9822 05e8 01       		.byte	0x1
 9823 05e9 6F01     		.2byte	0x16f
 9824 05eb 81000000 		.4byte	0x81
 9825 05ef 12       		.uleb128 0x12
 9826 05f0 613500   		.ascii	"a5\000"
 9827 05f3 01       		.byte	0x1
 9828 05f4 7001     		.2byte	0x170
 9829 05f6 81000000 		.4byte	0x81
 9830 05fa 12       		.uleb128 0x12
 9831 05fb 613600   		.ascii	"a6\000"
 9832 05fe 01       		.byte	0x1
 9833 05ff 7101     		.2byte	0x171
 9834 0601 81000000 		.4byte	0x81
 9835 0605 12       		.uleb128 0x12
 9836 0606 613700   		.ascii	"a7\000"
 9837 0609 01       		.byte	0x1
 9838 060a 7201     		.2byte	0x172
 9839 060c 81000000 		.4byte	0x81
 9840 0610 12       		.uleb128 0x12
 9841 0611 613800   		.ascii	"a8\000"
 9842 0614 01       		.byte	0x1
 9843 0615 7301     		.2byte	0x173
 9844 0617 81000000 		.4byte	0x81
 9845 061b 12       		.uleb128 0x12
 9846 061c 613900   		.ascii	"a9\000"
 9847 061f 01       		.byte	0x1
 9848 0620 7401     		.2byte	0x174
 9849 0622 81000000 		.4byte	0x81
 9850 0626 12       		.uleb128 0x12
ARM GAS  C:\Users\NIGHDR~1\AppData\Local\Temp\ccvJ0Ig2.s 			page 188


 9851 0627 61313000 		.ascii	"a10\000"
 9852 062b 01       		.byte	0x1
 9853 062c 7501     		.2byte	0x175
 9854 062e 81000000 		.4byte	0x81
 9855 0632 13       		.uleb128 0x13
 9856 0633 61313100 		.ascii	"a11\000"
 9857 0637 01       		.byte	0x1
 9858 0638 7601     		.2byte	0x176
 9859 063a 81000000 		.4byte	0x81
 9860 063e 8B190000 		.4byte	.LLST49
 9861 0642 12       		.uleb128 0x12
 9862 0643 623000   		.ascii	"b0\000"
 9863 0646 01       		.byte	0x1
 9864 0647 7701     		.2byte	0x177
 9865 0649 81000000 		.4byte	0x81
 9866 064d 12       		.uleb128 0x12
 9867 064e 623100   		.ascii	"b1\000"
 9868 0651 01       		.byte	0x1
 9869 0652 7801     		.2byte	0x178
 9870 0654 81000000 		.4byte	0x81
 9871 0658 12       		.uleb128 0x12
 9872 0659 623200   		.ascii	"b2\000"
 9873 065c 01       		.byte	0x1
 9874 065d 7901     		.2byte	0x179
 9875 065f 81000000 		.4byte	0x81
 9876 0663 12       		.uleb128 0x12
 9877 0664 623300   		.ascii	"b3\000"
 9878 0667 01       		.byte	0x1
 9879 0668 7A01     		.2byte	0x17a
 9880 066a 81000000 		.4byte	0x81
 9881 066e 12       		.uleb128 0x12
 9882 066f 623400   		.ascii	"b4\000"
 9883 0672 01       		.byte	0x1
 9884 0673 7B01     		.2byte	0x17b
 9885 0675 81000000 		.4byte	0x81
 9886 0679 12       		.uleb128 0x12
 9887 067a 623500   		.ascii	"b5\000"
 9888 067d 01       		.byte	0x1
 9889 067e 7C01     		.2byte	0x17c
 9890 0680 81000000 		.4byte	0x81
 9891 0684 12       		.uleb128 0x12
 9892 0685 623600   		.ascii	"b6\000"
 9893 0688 01       		.byte	0x1
 9894 0689 7D01     		.2byte	0x17d
 9895 068b 81000000 		.4byte	0x81
 9896 068f 12       		.uleb128 0x12
 9897 0690 623700   		.ascii	"b7\000"
 9898 0693 01       		.byte	0x1
 9899 0694 7E01     		.2byte	0x17e
 9900 0696 81000000 		.4byte	0x81
 9901 069a 12       		.uleb128 0x12
 9902 069b 623800   		.ascii	"b8\000"
 9903 069e 01       		.byte	0x1
 9904 069f 7F01     		.2byte	0x17f
 9905 06a1 81000000 		.4byte	0x81
 9906 06a5 12       		.uleb128 0x12
 9907 06a6 623900   		.ascii	"b9\000"
ARM GAS  C:\Users\NIGHDR~1\AppData\Local\Temp\ccvJ0Ig2.s 			page 189


 9908 06a9 01       		.byte	0x1
 9909 06aa 8001     		.2byte	0x180
 9910 06ac 81000000 		.4byte	0x81
 9911 06b0 12       		.uleb128 0x12
 9912 06b1 62313000 		.ascii	"b10\000"
 9913 06b5 01       		.byte	0x1
 9914 06b6 8101     		.2byte	0x181
 9915 06b8 81000000 		.4byte	0x81
 9916 06bc 13       		.uleb128 0x13
 9917 06bd 62313100 		.ascii	"b11\000"
 9918 06c1 01       		.byte	0x1
 9919 06c2 8201     		.2byte	0x182
 9920 06c4 81000000 		.4byte	0x81
 9921 06c8 C7190000 		.4byte	.LLST50
 9922 06cc 13       		.uleb128 0x13
 9923 06cd 633000   		.ascii	"c0\000"
 9924 06d0 01       		.byte	0x1
 9925 06d1 8301     		.2byte	0x183
 9926 06d3 81000000 		.4byte	0x81
 9927 06d7 511A0000 		.4byte	.LLST51
 9928 06db 13       		.uleb128 0x13
 9929 06dc 633100   		.ascii	"c1\000"
 9930 06df 01       		.byte	0x1
 9931 06e0 8401     		.2byte	0x184
 9932 06e2 81000000 		.4byte	0x81
 9933 06e6 661A0000 		.4byte	.LLST52
 9934 06ea 13       		.uleb128 0x13
 9935 06eb 633200   		.ascii	"c2\000"
 9936 06ee 01       		.byte	0x1
 9937 06ef 8501     		.2byte	0x185
 9938 06f1 81000000 		.4byte	0x81
 9939 06f5 7B1A0000 		.4byte	.LLST53
 9940 06f9 13       		.uleb128 0x13
 9941 06fa 633300   		.ascii	"c3\000"
 9942 06fd 01       		.byte	0x1
 9943 06fe 8601     		.2byte	0x186
 9944 0700 81000000 		.4byte	0x81
 9945 0704 901A0000 		.4byte	.LLST54
 9946 0708 13       		.uleb128 0x13
 9947 0709 633400   		.ascii	"c4\000"
 9948 070c 01       		.byte	0x1
 9949 070d 8701     		.2byte	0x187
 9950 070f 81000000 		.4byte	0x81
 9951 0713 A51A0000 		.4byte	.LLST55
 9952 0717 13       		.uleb128 0x13
 9953 0718 633500   		.ascii	"c5\000"
 9954 071b 01       		.byte	0x1
 9955 071c 8801     		.2byte	0x188
 9956 071e 81000000 		.4byte	0x81
 9957 0722 BA1A0000 		.4byte	.LLST56
 9958 0726 13       		.uleb128 0x13
 9959 0727 633600   		.ascii	"c6\000"
 9960 072a 01       		.byte	0x1
 9961 072b 8901     		.2byte	0x189
 9962 072d 81000000 		.4byte	0x81
 9963 0731 CF1A0000 		.4byte	.LLST57
 9964 0735 13       		.uleb128 0x13
ARM GAS  C:\Users\NIGHDR~1\AppData\Local\Temp\ccvJ0Ig2.s 			page 190


 9965 0736 633700   		.ascii	"c7\000"
 9966 0739 01       		.byte	0x1
 9967 073a 8A01     		.2byte	0x18a
 9968 073c 81000000 		.4byte	0x81
 9969 0740 E41A0000 		.4byte	.LLST58
 9970 0744 14       		.uleb128 0x14
 9971 0745 633800   		.ascii	"c8\000"
 9972 0748 01       		.byte	0x1
 9973 0749 8B01     		.2byte	0x18b
 9974 074b 81000000 		.4byte	0x81
 9975 074f 03       		.uleb128 0x3
 9976 0750 91       		.byte	0x91
 9977 0751 A07F     		.sleb128 -96
 9978 0753 14       		.uleb128 0x14
 9979 0754 633900   		.ascii	"c9\000"
 9980 0757 01       		.byte	0x1
 9981 0758 8C01     		.2byte	0x18c
 9982 075a 81000000 		.4byte	0x81
 9983 075e 03       		.uleb128 0x3
 9984 075f 91       		.byte	0x91
 9985 0760 A87F     		.sleb128 -88
 9986 0762 14       		.uleb128 0x14
 9987 0763 63313000 		.ascii	"c10\000"
 9988 0767 01       		.byte	0x1
 9989 0768 8D01     		.2byte	0x18d
 9990 076a 81000000 		.4byte	0x81
 9991 076e 03       		.uleb128 0x3
 9992 076f 91       		.byte	0x91
 9993 0770 B07F     		.sleb128 -80
 9994 0772 14       		.uleb128 0x14
 9995 0773 63313100 		.ascii	"c11\000"
 9996 0777 01       		.byte	0x1
 9997 0778 8E01     		.2byte	0x18e
 9998 077a 81000000 		.4byte	0x81
 9999 077e 03       		.uleb128 0x3
 10000 077f 91       		.byte	0x91
 10001 0780 B87F     		.sleb128 -72
 10002 0782 13       		.uleb128 0x13
 10003 0783 733000   		.ascii	"s0\000"
 10004 0786 01       		.byte	0x1
 10005 0787 8F01     		.2byte	0x18f
 10006 0789 81000000 		.4byte	0x81
 10007 078d F91A0000 		.4byte	.LLST59
 10008 0791 13       		.uleb128 0x13
 10009 0792 733100   		.ascii	"s1\000"
 10010 0795 01       		.byte	0x1
 10011 0796 9001     		.2byte	0x190
 10012 0798 81000000 		.4byte	0x81
 10013 079c C21B0000 		.4byte	.LLST60
 10014 07a0 13       		.uleb128 0x13
 10015 07a1 733200   		.ascii	"s2\000"
 10016 07a4 01       		.byte	0x1
 10017 07a5 9101     		.2byte	0x191
 10018 07a7 81000000 		.4byte	0x81
 10019 07ab 251D0000 		.4byte	.LLST61
 10020 07af 13       		.uleb128 0x13
 10021 07b0 733300   		.ascii	"s3\000"
ARM GAS  C:\Users\NIGHDR~1\AppData\Local\Temp\ccvJ0Ig2.s 			page 191


 10022 07b3 01       		.byte	0x1
 10023 07b4 9201     		.2byte	0x192
 10024 07b6 81000000 		.4byte	0x81
 10025 07ba B91E0000 		.4byte	.LLST62
 10026 07be 13       		.uleb128 0x13
 10027 07bf 733400   		.ascii	"s4\000"
 10028 07c2 01       		.byte	0x1
 10029 07c3 9301     		.2byte	0x193
 10030 07c5 81000000 		.4byte	0x81
 10031 07c9 65200000 		.4byte	.LLST63
 10032 07cd 13       		.uleb128 0x13
 10033 07ce 733500   		.ascii	"s5\000"
 10034 07d1 01       		.byte	0x1
 10035 07d2 9401     		.2byte	0x194
 10036 07d4 81000000 		.4byte	0x81
 10037 07d8 2F220000 		.4byte	.LLST64
 10038 07dc 13       		.uleb128 0x13
 10039 07dd 733600   		.ascii	"s6\000"
 10040 07e0 01       		.byte	0x1
 10041 07e1 9501     		.2byte	0x195
 10042 07e3 81000000 		.4byte	0x81
 10043 07e7 B1230000 		.4byte	.LLST65
 10044 07eb 13       		.uleb128 0x13
 10045 07ec 733700   		.ascii	"s7\000"
 10046 07ef 01       		.byte	0x1
 10047 07f0 9601     		.2byte	0x196
 10048 07f2 81000000 		.4byte	0x81
 10049 07f6 17250000 		.4byte	.LLST66
 10050 07fa 13       		.uleb128 0x13
 10051 07fb 733800   		.ascii	"s8\000"
 10052 07fe 01       		.byte	0x1
 10053 07ff 9701     		.2byte	0x197
 10054 0801 81000000 		.4byte	0x81
 10055 0805 FE260000 		.4byte	.LLST67
 10056 0809 13       		.uleb128 0x13
 10057 080a 733900   		.ascii	"s9\000"
 10058 080d 01       		.byte	0x1
 10059 080e 9801     		.2byte	0x198
 10060 0810 81000000 		.4byte	0x81
 10061 0814 E8280000 		.4byte	.LLST68
 10062 0818 13       		.uleb128 0x13
 10063 0819 73313000 		.ascii	"s10\000"
 10064 081d 01       		.byte	0x1
 10065 081e 9901     		.2byte	0x199
 10066 0820 81000000 		.4byte	0x81
 10067 0824 CF2A0000 		.4byte	.LLST69
 10068 0828 13       		.uleb128 0x13
 10069 0829 73313100 		.ascii	"s11\000"
 10070 082d 01       		.byte	0x1
 10071 082e 9A01     		.2byte	0x19a
 10072 0830 81000000 		.4byte	0x81
 10073 0834 712C0000 		.4byte	.LLST70
 10074 0838 13       		.uleb128 0x13
 10075 0839 73313200 		.ascii	"s12\000"
 10076 083d 01       		.byte	0x1
 10077 083e 9B01     		.2byte	0x19b
 10078 0840 81000000 		.4byte	0x81
ARM GAS  C:\Users\NIGHDR~1\AppData\Local\Temp\ccvJ0Ig2.s 			page 192


 10079 0844 AE2D0000 		.4byte	.LLST71
 10080 0848 13       		.uleb128 0x13
 10081 0849 73313300 		.ascii	"s13\000"
 10082 084d 01       		.byte	0x1
 10083 084e 9C01     		.2byte	0x19c
 10084 0850 81000000 		.4byte	0x81
 10085 0854 512F0000 		.4byte	.LLST72
 10086 0858 13       		.uleb128 0x13
 10087 0859 73313400 		.ascii	"s14\000"
 10088 085d 01       		.byte	0x1
 10089 085e 9D01     		.2byte	0x19d
 10090 0860 81000000 		.4byte	0x81
 10091 0864 72300000 		.4byte	.LLST73
 10092 0868 13       		.uleb128 0x13
 10093 0869 73313500 		.ascii	"s15\000"
 10094 086d 01       		.byte	0x1
 10095 086e 9E01     		.2byte	0x19e
 10096 0870 81000000 		.4byte	0x81
 10097 0874 75310000 		.4byte	.LLST74
 10098 0878 13       		.uleb128 0x13
 10099 0879 73313600 		.ascii	"s16\000"
 10100 087d 01       		.byte	0x1
 10101 087e 9F01     		.2byte	0x19f
 10102 0880 81000000 		.4byte	0x81
 10103 0884 5C320000 		.4byte	.LLST75
 10104 0888 13       		.uleb128 0x13
 10105 0889 73313700 		.ascii	"s17\000"
 10106 088d 01       		.byte	0x1
 10107 088e A001     		.2byte	0x1a0
 10108 0890 81000000 		.4byte	0x81
 10109 0894 26330000 		.4byte	.LLST76
 10110 0898 13       		.uleb128 0x13
 10111 0899 73313800 		.ascii	"s18\000"
 10112 089d 01       		.byte	0x1
 10113 089e A101     		.2byte	0x1a1
 10114 08a0 81000000 		.4byte	0x81
 10115 08a4 D1330000 		.4byte	.LLST77
 10116 08a8 13       		.uleb128 0x13
 10117 08a9 73313900 		.ascii	"s19\000"
 10118 08ad 01       		.byte	0x1
 10119 08ae A201     		.2byte	0x1a2
 10120 08b0 81000000 		.4byte	0x81
 10121 08b4 44340000 		.4byte	.LLST78
 10122 08b8 13       		.uleb128 0x13
 10123 08b9 73323000 		.ascii	"s20\000"
 10124 08bd 01       		.byte	0x1
 10125 08be A301     		.2byte	0x1a3
 10126 08c0 81000000 		.4byte	0x81
 10127 08c4 C7340000 		.4byte	.LLST79
 10128 08c8 13       		.uleb128 0x13
 10129 08c9 73323100 		.ascii	"s21\000"
 10130 08cd 01       		.byte	0x1
 10131 08ce A401     		.2byte	0x1a4
 10132 08d0 81000000 		.4byte	0x81
 10133 08d4 3A350000 		.4byte	.LLST80
 10134 08d8 13       		.uleb128 0x13
 10135 08d9 73323200 		.ascii	"s22\000"
ARM GAS  C:\Users\NIGHDR~1\AppData\Local\Temp\ccvJ0Ig2.s 			page 193


 10136 08dd 01       		.byte	0x1
 10137 08de A501     		.2byte	0x1a5
 10138 08e0 81000000 		.4byte	0x81
 10139 08e4 AD350000 		.4byte	.LLST81
 10140 08e8 13       		.uleb128 0x13
 10141 08e9 73323300 		.ascii	"s23\000"
 10142 08ed 01       		.byte	0x1
 10143 08ee A601     		.2byte	0x1a6
 10144 08f0 81000000 		.4byte	0x81
 10145 08f4 1F360000 		.4byte	.LLST82
 10146 08f8 15       		.uleb128 0x15
 10147 08f9 00000000 		.4byte	.LASF16
 10148 08fd 01       		.byte	0x1
 10149 08fe A701     		.2byte	0x1a7
 10150 0900 81000000 		.4byte	0x81
 10151 0904 91360000 		.4byte	.LLST83
 10152 0908 15       		.uleb128 0x15
 10153 0909 07000000 		.4byte	.LASF17
 10154 090d 01       		.byte	0x1
 10155 090e A801     		.2byte	0x1a8
 10156 0910 81000000 		.4byte	0x81
 10157 0914 D5360000 		.4byte	.LLST84
 10158 0918 15       		.uleb128 0x15
 10159 0919 C0010000 		.4byte	.LASF18
 10160 091d 01       		.byte	0x1
 10161 091e A901     		.2byte	0x1a9
 10162 0920 81000000 		.4byte	0x81
 10163 0924 19370000 		.4byte	.LLST85
 10164 0928 15       		.uleb128 0x15
 10165 0929 0E000000 		.4byte	.LASF19
 10166 092d 01       		.byte	0x1
 10167 092e AA01     		.2byte	0x1aa
 10168 0930 81000000 		.4byte	0x81
 10169 0934 5D370000 		.4byte	.LLST86
 10170 0938 15       		.uleb128 0x15
 10171 0939 25010000 		.4byte	.LASF20
 10172 093d 01       		.byte	0x1
 10173 093e AB01     		.2byte	0x1ab
 10174 0940 81000000 		.4byte	0x81
 10175 0944 A5370000 		.4byte	.LLST87
 10176 0948 15       		.uleb128 0x15
 10177 0949 1C000000 		.4byte	.LASF21
 10178 094d 01       		.byte	0x1
 10179 094e AC01     		.2byte	0x1ac
 10180 0950 81000000 		.4byte	0x81
 10181 0954 E9370000 		.4byte	.LLST88
 10182 0958 15       		.uleb128 0x15
 10183 0959 23000000 		.4byte	.LASF22
 10184 095d 01       		.byte	0x1
 10185 095e AD01     		.2byte	0x1ad
 10186 0960 81000000 		.4byte	0x81
 10187 0964 31380000 		.4byte	.LLST89
 10188 0968 15       		.uleb128 0x15
 10189 0969 2A000000 		.4byte	.LASF23
 10190 096d 01       		.byte	0x1
 10191 096e AE01     		.2byte	0x1ae
 10192 0970 81000000 		.4byte	0x81
ARM GAS  C:\Users\NIGHDR~1\AppData\Local\Temp\ccvJ0Ig2.s 			page 194


 10193 0974 85380000 		.4byte	.LLST90
 10194 0978 15       		.uleb128 0x15
 10195 0979 31000000 		.4byte	.LASF24
 10196 097d 01       		.byte	0x1
 10197 097e AF01     		.2byte	0x1af
 10198 0980 81000000 		.4byte	0x81
 10199 0984 DD380000 		.4byte	.LLST91
 10200 0988 15       		.uleb128 0x15
 10201 0989 38000000 		.4byte	.LASF25
 10202 098d 01       		.byte	0x1
 10203 098e B001     		.2byte	0x1b0
 10204 0990 81000000 		.4byte	0x81
 10205 0994 31390000 		.4byte	.LLST92
 10206 0998 15       		.uleb128 0x15
 10207 0999 01020000 		.4byte	.LASF26
 10208 099d 01       		.byte	0x1
 10209 099e B101     		.2byte	0x1b1
 10210 09a0 81000000 		.4byte	0x81
 10211 09a4 89390000 		.4byte	.LLST93
 10212 09a8 15       		.uleb128 0x15
 10213 09a9 09020000 		.4byte	.LASF27
 10214 09ad 01       		.byte	0x1
 10215 09ae B201     		.2byte	0x1b2
 10216 09b0 81000000 		.4byte	0x81
 10217 09b4 DD390000 		.4byte	.LLST94
 10218 09b8 15       		.uleb128 0x15
 10219 09b9 11020000 		.4byte	.LASF28
 10220 09bd 01       		.byte	0x1
 10221 09be B301     		.2byte	0x1b3
 10222 09c0 81000000 		.4byte	0x81
 10223 09c4 253A0000 		.4byte	.LLST95
 10224 09c8 15       		.uleb128 0x15
 10225 09c9 19020000 		.4byte	.LASF29
 10226 09cd 01       		.byte	0x1
 10227 09ce B401     		.2byte	0x1b4
 10228 09d0 81000000 		.4byte	0x81
 10229 09d4 493A0000 		.4byte	.LLST96
 10230 09d8 15       		.uleb128 0x15
 10231 09d9 21020000 		.4byte	.LASF30
 10232 09dd 01       		.byte	0x1
 10233 09de B501     		.2byte	0x1b5
 10234 09e0 81000000 		.4byte	0x81
 10235 09e4 6D3A0000 		.4byte	.LLST97
 10236 09e8 15       		.uleb128 0x15
 10237 09e9 29020000 		.4byte	.LASF31
 10238 09ed 01       		.byte	0x1
 10239 09ee B601     		.2byte	0x1b6
 10240 09f0 81000000 		.4byte	0x81
 10241 09f4 913A0000 		.4byte	.LLST98
 10242 09f8 15       		.uleb128 0x15
 10243 09f9 31020000 		.4byte	.LASF32
 10244 09fd 01       		.byte	0x1
 10245 09fe B701     		.2byte	0x1b7
 10246 0a00 81000000 		.4byte	0x81
 10247 0a04 B53A0000 		.4byte	.LLST99
 10248 0a08 15       		.uleb128 0x15
 10249 0a09 1D010000 		.4byte	.LASF33
ARM GAS  C:\Users\NIGHDR~1\AppData\Local\Temp\ccvJ0Ig2.s 			page 195


 10250 0a0d 01       		.byte	0x1
 10251 0a0e B801     		.2byte	0x1b8
 10252 0a10 81000000 		.4byte	0x81
 10253 0a14 D93A0000 		.4byte	.LLST100
 10254 0a18 15       		.uleb128 0x15
 10255 0a19 39020000 		.4byte	.LASF34
 10256 0a1d 01       		.byte	0x1
 10257 0a1e B901     		.2byte	0x1b9
 10258 0a20 81000000 		.4byte	0x81
 10259 0a24 ED3A0000 		.4byte	.LLST101
 10260 0a28 15       		.uleb128 0x15
 10261 0a29 41020000 		.4byte	.LASF35
 10262 0a2d 01       		.byte	0x1
 10263 0a2e BA01     		.2byte	0x1ba
 10264 0a30 81000000 		.4byte	0x81
 10265 0a34 013B0000 		.4byte	.LLST102
 10266 0a38 15       		.uleb128 0x15
 10267 0a39 5C000000 		.4byte	.LASF36
 10268 0a3d 01       		.byte	0x1
 10269 0a3e BB01     		.2byte	0x1bb
 10270 0a40 81000000 		.4byte	0x81
 10271 0a44 153B0000 		.4byte	.LLST103
 10272 0a48 15       		.uleb128 0x15
 10273 0a49 64000000 		.4byte	.LASF37
 10274 0a4d 01       		.byte	0x1
 10275 0a4e BC01     		.2byte	0x1bc
 10276 0a50 81000000 		.4byte	0x81
 10277 0a54 293B0000 		.4byte	.LLST104
 10278 0a58 15       		.uleb128 0x15
 10279 0a59 6C000000 		.4byte	.LASF38
 10280 0a5d 01       		.byte	0x1
 10281 0a5e BD01     		.2byte	0x1bd
 10282 0a60 81000000 		.4byte	0x81
 10283 0a64 413B0000 		.4byte	.LLST105
 10284 0a68 0D       		.uleb128 0xd
 10285 0a69 18000000 		.4byte	.LVL574
 10286 0a6d 97000000 		.4byte	0x97
 10287 0a71 7C0A0000 		.4byte	0xa7c
 10288 0a75 0E       		.uleb128 0xe
 10289 0a76 01       		.uleb128 0x1
 10290 0a77 50       		.byte	0x50
 10291 0a78 02       		.uleb128 0x2
 10292 0a79 74       		.byte	0x74
 10293 0a7a 00       		.sleb128 0
 10294 0a7b 00       		.byte	0
 10295 0a7c 0D       		.uleb128 0xd
 10296 0a7d 22000000 		.4byte	.LVL576
 10297 0a81 D9000000 		.4byte	0xd9
 10298 0a85 900A0000 		.4byte	0xa90
 10299 0a89 0E       		.uleb128 0xe
 10300 0a8a 01       		.uleb128 0x1
 10301 0a8b 50       		.byte	0x50
 10302 0a8c 02       		.uleb128 0x2
 10303 0a8d 74       		.byte	0x74
 10304 0a8e 02       		.sleb128 2
 10305 0a8f 00       		.byte	0
 10306 0a90 0D       		.uleb128 0xd
ARM GAS  C:\Users\NIGHDR~1\AppData\Local\Temp\ccvJ0Ig2.s 			page 196


 10307 0a91 30000000 		.4byte	.LVL578
 10308 0a95 97000000 		.4byte	0x97
 10309 0a99 A40A0000 		.4byte	0xaa4
 10310 0a9d 0E       		.uleb128 0xe
 10311 0a9e 01       		.uleb128 0x1
 10312 0a9f 50       		.byte	0x50
 10313 0aa0 02       		.uleb128 0x2
 10314 0aa1 74       		.byte	0x74
 10315 0aa2 05       		.sleb128 5
 10316 0aa3 00       		.byte	0
 10317 0aa4 0D       		.uleb128 0xd
 10318 0aa5 3E000000 		.4byte	.LVL580
 10319 0aa9 D9000000 		.4byte	0xd9
 10320 0aad B80A0000 		.4byte	0xab8
 10321 0ab1 0E       		.uleb128 0xe
 10322 0ab2 01       		.uleb128 0x1
 10323 0ab3 50       		.byte	0x50
 10324 0ab4 02       		.uleb128 0x2
 10325 0ab5 74       		.byte	0x74
 10326 0ab6 07       		.sleb128 7
 10327 0ab7 00       		.byte	0
 10328 0ab8 0D       		.uleb128 0xd
 10329 0ab9 4E000000 		.4byte	.LVL582
 10330 0abd D9000000 		.4byte	0xd9
 10331 0ac1 CC0A0000 		.4byte	0xacc
 10332 0ac5 0E       		.uleb128 0xe
 10333 0ac6 01       		.uleb128 0x1
 10334 0ac7 50       		.byte	0x50
 10335 0ac8 02       		.uleb128 0x2
 10336 0ac9 74       		.byte	0x74
 10337 0aca 0A       		.sleb128 10
 10338 0acb 00       		.byte	0
 10339 0acc 0D       		.uleb128 0xd
 10340 0acd 5E000000 		.4byte	.LVL585
 10341 0ad1 97000000 		.4byte	0x97
 10342 0ad5 E00A0000 		.4byte	0xae0
 10343 0ad9 0E       		.uleb128 0xe
 10344 0ada 01       		.uleb128 0x1
 10345 0adb 50       		.byte	0x50
 10346 0adc 02       		.uleb128 0x2
 10347 0add 74       		.byte	0x74
 10348 0ade 0D       		.sleb128 13
 10349 0adf 00       		.byte	0
 10350 0ae0 0D       		.uleb128 0xd
 10351 0ae1 6E000000 		.4byte	.LVL587
 10352 0ae5 D9000000 		.4byte	0xd9
 10353 0ae9 F40A0000 		.4byte	0xaf4
 10354 0aed 0E       		.uleb128 0xe
 10355 0aee 01       		.uleb128 0x1
 10356 0aef 50       		.byte	0x50
 10357 0af0 02       		.uleb128 0x2
 10358 0af1 74       		.byte	0x74
 10359 0af2 0F       		.sleb128 15
 10360 0af3 00       		.byte	0
 10361 0af4 0D       		.uleb128 0xd
 10362 0af5 7E000000 		.4byte	.LVL589
 10363 0af9 97000000 		.4byte	0x97
ARM GAS  C:\Users\NIGHDR~1\AppData\Local\Temp\ccvJ0Ig2.s 			page 197


 10364 0afd 080B0000 		.4byte	0xb08
 10365 0b01 0E       		.uleb128 0xe
 10366 0b02 01       		.uleb128 0x1
 10367 0b03 50       		.byte	0x50
 10368 0b04 02       		.uleb128 0x2
 10369 0b05 74       		.byte	0x74
 10370 0b06 12       		.sleb128 18
 10371 0b07 00       		.byte	0
 10372 0b08 0D       		.uleb128 0xd
 10373 0b09 8E000000 		.4byte	.LVL591
 10374 0b0d 97000000 		.4byte	0x97
 10375 0b11 1C0B0000 		.4byte	0xb1c
 10376 0b15 0E       		.uleb128 0xe
 10377 0b16 01       		.uleb128 0x1
 10378 0b17 50       		.byte	0x50
 10379 0b18 02       		.uleb128 0x2
 10380 0b19 74       		.byte	0x74
 10381 0b1a 15       		.sleb128 21
 10382 0b1b 00       		.byte	0
 10383 0b1c 0D       		.uleb128 0xd
 10384 0b1d 9C000000 		.4byte	.LVL594
 10385 0b21 D9000000 		.4byte	0xd9
 10386 0b25 300B0000 		.4byte	0xb30
 10387 0b29 0E       		.uleb128 0xe
 10388 0b2a 01       		.uleb128 0x1
 10389 0b2b 50       		.byte	0x50
 10390 0b2c 02       		.uleb128 0x2
 10391 0b2d 74       		.byte	0x74
 10392 0b2e 17       		.sleb128 23
 10393 0b2f 00       		.byte	0
 10394 0b30 0D       		.uleb128 0xd
 10395 0b31 AC000000 		.4byte	.LVL596
 10396 0b35 97000000 		.4byte	0x97
 10397 0b39 440B0000 		.4byte	0xb44
 10398 0b3d 0E       		.uleb128 0xe
 10399 0b3e 01       		.uleb128 0x1
 10400 0b3f 50       		.byte	0x50
 10401 0b40 02       		.uleb128 0x2
 10402 0b41 74       		.byte	0x74
 10403 0b42 1A       		.sleb128 26
 10404 0b43 00       		.byte	0
 10405 0b44 0D       		.uleb128 0xd
 10406 0b45 BC000000 		.4byte	.LVL599
 10407 0b49 D9000000 		.4byte	0xd9
 10408 0b4d 580B0000 		.4byte	0xb58
 10409 0b51 0E       		.uleb128 0xe
 10410 0b52 01       		.uleb128 0x1
 10411 0b53 50       		.byte	0x50
 10412 0b54 02       		.uleb128 0x2
 10413 0b55 74       		.byte	0x74
 10414 0b56 00       		.sleb128 0
 10415 0b57 00       		.byte	0
 10416 0b58 0D       		.uleb128 0xd
 10417 0b59 CE000000 		.4byte	.LVL602
 10418 0b5d 97000000 		.4byte	0x97
 10419 0b61 6C0B0000 		.4byte	0xb6c
 10420 0b65 0E       		.uleb128 0xe
ARM GAS  C:\Users\NIGHDR~1\AppData\Local\Temp\ccvJ0Ig2.s 			page 198


 10421 0b66 01       		.uleb128 0x1
 10422 0b67 50       		.byte	0x50
 10423 0b68 02       		.uleb128 0x2
 10424 0b69 76       		.byte	0x76
 10425 0b6a 00       		.sleb128 0
 10426 0b6b 00       		.byte	0
 10427 0b6c 0D       		.uleb128 0xd
 10428 0b6d D8000000 		.4byte	.LVL605
 10429 0b71 D9000000 		.4byte	0xd9
 10430 0b75 800B0000 		.4byte	0xb80
 10431 0b79 0E       		.uleb128 0xe
 10432 0b7a 01       		.uleb128 0x1
 10433 0b7b 50       		.byte	0x50
 10434 0b7c 02       		.uleb128 0x2
 10435 0b7d 76       		.byte	0x76
 10436 0b7e 02       		.sleb128 2
 10437 0b7f 00       		.byte	0
 10438 0b80 0D       		.uleb128 0xd
 10439 0b81 E6000000 		.4byte	.LVL607
 10440 0b85 97000000 		.4byte	0x97
 10441 0b89 940B0000 		.4byte	0xb94
 10442 0b8d 0E       		.uleb128 0xe
 10443 0b8e 01       		.uleb128 0x1
 10444 0b8f 50       		.byte	0x50
 10445 0b90 02       		.uleb128 0x2
 10446 0b91 76       		.byte	0x76
 10447 0b92 05       		.sleb128 5
 10448 0b93 00       		.byte	0
 10449 0b94 0D       		.uleb128 0xd
 10450 0b95 F4000000 		.4byte	.LVL610
 10451 0b99 D9000000 		.4byte	0xd9
 10452 0b9d A80B0000 		.4byte	0xba8
 10453 0ba1 0E       		.uleb128 0xe
 10454 0ba2 01       		.uleb128 0x1
 10455 0ba3 50       		.byte	0x50
 10456 0ba4 02       		.uleb128 0x2
 10457 0ba5 76       		.byte	0x76
 10458 0ba6 07       		.sleb128 7
 10459 0ba7 00       		.byte	0
 10460 0ba8 0D       		.uleb128 0xd
 10461 0ba9 04010000 		.4byte	.LVL612
 10462 0bad D9000000 		.4byte	0xd9
 10463 0bb1 BC0B0000 		.4byte	0xbbc
 10464 0bb5 0E       		.uleb128 0xe
 10465 0bb6 01       		.uleb128 0x1
 10466 0bb7 50       		.byte	0x50
 10467 0bb8 02       		.uleb128 0x2
 10468 0bb9 76       		.byte	0x76
 10469 0bba 0A       		.sleb128 10
 10470 0bbb 00       		.byte	0
 10471 0bbc 0D       		.uleb128 0xd
 10472 0bbd 14010000 		.4byte	.LVL614
 10473 0bc1 97000000 		.4byte	0x97
 10474 0bc5 D00B0000 		.4byte	0xbd0
 10475 0bc9 0E       		.uleb128 0xe
 10476 0bca 01       		.uleb128 0x1
 10477 0bcb 50       		.byte	0x50
ARM GAS  C:\Users\NIGHDR~1\AppData\Local\Temp\ccvJ0Ig2.s 			page 199


 10478 0bcc 02       		.uleb128 0x2
 10479 0bcd 76       		.byte	0x76
 10480 0bce 0D       		.sleb128 13
 10481 0bcf 00       		.byte	0
 10482 0bd0 0D       		.uleb128 0xd
 10483 0bd1 24010000 		.4byte	.LVL617
 10484 0bd5 D9000000 		.4byte	0xd9
 10485 0bd9 E40B0000 		.4byte	0xbe4
 10486 0bdd 0E       		.uleb128 0xe
 10487 0bde 01       		.uleb128 0x1
 10488 0bdf 50       		.byte	0x50
 10489 0be0 02       		.uleb128 0x2
 10490 0be1 76       		.byte	0x76
 10491 0be2 0F       		.sleb128 15
 10492 0be3 00       		.byte	0
 10493 0be4 0D       		.uleb128 0xd
 10494 0be5 34010000 		.4byte	.LVL619
 10495 0be9 97000000 		.4byte	0x97
 10496 0bed F80B0000 		.4byte	0xbf8
 10497 0bf1 0E       		.uleb128 0xe
 10498 0bf2 01       		.uleb128 0x1
 10499 0bf3 50       		.byte	0x50
 10500 0bf4 02       		.uleb128 0x2
 10501 0bf5 76       		.byte	0x76
 10502 0bf6 12       		.sleb128 18
 10503 0bf7 00       		.byte	0
 10504 0bf8 0D       		.uleb128 0xd
 10505 0bf9 44010000 		.4byte	.LVL621
 10506 0bfd 97000000 		.4byte	0x97
 10507 0c01 0C0C0000 		.4byte	0xc0c
 10508 0c05 0E       		.uleb128 0xe
 10509 0c06 01       		.uleb128 0x1
 10510 0c07 50       		.byte	0x50
 10511 0c08 02       		.uleb128 0x2
 10512 0c09 76       		.byte	0x76
 10513 0c0a 15       		.sleb128 21
 10514 0c0b 00       		.byte	0
 10515 0c0c 0D       		.uleb128 0xd
 10516 0c0d 52010000 		.4byte	.LVL624
 10517 0c11 D9000000 		.4byte	0xd9
 10518 0c15 200C0000 		.4byte	0xc20
 10519 0c19 0E       		.uleb128 0xe
 10520 0c1a 01       		.uleb128 0x1
 10521 0c1b 50       		.byte	0x50
 10522 0c1c 02       		.uleb128 0x2
 10523 0c1d 76       		.byte	0x76
 10524 0c1e 17       		.sleb128 23
 10525 0c1f 00       		.byte	0
 10526 0c20 0D       		.uleb128 0xd
 10527 0c21 62010000 		.4byte	.LVL626
 10528 0c25 97000000 		.4byte	0x97
 10529 0c29 340C0000 		.4byte	0xc34
 10530 0c2d 0E       		.uleb128 0xe
 10531 0c2e 01       		.uleb128 0x1
 10532 0c2f 50       		.byte	0x50
 10533 0c30 02       		.uleb128 0x2
 10534 0c31 76       		.byte	0x76
ARM GAS  C:\Users\NIGHDR~1\AppData\Local\Temp\ccvJ0Ig2.s 			page 200


 10535 0c32 1A       		.sleb128 26
 10536 0c33 00       		.byte	0
 10537 0c34 0D       		.uleb128 0xd
 10538 0c35 72010000 		.4byte	.LVL629
 10539 0c39 D9000000 		.4byte	0xd9
 10540 0c3d 480C0000 		.4byte	0xc48
 10541 0c41 0E       		.uleb128 0xe
 10542 0c42 01       		.uleb128 0x1
 10543 0c43 50       		.byte	0x50
 10544 0c44 02       		.uleb128 0x2
 10545 0c45 76       		.byte	0x76
 10546 0c46 00       		.sleb128 0
 10547 0c47 00       		.byte	0
 10548 0c48 0D       		.uleb128 0xd
 10549 0c49 84010000 		.4byte	.LVL633
 10550 0c4d 97000000 		.4byte	0x97
 10551 0c51 5C0C0000 		.4byte	0xc5c
 10552 0c55 0E       		.uleb128 0xe
 10553 0c56 01       		.uleb128 0x1
 10554 0c57 50       		.byte	0x50
 10555 0c58 02       		.uleb128 0x2
 10556 0c59 77       		.byte	0x77
 10557 0c5a 00       		.sleb128 0
 10558 0c5b 00       		.byte	0
 10559 0c5c 0D       		.uleb128 0xd
 10560 0c5d 94010000 		.4byte	.LVL636
 10561 0c61 D9000000 		.4byte	0xd9
 10562 0c65 700C0000 		.4byte	0xc70
 10563 0c69 0E       		.uleb128 0xe
 10564 0c6a 01       		.uleb128 0x1
 10565 0c6b 50       		.byte	0x50
 10566 0c6c 02       		.uleb128 0x2
 10567 0c6d 77       		.byte	0x77
 10568 0c6e 02       		.sleb128 2
 10569 0c6f 00       		.byte	0
 10570 0c70 0D       		.uleb128 0xd
 10571 0c71 A6010000 		.4byte	.LVL638
 10572 0c75 97000000 		.4byte	0x97
 10573 0c79 840C0000 		.4byte	0xc84
 10574 0c7d 0E       		.uleb128 0xe
 10575 0c7e 01       		.uleb128 0x1
 10576 0c7f 50       		.byte	0x50
 10577 0c80 02       		.uleb128 0x2
 10578 0c81 77       		.byte	0x77
 10579 0c82 05       		.sleb128 5
 10580 0c83 00       		.byte	0
 10581 0c84 0D       		.uleb128 0xd
 10582 0c85 B8010000 		.4byte	.LVL640
 10583 0c89 D9000000 		.4byte	0xd9
 10584 0c8d 980C0000 		.4byte	0xc98
 10585 0c91 0E       		.uleb128 0xe
 10586 0c92 01       		.uleb128 0x1
 10587 0c93 50       		.byte	0x50
 10588 0c94 02       		.uleb128 0x2
 10589 0c95 77       		.byte	0x77
 10590 0c96 07       		.sleb128 7
 10591 0c97 00       		.byte	0
ARM GAS  C:\Users\NIGHDR~1\AppData\Local\Temp\ccvJ0Ig2.s 			page 201


 10592 0c98 0D       		.uleb128 0xd
 10593 0c99 CE010000 		.4byte	.LVL642
 10594 0c9d D9000000 		.4byte	0xd9
 10595 0ca1 AC0C0000 		.4byte	0xcac
 10596 0ca5 0E       		.uleb128 0xe
 10597 0ca6 01       		.uleb128 0x1
 10598 0ca7 50       		.byte	0x50
 10599 0ca8 02       		.uleb128 0x2
 10600 0ca9 76       		.byte	0x76
 10601 0caa 00       		.sleb128 0
 10602 0cab 00       		.byte	0
 10603 0cac 0D       		.uleb128 0xd
 10604 0cad E4010000 		.4byte	.LVL644
 10605 0cb1 97000000 		.4byte	0x97
 10606 0cb5 C00C0000 		.4byte	0xcc0
 10607 0cb9 0E       		.uleb128 0xe
 10608 0cba 01       		.uleb128 0x1
 10609 0cbb 50       		.byte	0x50
 10610 0cbc 02       		.uleb128 0x2
 10611 0cbd 76       		.byte	0x76
 10612 0cbe 00       		.sleb128 0
 10613 0cbf 00       		.byte	0
 10614 0cc0 0D       		.uleb128 0xd
 10615 0cc1 FA010000 		.4byte	.LVL646
 10616 0cc5 D9000000 		.4byte	0xd9
 10617 0cc9 D40C0000 		.4byte	0xcd4
 10618 0ccd 0E       		.uleb128 0xe
 10619 0cce 01       		.uleb128 0x1
 10620 0ccf 50       		.byte	0x50
 10621 0cd0 02       		.uleb128 0x2
 10622 0cd1 76       		.byte	0x76
 10623 0cd2 00       		.sleb128 0
 10624 0cd3 00       		.byte	0
 10625 0cd4 0D       		.uleb128 0xd
 10626 0cd5 10020000 		.4byte	.LVL648
 10627 0cd9 97000000 		.4byte	0x97
 10628 0cdd E80C0000 		.4byte	0xce8
 10629 0ce1 0E       		.uleb128 0xe
 10630 0ce2 01       		.uleb128 0x1
 10631 0ce3 50       		.byte	0x50
 10632 0ce4 02       		.uleb128 0x2
 10633 0ce5 76       		.byte	0x76
 10634 0ce6 00       		.sleb128 0
 10635 0ce7 00       		.byte	0
 10636 0ce8 0D       		.uleb128 0xd
 10637 0ce9 26020000 		.4byte	.LVL650
 10638 0ced 97000000 		.4byte	0x97
 10639 0cf1 FC0C0000 		.4byte	0xcfc
 10640 0cf5 0E       		.uleb128 0xe
 10641 0cf6 01       		.uleb128 0x1
 10642 0cf7 50       		.byte	0x50
 10643 0cf8 02       		.uleb128 0x2
 10644 0cf9 76       		.byte	0x76
 10645 0cfa 00       		.sleb128 0
 10646 0cfb 00       		.byte	0
 10647 0cfc 0D       		.uleb128 0xd
 10648 0cfd 3A020000 		.4byte	.LVL652
ARM GAS  C:\Users\NIGHDR~1\AppData\Local\Temp\ccvJ0Ig2.s 			page 202


 10649 0d01 D9000000 		.4byte	0xd9
 10650 0d05 100D0000 		.4byte	0xd10
 10651 0d09 0E       		.uleb128 0xe
 10652 0d0a 01       		.uleb128 0x1
 10653 0d0b 50       		.byte	0x50
 10654 0d0c 02       		.uleb128 0x2
 10655 0d0d 76       		.byte	0x76
 10656 0d0e 00       		.sleb128 0
 10657 0d0f 00       		.byte	0
 10658 0d10 0D       		.uleb128 0xd
 10659 0d11 50020000 		.4byte	.LVL654
 10660 0d15 97000000 		.4byte	0x97
 10661 0d19 240D0000 		.4byte	0xd24
 10662 0d1d 0E       		.uleb128 0xe
 10663 0d1e 01       		.uleb128 0x1
 10664 0d1f 50       		.byte	0x50
 10665 0d20 02       		.uleb128 0x2
 10666 0d21 76       		.byte	0x76
 10667 0d22 00       		.sleb128 0
 10668 0d23 00       		.byte	0
 10669 0d24 0F       		.uleb128 0xf
 10670 0d25 64020000 		.4byte	.LVL657
 10671 0d29 D9000000 		.4byte	0xd9
 10672 0d2d 0E       		.uleb128 0xe
 10673 0d2e 01       		.uleb128 0x1
 10674 0d2f 50       		.byte	0x50
 10675 0d30 02       		.uleb128 0x2
 10676 0d31 77       		.byte	0x77
 10677 0d32 00       		.sleb128 0
 10678 0d33 00       		.byte	0
 10679 0d34 00       		.byte	0
 10680 0d35 00       		.byte	0
 10681              		.section	.debug_abbrev,"",%progbits
 10682              	.Ldebug_abbrev0:
 10683 0000 01       		.uleb128 0x1
 10684 0001 11       		.uleb128 0x11
 10685 0002 01       		.byte	0x1
 10686 0003 25       		.uleb128 0x25
 10687 0004 0E       		.uleb128 0xe
 10688 0005 13       		.uleb128 0x13
 10689 0006 0B       		.uleb128 0xb
 10690 0007 03       		.uleb128 0x3
 10691 0008 0E       		.uleb128 0xe
 10692 0009 1B       		.uleb128 0x1b
 10693 000a 0E       		.uleb128 0xe
 10694 000b 55       		.uleb128 0x55
 10695 000c 17       		.uleb128 0x17
 10696 000d 11       		.uleb128 0x11
 10697 000e 01       		.uleb128 0x1
 10698 000f 10       		.uleb128 0x10
 10699 0010 17       		.uleb128 0x17
 10700 0011 00       		.byte	0
 10701 0012 00       		.byte	0
 10702 0013 02       		.uleb128 0x2
 10703 0014 24       		.uleb128 0x24
 10704 0015 00       		.byte	0
 10705 0016 0B       		.uleb128 0xb
ARM GAS  C:\Users\NIGHDR~1\AppData\Local\Temp\ccvJ0Ig2.s 			page 203


 10706 0017 0B       		.uleb128 0xb
 10707 0018 3E       		.uleb128 0x3e
 10708 0019 0B       		.uleb128 0xb
 10709 001a 03       		.uleb128 0x3
 10710 001b 0E       		.uleb128 0xe
 10711 001c 00       		.byte	0
 10712 001d 00       		.byte	0
 10713 001e 03       		.uleb128 0x3
 10714 001f 16       		.uleb128 0x16
 10715 0020 00       		.byte	0
 10716 0021 03       		.uleb128 0x3
 10717 0022 0E       		.uleb128 0xe
 10718 0023 3A       		.uleb128 0x3a
 10719 0024 0B       		.uleb128 0xb
 10720 0025 3B       		.uleb128 0x3b
 10721 0026 0B       		.uleb128 0xb
 10722 0027 49       		.uleb128 0x49
 10723 0028 13       		.uleb128 0x13
 10724 0029 00       		.byte	0
 10725 002a 00       		.byte	0
 10726 002b 04       		.uleb128 0x4
 10727 002c 24       		.uleb128 0x24
 10728 002d 00       		.byte	0
 10729 002e 0B       		.uleb128 0xb
 10730 002f 0B       		.uleb128 0xb
 10731 0030 3E       		.uleb128 0x3e
 10732 0031 0B       		.uleb128 0xb
 10733 0032 03       		.uleb128 0x3
 10734 0033 08       		.uleb128 0x8
 10735 0034 00       		.byte	0
 10736 0035 00       		.byte	0
 10737 0036 05       		.uleb128 0x5
 10738 0037 2E       		.uleb128 0x2e
 10739 0038 01       		.byte	0x1
 10740 0039 03       		.uleb128 0x3
 10741 003a 0E       		.uleb128 0xe
 10742 003b 3A       		.uleb128 0x3a
 10743 003c 0B       		.uleb128 0xb
 10744 003d 3B       		.uleb128 0x3b
 10745 003e 0B       		.uleb128 0xb
 10746 003f 27       		.uleb128 0x27
 10747 0040 19       		.uleb128 0x19
 10748 0041 49       		.uleb128 0x49
 10749 0042 13       		.uleb128 0x13
 10750 0043 11       		.uleb128 0x11
 10751 0044 01       		.uleb128 0x1
 10752 0045 12       		.uleb128 0x12
 10753 0046 06       		.uleb128 0x6
 10754 0047 40       		.uleb128 0x40
 10755 0048 18       		.uleb128 0x18
 10756 0049 9742     		.uleb128 0x2117
 10757 004b 19       		.uleb128 0x19
 10758 004c 01       		.uleb128 0x1
 10759 004d 13       		.uleb128 0x13
 10760 004e 00       		.byte	0
 10761 004f 00       		.byte	0
 10762 0050 06       		.uleb128 0x6
ARM GAS  C:\Users\NIGHDR~1\AppData\Local\Temp\ccvJ0Ig2.s 			page 204


 10763 0051 05       		.uleb128 0x5
 10764 0052 00       		.byte	0
 10765 0053 03       		.uleb128 0x3
 10766 0054 08       		.uleb128 0x8
 10767 0055 3A       		.uleb128 0x3a
 10768 0056 0B       		.uleb128 0xb
 10769 0057 3B       		.uleb128 0x3b
 10770 0058 0B       		.uleb128 0xb
 10771 0059 49       		.uleb128 0x49
 10772 005a 13       		.uleb128 0x13
 10773 005b 02       		.uleb128 0x2
 10774 005c 17       		.uleb128 0x17
 10775 005d 00       		.byte	0
 10776 005e 00       		.byte	0
 10777 005f 07       		.uleb128 0x7
 10778 0060 34       		.uleb128 0x34
 10779 0061 00       		.byte	0
 10780 0062 03       		.uleb128 0x3
 10781 0063 0E       		.uleb128 0xe
 10782 0064 3A       		.uleb128 0x3a
 10783 0065 0B       		.uleb128 0xb
 10784 0066 3B       		.uleb128 0x3b
 10785 0067 0B       		.uleb128 0xb
 10786 0068 49       		.uleb128 0x49
 10787 0069 13       		.uleb128 0x13
 10788 006a 02       		.uleb128 0x2
 10789 006b 17       		.uleb128 0x17
 10790 006c 00       		.byte	0
 10791 006d 00       		.byte	0
 10792 006e 08       		.uleb128 0x8
 10793 006f 0F       		.uleb128 0xf
 10794 0070 00       		.byte	0
 10795 0071 0B       		.uleb128 0xb
 10796 0072 0B       		.uleb128 0xb
 10797 0073 49       		.uleb128 0x49
 10798 0074 13       		.uleb128 0x13
 10799 0075 00       		.byte	0
 10800 0076 00       		.byte	0
 10801 0077 09       		.uleb128 0x9
 10802 0078 26       		.uleb128 0x26
 10803 0079 00       		.byte	0
 10804 007a 49       		.uleb128 0x49
 10805 007b 13       		.uleb128 0x13
 10806 007c 00       		.byte	0
 10807 007d 00       		.byte	0
 10808 007e 0A       		.uleb128 0xa
 10809 007f 34       		.uleb128 0x34
 10810 0080 00       		.byte	0
 10811 0081 03       		.uleb128 0x3
 10812 0082 0E       		.uleb128 0xe
 10813 0083 3A       		.uleb128 0x3a
 10814 0084 0B       		.uleb128 0xb
 10815 0085 3B       		.uleb128 0x3b
 10816 0086 0B       		.uleb128 0xb
 10817 0087 49       		.uleb128 0x49
 10818 0088 13       		.uleb128 0x13
 10819 0089 00       		.byte	0
ARM GAS  C:\Users\NIGHDR~1\AppData\Local\Temp\ccvJ0Ig2.s 			page 205


 10820 008a 00       		.byte	0
 10821 008b 0B       		.uleb128 0xb
 10822 008c 2E       		.uleb128 0x2e
 10823 008d 01       		.byte	0x1
 10824 008e 3F       		.uleb128 0x3f
 10825 008f 19       		.uleb128 0x19
 10826 0090 03       		.uleb128 0x3
 10827 0091 0E       		.uleb128 0xe
 10828 0092 3A       		.uleb128 0x3a
 10829 0093 0B       		.uleb128 0xb
 10830 0094 3B       		.uleb128 0x3b
 10831 0095 0B       		.uleb128 0xb
 10832 0096 27       		.uleb128 0x27
 10833 0097 19       		.uleb128 0x19
 10834 0098 11       		.uleb128 0x11
 10835 0099 01       		.uleb128 0x1
 10836 009a 12       		.uleb128 0x12
 10837 009b 06       		.uleb128 0x6
 10838 009c 40       		.uleb128 0x40
 10839 009d 18       		.uleb128 0x18
 10840 009e 9642     		.uleb128 0x2116
 10841 00a0 19       		.uleb128 0x19
 10842 00a1 01       		.uleb128 0x1
 10843 00a2 13       		.uleb128 0x13
 10844 00a3 00       		.byte	0
 10845 00a4 00       		.byte	0
 10846 00a5 0C       		.uleb128 0xc
 10847 00a6 34       		.uleb128 0x34
 10848 00a7 00       		.byte	0
 10849 00a8 03       		.uleb128 0x3
 10850 00a9 08       		.uleb128 0x8
 10851 00aa 3A       		.uleb128 0x3a
 10852 00ab 0B       		.uleb128 0xb
 10853 00ac 3B       		.uleb128 0x3b
 10854 00ad 0B       		.uleb128 0xb
 10855 00ae 49       		.uleb128 0x49
 10856 00af 13       		.uleb128 0x13
 10857 00b0 02       		.uleb128 0x2
 10858 00b1 17       		.uleb128 0x17
 10859 00b2 00       		.byte	0
 10860 00b3 00       		.byte	0
 10861 00b4 0D       		.uleb128 0xd
 10862 00b5 898201   		.uleb128 0x4109
 10863 00b8 01       		.byte	0x1
 10864 00b9 11       		.uleb128 0x11
 10865 00ba 01       		.uleb128 0x1
 10866 00bb 31       		.uleb128 0x31
 10867 00bc 13       		.uleb128 0x13
 10868 00bd 01       		.uleb128 0x1
 10869 00be 13       		.uleb128 0x13
 10870 00bf 00       		.byte	0
 10871 00c0 00       		.byte	0
 10872 00c1 0E       		.uleb128 0xe
 10873 00c2 8A8201   		.uleb128 0x410a
 10874 00c5 00       		.byte	0
 10875 00c6 02       		.uleb128 0x2
 10876 00c7 18       		.uleb128 0x18
ARM GAS  C:\Users\NIGHDR~1\AppData\Local\Temp\ccvJ0Ig2.s 			page 206


 10877 00c8 9142     		.uleb128 0x2111
 10878 00ca 18       		.uleb128 0x18
 10879 00cb 00       		.byte	0
 10880 00cc 00       		.byte	0
 10881 00cd 0F       		.uleb128 0xf
 10882 00ce 898201   		.uleb128 0x4109
 10883 00d1 01       		.byte	0x1
 10884 00d2 11       		.uleb128 0x11
 10885 00d3 01       		.uleb128 0x1
 10886 00d4 31       		.uleb128 0x31
 10887 00d5 13       		.uleb128 0x13
 10888 00d6 00       		.byte	0
 10889 00d7 00       		.byte	0
 10890 00d8 10       		.uleb128 0x10
 10891 00d9 2E       		.uleb128 0x2e
 10892 00da 01       		.byte	0x1
 10893 00db 3F       		.uleb128 0x3f
 10894 00dc 19       		.uleb128 0x19
 10895 00dd 03       		.uleb128 0x3
 10896 00de 0E       		.uleb128 0xe
 10897 00df 3A       		.uleb128 0x3a
 10898 00e0 0B       		.uleb128 0xb
 10899 00e1 3B       		.uleb128 0x3b
 10900 00e2 05       		.uleb128 0x5
 10901 00e3 27       		.uleb128 0x27
 10902 00e4 19       		.uleb128 0x19
 10903 00e5 11       		.uleb128 0x11
 10904 00e6 01       		.uleb128 0x1
 10905 00e7 12       		.uleb128 0x12
 10906 00e8 06       		.uleb128 0x6
 10907 00e9 40       		.uleb128 0x40
 10908 00ea 18       		.uleb128 0x18
 10909 00eb 9642     		.uleb128 0x2116
 10910 00ed 19       		.uleb128 0x19
 10911 00ee 00       		.byte	0
 10912 00ef 00       		.byte	0
 10913 00f0 11       		.uleb128 0x11
 10914 00f1 05       		.uleb128 0x5
 10915 00f2 00       		.byte	0
 10916 00f3 03       		.uleb128 0x3
 10917 00f4 08       		.uleb128 0x8
 10918 00f5 3A       		.uleb128 0x3a
 10919 00f6 0B       		.uleb128 0xb
 10920 00f7 3B       		.uleb128 0x3b
 10921 00f8 05       		.uleb128 0x5
 10922 00f9 49       		.uleb128 0x49
 10923 00fa 13       		.uleb128 0x13
 10924 00fb 02       		.uleb128 0x2
 10925 00fc 17       		.uleb128 0x17
 10926 00fd 00       		.byte	0
 10927 00fe 00       		.byte	0
 10928 00ff 12       		.uleb128 0x12
 10929 0100 34       		.uleb128 0x34
 10930 0101 00       		.byte	0
 10931 0102 03       		.uleb128 0x3
 10932 0103 08       		.uleb128 0x8
 10933 0104 3A       		.uleb128 0x3a
ARM GAS  C:\Users\NIGHDR~1\AppData\Local\Temp\ccvJ0Ig2.s 			page 207


 10934 0105 0B       		.uleb128 0xb
 10935 0106 3B       		.uleb128 0x3b
 10936 0107 05       		.uleb128 0x5
 10937 0108 49       		.uleb128 0x49
 10938 0109 13       		.uleb128 0x13
 10939 010a 00       		.byte	0
 10940 010b 00       		.byte	0
 10941 010c 13       		.uleb128 0x13
 10942 010d 34       		.uleb128 0x34
 10943 010e 00       		.byte	0
 10944 010f 03       		.uleb128 0x3
 10945 0110 08       		.uleb128 0x8
 10946 0111 3A       		.uleb128 0x3a
 10947 0112 0B       		.uleb128 0xb
 10948 0113 3B       		.uleb128 0x3b
 10949 0114 05       		.uleb128 0x5
 10950 0115 49       		.uleb128 0x49
 10951 0116 13       		.uleb128 0x13
 10952 0117 02       		.uleb128 0x2
 10953 0118 17       		.uleb128 0x17
 10954 0119 00       		.byte	0
 10955 011a 00       		.byte	0
 10956 011b 14       		.uleb128 0x14
 10957 011c 34       		.uleb128 0x34
 10958 011d 00       		.byte	0
 10959 011e 03       		.uleb128 0x3
 10960 011f 08       		.uleb128 0x8
 10961 0120 3A       		.uleb128 0x3a
 10962 0121 0B       		.uleb128 0xb
 10963 0122 3B       		.uleb128 0x3b
 10964 0123 05       		.uleb128 0x5
 10965 0124 49       		.uleb128 0x49
 10966 0125 13       		.uleb128 0x13
 10967 0126 02       		.uleb128 0x2
 10968 0127 18       		.uleb128 0x18
 10969 0128 00       		.byte	0
 10970 0129 00       		.byte	0
 10971 012a 15       		.uleb128 0x15
 10972 012b 34       		.uleb128 0x34
 10973 012c 00       		.byte	0
 10974 012d 03       		.uleb128 0x3
 10975 012e 0E       		.uleb128 0xe
 10976 012f 3A       		.uleb128 0x3a
 10977 0130 0B       		.uleb128 0xb
 10978 0131 3B       		.uleb128 0x3b
 10979 0132 05       		.uleb128 0x5
 10980 0133 49       		.uleb128 0x49
 10981 0134 13       		.uleb128 0x13
 10982 0135 02       		.uleb128 0x2
 10983 0136 17       		.uleb128 0x17
 10984 0137 00       		.byte	0
 10985 0138 00       		.byte	0
 10986 0139 00       		.byte	0
 10987              		.section	.debug_loc,"",%progbits
 10988              	.Ldebug_loc0:
 10989              	.LLST0:
 10990 0000 00000000 		.4byte	.LVL0
ARM GAS  C:\Users\NIGHDR~1\AppData\Local\Temp\ccvJ0Ig2.s 			page 208


 10991 0004 16000000 		.4byte	.LVL4
 10992 0008 0100     		.2byte	0x1
 10993 000a 50       		.byte	0x50
 10994 000b 16000000 		.4byte	.LVL4
 10995 000f 1A000000 		.4byte	.LFE0
 10996 0013 0400     		.2byte	0x4
 10997 0015 F3       		.byte	0xf3
 10998 0016 01       		.uleb128 0x1
 10999 0017 50       		.byte	0x50
 11000 0018 9F       		.byte	0x9f
 11001 0019 00000000 		.4byte	0
 11002 001d 00000000 		.4byte	0
 11003              	.LLST1:
 11004 0021 0C000000 		.4byte	.LVL2
 11005 0025 14000000 		.4byte	.LVL3
 11006 0029 0600     		.2byte	0x6
 11007 002b 52       		.byte	0x52
 11008 002c 93       		.byte	0x93
 11009 002d 04       		.uleb128 0x4
 11010 002e 54       		.byte	0x54
 11011 002f 93       		.byte	0x93
 11012 0030 04       		.uleb128 0x4
 11013 0031 18000000 		.4byte	.LVL5
 11014 0035 1A000000 		.4byte	.LFE0
 11015 0039 0600     		.2byte	0x6
 11016 003b 50       		.byte	0x50
 11017 003c 93       		.byte	0x93
 11018 003d 04       		.uleb128 0x4
 11019 003e 51       		.byte	0x51
 11020 003f 93       		.byte	0x93
 11021 0040 04       		.uleb128 0x4
 11022 0041 00000000 		.4byte	0
 11023 0045 00000000 		.4byte	0
 11024              	.LLST2:
 11025 0049 00000000 		.4byte	.LVL6
 11026 004d 16000000 		.4byte	.LVL9
 11027 0051 0100     		.2byte	0x1
 11028 0053 50       		.byte	0x50
 11029 0054 16000000 		.4byte	.LVL9
 11030 0058 1A000000 		.4byte	.LFE1
 11031 005c 0400     		.2byte	0x4
 11032 005e F3       		.byte	0xf3
 11033 005f 01       		.uleb128 0x1
 11034 0060 50       		.byte	0x50
 11035 0061 9F       		.byte	0x9f
 11036 0062 00000000 		.4byte	0
 11037 0066 00000000 		.4byte	0
 11038              	.LLST3:
 11039 006a 00000000 		.4byte	.LVL10
 11040 006e 0D000000 		.4byte	.LVL11-1
 11041 0072 0100     		.2byte	0x1
 11042 0074 50       		.byte	0x50
 11043 0075 0D000000 		.4byte	.LVL11-1
 11044 0079 FE130000 		.4byte	.LVL571
 11045 007d 0100     		.2byte	0x1
 11046 007f 58       		.byte	0x58
 11047 0080 FE130000 		.4byte	.LVL571
ARM GAS  C:\Users\NIGHDR~1\AppData\Local\Temp\ccvJ0Ig2.s 			page 209


 11048 0084 04140000 		.4byte	.LFE2
 11049 0088 0400     		.2byte	0x4
 11050 008a F3       		.byte	0xf3
 11051 008b 01       		.uleb128 0x1
 11052 008c 50       		.byte	0x50
 11053 008d 9F       		.byte	0x9f
 11054 008e 00000000 		.4byte	0
 11055 0092 00000000 		.4byte	0
 11056              	.LLST4:
 11057 0096 18000000 		.4byte	.LVL12
 11058 009a 760A0000 		.4byte	.LVL320
 11059 009e 0300     		.2byte	0x3
 11060 00a0 91       		.byte	0x91
 11061 00a1 D87E     		.sleb128 -168
 11062 00a3 760A0000 		.4byte	.LVL320
 11063 00a7 480B0000 		.4byte	.LVL341
 11064 00ab 0600     		.2byte	0x6
 11065 00ad 56       		.byte	0x56
 11066 00ae 93       		.byte	0x93
 11067 00af 04       		.uleb128 0x4
 11068 00b0 57       		.byte	0x57
 11069 00b1 93       		.byte	0x93
 11070 00b2 04       		.uleb128 0x4
 11071 00b3 4C0B0000 		.4byte	.LVL342
 11072 00b7 4E0B0000 		.4byte	.LVL343
 11073 00bb 0600     		.2byte	0x6
 11074 00bd 56       		.byte	0x56
 11075 00be 93       		.byte	0x93
 11076 00bf 04       		.uleb128 0x4
 11077 00c0 57       		.byte	0x57
 11078 00c1 93       		.byte	0x93
 11079 00c2 04       		.uleb128 0x4
 11080 00c3 4E0B0000 		.4byte	.LVL343
 11081 00c7 E40D0000 		.4byte	.LVL409
 11082 00cb 0300     		.2byte	0x3
 11083 00cd 91       		.byte	0x91
 11084 00ce F07E     		.sleb128 -144
 11085 00d0 E40D0000 		.4byte	.LVL409
 11086 00d4 8C0E0000 		.4byte	.LVL429
 11087 00d8 0600     		.2byte	0x6
 11088 00da 56       		.byte	0x56
 11089 00db 93       		.byte	0x93
 11090 00dc 04       		.uleb128 0x4
 11091 00dd 57       		.byte	0x57
 11092 00de 93       		.byte	0x93
 11093 00df 04       		.uleb128 0x4
 11094 00e0 8C0E0000 		.4byte	.LVL429
 11095 00e4 940E0000 		.4byte	.LVL430
 11096 00e8 0600     		.2byte	0x6
 11097 00ea 52       		.byte	0x52
 11098 00eb 93       		.byte	0x93
 11099 00ec 04       		.uleb128 0x4
 11100 00ed 53       		.byte	0x53
 11101 00ee 93       		.byte	0x93
 11102 00ef 04       		.uleb128 0x4
 11103 00f0 940E0000 		.4byte	.LVL430
 11104 00f4 5C100000 		.4byte	.LVL491
ARM GAS  C:\Users\NIGHDR~1\AppData\Local\Temp\ccvJ0Ig2.s 			page 210


 11105 00f8 0300     		.2byte	0x3
 11106 00fa 91       		.byte	0x91
 11107 00fb F07E     		.sleb128 -144
 11108 00fd 5C100000 		.4byte	.LVL491
 11109 0101 FC100000 		.4byte	.LVL510
 11110 0105 0600     		.2byte	0x6
 11111 0107 56       		.byte	0x56
 11112 0108 93       		.byte	0x93
 11113 0109 04       		.uleb128 0x4
 11114 010a 57       		.byte	0x57
 11115 010b 93       		.byte	0x93
 11116 010c 04       		.uleb128 0x4
 11117 010d 00110000 		.4byte	.LVL511
 11118 0111 16110000 		.4byte	.LVL514
 11119 0115 0600     		.2byte	0x6
 11120 0117 56       		.byte	0x56
 11121 0118 93       		.byte	0x93
 11122 0119 04       		.uleb128 0x4
 11123 011a 57       		.byte	0x57
 11124 011b 93       		.byte	0x93
 11125 011c 04       		.uleb128 0x4
 11126 011d 16110000 		.4byte	.LVL514
 11127 0121 04140000 		.4byte	.LFE2
 11128 0125 0300     		.2byte	0x3
 11129 0127 91       		.byte	0x91
 11130 0128 E87E     		.sleb128 -152
 11131 012a 00000000 		.4byte	0
 11132 012e 00000000 		.4byte	0
 11133              	.LLST5:
 11134 0132 2C000000 		.4byte	.LVL14
 11135 0136 E6090000 		.4byte	.LVL300
 11136 013a 0300     		.2byte	0x3
 11137 013c 91       		.byte	0x91
 11138 013d E07E     		.sleb128 -160
 11139 013f E6090000 		.4byte	.LVL300
 11140 0143 E8090000 		.4byte	.LVL301
 11141 0147 0600     		.2byte	0x6
 11142 0149 52       		.byte	0x52
 11143 014a 93       		.byte	0x93
 11144 014b 04       		.uleb128 0x4
 11145 014c 53       		.byte	0x53
 11146 014d 93       		.byte	0x93
 11147 014e 04       		.uleb128 0x4
 11148 014f E8090000 		.4byte	.LVL301
 11149 0153 920A0000 		.4byte	.LVL324
 11150 0157 0300     		.2byte	0x3
 11151 0159 91       		.byte	0x91
 11152 015a B87E     		.sleb128 -200
 11153 015c 920A0000 		.4byte	.LVL324
 11154 0160 9A0A0000 		.4byte	.LVL325
 11155 0164 0600     		.2byte	0x6
 11156 0166 54       		.byte	0x54
 11157 0167 93       		.byte	0x93
 11158 0168 04       		.uleb128 0x4
 11159 0169 55       		.byte	0x55
 11160 016a 93       		.byte	0x93
 11161 016b 04       		.uleb128 0x4
ARM GAS  C:\Users\NIGHDR~1\AppData\Local\Temp\ccvJ0Ig2.s 			page 211


 11162 016c 9A0A0000 		.4byte	.LVL325
 11163 0170 1C0B0000 		.4byte	.LVL339
 11164 0174 0300     		.2byte	0x3
 11165 0176 91       		.byte	0x91
 11166 0177 B87E     		.sleb128 -200
 11167 0179 1C0B0000 		.4byte	.LVL339
 11168 017d 440B0000 		.4byte	.LVL340
 11169 0181 0600     		.2byte	0x6
 11170 0183 50       		.byte	0x50
 11171 0184 93       		.byte	0x93
 11172 0185 04       		.uleb128 0x4
 11173 0186 51       		.byte	0x51
 11174 0187 93       		.byte	0x93
 11175 0188 04       		.uleb128 0x4
 11176 0189 440B0000 		.4byte	.LVL340
 11177 018d A40C0000 		.4byte	.LVL376
 11178 0191 0300     		.2byte	0x3
 11179 0193 91       		.byte	0x91
 11180 0194 E87E     		.sleb128 -152
 11181 0196 A40C0000 		.4byte	.LVL376
 11182 019a BC0C0000 		.4byte	.LVL378
 11183 019e 0600     		.2byte	0x6
 11184 01a0 56       		.byte	0x56
 11185 01a1 93       		.byte	0x93
 11186 01a2 04       		.uleb128 0x4
 11187 01a3 57       		.byte	0x57
 11188 01a4 93       		.byte	0x93
 11189 01a5 04       		.uleb128 0x4
 11190 01a6 BC0C0000 		.4byte	.LVL378
 11191 01aa CC0C0000 		.4byte	.LVL380
 11192 01ae 0600     		.2byte	0x6
 11193 01b0 54       		.byte	0x54
 11194 01b1 93       		.byte	0x93
 11195 01b2 04       		.uleb128 0x4
 11196 01b3 55       		.byte	0x55
 11197 01b4 93       		.byte	0x93
 11198 01b5 04       		.uleb128 0x4
 11199 01b6 CC0C0000 		.4byte	.LVL380
 11200 01ba FC0D0000 		.4byte	.LVL411
 11201 01be 0300     		.2byte	0x3
 11202 01c0 91       		.byte	0x91
 11203 01c1 887F     		.sleb128 -120
 11204 01c3 FC0D0000 		.4byte	.LVL411
 11205 01c7 FE0D0000 		.4byte	.LVL412
 11206 01cb 0600     		.2byte	0x6
 11207 01cd 52       		.byte	0x52
 11208 01ce 93       		.byte	0x93
 11209 01cf 04       		.uleb128 0x4
 11210 01d0 53       		.byte	0x53
 11211 01d1 93       		.byte	0x93
 11212 01d2 04       		.uleb128 0x4
 11213 01d3 FE0D0000 		.4byte	.LVL412
 11214 01d7 740E0000 		.4byte	.LVL425
 11215 01db 0200     		.2byte	0x2
 11216 01dd 7D       		.byte	0x7d
 11217 01de 00       		.sleb128 0
 11218 01df 740E0000 		.4byte	.LVL425
ARM GAS  C:\Users\NIGHDR~1\AppData\Local\Temp\ccvJ0Ig2.s 			page 212


 11219 01e3 B80E0000 		.4byte	.LVL433
 11220 01e7 0600     		.2byte	0x6
 11221 01e9 50       		.byte	0x50
 11222 01ea 93       		.byte	0x93
 11223 01eb 04       		.uleb128 0x4
 11224 01ec 51       		.byte	0x51
 11225 01ed 93       		.byte	0x93
 11226 01ee 04       		.uleb128 0x4
 11227 01ef B80E0000 		.4byte	.LVL433
 11228 01f3 BA0E0000 		.4byte	.LVL434
 11229 01f7 0600     		.2byte	0x6
 11230 01f9 51       		.byte	0x51
 11231 01fa 93       		.byte	0x93
 11232 01fb 04       		.uleb128 0x4
 11233 01fc 52       		.byte	0x52
 11234 01fd 93       		.byte	0x93
 11235 01fe 04       		.uleb128 0x4
 11236 01ff BA0E0000 		.4byte	.LVL434
 11237 0203 74100000 		.4byte	.LVL493
 11238 0207 0300     		.2byte	0x3
 11239 0209 91       		.byte	0x91
 11240 020a E87E     		.sleb128 -152
 11241 020c 74100000 		.4byte	.LVL493
 11242 0210 76100000 		.4byte	.LVL494
 11243 0214 0600     		.2byte	0x6
 11244 0216 52       		.byte	0x52
 11245 0217 93       		.byte	0x93
 11246 0218 04       		.uleb128 0x4
 11247 0219 53       		.byte	0x53
 11248 021a 93       		.byte	0x93
 11249 021b 04       		.uleb128 0x4
 11250 021c 76100000 		.4byte	.LVL494
 11251 0220 EC100000 		.4byte	.LVL508
 11252 0224 0200     		.2byte	0x2
 11253 0226 7D       		.byte	0x7d
 11254 0227 00       		.sleb128 0
 11255 0228 EC100000 		.4byte	.LVL508
 11256 022c F8100000 		.4byte	.LVL509
 11257 0230 0600     		.2byte	0x6
 11258 0232 54       		.byte	0x54
 11259 0233 93       		.byte	0x93
 11260 0234 04       		.uleb128 0x4
 11261 0235 55       		.byte	0x55
 11262 0236 93       		.byte	0x93
 11263 0237 04       		.uleb128 0x4
 11264 0238 F8100000 		.4byte	.LVL509
 11265 023c 2C110000 		.4byte	.LVL517
 11266 0240 0200     		.2byte	0x2
 11267 0242 7D       		.byte	0x7d
 11268 0243 00       		.sleb128 0
 11269 0244 2C110000 		.4byte	.LVL517
 11270 0248 34110000 		.4byte	.LVL518
 11271 024c 0600     		.2byte	0x6
 11272 024e 52       		.byte	0x52
 11273 024f 93       		.byte	0x93
 11274 0250 04       		.uleb128 0x4
 11275 0251 53       		.byte	0x53
ARM GAS  C:\Users\NIGHDR~1\AppData\Local\Temp\ccvJ0Ig2.s 			page 213


 11276 0252 93       		.byte	0x93
 11277 0253 04       		.uleb128 0x4
 11278 0254 34110000 		.4byte	.LVL518
 11279 0258 04140000 		.4byte	.LFE2
 11280 025c 0300     		.2byte	0x3
 11281 025e 91       		.byte	0x91
 11282 025f B87E     		.sleb128 -200
 11283 0261 00000000 		.4byte	0
 11284 0265 00000000 		.4byte	0
 11285              	.LLST6:
 11286 0269 40000000 		.4byte	.LVL16
 11287 026d 62090000 		.4byte	.LVL284
 11288 0271 0300     		.2byte	0x3
 11289 0273 91       		.byte	0x91
 11290 0274 E87E     		.sleb128 -152
 11291 0276 62090000 		.4byte	.LVL284
 11292 027a 64090000 		.4byte	.LVL285
 11293 027e 0600     		.2byte	0x6
 11294 0280 52       		.byte	0x52
 11295 0281 93       		.byte	0x93
 11296 0282 04       		.uleb128 0x4
 11297 0283 53       		.byte	0x53
 11298 0284 93       		.byte	0x93
 11299 0285 04       		.uleb128 0x4
 11300 0286 64090000 		.4byte	.LVL285
 11301 028a FE090000 		.4byte	.LVL303
 11302 028e 0300     		.2byte	0x3
 11303 0290 91       		.byte	0x91
 11304 0291 E87E     		.sleb128 -152
 11305 0293 FE090000 		.4byte	.LVL303
 11306 0297 000A0000 		.4byte	.LVL304
 11307 029b 0600     		.2byte	0x6
 11308 029d 52       		.byte	0x52
 11309 029e 93       		.byte	0x93
 11310 029f 04       		.uleb128 0x4
 11311 02a0 53       		.byte	0x53
 11312 02a1 93       		.byte	0x93
 11313 02a2 04       		.uleb128 0x4
 11314 02a3 000A0000 		.4byte	.LVL304
 11315 02a7 AE0A0000 		.4byte	.LVL327
 11316 02ab 0300     		.2byte	0x3
 11317 02ad 91       		.byte	0x91
 11318 02ae E07E     		.sleb128 -160
 11319 02b0 AE0A0000 		.4byte	.LVL327
 11320 02b4 B00A0000 		.4byte	.LVL328
 11321 02b8 0600     		.2byte	0x6
 11322 02ba 52       		.byte	0x52
 11323 02bb 93       		.byte	0x93
 11324 02bc 04       		.uleb128 0x4
 11325 02bd 53       		.byte	0x53
 11326 02be 93       		.byte	0x93
 11327 02bf 04       		.uleb128 0x4
 11328 02c0 B00A0000 		.4byte	.LVL328
 11329 02c4 880B0000 		.4byte	.LVL348
 11330 02c8 0300     		.2byte	0x3
 11331 02ca 91       		.byte	0x91
 11332 02cb C07E     		.sleb128 -192
ARM GAS  C:\Users\NIGHDR~1\AppData\Local\Temp\ccvJ0Ig2.s 			page 214


 11333 02cd 880B0000 		.4byte	.LVL348
 11334 02d1 8A0B0000 		.4byte	.LVL349
 11335 02d5 0600     		.2byte	0x6
 11336 02d7 56       		.byte	0x56
 11337 02d8 93       		.byte	0x93
 11338 02d9 04       		.uleb128 0x4
 11339 02da 57       		.byte	0x57
 11340 02db 93       		.byte	0x93
 11341 02dc 04       		.uleb128 0x4
 11342 02dd 8A0B0000 		.4byte	.LVL349
 11343 02e1 A40C0000 		.4byte	.LVL376
 11344 02e5 0300     		.2byte	0x3
 11345 02e7 91       		.byte	0x91
 11346 02e8 887F     		.sleb128 -120
 11347 02ea A40C0000 		.4byte	.LVL376
 11348 02ee B00C0000 		.4byte	.LVL377
 11349 02f2 0600     		.2byte	0x6
 11350 02f4 52       		.byte	0x52
 11351 02f5 93       		.byte	0x93
 11352 02f6 04       		.uleb128 0x4
 11353 02f7 53       		.byte	0x53
 11354 02f8 93       		.byte	0x93
 11355 02f9 04       		.uleb128 0x4
 11356 02fa B00C0000 		.4byte	.LVL377
 11357 02fe 140E0000 		.4byte	.LVL414
 11358 0302 0300     		.2byte	0x3
 11359 0304 91       		.byte	0x91
 11360 0305 E87E     		.sleb128 -152
 11361 0307 140E0000 		.4byte	.LVL414
 11362 030b 160E0000 		.4byte	.LVL415
 11363 030f 0600     		.2byte	0x6
 11364 0311 52       		.byte	0x52
 11365 0312 93       		.byte	0x93
 11366 0313 04       		.uleb128 0x4
 11367 0314 53       		.byte	0x53
 11368 0315 93       		.byte	0x93
 11369 0316 04       		.uleb128 0x4
 11370 0317 160E0000 		.4byte	.LVL415
 11371 031b A40E0000 		.4byte	.LVL432
 11372 031f 0300     		.2byte	0x3
 11373 0321 91       		.byte	0x91
 11374 0322 E87E     		.sleb128 -152
 11375 0324 A40E0000 		.4byte	.LVL432
 11376 0328 E40E0000 		.4byte	.LVL440
 11377 032c 0600     		.2byte	0x6
 11378 032e 56       		.byte	0x56
 11379 032f 93       		.byte	0x93
 11380 0330 04       		.uleb128 0x4
 11381 0331 57       		.byte	0x57
 11382 0332 93       		.byte	0x93
 11383 0333 04       		.uleb128 0x4
 11384 0334 E40E0000 		.4byte	.LVL440
 11385 0338 EC0E0000 		.4byte	.LVL441
 11386 033c 0600     		.2byte	0x6
 11387 033e 52       		.byte	0x52
 11388 033f 93       		.byte	0x93
 11389 0340 04       		.uleb128 0x4
ARM GAS  C:\Users\NIGHDR~1\AppData\Local\Temp\ccvJ0Ig2.s 			page 215


 11390 0341 53       		.byte	0x53
 11391 0342 93       		.byte	0x93
 11392 0343 04       		.uleb128 0x4
 11393 0344 EC0E0000 		.4byte	.LVL441
 11394 0348 8C100000 		.4byte	.LVL496
 11395 034c 0300     		.2byte	0x3
 11396 034e 91       		.byte	0x91
 11397 034f B87E     		.sleb128 -200
 11398 0351 8C100000 		.4byte	.LVL496
 11399 0355 8E100000 		.4byte	.LVL497
 11400 0359 0600     		.2byte	0x6
 11401 035b 52       		.byte	0x52
 11402 035c 93       		.byte	0x93
 11403 035d 04       		.uleb128 0x4
 11404 035e 53       		.byte	0x53
 11405 035f 93       		.byte	0x93
 11406 0360 04       		.uleb128 0x4
 11407 0361 8E100000 		.4byte	.LVL497
 11408 0365 18110000 		.4byte	.LVL515
 11409 0369 0300     		.2byte	0x3
 11410 036b 91       		.byte	0x91
 11411 036c B87E     		.sleb128 -200
 11412 036e 18110000 		.4byte	.LVL515
 11413 0372 54110000 		.4byte	.LVL521
 11414 0376 0600     		.2byte	0x6
 11415 0378 56       		.byte	0x56
 11416 0379 93       		.byte	0x93
 11417 037a 04       		.uleb128 0x4
 11418 037b 57       		.byte	0x57
 11419 037c 93       		.byte	0x93
 11420 037d 04       		.uleb128 0x4
 11421 037e 5C110000 		.4byte	.LVL522
 11422 0382 68110000 		.4byte	.LVL525
 11423 0386 0600     		.2byte	0x6
 11424 0388 56       		.byte	0x56
 11425 0389 93       		.byte	0x93
 11426 038a 04       		.uleb128 0x4
 11427 038b 57       		.byte	0x57
 11428 038c 93       		.byte	0x93
 11429 038d 04       		.uleb128 0x4
 11430 038e 68110000 		.4byte	.LVL525
 11431 0392 04140000 		.4byte	.LFE2
 11432 0396 0300     		.2byte	0x3
 11433 0398 91       		.byte	0x91
 11434 0399 D87E     		.sleb128 -168
 11435 039b 00000000 		.4byte	0
 11436 039f 00000000 		.4byte	0
 11437              	.LLST7:
 11438 03a3 54000000 		.4byte	.LVL18
 11439 03a7 DE080000 		.4byte	.LVL268
 11440 03ab 0300     		.2byte	0x3
 11441 03ad 91       		.byte	0x91
 11442 03ae F07E     		.sleb128 -144
 11443 03b0 DE080000 		.4byte	.LVL268
 11444 03b4 E0080000 		.4byte	.LVL269
 11445 03b8 0600     		.2byte	0x6
 11446 03ba 52       		.byte	0x52
ARM GAS  C:\Users\NIGHDR~1\AppData\Local\Temp\ccvJ0Ig2.s 			page 216


 11447 03bb 93       		.byte	0x93
 11448 03bc 04       		.uleb128 0x4
 11449 03bd 53       		.byte	0x53
 11450 03be 93       		.byte	0x93
 11451 03bf 04       		.uleb128 0x4
 11452 03c0 E0080000 		.4byte	.LVL269
 11453 03c4 7A090000 		.4byte	.LVL287
 11454 03c8 0300     		.2byte	0x3
 11455 03ca 91       		.byte	0x91
 11456 03cb C87E     		.sleb128 -184
 11457 03cd 7A090000 		.4byte	.LVL287
 11458 03d1 7C090000 		.4byte	.LVL288
 11459 03d5 0600     		.2byte	0x6
 11460 03d7 52       		.byte	0x52
 11461 03d8 93       		.byte	0x93
 11462 03d9 04       		.uleb128 0x4
 11463 03da 53       		.byte	0x53
 11464 03db 93       		.byte	0x93
 11465 03dc 04       		.uleb128 0x4
 11466 03dd 7C090000 		.4byte	.LVL288
 11467 03e1 160A0000 		.4byte	.LVL306
 11468 03e5 0300     		.2byte	0x3
 11469 03e7 91       		.byte	0x91
 11470 03e8 C87E     		.sleb128 -184
 11471 03ea 160A0000 		.4byte	.LVL306
 11472 03ee 180A0000 		.4byte	.LVL307
 11473 03f2 0600     		.2byte	0x6
 11474 03f4 52       		.byte	0x52
 11475 03f5 93       		.byte	0x93
 11476 03f6 04       		.uleb128 0x4
 11477 03f7 53       		.byte	0x53
 11478 03f8 93       		.byte	0x93
 11479 03f9 04       		.uleb128 0x4
 11480 03fa 180A0000 		.4byte	.LVL307
 11481 03fe C80A0000 		.4byte	.LVL330
 11482 0402 0300     		.2byte	0x3
 11483 0404 91       		.byte	0x91
 11484 0405 C87E     		.sleb128 -184
 11485 0407 C80A0000 		.4byte	.LVL330
 11486 040b CA0A0000 		.4byte	.LVL331
 11487 040f 0600     		.2byte	0x6
 11488 0411 52       		.byte	0x52
 11489 0412 93       		.byte	0x93
 11490 0413 04       		.uleb128 0x4
 11491 0414 53       		.byte	0x53
 11492 0415 93       		.byte	0x93
 11493 0416 04       		.uleb128 0x4
 11494 0417 CA0A0000 		.4byte	.LVL331
 11495 041b 740B0000 		.4byte	.LVL346
 11496 041f 0300     		.2byte	0x3
 11497 0421 91       		.byte	0x91
 11498 0422 C87E     		.sleb128 -184
 11499 0424 740B0000 		.4byte	.LVL346
 11500 0428 760B0000 		.4byte	.LVL347
 11501 042c 0600     		.2byte	0x6
 11502 042e 56       		.byte	0x56
 11503 042f 93       		.byte	0x93
ARM GAS  C:\Users\NIGHDR~1\AppData\Local\Temp\ccvJ0Ig2.s 			page 217


 11504 0430 04       		.uleb128 0x4
 11505 0431 57       		.byte	0x57
 11506 0432 93       		.byte	0x93
 11507 0433 04       		.uleb128 0x4
 11508 0434 760B0000 		.4byte	.LVL347
 11509 0438 000D0000 		.4byte	.LVL384
 11510 043c 0300     		.2byte	0x3
 11511 043e 91       		.byte	0x91
 11512 043f B87E     		.sleb128 -200
 11513 0441 000D0000 		.4byte	.LVL384
 11514 0445 040D0000 		.4byte	.LVL385
 11515 0449 0600     		.2byte	0x6
 11516 044b 50       		.byte	0x50
 11517 044c 93       		.byte	0x93
 11518 044d 04       		.uleb128 0x4
 11519 044e 51       		.byte	0x51
 11520 044f 93       		.byte	0x93
 11521 0450 04       		.uleb128 0x4
 11522 0451 040D0000 		.4byte	.LVL385
 11523 0455 2E0E0000 		.4byte	.LVL417
 11524 0459 0300     		.2byte	0x3
 11525 045b 91       		.byte	0x91
 11526 045c B87E     		.sleb128 -200
 11527 045e 2E0E0000 		.4byte	.LVL417
 11528 0462 300E0000 		.4byte	.LVL418
 11529 0466 0600     		.2byte	0x6
 11530 0468 52       		.byte	0x52
 11531 0469 93       		.byte	0x93
 11532 046a 04       		.uleb128 0x4
 11533 046b 53       		.byte	0x53
 11534 046c 93       		.byte	0x93
 11535 046d 04       		.uleb128 0x4
 11536 046e 300E0000 		.4byte	.LVL418
 11537 0472 CC0E0000 		.4byte	.LVL437
 11538 0476 0300     		.2byte	0x3
 11539 0478 91       		.byte	0x91
 11540 0479 B87E     		.sleb128 -200
 11541 047b CC0E0000 		.4byte	.LVL437
 11542 047f D80E0000 		.4byte	.LVL438
 11543 0483 0600     		.2byte	0x6
 11544 0485 50       		.byte	0x50
 11545 0486 93       		.byte	0x93
 11546 0487 04       		.uleb128 0x4
 11547 0488 51       		.byte	0x51
 11548 0489 93       		.byte	0x93
 11549 048a 04       		.uleb128 0x4
 11550 048b D80E0000 		.4byte	.LVL438
 11551 048f 0C0F0000 		.4byte	.LVL444
 11552 0493 0200     		.2byte	0x2
 11553 0495 7D       		.byte	0x7d
 11554 0496 00       		.sleb128 0
 11555 0497 0C0F0000 		.4byte	.LVL444
 11556 049b 140F0000 		.4byte	.LVL446
 11557 049f 0600     		.2byte	0x6
 11558 04a1 53       		.byte	0x53
 11559 04a2 93       		.byte	0x93
 11560 04a3 04       		.uleb128 0x4
ARM GAS  C:\Users\NIGHDR~1\AppData\Local\Temp\ccvJ0Ig2.s 			page 218


 11561 04a4 54       		.byte	0x54
 11562 04a5 93       		.byte	0x93
 11563 04a6 04       		.uleb128 0x4
 11564 04a7 140F0000 		.4byte	.LVL446
 11565 04ab A6100000 		.4byte	.LVL499
 11566 04af 0300     		.2byte	0x3
 11567 04b1 91       		.byte	0x91
 11568 04b2 D87E     		.sleb128 -168
 11569 04b4 A6100000 		.4byte	.LVL499
 11570 04b8 A8100000 		.4byte	.LVL500
 11571 04bc 0600     		.2byte	0x6
 11572 04be 52       		.byte	0x52
 11573 04bf 93       		.byte	0x93
 11574 04c0 04       		.uleb128 0x4
 11575 04c1 53       		.byte	0x53
 11576 04c2 93       		.byte	0x93
 11577 04c3 04       		.uleb128 0x4
 11578 04c4 A8100000 		.4byte	.LVL500
 11579 04c8 44110000 		.4byte	.LVL520
 11580 04cc 0300     		.2byte	0x3
 11581 04ce 91       		.byte	0x91
 11582 04cf D87E     		.sleb128 -168
 11583 04d1 44110000 		.4byte	.LVL520
 11584 04d5 9A110000 		.4byte	.LVL527
 11585 04d9 0600     		.2byte	0x6
 11586 04db 54       		.byte	0x54
 11587 04dc 93       		.byte	0x93
 11588 04dd 04       		.uleb128 0x4
 11589 04de 55       		.byte	0x55
 11590 04df 93       		.byte	0x93
 11591 04e0 04       		.uleb128 0x4
 11592 04e1 A2110000 		.4byte	.LVL528
 11593 04e5 AE110000 		.4byte	.LVL530
 11594 04e9 0600     		.2byte	0x6
 11595 04eb 53       		.byte	0x53
 11596 04ec 93       		.byte	0x93
 11597 04ed 04       		.uleb128 0x4
 11598 04ee 54       		.byte	0x54
 11599 04ef 93       		.byte	0x93
 11600 04f0 04       		.uleb128 0x4
 11601 04f1 AE110000 		.4byte	.LVL530
 11602 04f5 04140000 		.4byte	.LFE2
 11603 04f9 0300     		.2byte	0x3
 11604 04fb 91       		.byte	0x91
 11605 04fc C07E     		.sleb128 -192
 11606 04fe 00000000 		.4byte	0
 11607 0502 00000000 		.4byte	0
 11608              	.LLST8:
 11609 0506 68000000 		.4byte	.LVL20
 11610 050a 5A080000 		.4byte	.LVL252
 11611 050e 0300     		.2byte	0x3
 11612 0510 91       		.byte	0x91
 11613 0511 F87E     		.sleb128 -136
 11614 0513 5A080000 		.4byte	.LVL252
 11615 0517 5C080000 		.4byte	.LVL253
 11616 051b 0600     		.2byte	0x6
 11617 051d 52       		.byte	0x52
ARM GAS  C:\Users\NIGHDR~1\AppData\Local\Temp\ccvJ0Ig2.s 			page 219


 11618 051e 93       		.byte	0x93
 11619 051f 04       		.uleb128 0x4
 11620 0520 53       		.byte	0x53
 11621 0521 93       		.byte	0x93
 11622 0522 04       		.uleb128 0x4
 11623 0523 5C080000 		.4byte	.LVL253
 11624 0527 F6080000 		.4byte	.LVL271
 11625 052b 0300     		.2byte	0x3
 11626 052d 91       		.byte	0x91
 11627 052e F87E     		.sleb128 -136
 11628 0530 F6080000 		.4byte	.LVL271
 11629 0534 F8080000 		.4byte	.LVL272
 11630 0538 0600     		.2byte	0x6
 11631 053a 52       		.byte	0x52
 11632 053b 93       		.byte	0x93
 11633 053c 04       		.uleb128 0x4
 11634 053d 53       		.byte	0x53
 11635 053e 93       		.byte	0x93
 11636 053f 04       		.uleb128 0x4
 11637 0540 F8080000 		.4byte	.LVL272
 11638 0544 92090000 		.4byte	.LVL290
 11639 0548 0300     		.2byte	0x3
 11640 054a 91       		.byte	0x91
 11641 054b F07E     		.sleb128 -144
 11642 054d 92090000 		.4byte	.LVL290
 11643 0551 94090000 		.4byte	.LVL291
 11644 0555 0600     		.2byte	0x6
 11645 0557 52       		.byte	0x52
 11646 0558 93       		.byte	0x93
 11647 0559 04       		.uleb128 0x4
 11648 055a 53       		.byte	0x53
 11649 055b 93       		.byte	0x93
 11650 055c 04       		.uleb128 0x4
 11651 055d 94090000 		.4byte	.LVL291
 11652 0561 300A0000 		.4byte	.LVL309
 11653 0565 0300     		.2byte	0x3
 11654 0567 91       		.byte	0x91
 11655 0568 F07E     		.sleb128 -144
 11656 056a 300A0000 		.4byte	.LVL309
 11657 056e 320A0000 		.4byte	.LVL310
 11658 0572 0600     		.2byte	0x6
 11659 0574 52       		.byte	0x52
 11660 0575 93       		.byte	0x93
 11661 0576 04       		.uleb128 0x4
 11662 0577 53       		.byte	0x53
 11663 0578 93       		.byte	0x93
 11664 0579 04       		.uleb128 0x4
 11665 057a 320A0000 		.4byte	.LVL310
 11666 057e E00A0000 		.4byte	.LVL333
 11667 0582 0300     		.2byte	0x3
 11668 0584 91       		.byte	0x91
 11669 0585 E87E     		.sleb128 -152
 11670 0587 E00A0000 		.4byte	.LVL333
 11671 058b E20A0000 		.4byte	.LVL334
 11672 058f 0600     		.2byte	0x6
 11673 0591 52       		.byte	0x52
 11674 0592 93       		.byte	0x93
ARM GAS  C:\Users\NIGHDR~1\AppData\Local\Temp\ccvJ0Ig2.s 			page 220


 11675 0593 04       		.uleb128 0x4
 11676 0594 53       		.byte	0x53
 11677 0595 93       		.byte	0x93
 11678 0596 04       		.uleb128 0x4
 11679 0597 E20A0000 		.4byte	.LVL334
 11680 059b C40B0000 		.4byte	.LVL354
 11681 059f 0300     		.2byte	0x3
 11682 05a1 91       		.byte	0x91
 11683 05a2 D87E     		.sleb128 -168
 11684 05a4 C40B0000 		.4byte	.LVL354
 11685 05a8 C60B0000 		.4byte	.LVL355
 11686 05ac 0600     		.2byte	0x6
 11687 05ae 56       		.byte	0x56
 11688 05af 93       		.byte	0x93
 11689 05b0 04       		.uleb128 0x4
 11690 05b1 57       		.byte	0x57
 11691 05b2 93       		.byte	0x93
 11692 05b3 04       		.uleb128 0x4
 11693 05b4 C60B0000 		.4byte	.LVL355
 11694 05b8 E80C0000 		.4byte	.LVL382
 11695 05bc 0300     		.2byte	0x3
 11696 05be 91       		.byte	0x91
 11697 05bf D87E     		.sleb128 -168
 11698 05c1 E80C0000 		.4byte	.LVL382
 11699 05c5 F40C0000 		.4byte	.LVL383
 11700 05c9 0600     		.2byte	0x6
 11701 05cb 54       		.byte	0x54
 11702 05cc 93       		.byte	0x93
 11703 05cd 04       		.uleb128 0x4
 11704 05ce 55       		.byte	0x55
 11705 05cf 93       		.byte	0x93
 11706 05d0 04       		.uleb128 0x4
 11707 05d1 F40C0000 		.4byte	.LVL383
 11708 05d5 460E0000 		.4byte	.LVL420
 11709 05d9 0300     		.2byte	0x3
 11710 05db 91       		.byte	0x91
 11711 05dc D87E     		.sleb128 -168
 11712 05de 460E0000 		.4byte	.LVL420
 11713 05e2 480E0000 		.4byte	.LVL421
 11714 05e6 0600     		.2byte	0x6
 11715 05e8 52       		.byte	0x52
 11716 05e9 93       		.byte	0x93
 11717 05ea 04       		.uleb128 0x4
 11718 05eb 53       		.byte	0x53
 11719 05ec 93       		.byte	0x93
 11720 05ed 04       		.uleb128 0x4
 11721 05ee 480E0000 		.4byte	.LVL421
 11722 05f2 F80E0000 		.4byte	.LVL443
 11723 05f6 0300     		.2byte	0x3
 11724 05f8 91       		.byte	0x91
 11725 05f9 D87E     		.sleb128 -168
 11726 05fb F80E0000 		.4byte	.LVL443
 11727 05ff 300F0000 		.4byte	.LVL448
 11728 0603 0600     		.2byte	0x6
 11729 0605 56       		.byte	0x56
 11730 0606 93       		.byte	0x93
 11731 0607 04       		.uleb128 0x4
ARM GAS  C:\Users\NIGHDR~1\AppData\Local\Temp\ccvJ0Ig2.s 			page 221


 11732 0608 57       		.byte	0x57
 11733 0609 93       		.byte	0x93
 11734 060a 04       		.uleb128 0x4
 11735 060b 340F0000 		.4byte	.LVL449
 11736 060f 440F0000 		.4byte	.LVL452
 11737 0613 0600     		.2byte	0x6
 11738 0615 56       		.byte	0x56
 11739 0616 93       		.byte	0x93
 11740 0617 04       		.uleb128 0x4
 11741 0618 57       		.byte	0x57
 11742 0619 93       		.byte	0x93
 11743 061a 04       		.uleb128 0x4
 11744 061b 440F0000 		.4byte	.LVL452
 11745 061f BE100000 		.4byte	.LVL502
 11746 0623 0300     		.2byte	0x3
 11747 0625 91       		.byte	0x91
 11748 0626 C07E     		.sleb128 -192
 11749 0628 BE100000 		.4byte	.LVL502
 11750 062c C0100000 		.4byte	.LVL503
 11751 0630 0600     		.2byte	0x6
 11752 0632 52       		.byte	0x52
 11753 0633 93       		.byte	0x93
 11754 0634 04       		.uleb128 0x4
 11755 0635 53       		.byte	0x53
 11756 0636 93       		.byte	0x93
 11757 0637 04       		.uleb128 0x4
 11758 0638 C0100000 		.4byte	.LVL503
 11759 063c 70110000 		.4byte	.LVL526
 11760 0640 0300     		.2byte	0x3
 11761 0642 91       		.byte	0x91
 11762 0643 C07E     		.sleb128 -192
 11763 0645 70110000 		.4byte	.LVL526
 11764 0649 CA110000 		.4byte	.LVL532
 11765 064d 0600     		.2byte	0x6
 11766 064f 56       		.byte	0x56
 11767 0650 93       		.byte	0x93
 11768 0651 04       		.uleb128 0x4
 11769 0652 57       		.byte	0x57
 11770 0653 93       		.byte	0x93
 11771 0654 04       		.uleb128 0x4
 11772 0655 CA110000 		.4byte	.LVL532
 11773 0659 CE110000 		.4byte	.LVL533
 11774 065d 0200     		.2byte	0x2
 11775 065f 7D       		.byte	0x7d
 11776 0660 00       		.sleb128 0
 11777 0661 CE110000 		.4byte	.LVL533
 11778 0665 2E120000 		.4byte	.LVL548
 11779 0669 0600     		.2byte	0x6
 11780 066b 56       		.byte	0x56
 11781 066c 93       		.byte	0x93
 11782 066d 04       		.uleb128 0x4
 11783 066e 57       		.byte	0x57
 11784 066f 93       		.byte	0x93
 11785 0670 04       		.uleb128 0x4
 11786 0671 2E120000 		.4byte	.LVL548
 11787 0675 04140000 		.4byte	.LFE2
 11788 0679 0300     		.2byte	0x3
ARM GAS  C:\Users\NIGHDR~1\AppData\Local\Temp\ccvJ0Ig2.s 			page 222


 11789 067b 91       		.byte	0x91
 11790 067c E07E     		.sleb128 -160
 11791 067e 00000000 		.4byte	0
 11792 0682 00000000 		.4byte	0
 11793              	.LLST9:
 11794 0686 7C000000 		.4byte	.LVL22
 11795 068a C2070000 		.4byte	.LVL234
 11796 068e 0300     		.2byte	0x3
 11797 0690 91       		.byte	0x91
 11798 0691 807F     		.sleb128 -128
 11799 0693 C2070000 		.4byte	.LVL234
 11800 0697 400A0000 		.4byte	.LVL312
 11801 069b 0600     		.2byte	0x6
 11802 069d 56       		.byte	0x56
 11803 069e 93       		.byte	0x93
 11804 069f 04       		.uleb128 0x4
 11805 06a0 57       		.byte	0x57
 11806 06a1 93       		.byte	0x93
 11807 06a2 04       		.uleb128 0x4
 11808 06a3 440A0000 		.4byte	.LVL313
 11809 06a7 720A0000 		.4byte	.LVL319
 11810 06ab 0600     		.2byte	0x6
 11811 06ad 56       		.byte	0x56
 11812 06ae 93       		.byte	0x93
 11813 06af 04       		.uleb128 0x4
 11814 06b0 57       		.byte	0x57
 11815 06b1 93       		.byte	0x93
 11816 06b2 04       		.uleb128 0x4
 11817 06b3 720A0000 		.4byte	.LVL319
 11818 06b7 FA0A0000 		.4byte	.LVL336
 11819 06bb 0300     		.2byte	0x3
 11820 06bd 91       		.byte	0x91
 11821 06be F07E     		.sleb128 -144
 11822 06c0 FA0A0000 		.4byte	.LVL336
 11823 06c4 0A0B0000 		.4byte	.LVL337
 11824 06c8 0600     		.2byte	0x6
 11825 06ca 52       		.byte	0x52
 11826 06cb 93       		.byte	0x93
 11827 06cc 04       		.uleb128 0x4
 11828 06cd 53       		.byte	0x53
 11829 06ce 93       		.byte	0x93
 11830 06cf 04       		.uleb128 0x4
 11831 06d0 0A0B0000 		.4byte	.LVL337
 11832 06d4 B00B0000 		.4byte	.LVL352
 11833 06d8 0300     		.2byte	0x3
 11834 06da 91       		.byte	0x91
 11835 06db E07E     		.sleb128 -160
 11836 06dd B00B0000 		.4byte	.LVL352
 11837 06e1 B80B0000 		.4byte	.LVL353
 11838 06e5 0600     		.2byte	0x6
 11839 06e7 50       		.byte	0x50
 11840 06e8 93       		.byte	0x93
 11841 06e9 04       		.uleb128 0x4
 11842 06ea 51       		.byte	0x51
 11843 06eb 93       		.byte	0x93
 11844 06ec 04       		.uleb128 0x4
 11845 06ed B80B0000 		.4byte	.LVL353
ARM GAS  C:\Users\NIGHDR~1\AppData\Local\Temp\ccvJ0Ig2.s 			page 223


 11846 06f1 3C0D0000 		.4byte	.LVL391
 11847 06f5 0300     		.2byte	0x3
 11848 06f7 91       		.byte	0x91
 11849 06f8 C07E     		.sleb128 -192
 11850 06fa 3C0D0000 		.4byte	.LVL391
 11851 06fe 4A0D0000 		.4byte	.LVL392
 11852 0702 0600     		.2byte	0x6
 11853 0704 50       		.byte	0x50
 11854 0705 93       		.byte	0x93
 11855 0706 04       		.uleb128 0x4
 11856 0707 51       		.byte	0x51
 11857 0708 93       		.byte	0x93
 11858 0709 04       		.uleb128 0x4
 11859 070a 4A0D0000 		.4byte	.LVL392
 11860 070e 600E0000 		.4byte	.LVL423
 11861 0712 0300     		.2byte	0x3
 11862 0714 91       		.byte	0x91
 11863 0715 C07E     		.sleb128 -192
 11864 0717 600E0000 		.4byte	.LVL423
 11865 071b 680E0000 		.4byte	.LVL424
 11866 071f 0600     		.2byte	0x6
 11867 0721 53       		.byte	0x53
 11868 0722 93       		.byte	0x93
 11869 0723 04       		.uleb128 0x4
 11870 0724 54       		.byte	0x54
 11871 0725 93       		.byte	0x93
 11872 0726 04       		.uleb128 0x4
 11873 0727 680E0000 		.4byte	.LVL424
 11874 072b 200F0000 		.4byte	.LVL447
 11875 072f 0300     		.2byte	0x3
 11876 0731 91       		.byte	0x91
 11877 0732 C07E     		.sleb128 -192
 11878 0734 200F0000 		.4byte	.LVL447
 11879 0738 5C0F0000 		.4byte	.LVL454
 11880 073c 0600     		.2byte	0x6
 11881 073e 54       		.byte	0x54
 11882 073f 93       		.byte	0x93
 11883 0740 04       		.uleb128 0x4
 11884 0741 55       		.byte	0x55
 11885 0742 93       		.byte	0x93
 11886 0743 04       		.uleb128 0x4
 11887 0744 5C0F0000 		.4byte	.LVL454
 11888 0748 640F0000 		.4byte	.LVL456
 11889 074c 0600     		.2byte	0x6
 11890 074e 53       		.byte	0x53
 11891 074f 93       		.byte	0x93
 11892 0750 04       		.uleb128 0x4
 11893 0751 54       		.byte	0x54
 11894 0752 93       		.byte	0x93
 11895 0753 04       		.uleb128 0x4
 11896 0754 640F0000 		.4byte	.LVL456
 11897 0758 D8100000 		.4byte	.LVL505
 11898 075c 0300     		.2byte	0x3
 11899 075e 91       		.byte	0x91
 11900 075f E07E     		.sleb128 -160
 11901 0761 D8100000 		.4byte	.LVL505
 11902 0765 E0100000 		.4byte	.LVL506
ARM GAS  C:\Users\NIGHDR~1\AppData\Local\Temp\ccvJ0Ig2.s 			page 224


 11903 0769 0600     		.2byte	0x6
 11904 076b 53       		.byte	0x53
 11905 076c 93       		.byte	0x93
 11906 076d 04       		.uleb128 0x4
 11907 076e 54       		.byte	0x54
 11908 076f 93       		.byte	0x93
 11909 0770 04       		.uleb128 0x4
 11910 0771 E0100000 		.4byte	.LVL506
 11911 0775 B6110000 		.4byte	.LVL531
 11912 0779 0300     		.2byte	0x3
 11913 077b 91       		.byte	0x91
 11914 077c E07E     		.sleb128 -160
 11915 077e B6110000 		.4byte	.LVL531
 11916 0782 F2110000 		.4byte	.LVL538
 11917 0786 0600     		.2byte	0x6
 11918 0788 54       		.byte	0x54
 11919 0789 93       		.byte	0x93
 11920 078a 04       		.uleb128 0x4
 11921 078b 55       		.byte	0x55
 11922 078c 93       		.byte	0x93
 11923 078d 04       		.uleb128 0x4
 11924 078e F6110000 		.4byte	.LVL539
 11925 0792 FA110000 		.4byte	.LVL540
 11926 0796 0600     		.2byte	0x6
 11927 0798 54       		.byte	0x54
 11928 0799 93       		.byte	0x93
 11929 079a 04       		.uleb128 0x4
 11930 079b 55       		.byte	0x55
 11931 079c 93       		.byte	0x93
 11932 079d 04       		.uleb128 0x4
 11933 079e FA110000 		.4byte	.LVL540
 11934 07a2 04140000 		.4byte	.LFE2
 11935 07a6 0300     		.2byte	0x3
 11936 07a8 91       		.byte	0x91
 11937 07a9 C87E     		.sleb128 -184
 11938 07ab 00000000 		.4byte	0
 11939 07af 00000000 		.4byte	0
 11940              	.LLST10:
 11941 07b3 90000000 		.4byte	.LVL24
 11942 07b7 96040000 		.4byte	.LVL148
 11943 07bb 0300     		.2byte	0x3
 11944 07bd 91       		.byte	0x91
 11945 07be C87E     		.sleb128 -184
 11946 07c0 96040000 		.4byte	.LVL148
 11947 07c4 48050000 		.4byte	.LVL168
 11948 07c8 0600     		.2byte	0x6
 11949 07ca 54       		.byte	0x54
 11950 07cb 93       		.byte	0x93
 11951 07cc 04       		.uleb128 0x4
 11952 07cd 55       		.byte	0x55
 11953 07ce 93       		.byte	0x93
 11954 07cf 04       		.uleb128 0x4
 11955 07d0 50050000 		.4byte	.LVL169
 11956 07d4 5C050000 		.4byte	.LVL171
 11957 07d8 0600     		.2byte	0x6
 11958 07da 53       		.byte	0x53
 11959 07db 93       		.byte	0x93
ARM GAS  C:\Users\NIGHDR~1\AppData\Local\Temp\ccvJ0Ig2.s 			page 225


 11960 07dc 04       		.uleb128 0x4
 11961 07dd 54       		.byte	0x54
 11962 07de 93       		.byte	0x93
 11963 07df 04       		.uleb128 0x4
 11964 07e0 5C050000 		.4byte	.LVL171
 11965 07e4 DE070000 		.4byte	.LVL238
 11966 07e8 0300     		.2byte	0x3
 11967 07ea 91       		.byte	0x91
 11968 07eb A87F     		.sleb128 -88
 11969 07ed DE070000 		.4byte	.LVL238
 11970 07f1 560A0000 		.4byte	.LVL315
 11971 07f5 0600     		.2byte	0x6
 11972 07f7 54       		.byte	0x54
 11973 07f8 93       		.byte	0x93
 11974 07f9 04       		.uleb128 0x4
 11975 07fa 55       		.byte	0x55
 11976 07fb 93       		.byte	0x93
 11977 07fc 04       		.uleb128 0x4
 11978 07fd 5E0A0000 		.4byte	.LVL316
 11979 0801 620A0000 		.4byte	.LVL317
 11980 0805 0600     		.2byte	0x6
 11981 0807 53       		.byte	0x53
 11982 0808 93       		.byte	0x93
 11983 0809 04       		.uleb128 0x4
 11984 080a 54       		.byte	0x54
 11985 080b 93       		.byte	0x93
 11986 080c 04       		.uleb128 0x4
 11987 080d 620A0000 		.4byte	.LVL317
 11988 0811 000C0000 		.4byte	.LVL360
 11989 0815 0300     		.2byte	0x3
 11990 0817 91       		.byte	0x91
 11991 0818 807F     		.sleb128 -128
 11992 081a 000C0000 		.4byte	.LVL360
 11993 081e 020C0000 		.4byte	.LVL361
 11994 0822 0600     		.2byte	0x6
 11995 0824 56       		.byte	0x56
 11996 0825 93       		.byte	0x93
 11997 0826 04       		.uleb128 0x4
 11998 0827 57       		.byte	0x57
 11999 0828 93       		.byte	0x93
 12000 0829 04       		.uleb128 0x4
 12001 082a 020C0000 		.4byte	.LVL361
 12002 082e 240D0000 		.4byte	.LVL388
 12003 0832 0300     		.2byte	0x3
 12004 0834 91       		.byte	0x91
 12005 0835 E07E     		.sleb128 -160
 12006 0837 240D0000 		.4byte	.LVL388
 12007 083b 300D0000 		.4byte	.LVL389
 12008 083f 0600     		.2byte	0x6
 12009 0841 54       		.byte	0x54
 12010 0842 93       		.byte	0x93
 12011 0843 04       		.uleb128 0x4
 12012 0844 55       		.byte	0x55
 12013 0845 93       		.byte	0x93
 12014 0846 04       		.uleb128 0x4
 12015 0847 300D0000 		.4byte	.LVL389
 12016 084b 480F0000 		.4byte	.LVL453
ARM GAS  C:\Users\NIGHDR~1\AppData\Local\Temp\ccvJ0Ig2.s 			page 226


 12017 084f 0300     		.2byte	0x3
 12018 0851 91       		.byte	0x91
 12019 0852 E07E     		.sleb128 -160
 12020 0854 480F0000 		.4byte	.LVL453
 12021 0858 800F0000 		.4byte	.LVL458
 12022 085c 0600     		.2byte	0x6
 12023 085e 56       		.byte	0x56
 12024 085f 93       		.byte	0x93
 12025 0860 04       		.uleb128 0x4
 12026 0861 57       		.byte	0x57
 12027 0862 93       		.byte	0x93
 12028 0863 04       		.uleb128 0x4
 12029 0864 840F0000 		.4byte	.LVL459
 12030 0868 9A0F0000 		.4byte	.LVL462
 12031 086c 0600     		.2byte	0x6
 12032 086e 56       		.byte	0x56
 12033 086f 93       		.byte	0x93
 12034 0870 04       		.uleb128 0x4
 12035 0871 57       		.byte	0x57
 12036 0872 93       		.byte	0x93
 12037 0873 04       		.uleb128 0x4
 12038 0874 9A0F0000 		.4byte	.LVL462
 12039 0878 E2110000 		.4byte	.LVL536
 12040 087c 0300     		.2byte	0x3
 12041 087e 91       		.byte	0x91
 12042 087f C87E     		.sleb128 -184
 12043 0881 E2110000 		.4byte	.LVL536
 12044 0885 EE110000 		.4byte	.LVL537
 12045 0889 0600     		.2byte	0x6
 12046 088b 50       		.byte	0x50
 12047 088c 93       		.byte	0x93
 12048 088d 04       		.uleb128 0x4
 12049 088e 51       		.byte	0x51
 12050 088f 93       		.byte	0x93
 12051 0890 04       		.uleb128 0x4
 12052 0891 EE110000 		.4byte	.LVL537
 12053 0895 22120000 		.4byte	.LVL545
 12054 0899 0200     		.2byte	0x2
 12055 089b 7D       		.byte	0x7d
 12056 089c 00       		.sleb128 0
 12057 089d 22120000 		.4byte	.LVL545
 12058 08a1 26120000 		.4byte	.LVL546
 12059 08a5 0600     		.2byte	0x6
 12060 08a7 52       		.byte	0x52
 12061 08a8 93       		.byte	0x93
 12062 08a9 04       		.uleb128 0x4
 12063 08aa 53       		.byte	0x53
 12064 08ab 93       		.byte	0x93
 12065 08ac 04       		.uleb128 0x4
 12066 08ad 26120000 		.4byte	.LVL546
 12067 08b1 04140000 		.4byte	.LFE2
 12068 08b5 0300     		.2byte	0x3
 12069 08b7 91       		.byte	0x91
 12070 08b8 F07E     		.sleb128 -144
 12071 08ba 00000000 		.4byte	0
 12072 08be 00000000 		.4byte	0
 12073              	.LLST11:
ARM GAS  C:\Users\NIGHDR~1\AppData\Local\Temp\ccvJ0Ig2.s 			page 227


 12074 08c2 A4000000 		.4byte	.LVL26
 12075 08c6 08040000 		.4byte	.LVL130
 12076 08ca 0300     		.2byte	0x3
 12077 08cc 91       		.byte	0x91
 12078 08cd D07E     		.sleb128 -176
 12079 08cf 08040000 		.4byte	.LVL130
 12080 08d3 0A040000 		.4byte	.LVL131
 12081 08d7 0600     		.2byte	0x6
 12082 08d9 52       		.byte	0x52
 12083 08da 93       		.byte	0x93
 12084 08db 04       		.uleb128 0x4
 12085 08dc 53       		.byte	0x53
 12086 08dd 93       		.byte	0x93
 12087 08de 04       		.uleb128 0x4
 12088 08df 0A040000 		.4byte	.LVL131
 12089 08e3 AE040000 		.4byte	.LVL150
 12090 08e7 0300     		.2byte	0x3
 12091 08e9 91       		.byte	0x91
 12092 08ea D07E     		.sleb128 -176
 12093 08ec AE040000 		.4byte	.LVL150
 12094 08f0 B0040000 		.4byte	.LVL151
 12095 08f4 0600     		.2byte	0x6
 12096 08f6 52       		.byte	0x52
 12097 08f7 93       		.byte	0x93
 12098 08f8 04       		.uleb128 0x4
 12099 08f9 53       		.byte	0x53
 12100 08fa 93       		.byte	0x93
 12101 08fb 04       		.uleb128 0x4
 12102 08fc B0040000 		.4byte	.LVL151
 12103 0900 3C050000 		.4byte	.LVL166
 12104 0904 0300     		.2byte	0x3
 12105 0906 91       		.byte	0x91
 12106 0907 C87E     		.sleb128 -184
 12107 0909 3C050000 		.4byte	.LVL166
 12108 090d 44050000 		.4byte	.LVL167
 12109 0911 0600     		.2byte	0x6
 12110 0913 50       		.byte	0x50
 12111 0914 93       		.byte	0x93
 12112 0915 04       		.uleb128 0x4
 12113 0916 51       		.byte	0x51
 12114 0917 93       		.byte	0x93
 12115 0918 04       		.uleb128 0x4
 12116 0919 44050000 		.4byte	.LVL167
 12117 091d BE060000 		.4byte	.LVL207
 12118 0921 0300     		.2byte	0x3
 12119 0923 91       		.byte	0x91
 12120 0924 C87E     		.sleb128 -184
 12121 0926 BE060000 		.4byte	.LVL207
 12122 092a C4060000 		.4byte	.LVL208
 12123 092e 0600     		.2byte	0x6
 12124 0930 52       		.byte	0x52
 12125 0931 93       		.byte	0x93
 12126 0932 04       		.uleb128 0x4
 12127 0933 53       		.byte	0x53
 12128 0934 93       		.byte	0x93
 12129 0935 04       		.uleb128 0x4
 12130 0936 C4060000 		.4byte	.LVL208
ARM GAS  C:\Users\NIGHDR~1\AppData\Local\Temp\ccvJ0Ig2.s 			page 228


 12131 093a F6070000 		.4byte	.LVL240
 12132 093e 0200     		.2byte	0x2
 12133 0940 91       		.byte	0x91
 12134 0941 40       		.sleb128 -64
 12135 0942 F6070000 		.4byte	.LVL240
 12136 0946 F8070000 		.4byte	.LVL241
 12137 094a 0600     		.2byte	0x6
 12138 094c 52       		.byte	0x52
 12139 094d 93       		.byte	0x93
 12140 094e 04       		.uleb128 0x4
 12141 094f 53       		.byte	0x53
 12142 0950 93       		.byte	0x93
 12143 0951 04       		.uleb128 0x4
 12144 0952 F8070000 		.4byte	.LVL241
 12145 0956 94080000 		.4byte	.LVL259
 12146 095a 0300     		.2byte	0x3
 12147 095c 91       		.byte	0x91
 12148 095d 807F     		.sleb128 -128
 12149 095f 94080000 		.4byte	.LVL259
 12150 0963 96080000 		.4byte	.LVL260
 12151 0967 0600     		.2byte	0x6
 12152 0969 52       		.byte	0x52
 12153 096a 93       		.byte	0x93
 12154 096b 04       		.uleb128 0x4
 12155 096c 53       		.byte	0x53
 12156 096d 93       		.byte	0x93
 12157 096e 04       		.uleb128 0x4
 12158 096f 96080000 		.4byte	.LVL260
 12159 0973 30090000 		.4byte	.LVL278
 12160 0977 0300     		.2byte	0x3
 12161 0979 91       		.byte	0x91
 12162 097a 807F     		.sleb128 -128
 12163 097c 30090000 		.4byte	.LVL278
 12164 0980 32090000 		.4byte	.LVL279
 12165 0984 0600     		.2byte	0x6
 12166 0986 52       		.byte	0x52
 12167 0987 93       		.byte	0x93
 12168 0988 04       		.uleb128 0x4
 12169 0989 53       		.byte	0x53
 12170 098a 93       		.byte	0x93
 12171 098b 04       		.uleb128 0x4
 12172 098c 32090000 		.4byte	.LVL279
 12173 0990 CE090000 		.4byte	.LVL297
 12174 0994 0300     		.2byte	0x3
 12175 0996 91       		.byte	0x91
 12176 0997 F87E     		.sleb128 -136
 12177 0999 CE090000 		.4byte	.LVL297
 12178 099d D0090000 		.4byte	.LVL298
 12179 09a1 0600     		.2byte	0x6
 12180 09a3 52       		.byte	0x52
 12181 09a4 93       		.byte	0x93
 12182 09a5 04       		.uleb128 0x4
 12183 09a6 53       		.byte	0x53
 12184 09a7 93       		.byte	0x93
 12185 09a8 04       		.uleb128 0x4
 12186 09a9 D0090000 		.4byte	.LVL298
 12187 09ad EC0B0000 		.4byte	.LVL358
ARM GAS  C:\Users\NIGHDR~1\AppData\Local\Temp\ccvJ0Ig2.s 			page 229


 12188 09b1 0300     		.2byte	0x3
 12189 09b3 91       		.byte	0x91
 12190 09b4 F87E     		.sleb128 -136
 12191 09b6 EC0B0000 		.4byte	.LVL358
 12192 09ba F40B0000 		.4byte	.LVL359
 12193 09be 0600     		.2byte	0x6
 12194 09c0 50       		.byte	0x50
 12195 09c1 93       		.byte	0x93
 12196 09c2 04       		.uleb128 0x4
 12197 09c3 51       		.byte	0x51
 12198 09c4 93       		.byte	0x93
 12199 09c5 04       		.uleb128 0x4
 12200 09c6 F40B0000 		.4byte	.LVL359
 12201 09ca 740D0000 		.4byte	.LVL397
 12202 09ce 0300     		.2byte	0x3
 12203 09d0 91       		.byte	0x91
 12204 09d1 C87E     		.sleb128 -184
 12205 09d3 740D0000 		.4byte	.LVL397
 12206 09d7 820D0000 		.4byte	.LVL398
 12207 09db 0600     		.2byte	0x6
 12208 09dd 50       		.byte	0x50
 12209 09de 93       		.byte	0x93
 12210 09df 04       		.uleb128 0x4
 12211 09e0 51       		.byte	0x51
 12212 09e1 93       		.byte	0x93
 12213 09e2 04       		.uleb128 0x4
 12214 09e3 820D0000 		.4byte	.LVL398
 12215 09e7 700F0000 		.4byte	.LVL457
 12216 09eb 0300     		.2byte	0x3
 12217 09ed 91       		.byte	0x91
 12218 09ee C87E     		.sleb128 -184
 12219 09f0 700F0000 		.4byte	.LVL457
 12220 09f4 AC0F0000 		.4byte	.LVL464
 12221 09f8 0600     		.2byte	0x6
 12222 09fa 54       		.byte	0x54
 12223 09fb 93       		.byte	0x93
 12224 09fc 04       		.uleb128 0x4
 12225 09fd 55       		.byte	0x55
 12226 09fe 93       		.byte	0x93
 12227 09ff 04       		.uleb128 0x4
 12228 0a00 AC0F0000 		.4byte	.LVL464
 12229 0a04 B00F0000 		.4byte	.LVL465
 12230 0a08 0200     		.2byte	0x2
 12231 0a0a 7D       		.byte	0x7d
 12232 0a0b 00       		.sleb128 0
 12233 0a0c B00F0000 		.4byte	.LVL465
 12234 0a10 DC0F0000 		.4byte	.LVL472
 12235 0a14 0600     		.2byte	0x6
 12236 0a16 54       		.byte	0x54
 12237 0a17 93       		.byte	0x93
 12238 0a18 04       		.uleb128 0x4
 12239 0a19 55       		.byte	0x55
 12240 0a1a 93       		.byte	0x93
 12241 0a1b 04       		.uleb128 0x4
 12242 0a1c DC0F0000 		.4byte	.LVL472
 12243 0a20 0A120000 		.4byte	.LVL543
 12244 0a24 0300     		.2byte	0x3
ARM GAS  C:\Users\NIGHDR~1\AppData\Local\Temp\ccvJ0Ig2.s 			page 230


 12245 0a26 91       		.byte	0x91
 12246 0a27 F87E     		.sleb128 -136
 12247 0a29 0A120000 		.4byte	.LVL543
 12248 0a2d 46120000 		.4byte	.LVL550
 12249 0a31 0600     		.2byte	0x6
 12250 0a33 54       		.byte	0x54
 12251 0a34 93       		.byte	0x93
 12252 0a35 04       		.uleb128 0x4
 12253 0a36 55       		.byte	0x55
 12254 0a37 93       		.byte	0x93
 12255 0a38 04       		.uleb128 0x4
 12256 0a39 4E120000 		.4byte	.LVL551
 12257 0a3d 5A120000 		.4byte	.LVL553
 12258 0a41 0600     		.2byte	0x6
 12259 0a43 53       		.byte	0x53
 12260 0a44 93       		.byte	0x93
 12261 0a45 04       		.uleb128 0x4
 12262 0a46 54       		.byte	0x54
 12263 0a47 93       		.byte	0x93
 12264 0a48 04       		.uleb128 0x4
 12265 0a49 5A120000 		.4byte	.LVL553
 12266 0a4d 04140000 		.4byte	.LFE2
 12267 0a51 0300     		.2byte	0x3
 12268 0a53 91       		.byte	0x91
 12269 0a54 D07E     		.sleb128 -176
 12270 0a56 00000000 		.4byte	0
 12271 0a5a 00000000 		.4byte	0
 12272              	.LLST12:
 12273 0a5e B6000000 		.4byte	.LVL28
 12274 0a62 7C030000 		.4byte	.LVL114
 12275 0a66 0300     		.2byte	0x3
 12276 0a68 91       		.byte	0x91
 12277 0a69 887F     		.sleb128 -120
 12278 0a6b 7C030000 		.4byte	.LVL114
 12279 0a6f 18040000 		.4byte	.LVL133
 12280 0a73 0600     		.2byte	0x6
 12281 0a75 54       		.byte	0x54
 12282 0a76 93       		.byte	0x93
 12283 0a77 04       		.uleb128 0x4
 12284 0a78 55       		.byte	0x55
 12285 0a79 93       		.byte	0x93
 12286 0a7a 04       		.uleb128 0x4
 12287 0a7b 1C040000 		.4byte	.LVL134
 12288 0a7f 52040000 		.4byte	.LVL141
 12289 0a83 0600     		.2byte	0x6
 12290 0a85 54       		.byte	0x54
 12291 0a86 93       		.byte	0x93
 12292 0a87 04       		.uleb128 0x4
 12293 0a88 55       		.byte	0x55
 12294 0a89 93       		.byte	0x93
 12295 0a8a 04       		.uleb128 0x4
 12296 0a8b 52040000 		.4byte	.LVL141
 12297 0a8f C8040000 		.4byte	.LVL155
 12298 0a93 0300     		.2byte	0x3
 12299 0a95 91       		.byte	0x91
 12300 0a96 A87F     		.sleb128 -88
 12301 0a98 C8040000 		.4byte	.LVL155
ARM GAS  C:\Users\NIGHDR~1\AppData\Local\Temp\ccvJ0Ig2.s 			page 231


 12302 0a9c A0050000 		.4byte	.LVL174
 12303 0aa0 0600     		.2byte	0x6
 12304 0aa2 56       		.byte	0x56
 12305 0aa3 93       		.byte	0x93
 12306 0aa4 04       		.uleb128 0x4
 12307 0aa5 57       		.byte	0x57
 12308 0aa6 93       		.byte	0x93
 12309 0aa7 04       		.uleb128 0x4
 12310 0aa8 A4050000 		.4byte	.LVL175
 12311 0aac AE050000 		.4byte	.LVL177
 12312 0ab0 0600     		.2byte	0x6
 12313 0ab2 56       		.byte	0x56
 12314 0ab3 93       		.byte	0x93
 12315 0ab4 04       		.uleb128 0x4
 12316 0ab5 57       		.byte	0x57
 12317 0ab6 93       		.byte	0x93
 12318 0ab7 04       		.uleb128 0x4
 12319 0ab8 AE050000 		.4byte	.LVL177
 12320 0abc A6060000 		.4byte	.LVL204
 12321 0ac0 0300     		.2byte	0x3
 12322 0ac2 91       		.byte	0x91
 12323 0ac3 907F     		.sleb128 -112
 12324 0ac5 A6060000 		.4byte	.LVL204
 12325 0ac9 B2060000 		.4byte	.LVL205
 12326 0acd 0600     		.2byte	0x6
 12327 0acf 50       		.byte	0x50
 12328 0ad0 93       		.byte	0x93
 12329 0ad1 04       		.uleb128 0x4
 12330 0ad2 51       		.byte	0x51
 12331 0ad3 93       		.byte	0x93
 12332 0ad4 04       		.uleb128 0x4
 12333 0ad5 B2060000 		.4byte	.LVL205
 12334 0ad9 10080000 		.4byte	.LVL243
 12335 0add 0300     		.2byte	0x3
 12336 0adf 91       		.byte	0x91
 12337 0ae0 907F     		.sleb128 -112
 12338 0ae2 10080000 		.4byte	.LVL243
 12339 0ae6 12080000 		.4byte	.LVL244
 12340 0aea 0600     		.2byte	0x6
 12341 0aec 52       		.byte	0x52
 12342 0aed 93       		.byte	0x93
 12343 0aee 04       		.uleb128 0x4
 12344 0aef 53       		.byte	0x53
 12345 0af0 93       		.byte	0x93
 12346 0af1 04       		.uleb128 0x4
 12347 0af2 12080000 		.4byte	.LVL244
 12348 0af6 AC080000 		.4byte	.LVL262
 12349 0afa 0300     		.2byte	0x3
 12350 0afc 91       		.byte	0x91
 12351 0afd 907F     		.sleb128 -112
 12352 0aff AC080000 		.4byte	.LVL262
 12353 0b03 AE080000 		.4byte	.LVL263
 12354 0b07 0600     		.2byte	0x6
 12355 0b09 52       		.byte	0x52
 12356 0b0a 93       		.byte	0x93
 12357 0b0b 04       		.uleb128 0x4
 12358 0b0c 53       		.byte	0x53
ARM GAS  C:\Users\NIGHDR~1\AppData\Local\Temp\ccvJ0Ig2.s 			page 232


 12359 0b0d 93       		.byte	0x93
 12360 0b0e 04       		.uleb128 0x4
 12361 0b0f AE080000 		.4byte	.LVL263
 12362 0b13 4A090000 		.4byte	.LVL281
 12363 0b17 0300     		.2byte	0x3
 12364 0b19 91       		.byte	0x91
 12365 0b1a 907F     		.sleb128 -112
 12366 0b1c 4A090000 		.4byte	.LVL281
 12367 0b20 4C090000 		.4byte	.LVL282
 12368 0b24 0600     		.2byte	0x6
 12369 0b26 52       		.byte	0x52
 12370 0b27 93       		.byte	0x93
 12371 0b28 04       		.uleb128 0x4
 12372 0b29 53       		.byte	0x53
 12373 0b2a 93       		.byte	0x93
 12374 0b2b 04       		.uleb128 0x4
 12375 0b2c 4C090000 		.4byte	.LVL282
 12376 0b30 280C0000 		.4byte	.LVL364
 12377 0b34 0300     		.2byte	0x3
 12378 0b36 91       		.byte	0x91
 12379 0b37 D07E     		.sleb128 -176
 12380 0b39 280C0000 		.4byte	.LVL364
 12381 0b3d 3C0C0000 		.4byte	.LVL367
 12382 0b41 0600     		.2byte	0x6
 12383 0b43 54       		.byte	0x54
 12384 0b44 93       		.byte	0x93
 12385 0b45 04       		.uleb128 0x4
 12386 0b46 55       		.byte	0x55
 12387 0b47 93       		.byte	0x93
 12388 0b48 04       		.uleb128 0x4
 12389 0b49 3C0C0000 		.4byte	.LVL367
 12390 0b4d 460C0000 		.4byte	.LVL368
 12391 0b51 0600     		.2byte	0x6
 12392 0b53 52       		.byte	0x52
 12393 0b54 93       		.byte	0x93
 12394 0b55 04       		.uleb128 0x4
 12395 0b56 53       		.byte	0x53
 12396 0b57 93       		.byte	0x93
 12397 0b58 04       		.uleb128 0x4
 12398 0b59 460C0000 		.4byte	.LVL368
 12399 0b5d 5C0D0000 		.4byte	.LVL394
 12400 0b61 0300     		.2byte	0x3
 12401 0b63 91       		.byte	0x91
 12402 0b64 F87E     		.sleb128 -136
 12403 0b66 5C0D0000 		.4byte	.LVL394
 12404 0b6a 680D0000 		.4byte	.LVL395
 12405 0b6e 0600     		.2byte	0x6
 12406 0b70 54       		.byte	0x54
 12407 0b71 93       		.byte	0x93
 12408 0b72 04       		.uleb128 0x4
 12409 0b73 55       		.byte	0x55
 12410 0b74 93       		.byte	0x93
 12411 0b75 04       		.uleb128 0x4
 12412 0b76 680D0000 		.4byte	.LVL395
 12413 0b7a 9C0F0000 		.4byte	.LVL463
 12414 0b7e 0300     		.2byte	0x3
 12415 0b80 91       		.byte	0x91
ARM GAS  C:\Users\NIGHDR~1\AppData\Local\Temp\ccvJ0Ig2.s 			page 233


 12416 0b81 F87E     		.sleb128 -136
 12417 0b83 9C0F0000 		.4byte	.LVL463
 12418 0b87 D40F0000 		.4byte	.LVL470
 12419 0b8b 0600     		.2byte	0x6
 12420 0b8d 56       		.byte	0x56
 12421 0b8e 93       		.byte	0x93
 12422 0b8f 04       		.uleb128 0x4
 12423 0b90 57       		.byte	0x57
 12424 0b91 93       		.byte	0x93
 12425 0b92 04       		.uleb128 0x4
 12426 0b93 D80F0000 		.4byte	.LVL471
 12427 0b97 E80F0000 		.4byte	.LVL475
 12428 0b9b 0600     		.2byte	0x6
 12429 0b9d 56       		.byte	0x56
 12430 0b9e 93       		.byte	0x93
 12431 0b9f 04       		.uleb128 0x4
 12432 0ba0 57       		.byte	0x57
 12433 0ba1 93       		.byte	0x93
 12434 0ba2 04       		.uleb128 0x4
 12435 0ba3 E80F0000 		.4byte	.LVL475
 12436 0ba7 36120000 		.4byte	.LVL549
 12437 0bab 0300     		.2byte	0x3
 12438 0bad 91       		.byte	0x91
 12439 0bae D07E     		.sleb128 -176
 12440 0bb0 36120000 		.4byte	.LVL549
 12441 0bb4 7A120000 		.4byte	.LVL556
 12442 0bb8 0600     		.2byte	0x6
 12443 0bba 56       		.byte	0x56
 12444 0bbb 93       		.byte	0x93
 12445 0bbc 04       		.uleb128 0x4
 12446 0bbd 57       		.byte	0x57
 12447 0bbe 93       		.byte	0x93
 12448 0bbf 04       		.uleb128 0x4
 12449 0bc0 7A120000 		.4byte	.LVL556
 12450 0bc4 7E120000 		.4byte	.LVL557
 12451 0bc8 0600     		.2byte	0x6
 12452 0bca 52       		.byte	0x52
 12453 0bcb 93       		.byte	0x93
 12454 0bcc 04       		.uleb128 0x4
 12455 0bcd 53       		.byte	0x53
 12456 0bce 93       		.byte	0x93
 12457 0bcf 04       		.uleb128 0x4
 12458 0bd0 7E120000 		.4byte	.LVL557
 12459 0bd4 FE130000 		.4byte	.LVL569
 12460 0bd8 0200     		.2byte	0x2
 12461 0bda 7D       		.byte	0x7d
 12462 0bdb 00       		.sleb128 0
 12463 0bdc FE130000 		.4byte	.LVL569
 12464 0be0 FE130000 		.4byte	.LVL570
 12465 0be4 0600     		.2byte	0x6
 12466 0be6 55       		.byte	0x55
 12467 0be7 93       		.byte	0x93
 12468 0be8 04       		.uleb128 0x4
 12469 0be9 56       		.byte	0x56
 12470 0bea 93       		.byte	0x93
 12471 0beb 04       		.uleb128 0x4
 12472 0bec FE130000 		.4byte	.LVL570
ARM GAS  C:\Users\NIGHDR~1\AppData\Local\Temp\ccvJ0Ig2.s 			page 234


 12473 0bf0 04140000 		.4byte	.LFE2
 12474 0bf4 0300     		.2byte	0x3
 12475 0bf6 91       		.byte	0x91
 12476 0bf7 B07E     		.sleb128 -208
 12477 0bf9 00000000 		.4byte	0
 12478 0bfd 00000000 		.4byte	0
 12479              	.LLST13:
 12480 0c01 CA000000 		.4byte	.LVL30
 12481 0c05 F8020000 		.4byte	.LVL96
 12482 0c09 0300     		.2byte	0x3
 12483 0c0b 91       		.byte	0x91
 12484 0c0c 907F     		.sleb128 -112
 12485 0c0e F8020000 		.4byte	.LVL96
 12486 0c12 FA020000 		.4byte	.LVL97
 12487 0c16 0600     		.2byte	0x6
 12488 0c18 52       		.byte	0x52
 12489 0c19 93       		.byte	0x93
 12490 0c1a 04       		.uleb128 0x4
 12491 0c1b 53       		.byte	0x53
 12492 0c1c 93       		.byte	0x93
 12493 0c1d 04       		.uleb128 0x4
 12494 0c1e FA020000 		.4byte	.LVL97
 12495 0c22 94030000 		.4byte	.LVL116
 12496 0c26 0300     		.2byte	0x3
 12497 0c28 91       		.byte	0x91
 12498 0c29 C07E     		.sleb128 -192
 12499 0c2b 94030000 		.4byte	.LVL116
 12500 0c2f 96030000 		.4byte	.LVL117
 12501 0c33 0600     		.2byte	0x6
 12502 0c35 52       		.byte	0x52
 12503 0c36 93       		.byte	0x93
 12504 0c37 04       		.uleb128 0x4
 12505 0c38 53       		.byte	0x53
 12506 0c39 93       		.byte	0x93
 12507 0c3a 04       		.uleb128 0x4
 12508 0c3b 96030000 		.4byte	.LVL117
 12509 0c3f 36040000 		.4byte	.LVL136
 12510 0c43 0300     		.2byte	0x3
 12511 0c45 91       		.byte	0x91
 12512 0c46 C07E     		.sleb128 -192
 12513 0c48 36040000 		.4byte	.LVL136
 12514 0c4c 3A040000 		.4byte	.LVL137
 12515 0c50 0600     		.2byte	0x6
 12516 0c52 53       		.byte	0x53
 12517 0c53 93       		.byte	0x93
 12518 0c54 04       		.uleb128 0x4
 12519 0c55 54       		.byte	0x54
 12520 0c56 93       		.byte	0x93
 12521 0c57 04       		.uleb128 0x4
 12522 0c58 3A040000 		.4byte	.LVL137
 12523 0c5c E4040000 		.4byte	.LVL157
 12524 0c60 0300     		.2byte	0x3
 12525 0c62 91       		.byte	0x91
 12526 0c63 C07E     		.sleb128 -192
 12527 0c65 E4040000 		.4byte	.LVL157
 12528 0c69 E6040000 		.4byte	.LVL158
 12529 0c6d 0600     		.2byte	0x6
ARM GAS  C:\Users\NIGHDR~1\AppData\Local\Temp\ccvJ0Ig2.s 			page 235


 12530 0c6f 52       		.byte	0x52
 12531 0c70 93       		.byte	0x93
 12532 0c71 04       		.uleb128 0x4
 12533 0c72 53       		.byte	0x53
 12534 0c73 93       		.byte	0x93
 12535 0c74 04       		.uleb128 0x4
 12536 0c75 E6040000 		.4byte	.LVL158
 12537 0c79 7A050000 		.4byte	.LVL173
 12538 0c7d 0300     		.2byte	0x3
 12539 0c7f 91       		.byte	0x91
 12540 0c80 907F     		.sleb128 -112
 12541 0c82 7A050000 		.4byte	.LVL173
 12542 0c86 50060000 		.4byte	.LVL195
 12543 0c8a 0600     		.2byte	0x6
 12544 0c8c 54       		.byte	0x54
 12545 0c8d 93       		.byte	0x93
 12546 0c8e 04       		.uleb128 0x4
 12547 0c8f 55       		.byte	0x55
 12548 0c90 93       		.byte	0x93
 12549 0c91 04       		.uleb128 0x4
 12550 0c92 50060000 		.4byte	.LVL195
 12551 0c96 F8060000 		.4byte	.LVL212
 12552 0c9a 0300     		.2byte	0x3
 12553 0c9c 91       		.byte	0x91
 12554 0c9d D07E     		.sleb128 -176
 12555 0c9f F8060000 		.4byte	.LVL212
 12556 0ca3 06070000 		.4byte	.LVL214
 12557 0ca7 0600     		.2byte	0x6
 12558 0ca9 54       		.byte	0x54
 12559 0caa 93       		.byte	0x93
 12560 0cab 04       		.uleb128 0x4
 12561 0cac 55       		.byte	0x55
 12562 0cad 93       		.byte	0x93
 12563 0cae 04       		.uleb128 0x4
 12564 0caf 06070000 		.4byte	.LVL214
 12565 0cb3 28080000 		.4byte	.LVL246
 12566 0cb7 0200     		.2byte	0x2
 12567 0cb9 91       		.byte	0x91
 12568 0cba 50       		.sleb128 -48
 12569 0cbb 28080000 		.4byte	.LVL246
 12570 0cbf 2A080000 		.4byte	.LVL247
 12571 0cc3 0600     		.2byte	0x6
 12572 0cc5 52       		.byte	0x52
 12573 0cc6 93       		.byte	0x93
 12574 0cc7 04       		.uleb128 0x4
 12575 0cc8 53       		.byte	0x53
 12576 0cc9 93       		.byte	0x93
 12577 0cca 04       		.uleb128 0x4
 12578 0ccb 2A080000 		.4byte	.LVL247
 12579 0ccf C6080000 		.4byte	.LVL265
 12580 0cd3 0300     		.2byte	0x3
 12581 0cd5 91       		.byte	0x91
 12582 0cd6 987F     		.sleb128 -104
 12583 0cd8 C6080000 		.4byte	.LVL265
 12584 0cdc C8080000 		.4byte	.LVL266
 12585 0ce0 0600     		.2byte	0x6
 12586 0ce2 52       		.byte	0x52
ARM GAS  C:\Users\NIGHDR~1\AppData\Local\Temp\ccvJ0Ig2.s 			page 236


 12587 0ce3 93       		.byte	0x93
 12588 0ce4 04       		.uleb128 0x4
 12589 0ce5 53       		.byte	0x53
 12590 0ce6 93       		.byte	0x93
 12591 0ce7 04       		.uleb128 0x4
 12592 0ce8 C8080000 		.4byte	.LVL266
 12593 0cec 280C0000 		.4byte	.LVL364
 12594 0cf0 0300     		.2byte	0x3
 12595 0cf2 91       		.byte	0x91
 12596 0cf3 987F     		.sleb128 -104
 12597 0cf5 280C0000 		.4byte	.LVL364
 12598 0cf9 2A0C0000 		.4byte	.LVL365
 12599 0cfd 0600     		.2byte	0x6
 12600 0cff 56       		.byte	0x56
 12601 0d00 93       		.byte	0x93
 12602 0d01 04       		.uleb128 0x4
 12603 0d02 57       		.byte	0x57
 12604 0d03 93       		.byte	0x93
 12605 0d04 04       		.uleb128 0x4
 12606 0d05 2A0C0000 		.4byte	.LVL365
 12607 0d09 AC0D0000 		.4byte	.LVL403
 12608 0d0d 0300     		.2byte	0x3
 12609 0d0f 91       		.byte	0x91
 12610 0d10 D07E     		.sleb128 -176
 12611 0d12 AC0D0000 		.4byte	.LVL403
 12612 0d16 B20D0000 		.4byte	.LVL404
 12613 0d1a 0600     		.2byte	0x6
 12614 0d1c 50       		.byte	0x50
 12615 0d1d 93       		.byte	0x93
 12616 0d1e 04       		.uleb128 0x4
 12617 0d1f 51       		.byte	0x51
 12618 0d20 93       		.byte	0x93
 12619 0d21 04       		.uleb128 0x4
 12620 0d22 B20D0000 		.4byte	.LVL404
 12621 0d26 C40F0000 		.4byte	.LVL468
 12622 0d2a 0300     		.2byte	0x3
 12623 0d2c 91       		.byte	0x91
 12624 0d2d D07E     		.sleb128 -176
 12625 0d2f C40F0000 		.4byte	.LVL468
 12626 0d33 D00F0000 		.4byte	.LVL469
 12627 0d37 0600     		.2byte	0x6
 12628 0d39 50       		.byte	0x50
 12629 0d3a 93       		.byte	0x93
 12630 0d3b 04       		.uleb128 0x4
 12631 0d3c 51       		.byte	0x51
 12632 0d3d 93       		.byte	0x93
 12633 0d3e 04       		.uleb128 0x4
 12634 0d3f D00F0000 		.4byte	.LVL469
 12635 0d43 00100000 		.4byte	.LVL477
 12636 0d47 0200     		.2byte	0x2
 12637 0d49 7D       		.byte	0x7d
 12638 0d4a 00       		.sleb128 0
 12639 0d4b 00100000 		.4byte	.LVL477
 12640 0d4f 04100000 		.4byte	.LVL478
 12641 0d53 0600     		.2byte	0x6
 12642 0d55 54       		.byte	0x54
 12643 0d56 93       		.byte	0x93
ARM GAS  C:\Users\NIGHDR~1\AppData\Local\Temp\ccvJ0Ig2.s 			page 237


 12644 0d57 04       		.uleb128 0x4
 12645 0d58 55       		.byte	0x55
 12646 0d59 93       		.byte	0x93
 12647 0d5a 04       		.uleb128 0x4
 12648 0d5b 04100000 		.4byte	.LVL478
 12649 0d5f 62120000 		.4byte	.LVL554
 12650 0d63 0300     		.2byte	0x3
 12651 0d65 91       		.byte	0x91
 12652 0d66 887F     		.sleb128 -120
 12653 0d68 62120000 		.4byte	.LVL554
 12654 0d6c 9E120000 		.4byte	.LVL560
 12655 0d70 0600     		.2byte	0x6
 12656 0d72 54       		.byte	0x54
 12657 0d73 93       		.byte	0x93
 12658 0d74 04       		.uleb128 0x4
 12659 0d75 55       		.byte	0x55
 12660 0d76 93       		.byte	0x93
 12661 0d77 04       		.uleb128 0x4
 12662 0d78 A6120000 		.4byte	.LVL561
 12663 0d7c B2120000 		.4byte	.LVL563
 12664 0d80 0600     		.2byte	0x6
 12665 0d82 53       		.byte	0x53
 12666 0d83 93       		.byte	0x93
 12667 0d84 04       		.uleb128 0x4
 12668 0d85 54       		.byte	0x54
 12669 0d86 93       		.byte	0x93
 12670 0d87 04       		.uleb128 0x4
 12671 0d88 B2120000 		.4byte	.LVL563
 12672 0d8c 04140000 		.4byte	.LFE2
 12673 0d90 0300     		.2byte	0x3
 12674 0d92 91       		.byte	0x91
 12675 0d93 807F     		.sleb128 -128
 12676 0d95 00000000 		.4byte	0
 12677 0d99 00000000 		.4byte	0
 12678              	.LLST14:
 12679 0d9d DE000000 		.4byte	.LVL32
 12680 0da1 6C020000 		.4byte	.LVL80
 12681 0da5 0300     		.2byte	0x3
 12682 0da7 91       		.byte	0x91
 12683 0da8 987F     		.sleb128 -104
 12684 0daa 6C020000 		.4byte	.LVL80
 12685 0dae 48040000 		.4byte	.LVL139
 12686 0db2 0600     		.2byte	0x6
 12687 0db4 56       		.byte	0x56
 12688 0db5 93       		.byte	0x93
 12689 0db6 04       		.uleb128 0x4
 12690 0db7 57       		.byte	0x57
 12691 0db8 93       		.byte	0x93
 12692 0db9 04       		.uleb128 0x4
 12693 0dba 4C040000 		.4byte	.LVL140
 12694 0dbe C0040000 		.4byte	.LVL154
 12695 0dc2 0600     		.2byte	0x6
 12696 0dc4 56       		.byte	0x56
 12697 0dc5 93       		.byte	0x93
 12698 0dc6 04       		.uleb128 0x4
 12699 0dc7 57       		.byte	0x57
 12700 0dc8 93       		.byte	0x93
ARM GAS  C:\Users\NIGHDR~1\AppData\Local\Temp\ccvJ0Ig2.s 			page 238


 12701 0dc9 04       		.uleb128 0x4
 12702 0dca C0040000 		.4byte	.LVL154
 12703 0dce FC040000 		.4byte	.LVL160
 12704 0dd2 0300     		.2byte	0x3
 12705 0dd4 91       		.byte	0x91
 12706 0dd5 B07F     		.sleb128 -80
 12707 0dd7 FC040000 		.4byte	.LVL160
 12708 0ddb FE040000 		.4byte	.LVL161
 12709 0ddf 0600     		.2byte	0x6
 12710 0de1 52       		.byte	0x52
 12711 0de2 93       		.byte	0x93
 12712 0de3 04       		.uleb128 0x4
 12713 0de4 53       		.byte	0x53
 12714 0de5 93       		.byte	0x93
 12715 0de6 04       		.uleb128 0x4
 12716 0de7 FE040000 		.4byte	.LVL161
 12717 0deb DE050000 		.4byte	.LVL181
 12718 0def 0300     		.2byte	0x3
 12719 0df1 91       		.byte	0x91
 12720 0df2 C07E     		.sleb128 -192
 12721 0df4 DE050000 		.4byte	.LVL181
 12722 0df8 F2050000 		.4byte	.LVL183
 12723 0dfc 0600     		.2byte	0x6
 12724 0dfe 52       		.byte	0x52
 12725 0dff 93       		.byte	0x93
 12726 0e00 04       		.uleb128 0x4
 12727 0e01 53       		.byte	0x53
 12728 0e02 93       		.byte	0x93
 12729 0e03 04       		.uleb128 0x4
 12730 0e04 F2050000 		.4byte	.LVL183
 12731 0e08 E4060000 		.4byte	.LVL210
 12732 0e0c 0300     		.2byte	0x3
 12733 0e0e 91       		.byte	0x91
 12734 0e0f C07E     		.sleb128 -192
 12735 0e11 E4060000 		.4byte	.LVL210
 12736 0e15 F0060000 		.4byte	.LVL211
 12737 0e19 0600     		.2byte	0x6
 12738 0e1b 50       		.byte	0x50
 12739 0e1c 93       		.byte	0x93
 12740 0e1d 04       		.uleb128 0x4
 12741 0e1e 51       		.byte	0x51
 12742 0e1f 93       		.byte	0x93
 12743 0e20 04       		.uleb128 0x4
 12744 0e21 F0060000 		.4byte	.LVL211
 12745 0e25 42080000 		.4byte	.LVL249
 12746 0e29 0200     		.2byte	0x2
 12747 0e2b 91       		.byte	0x91
 12748 0e2c 48       		.sleb128 -56
 12749 0e2d 42080000 		.4byte	.LVL249
 12750 0e31 44080000 		.4byte	.LVL250
 12751 0e35 0600     		.2byte	0x6
 12752 0e37 52       		.byte	0x52
 12753 0e38 93       		.byte	0x93
 12754 0e39 04       		.uleb128 0x4
 12755 0e3a 53       		.byte	0x53
 12756 0e3b 93       		.byte	0x93
 12757 0e3c 04       		.uleb128 0x4
ARM GAS  C:\Users\NIGHDR~1\AppData\Local\Temp\ccvJ0Ig2.s 			page 239


 12758 0e3d 44080000 		.4byte	.LVL250
 12759 0e41 760C0000 		.4byte	.LVL372
 12760 0e45 0200     		.2byte	0x2
 12761 0e47 7D       		.byte	0x7d
 12762 0e48 00       		.sleb128 0
 12763 0e49 760C0000 		.4byte	.LVL372
 12764 0e4d 7C0C0000 		.4byte	.LVL373
 12765 0e51 0600     		.2byte	0x6
 12766 0e53 52       		.byte	0x52
 12767 0e54 93       		.byte	0x93
 12768 0e55 04       		.uleb128 0x4
 12769 0e56 53       		.byte	0x53
 12770 0e57 93       		.byte	0x93
 12771 0e58 04       		.uleb128 0x4
 12772 0e59 7C0C0000 		.4byte	.LVL373
 12773 0e5d 940D0000 		.4byte	.LVL400
 12774 0e61 0200     		.2byte	0x2
 12775 0e63 7D       		.byte	0x7d
 12776 0e64 00       		.sleb128 0
 12777 0e65 940D0000 		.4byte	.LVL400
 12778 0e69 A00D0000 		.4byte	.LVL401
 12779 0e6d 0600     		.2byte	0x6
 12780 0e6f 54       		.byte	0x54
 12781 0e70 93       		.byte	0x93
 12782 0e71 04       		.uleb128 0x4
 12783 0e72 55       		.byte	0x55
 12784 0e73 93       		.byte	0x93
 12785 0e74 04       		.uleb128 0x4
 12786 0e75 A00D0000 		.4byte	.LVL401
 12787 0e79 EC0F0000 		.4byte	.LVL476
 12788 0e7d 0300     		.2byte	0x3
 12789 0e7f 91       		.byte	0x91
 12790 0e80 907F     		.sleb128 -112
 12791 0e82 EC0F0000 		.4byte	.LVL476
 12792 0e86 28100000 		.4byte	.LVL482
 12793 0e8a 0600     		.2byte	0x6
 12794 0e8c 56       		.byte	0x56
 12795 0e8d 93       		.byte	0x93
 12796 0e8e 04       		.uleb128 0x4
 12797 0e8f 57       		.byte	0x57
 12798 0e90 93       		.byte	0x93
 12799 0e91 04       		.uleb128 0x4
 12800 0e92 30100000 		.4byte	.LVL483
 12801 0e96 3A100000 		.4byte	.LVL485
 12802 0e9a 0600     		.2byte	0x6
 12803 0e9c 56       		.byte	0x56
 12804 0e9d 93       		.byte	0x93
 12805 0e9e 04       		.uleb128 0x4
 12806 0e9f 57       		.byte	0x57
 12807 0ea0 93       		.byte	0x93
 12808 0ea1 04       		.uleb128 0x4
 12809 0ea2 3A100000 		.4byte	.LVL485
 12810 0ea6 8E120000 		.4byte	.LVL559
 12811 0eaa 0300     		.2byte	0x3
 12812 0eac 91       		.byte	0x91
 12813 0ead 807F     		.sleb128 -128
 12814 0eaf 8E120000 		.4byte	.LVL559
ARM GAS  C:\Users\NIGHDR~1\AppData\Local\Temp\ccvJ0Ig2.s 			page 240


 12815 0eb3 CE120000 		.4byte	.LVL567
 12816 0eb7 0600     		.2byte	0x6
 12817 0eb9 56       		.byte	0x56
 12818 0eba 93       		.byte	0x93
 12819 0ebb 04       		.uleb128 0x4
 12820 0ebc 57       		.byte	0x57
 12821 0ebd 93       		.byte	0x93
 12822 0ebe 04       		.uleb128 0x4
 12823 0ebf CE120000 		.4byte	.LVL567
 12824 0ec3 EC130000 		.4byte	.LVL568
 12825 0ec7 0600     		.2byte	0x6
 12826 0ec9 52       		.byte	0x52
 12827 0eca 93       		.byte	0x93
 12828 0ecb 04       		.uleb128 0x4
 12829 0ecc 53       		.byte	0x53
 12830 0ecd 93       		.byte	0x93
 12831 0ece 04       		.uleb128 0x4
 12832 0ecf 00000000 		.4byte	0
 12833 0ed3 00000000 		.4byte	0
 12834              	.LLST15:
 12835 0ed7 F2000000 		.4byte	.LVL34
 12836 0edb E0010000 		.4byte	.LVL62
 12837 0edf 0300     		.2byte	0x3
 12838 0ee1 91       		.byte	0x91
 12839 0ee2 A07F     		.sleb128 -96
 12840 0ee4 E0010000 		.4byte	.LVL62
 12841 0ee8 E4010000 		.4byte	.LVL63
 12842 0eec 0600     		.2byte	0x6
 12843 0eee 53       		.byte	0x53
 12844 0eef 93       		.byte	0x93
 12845 0ef0 04       		.uleb128 0x4
 12846 0ef1 54       		.byte	0x54
 12847 0ef2 93       		.byte	0x93
 12848 0ef3 04       		.uleb128 0x4
 12849 0ef4 E4010000 		.4byte	.LVL63
 12850 0ef8 84020000 		.4byte	.LVL82
 12851 0efc 0200     		.2byte	0x2
 12852 0efe 91       		.byte	0x91
 12853 0eff 60       		.sleb128 -32
 12854 0f00 84020000 		.4byte	.LVL82
 12855 0f04 86020000 		.4byte	.LVL83
 12856 0f08 0600     		.2byte	0x6
 12857 0f0a 52       		.byte	0x52
 12858 0f0b 93       		.byte	0x93
 12859 0f0c 04       		.uleb128 0x4
 12860 0f0d 53       		.byte	0x53
 12861 0f0e 93       		.byte	0x93
 12862 0f0f 04       		.uleb128 0x4
 12863 0f10 86020000 		.4byte	.LVL83
 12864 0f14 20030000 		.4byte	.LVL101
 12865 0f18 0300     		.2byte	0x3
 12866 0f1a 91       		.byte	0x91
 12867 0f1b 987F     		.sleb128 -104
 12868 0f1d 20030000 		.4byte	.LVL101
 12869 0f21 22030000 		.4byte	.LVL102
 12870 0f25 0600     		.2byte	0x6
 12871 0f27 52       		.byte	0x52
ARM GAS  C:\Users\NIGHDR~1\AppData\Local\Temp\ccvJ0Ig2.s 			page 241


 12872 0f28 93       		.byte	0x93
 12873 0f29 04       		.uleb128 0x4
 12874 0f2a 53       		.byte	0x53
 12875 0f2b 93       		.byte	0x93
 12876 0f2c 04       		.uleb128 0x4
 12877 0f2d 22030000 		.4byte	.LVL102
 12878 0f31 BE030000 		.4byte	.LVL121
 12879 0f35 0300     		.2byte	0x3
 12880 0f37 91       		.byte	0x91
 12881 0f38 907F     		.sleb128 -112
 12882 0f3a BE030000 		.4byte	.LVL121
 12883 0f3e C0030000 		.4byte	.LVL122
 12884 0f42 0600     		.2byte	0x6
 12885 0f44 52       		.byte	0x52
 12886 0f45 93       		.byte	0x93
 12887 0f46 04       		.uleb128 0x4
 12888 0f47 53       		.byte	0x53
 12889 0f48 93       		.byte	0x93
 12890 0f49 04       		.uleb128 0x4
 12891 0f4a C0030000 		.4byte	.LVL122
 12892 0f4e 66040000 		.4byte	.LVL143
 12893 0f52 0300     		.2byte	0x3
 12894 0f54 91       		.byte	0x91
 12895 0f55 887F     		.sleb128 -120
 12896 0f57 66040000 		.4byte	.LVL143
 12897 0f5b 16050000 		.4byte	.LVL163
 12898 0f5f 0600     		.2byte	0x6
 12899 0f61 55       		.byte	0x55
 12900 0f62 93       		.byte	0x93
 12901 0f63 04       		.uleb128 0x4
 12902 0f64 56       		.byte	0x56
 12903 0f65 93       		.byte	0x93
 12904 0f66 04       		.uleb128 0x4
 12905 0f67 16050000 		.4byte	.LVL163
 12906 0f6b 1C050000 		.4byte	.LVL164
 12907 0f6f 0600     		.2byte	0x6
 12908 0f71 52       		.byte	0x52
 12909 0f72 93       		.byte	0x93
 12910 0f73 04       		.uleb128 0x4
 12911 0f74 53       		.byte	0x53
 12912 0f75 93       		.byte	0x93
 12913 0f76 04       		.uleb128 0x4
 12914 0f77 1C050000 		.4byte	.LVL164
 12915 0f7b CA050000 		.4byte	.LVL179
 12916 0f7f 0300     		.2byte	0x3
 12917 0f81 91       		.byte	0x91
 12918 0f82 887F     		.sleb128 -120
 12919 0f84 CA050000 		.4byte	.LVL179
 12920 0f88 E4050000 		.4byte	.LVL182
 12921 0f8c 0600     		.2byte	0x6
 12922 0f8e 56       		.byte	0x56
 12923 0f8f 93       		.byte	0x93
 12924 0f90 04       		.uleb128 0x4
 12925 0f91 57       		.byte	0x57
 12926 0f92 93       		.byte	0x93
 12927 0f93 04       		.uleb128 0x4
 12928 0f94 E4050000 		.4byte	.LVL182
ARM GAS  C:\Users\NIGHDR~1\AppData\Local\Temp\ccvJ0Ig2.s 			page 242


 12929 0f98 22070000 		.4byte	.LVL216
 12930 0f9c 0300     		.2byte	0x3
 12931 0f9e 91       		.byte	0x91
 12932 0f9f 887F     		.sleb128 -120
 12933 0fa1 22070000 		.4byte	.LVL216
 12934 0fa5 2E070000 		.4byte	.LVL218
 12935 0fa9 0600     		.2byte	0x6
 12936 0fab 56       		.byte	0x56
 12937 0fac 93       		.byte	0x93
 12938 0fad 04       		.uleb128 0x4
 12939 0fae 57       		.byte	0x57
 12940 0faf 93       		.byte	0x93
 12941 0fb0 04       		.uleb128 0x4
 12942 0fb1 32070000 		.4byte	.LVL219
 12943 0fb5 BE070000 		.4byte	.LVL233
 12944 0fb9 0600     		.2byte	0x6
 12945 0fbb 56       		.byte	0x56
 12946 0fbc 93       		.byte	0x93
 12947 0fbd 04       		.uleb128 0x4
 12948 0fbe 57       		.byte	0x57
 12949 0fbf 93       		.byte	0x93
 12950 0fc0 04       		.uleb128 0x4
 12951 0fc1 BE070000 		.4byte	.LVL233
 12952 0fc5 5E0C0000 		.4byte	.LVL370
 12953 0fc9 0300     		.2byte	0x3
 12954 0fcb 91       		.byte	0x91
 12955 0fcc B07F     		.sleb128 -80
 12956 0fce 5E0C0000 		.4byte	.LVL370
 12957 0fd2 800C0000 		.4byte	.LVL374
 12958 0fd6 0600     		.2byte	0x6
 12959 0fd8 56       		.byte	0x56
 12960 0fd9 93       		.byte	0x93
 12961 0fda 04       		.uleb128 0x4
 12962 0fdb 57       		.byte	0x57
 12963 0fdc 93       		.byte	0x93
 12964 0fdd 04       		.uleb128 0x4
 12965 0fde 800C0000 		.4byte	.LVL374
 12966 0fe2 D00D0000 		.4byte	.LVL406
 12967 0fe6 0300     		.2byte	0x3
 12968 0fe8 91       		.byte	0x91
 12969 0fe9 807F     		.sleb128 -128
 12970 0feb D00D0000 		.4byte	.LVL406
 12971 0fef E00D0000 		.4byte	.LVL408
 12972 0ff3 0600     		.2byte	0x6
 12973 0ff5 56       		.byte	0x56
 12974 0ff6 93       		.byte	0x93
 12975 0ff7 04       		.uleb128 0x4
 12976 0ff8 57       		.byte	0x57
 12977 0ff9 93       		.byte	0x93
 12978 0ffa 04       		.uleb128 0x4
 12979 0ffb E00D0000 		.4byte	.LVL408
 12980 0fff 18100000 		.4byte	.LVL481
 12981 1003 0300     		.2byte	0x3
 12982 1005 91       		.byte	0x91
 12983 1006 807F     		.sleb128 -128
 12984 1008 18100000 		.4byte	.LVL481
 12985 100c 44100000 		.4byte	.LVL487
ARM GAS  C:\Users\NIGHDR~1\AppData\Local\Temp\ccvJ0Ig2.s 			page 243


 12986 1010 0600     		.2byte	0x6
 12987 1012 50       		.byte	0x50
 12988 1013 93       		.byte	0x93
 12989 1014 04       		.uleb128 0x4
 12990 1015 51       		.byte	0x51
 12991 1016 93       		.byte	0x93
 12992 1017 04       		.uleb128 0x4
 12993 1018 48100000 		.4byte	.LVL488
 12994 101c 4E100000 		.4byte	.LVL489
 12995 1020 0600     		.2byte	0x6
 12996 1022 50       		.byte	0x50
 12997 1023 93       		.byte	0x93
 12998 1024 04       		.uleb128 0x4
 12999 1025 51       		.byte	0x51
 13000 1026 93       		.byte	0x93
 13001 1027 04       		.uleb128 0x4
 13002 1028 4E100000 		.4byte	.LVL489
 13003 102c BE120000 		.4byte	.LVL564
 13004 1030 0300     		.2byte	0x3
 13005 1032 91       		.byte	0x91
 13006 1033 907F     		.sleb128 -112
 13007 1035 BE120000 		.4byte	.LVL564
 13008 1039 C6120000 		.4byte	.LVL565
 13009 103d 0600     		.2byte	0x6
 13010 103f 50       		.byte	0x50
 13011 1040 93       		.byte	0x93
 13012 1041 04       		.uleb128 0x4
 13013 1042 51       		.byte	0x51
 13014 1043 93       		.byte	0x93
 13015 1044 04       		.uleb128 0x4
 13016 1045 C6120000 		.4byte	.LVL565
 13017 1049 04140000 		.4byte	.LFE2
 13018 104d 0300     		.2byte	0x3
 13019 104f 91       		.byte	0x91
 13020 1050 F87E     		.sleb128 -136
 13021 1052 00000000 		.4byte	0
 13022 1056 00000000 		.4byte	0
 13023              	.LLST16:
 13024 105a 06010000 		.4byte	.LVL36
 13025 105e F8010000 		.4byte	.LVL65
 13026 1062 0300     		.2byte	0x3
 13027 1064 91       		.byte	0x91
 13028 1065 A87F     		.sleb128 -88
 13029 1067 F8010000 		.4byte	.LVL65
 13030 106b FC010000 		.4byte	.LVL66
 13031 106f 0600     		.2byte	0x6
 13032 1071 53       		.byte	0x53
 13033 1072 93       		.byte	0x93
 13034 1073 04       		.uleb128 0x4
 13035 1074 54       		.byte	0x54
 13036 1075 93       		.byte	0x93
 13037 1076 04       		.uleb128 0x4
 13038 1077 FC010000 		.4byte	.LVL66
 13039 107b 9C020000 		.4byte	.LVL85
 13040 107f 0300     		.2byte	0x3
 13041 1081 91       		.byte	0x91
 13042 1082 A87F     		.sleb128 -88
ARM GAS  C:\Users\NIGHDR~1\AppData\Local\Temp\ccvJ0Ig2.s 			page 244


 13043 1084 9C020000 		.4byte	.LVL85
 13044 1088 9E020000 		.4byte	.LVL86
 13045 108c 0600     		.2byte	0x6
 13046 108e 52       		.byte	0x52
 13047 108f 93       		.byte	0x93
 13048 1090 04       		.uleb128 0x4
 13049 1091 53       		.byte	0x53
 13050 1092 93       		.byte	0x93
 13051 1093 04       		.uleb128 0x4
 13052 1094 9E020000 		.4byte	.LVL86
 13053 1098 3A030000 		.4byte	.LVL104
 13054 109c 0300     		.2byte	0x3
 13055 109e 91       		.byte	0x91
 13056 109f A87F     		.sleb128 -88
 13057 10a1 3A030000 		.4byte	.LVL104
 13058 10a5 3C030000 		.4byte	.LVL105
 13059 10a9 0600     		.2byte	0x6
 13060 10ab 52       		.byte	0x52
 13061 10ac 93       		.byte	0x93
 13062 10ad 04       		.uleb128 0x4
 13063 10ae 53       		.byte	0x53
 13064 10af 93       		.byte	0x93
 13065 10b0 04       		.uleb128 0x4
 13066 10b1 3C030000 		.4byte	.LVL105
 13067 10b5 D6030000 		.4byte	.LVL124
 13068 10b9 0300     		.2byte	0x3
 13069 10bb 91       		.byte	0x91
 13070 10bc 987F     		.sleb128 -104
 13071 10be D6030000 		.4byte	.LVL124
 13072 10c2 D8030000 		.4byte	.LVL125
 13073 10c6 0600     		.2byte	0x6
 13074 10c8 52       		.byte	0x52
 13075 10c9 93       		.byte	0x93
 13076 10ca 04       		.uleb128 0x4
 13077 10cb 53       		.byte	0x53
 13078 10cc 93       		.byte	0x93
 13079 10cd 04       		.uleb128 0x4
 13080 10ce D8030000 		.4byte	.LVL125
 13081 10d2 80040000 		.4byte	.LVL145
 13082 10d6 0300     		.2byte	0x3
 13083 10d8 91       		.byte	0x91
 13084 10d9 907F     		.sleb128 -112
 13085 10db 80040000 		.4byte	.LVL145
 13086 10df 84040000 		.4byte	.LVL146
 13087 10e3 0600     		.2byte	0x6
 13088 10e5 53       		.byte	0x53
 13089 10e6 93       		.byte	0x93
 13090 10e7 04       		.uleb128 0x4
 13091 10e8 54       		.byte	0x54
 13092 10e9 93       		.byte	0x93
 13093 10ea 04       		.uleb128 0x4
 13094 10eb 84040000 		.4byte	.LVL146
 13095 10ef 16060000 		.4byte	.LVL188
 13096 10f3 0200     		.2byte	0x2
 13097 10f5 7D       		.byte	0x7d
 13098 10f6 00       		.sleb128 0
 13099 10f7 16060000 		.4byte	.LVL188
ARM GAS  C:\Users\NIGHDR~1\AppData\Local\Temp\ccvJ0Ig2.s 			page 245


 13100 10fb 2A060000 		.4byte	.LVL189
 13101 10ff 0600     		.2byte	0x6
 13102 1101 52       		.byte	0x52
 13103 1102 93       		.byte	0x93
 13104 1103 04       		.uleb128 0x4
 13105 1104 53       		.byte	0x53
 13106 1105 93       		.byte	0x93
 13107 1106 04       		.uleb128 0x4
 13108 1107 2A060000 		.4byte	.LVL189
 13109 110b 22070000 		.4byte	.LVL216
 13110 110f 0300     		.2byte	0x3
 13111 1111 91       		.byte	0x91
 13112 1112 B07F     		.sleb128 -80
 13113 1114 22070000 		.4byte	.LVL216
 13114 1118 24070000 		.4byte	.LVL217
 13115 111c 0600     		.2byte	0x6
 13116 111e 54       		.byte	0x54
 13117 111f 93       		.byte	0x93
 13118 1120 04       		.uleb128 0x4
 13119 1121 55       		.byte	0x55
 13120 1122 93       		.byte	0x93
 13121 1123 04       		.uleb128 0x4
 13122 1124 24070000 		.4byte	.LVL217
 13123 1128 7E0A0000 		.4byte	.LVL321
 13124 112c 0300     		.2byte	0x3
 13125 112e 91       		.byte	0x91
 13126 112f 887F     		.sleb128 -120
 13127 1131 7E0A0000 		.4byte	.LVL321
 13128 1135 8A0A0000 		.4byte	.LVL323
 13129 1139 0600     		.2byte	0x6
 13130 113b 54       		.byte	0x54
 13131 113c 93       		.byte	0x93
 13132 113d 04       		.uleb128 0x4
 13133 113e 55       		.byte	0x55
 13134 113f 93       		.byte	0x93
 13135 1140 04       		.uleb128 0x4
 13136 1141 8A0A0000 		.4byte	.LVL323
 13137 1145 FA0A0000 		.4byte	.LVL336
 13138 1149 0300     		.2byte	0x3
 13139 114b 91       		.byte	0x91
 13140 114c 887F     		.sleb128 -120
 13141 114e FA0A0000 		.4byte	.LVL336
 13142 1152 C00D0000 		.4byte	.LVL405
 13143 1156 0A00     		.2byte	0xa
 13144 1158 9E       		.byte	0x9e
 13145 1159 08       		.uleb128 0x8
 13146 115a 00000000 		.8byte	0
 13146      00000000 
 13147 1162 C00D0000 		.4byte	.LVL405
 13148 1166 600E0000 		.4byte	.LVL423
 13149 116a 0600     		.2byte	0x6
 13150 116c 54       		.byte	0x54
 13151 116d 93       		.byte	0x93
 13152 116e 04       		.uleb128 0x4
 13153 116f 55       		.byte	0x55
 13154 1170 93       		.byte	0x93
 13155 1171 04       		.uleb128 0x4
ARM GAS  C:\Users\NIGHDR~1\AppData\Local\Temp\ccvJ0Ig2.s 			page 246


 13156 1172 600E0000 		.4byte	.LVL423
 13157 1176 38100000 		.4byte	.LVL484
 13158 117a 0A00     		.2byte	0xa
 13159 117c 9E       		.byte	0x9e
 13160 117d 08       		.uleb128 0x8
 13161 117e 00000000 		.8byte	0
 13161      00000000 
 13162 1186 38100000 		.4byte	.LVL484
 13163 118a D8100000 		.4byte	.LVL505
 13164 118e 0600     		.2byte	0x6
 13165 1190 54       		.byte	0x54
 13166 1191 93       		.byte	0x93
 13167 1192 04       		.uleb128 0x4
 13168 1193 55       		.byte	0x55
 13169 1194 93       		.byte	0x93
 13170 1195 04       		.uleb128 0x4
 13171 1196 D8100000 		.4byte	.LVL505
 13172 119a 04140000 		.4byte	.LFE2
 13173 119e 0A00     		.2byte	0xa
 13174 11a0 9E       		.byte	0x9e
 13175 11a1 08       		.uleb128 0x8
 13176 11a2 00000000 		.8byte	0
 13176      00000000 
 13177 11aa 00000000 		.4byte	0
 13178 11ae 00000000 		.4byte	0
 13179              	.LLST17:
 13180 11b2 1A010000 		.4byte	.LVL38
 13181 11b6 10020000 		.4byte	.LVL68
 13182 11ba 0300     		.2byte	0x3
 13183 11bc 91       		.byte	0x91
 13184 11bd B07F     		.sleb128 -80
 13185 11bf 10020000 		.4byte	.LVL68
 13186 11c3 22020000 		.4byte	.LVL70
 13187 11c7 0600     		.2byte	0x6
 13188 11c9 54       		.byte	0x54
 13189 11ca 93       		.byte	0x93
 13190 11cb 04       		.uleb128 0x4
 13191 11cc 55       		.byte	0x55
 13192 11cd 93       		.byte	0x93
 13193 11ce 04       		.uleb128 0x4
 13194 11cf 22020000 		.4byte	.LVL70
 13195 11d3 B6020000 		.4byte	.LVL88
 13196 11d7 0300     		.2byte	0x3
 13197 11d9 91       		.byte	0x91
 13198 11da B07F     		.sleb128 -80
 13199 11dc B6020000 		.4byte	.LVL88
 13200 11e0 B8020000 		.4byte	.LVL89
 13201 11e4 0600     		.2byte	0x6
 13202 11e6 52       		.byte	0x52
 13203 11e7 93       		.byte	0x93
 13204 11e8 04       		.uleb128 0x4
 13205 11e9 53       		.byte	0x53
 13206 11ea 93       		.byte	0x93
 13207 11eb 04       		.uleb128 0x4
 13208 11ec B8020000 		.4byte	.LVL89
 13209 11f0 52030000 		.4byte	.LVL107
 13210 11f4 0300     		.2byte	0x3
ARM GAS  C:\Users\NIGHDR~1\AppData\Local\Temp\ccvJ0Ig2.s 			page 247


 13211 11f6 91       		.byte	0x91
 13212 11f7 B07F     		.sleb128 -80
 13213 11f9 52030000 		.4byte	.LVL107
 13214 11fd 54030000 		.4byte	.LVL108
 13215 1201 0600     		.2byte	0x6
 13216 1203 52       		.byte	0x52
 13217 1204 93       		.byte	0x93
 13218 1205 04       		.uleb128 0x4
 13219 1206 53       		.byte	0x53
 13220 1207 93       		.byte	0x93
 13221 1208 04       		.uleb128 0x4
 13222 1209 54030000 		.4byte	.LVL108
 13223 120d F0030000 		.4byte	.LVL127
 13224 1211 0300     		.2byte	0x3
 13225 1213 91       		.byte	0x91
 13226 1214 A87F     		.sleb128 -88
 13227 1216 F0030000 		.4byte	.LVL127
 13228 121a F2030000 		.4byte	.LVL128
 13229 121e 0600     		.2byte	0x6
 13230 1220 52       		.byte	0x52
 13231 1221 93       		.byte	0x93
 13232 1222 04       		.uleb128 0x4
 13233 1223 53       		.byte	0x53
 13234 1224 93       		.byte	0x93
 13235 1225 04       		.uleb128 0x4
 13236 1226 F2030000 		.4byte	.LVL128
 13237 122a 02060000 		.4byte	.LVL185
 13238 122e 0300     		.2byte	0x3
 13239 1230 91       		.byte	0x91
 13240 1231 987F     		.sleb128 -104
 13241 1233 02060000 		.4byte	.LVL185
 13242 1237 0A060000 		.4byte	.LVL186
 13243 123b 0600     		.2byte	0x6
 13244 123d 50       		.byte	0x50
 13245 123e 93       		.byte	0x93
 13246 123f 04       		.uleb128 0x4
 13247 1240 51       		.byte	0x51
 13248 1241 93       		.byte	0x93
 13249 1242 04       		.uleb128 0x4
 13250 1243 0A060000 		.4byte	.LVL186
 13251 1247 70070000 		.4byte	.LVL224
 13252 124b 0300     		.2byte	0x3
 13253 124d 91       		.byte	0x91
 13254 124e 987F     		.sleb128 -104
 13255 1250 70070000 		.4byte	.LVL224
 13256 1254 72070000 		.4byte	.LVL225
 13257 1258 0600     		.2byte	0x6
 13258 125a 53       		.byte	0x53
 13259 125b 93       		.byte	0x93
 13260 125c 04       		.uleb128 0x4
 13261 125d 54       		.byte	0x54
 13262 125e 93       		.byte	0x93
 13263 125f 04       		.uleb128 0x4
 13264 1260 72070000 		.4byte	.LVL225
 13265 1264 5E0A0000 		.4byte	.LVL316
 13266 1268 0300     		.2byte	0x3
 13267 126a 91       		.byte	0x91
ARM GAS  C:\Users\NIGHDR~1\AppData\Local\Temp\ccvJ0Ig2.s 			page 248


 13268 126b C07E     		.sleb128 -192
 13269 126d 5E0A0000 		.4byte	.LVL316
 13270 1271 04140000 		.4byte	.LFE2
 13271 1275 0A00     		.2byte	0xa
 13272 1277 9E       		.byte	0x9e
 13273 1278 08       		.uleb128 0x8
 13274 1279 00000000 		.8byte	0
 13274      00000000 
 13275 1281 00000000 		.4byte	0
 13276 1285 00000000 		.4byte	0
 13277              	.LLST18:
 13278 1289 2E010000 		.4byte	.LVL40
 13279 128d 26020000 		.4byte	.LVL71
 13280 1291 0300     		.2byte	0x3
 13281 1293 91       		.byte	0x91
 13282 1294 B87F     		.sleb128 -72
 13283 1296 26020000 		.4byte	.LVL71
 13284 129a 64030000 		.4byte	.LVL110
 13285 129e 0600     		.2byte	0x6
 13286 12a0 54       		.byte	0x54
 13287 12a1 93       		.byte	0x93
 13288 12a2 04       		.uleb128 0x4
 13289 12a3 55       		.byte	0x55
 13290 12a4 93       		.byte	0x93
 13291 12a5 04       		.uleb128 0x4
 13292 12a6 68030000 		.4byte	.LVL111
 13293 12aa 78030000 		.4byte	.LVL113
 13294 12ae 0600     		.2byte	0x6
 13295 12b0 54       		.byte	0x54
 13296 12b1 93       		.byte	0x93
 13297 12b2 04       		.uleb128 0x4
 13298 12b3 55       		.byte	0x55
 13299 12b4 93       		.byte	0x93
 13300 12b5 04       		.uleb128 0x4
 13301 12b6 78030000 		.4byte	.LVL113
 13302 12ba 4E060000 		.4byte	.LVL194
 13303 12be 0300     		.2byte	0x3
 13304 12c0 91       		.byte	0x91
 13305 12c1 B87E     		.sleb128 -200
 13306 12c3 4E060000 		.4byte	.LVL194
 13307 12c7 60060000 		.4byte	.LVL196
 13308 12cb 0600     		.2byte	0x6
 13309 12cd 52       		.byte	0x52
 13310 12ce 93       		.byte	0x93
 13311 12cf 04       		.uleb128 0x4
 13312 12d0 53       		.byte	0x53
 13313 12d1 93       		.byte	0x93
 13314 12d2 04       		.uleb128 0x4
 13315 12d3 60060000 		.4byte	.LVL196
 13316 12d7 5C070000 		.4byte	.LVL222
 13317 12db 0300     		.2byte	0x3
 13318 12dd 91       		.byte	0x91
 13319 12de B87E     		.sleb128 -200
 13320 12e0 5C070000 		.4byte	.LVL222
 13321 12e4 64070000 		.4byte	.LVL223
 13322 12e8 0600     		.2byte	0x6
 13323 12ea 50       		.byte	0x50
ARM GAS  C:\Users\NIGHDR~1\AppData\Local\Temp\ccvJ0Ig2.s 			page 249


 13324 12eb 93       		.byte	0x93
 13325 12ec 04       		.uleb128 0x4
 13326 12ed 51       		.byte	0x51
 13327 12ee 93       		.byte	0x93
 13328 12ef 04       		.uleb128 0x4
 13329 12f0 64070000 		.4byte	.LVL223
 13330 12f4 CE090000 		.4byte	.LVL297
 13331 12f8 0300     		.2byte	0x3
 13332 12fa 91       		.byte	0x91
 13333 12fb B87E     		.sleb128 -200
 13334 12fd CE090000 		.4byte	.LVL297
 13335 1301 04140000 		.4byte	.LFE2
 13336 1305 0A00     		.2byte	0xa
 13337 1307 9E       		.byte	0x9e
 13338 1308 08       		.uleb128 0x8
 13339 1309 00000000 		.8byte	0
 13339      00000000 
 13340 1311 00000000 		.4byte	0
 13341 1315 00000000 		.4byte	0
 13342              	.LLST19:
 13343 1319 42010000 		.4byte	.LVL42
 13344 131d 3E020000 		.4byte	.LVL73
 13345 1321 0200     		.2byte	0x2
 13346 1323 91       		.byte	0x91
 13347 1324 40       		.sleb128 -64
 13348 1325 3E020000 		.4byte	.LVL73
 13349 1329 40020000 		.4byte	.LVL74
 13350 132d 0600     		.2byte	0x6
 13351 132f 52       		.byte	0x52
 13352 1330 93       		.byte	0x93
 13353 1331 04       		.uleb128 0x4
 13354 1332 53       		.byte	0x53
 13355 1333 93       		.byte	0x93
 13356 1334 04       		.uleb128 0x4
 13357 1335 40020000 		.4byte	.LVL74
 13358 1339 E0020000 		.4byte	.LVL93
 13359 133d 0300     		.2byte	0x3
 13360 133f 91       		.byte	0x91
 13361 1340 B87F     		.sleb128 -72
 13362 1342 E0020000 		.4byte	.LVL93
 13363 1346 E2020000 		.4byte	.LVL94
 13364 134a 0600     		.2byte	0x6
 13365 134c 52       		.byte	0x52
 13366 134d 93       		.byte	0x93
 13367 134e 04       		.uleb128 0x4
 13368 134f 53       		.byte	0x53
 13369 1350 93       		.byte	0x93
 13370 1351 04       		.uleb128 0x4
 13371 1352 E2020000 		.4byte	.LVL94
 13372 1356 3A060000 		.4byte	.LVL191
 13373 135a 0300     		.2byte	0x3
 13374 135c 91       		.byte	0x91
 13375 135d B87F     		.sleb128 -72
 13376 135f 3A060000 		.4byte	.LVL191
 13377 1363 42060000 		.4byte	.LVL192
 13378 1367 0600     		.2byte	0x6
 13379 1369 50       		.byte	0x50
ARM GAS  C:\Users\NIGHDR~1\AppData\Local\Temp\ccvJ0Ig2.s 			page 250


 13380 136a 93       		.byte	0x93
 13381 136b 04       		.uleb128 0x4
 13382 136c 51       		.byte	0x51
 13383 136d 93       		.byte	0x93
 13384 136e 04       		.uleb128 0x4
 13385 136f 42060000 		.4byte	.LVL192
 13386 1373 AA070000 		.4byte	.LVL230
 13387 1377 0300     		.2byte	0x3
 13388 1379 91       		.byte	0x91
 13389 137a B87F     		.sleb128 -72
 13390 137c AA070000 		.4byte	.LVL230
 13391 1380 DC070000 		.4byte	.LVL237
 13392 1384 0600     		.2byte	0x6
 13393 1386 55       		.byte	0x55
 13394 1387 93       		.byte	0x93
 13395 1388 04       		.uleb128 0x4
 13396 1389 56       		.byte	0x56
 13397 138a 93       		.byte	0x93
 13398 138b 04       		.uleb128 0x4
 13399 138c DC070000 		.4byte	.LVL237
 13400 1390 4A090000 		.4byte	.LVL281
 13401 1394 0300     		.2byte	0x3
 13402 1396 91       		.byte	0x91
 13403 1397 D07E     		.sleb128 -176
 13404 1399 4A090000 		.4byte	.LVL281
 13405 139d 04140000 		.4byte	.LFE2
 13406 13a1 0A00     		.2byte	0xa
 13407 13a3 9E       		.byte	0x9e
 13408 13a4 08       		.uleb128 0x8
 13409 13a5 00000000 		.8byte	0
 13409      00000000 
 13410 13ad 00000000 		.4byte	0
 13411 13b1 00000000 		.4byte	0
 13412              	.LLST20:
 13413 13b5 54010000 		.4byte	.LVL44
 13414 13b9 58020000 		.4byte	.LVL77
 13415 13bd 0200     		.2byte	0x2
 13416 13bf 91       		.byte	0x91
 13417 13c0 48       		.sleb128 -56
 13418 13c1 58020000 		.4byte	.LVL77
 13419 13c5 68020000 		.4byte	.LVL79
 13420 13c9 0600     		.2byte	0x6
 13421 13cb 56       		.byte	0x56
 13422 13cc 93       		.byte	0x93
 13423 13cd 04       		.uleb128 0x4
 13424 13ce 57       		.byte	0x57
 13425 13cf 93       		.byte	0x93
 13426 13d0 04       		.uleb128 0x4
 13427 13d1 68020000 		.4byte	.LVL79
 13428 13d5 84060000 		.4byte	.LVL201
 13429 13d9 0300     		.2byte	0x3
 13430 13db 91       		.byte	0x91
 13431 13dc A07F     		.sleb128 -96
 13432 13de 84060000 		.4byte	.LVL201
 13433 13e2 8E060000 		.4byte	.LVL202
 13434 13e6 0600     		.2byte	0x6
 13435 13e8 52       		.byte	0x52
ARM GAS  C:\Users\NIGHDR~1\AppData\Local\Temp\ccvJ0Ig2.s 			page 251


 13436 13e9 93       		.byte	0x93
 13437 13ea 04       		.uleb128 0x4
 13438 13eb 53       		.byte	0x53
 13439 13ec 93       		.byte	0x93
 13440 13ed 04       		.uleb128 0x4
 13441 13ee 8E060000 		.4byte	.LVL202
 13442 13f2 9A070000 		.4byte	.LVL228
 13443 13f6 0300     		.2byte	0x3
 13444 13f8 91       		.byte	0x91
 13445 13f9 A07F     		.sleb128 -96
 13446 13fb 9A070000 		.4byte	.LVL228
 13447 13ff A2070000 		.4byte	.LVL229
 13448 1403 0600     		.2byte	0x6
 13449 1405 50       		.byte	0x50
 13450 1406 93       		.byte	0x93
 13451 1407 04       		.uleb128 0x4
 13452 1408 51       		.byte	0x51
 13453 1409 93       		.byte	0x93
 13454 140a 04       		.uleb128 0x4
 13455 140b A2070000 		.4byte	.LVL229
 13456 140f C6080000 		.4byte	.LVL265
 13457 1413 0300     		.2byte	0x3
 13458 1415 91       		.byte	0x91
 13459 1416 C87E     		.sleb128 -184
 13460 1418 C6080000 		.4byte	.LVL265
 13461 141c 04140000 		.4byte	.LFE2
 13462 1420 0A00     		.2byte	0xa
 13463 1422 9E       		.byte	0x9e
 13464 1423 08       		.uleb128 0x8
 13465 1424 00000000 		.8byte	0
 13465      00000000 
 13466 142c 00000000 		.4byte	0
 13467 1430 00000000 		.4byte	0
 13468              	.LLST21:
 13469 1434 68010000 		.4byte	.LVL46
 13470 1438 70060000 		.4byte	.LVL198
 13471 143c 0200     		.2byte	0x2
 13472 143e 91       		.byte	0x91
 13473 143f 50       		.sleb128 -48
 13474 1440 70060000 		.4byte	.LVL198
 13475 1444 78060000 		.4byte	.LVL199
 13476 1448 0600     		.2byte	0x6
 13477 144a 50       		.byte	0x50
 13478 144b 93       		.byte	0x93
 13479 144c 04       		.uleb128 0x4
 13480 144d 51       		.byte	0x51
 13481 144e 93       		.byte	0x93
 13482 144f 04       		.uleb128 0x4
 13483 1450 78060000 		.4byte	.LVL199
 13484 1454 CA070000 		.4byte	.LVL235
 13485 1458 0200     		.2byte	0x2
 13486 145a 7D       		.byte	0x7d
 13487 145b 00       		.sleb128 0
 13488 145c CA070000 		.4byte	.LVL235
 13489 1460 DE070000 		.4byte	.LVL238
 13490 1464 0600     		.2byte	0x6
 13491 1466 54       		.byte	0x54
ARM GAS  C:\Users\NIGHDR~1\AppData\Local\Temp\ccvJ0Ig2.s 			page 252


 13492 1467 93       		.byte	0x93
 13493 1468 04       		.uleb128 0x4
 13494 1469 55       		.byte	0x55
 13495 146a 93       		.byte	0x93
 13496 146b 04       		.uleb128 0x4
 13497 146c DE070000 		.4byte	.LVL238
 13498 1470 42080000 		.4byte	.LVL249
 13499 1474 0200     		.2byte	0x2
 13500 1476 7D       		.byte	0x7d
 13501 1477 00       		.sleb128 0
 13502 1478 42080000 		.4byte	.LVL249
 13503 147c 04140000 		.4byte	.LFE2
 13504 1480 0A00     		.2byte	0xa
 13505 1482 9E       		.byte	0x9e
 13506 1483 08       		.uleb128 0x8
 13507 1484 00000000 		.8byte	0
 13507      00000000 
 13508 148c 00000000 		.4byte	0
 13509 1490 00000000 		.4byte	0
 13510              	.LLST22:
 13511 1494 16050000 		.4byte	.LVL163
 13512 1498 04140000 		.4byte	.LFE2
 13513 149c 0A00     		.2byte	0xa
 13514 149e 9E       		.byte	0x9e
 13515 149f 08       		.uleb128 0x8
 13516 14a0 00000000 		.8byte	0
 13516      00000000 
 13517 14a8 00000000 		.4byte	0
 13518 14ac 00000000 		.4byte	0
 13519              	.LLST23:
 13520 14b0 80040000 		.4byte	.LVL145
 13521 14b4 04140000 		.4byte	.LFE2
 13522 14b8 0A00     		.2byte	0xa
 13523 14ba 9E       		.byte	0x9e
 13524 14bb 08       		.uleb128 0x8
 13525 14bc 00000000 		.8byte	0
 13525      00000000 
 13526 14c4 00000000 		.4byte	0
 13527 14c8 00000000 		.4byte	0
 13528              	.LLST24:
 13529 14cc F0030000 		.4byte	.LVL127
 13530 14d0 04140000 		.4byte	.LFE2
 13531 14d4 0A00     		.2byte	0xa
 13532 14d6 9E       		.byte	0x9e
 13533 14d7 08       		.uleb128 0x8
 13534 14d8 00000000 		.8byte	0
 13534      00000000 
 13535 14e0 00000000 		.4byte	0
 13536 14e4 00000000 		.4byte	0
 13537              	.LLST25:
 13538 14e8 68030000 		.4byte	.LVL111
 13539 14ec 04140000 		.4byte	.LFE2
 13540 14f0 0A00     		.2byte	0xa
 13541 14f2 9E       		.byte	0x9e
 13542 14f3 08       		.uleb128 0x8
 13543 14f4 00000000 		.8byte	0
 13543      00000000 
ARM GAS  C:\Users\NIGHDR~1\AppData\Local\Temp\ccvJ0Ig2.s 			page 253


 13544 14fc 00000000 		.4byte	0
 13545 1500 00000000 		.4byte	0
 13546              	.LLST26:
 13547 1504 E0020000 		.4byte	.LVL93
 13548 1508 04140000 		.4byte	.LFE2
 13549 150c 0A00     		.2byte	0xa
 13550 150e 9E       		.byte	0x9e
 13551 150f 08       		.uleb128 0x8
 13552 1510 00000000 		.8byte	0
 13552      00000000 
 13553 1518 00000000 		.4byte	0
 13554 151c 00000000 		.4byte	0
 13555              	.LLST27:
 13556 1520 C8010000 		.4byte	.LVL60
 13557 1524 50020000 		.4byte	.LVL76
 13558 1528 0600     		.2byte	0x6
 13559 152a 56       		.byte	0x56
 13560 152b 93       		.byte	0x93
 13561 152c 04       		.uleb128 0x4
 13562 152d 57       		.byte	0x57
 13563 152e 93       		.byte	0x93
 13564 152f 04       		.uleb128 0x4
 13565 1530 58020000 		.4byte	.LVL77
 13566 1534 04140000 		.4byte	.LFE2
 13567 1538 0A00     		.2byte	0xa
 13568 153a 9E       		.byte	0x9e
 13569 153b 08       		.uleb128 0x8
 13570 153c 00000000 		.8byte	0
 13570      00000000 
 13571 1544 00000000 		.4byte	0
 13572 1548 00000000 		.4byte	0
 13573              	.LLST28:
 13574 154c 100B0000 		.4byte	.LVL338
 13575 1550 5A0B0000 		.4byte	.LVL344
 13576 1554 0600     		.2byte	0x6
 13577 1556 52       		.byte	0x52
 13578 1557 93       		.byte	0x93
 13579 1558 04       		.uleb128 0x4
 13580 1559 53       		.byte	0x53
 13581 155a 93       		.byte	0x93
 13582 155b 04       		.uleb128 0x4
 13583 155c 680E0000 		.4byte	.LVL424
 13584 1560 820E0000 		.4byte	.LVL428
 13585 1564 0600     		.2byte	0x6
 13586 1566 52       		.byte	0x52
 13587 1567 93       		.byte	0x93
 13588 1568 04       		.uleb128 0x4
 13589 1569 53       		.byte	0x53
 13590 156a 93       		.byte	0x93
 13591 156b 04       		.uleb128 0x4
 13592 156c E0100000 		.4byte	.LVL506
 13593 1570 08110000 		.4byte	.LVL512
 13594 1574 0600     		.2byte	0x6
 13595 1576 52       		.byte	0x52
 13596 1577 93       		.byte	0x93
 13597 1578 04       		.uleb128 0x4
 13598 1579 53       		.byte	0x53
ARM GAS  C:\Users\NIGHDR~1\AppData\Local\Temp\ccvJ0Ig2.s 			page 254


 13599 157a 93       		.byte	0x93
 13600 157b 04       		.uleb128 0x4
 13601 157c 00000000 		.4byte	0
 13602 1580 00000000 		.4byte	0
 13603              	.LLST29:
 13604 1584 980C0000 		.4byte	.LVL375
 13605 1588 C60C0000 		.4byte	.LVL379
 13606 158c 0600     		.2byte	0x6
 13607 158e 50       		.byte	0x50
 13608 158f 93       		.byte	0x93
 13609 1590 04       		.uleb128 0x4
 13610 1591 51       		.byte	0x51
 13611 1592 93       		.byte	0x93
 13612 1593 04       		.uleb128 0x4
 13613 1594 980E0000 		.4byte	.LVL431
 13614 1598 BC0E0000 		.4byte	.LVL435
 13615 159c 0600     		.2byte	0x6
 13616 159e 52       		.byte	0x52
 13617 159f 93       		.byte	0x93
 13618 15a0 04       		.uleb128 0x4
 13619 15a1 53       		.byte	0x53
 13620 15a2 93       		.byte	0x93
 13621 15a3 04       		.uleb128 0x4
 13622 15a4 0C110000 		.4byte	.LVL513
 13623 15a8 24110000 		.4byte	.LVL516
 13624 15ac 0600     		.2byte	0x6
 13625 15ae 52       		.byte	0x52
 13626 15af 93       		.byte	0x93
 13627 15b0 04       		.uleb128 0x4
 13628 15b1 53       		.byte	0x53
 13629 15b2 93       		.byte	0x93
 13630 15b3 04       		.uleb128 0x4
 13631 15b4 00000000 		.4byte	0
 13632 15b8 00000000 		.4byte	0
 13633              	.LLST30:
 13634 15bc 680B0000 		.4byte	.LVL345
 13635 15c0 960B0000 		.4byte	.LVL350
 13636 15c4 0600     		.2byte	0x6
 13637 15c6 52       		.byte	0x52
 13638 15c7 93       		.byte	0x93
 13639 15c8 04       		.uleb128 0x4
 13640 15c9 53       		.byte	0x53
 13641 15ca 93       		.byte	0x93
 13642 15cb 04       		.uleb128 0x4
 13643 15cc C00E0000 		.4byte	.LVL436
 13644 15d0 DA0E0000 		.4byte	.LVL439
 13645 15d4 0600     		.2byte	0x6
 13646 15d6 52       		.byte	0x52
 13647 15d7 93       		.byte	0x93
 13648 15d8 04       		.uleb128 0x4
 13649 15d9 53       		.byte	0x53
 13650 15da 93       		.byte	0x93
 13651 15db 04       		.uleb128 0x4
 13652 15dc 3C110000 		.4byte	.LVL519
 13653 15e0 60110000 		.4byte	.LVL523
 13654 15e4 0600     		.2byte	0x6
 13655 15e6 52       		.byte	0x52
ARM GAS  C:\Users\NIGHDR~1\AppData\Local\Temp\ccvJ0Ig2.s 			page 255


 13656 15e7 93       		.byte	0x93
 13657 15e8 04       		.uleb128 0x4
 13658 15e9 53       		.byte	0x53
 13659 15ea 93       		.byte	0x93
 13660 15eb 04       		.uleb128 0x4
 13661 15ec 00000000 		.4byte	0
 13662 15f0 00000000 		.4byte	0
 13663              	.LLST31:
 13664 15f4 DC0C0000 		.4byte	.LVL381
 13665 15f8 0A0D0000 		.4byte	.LVL386
 13666 15fc 0600     		.2byte	0x6
 13667 15fe 56       		.byte	0x56
 13668 15ff 93       		.byte	0x93
 13669 1600 04       		.uleb128 0x4
 13670 1601 57       		.byte	0x57
 13671 1602 93       		.byte	0x93
 13672 1603 04       		.uleb128 0x4
 13673 1604 F00E0000 		.4byte	.LVL442
 13674 1608 100F0000 		.4byte	.LVL445
 13675 160c 0600     		.2byte	0x6
 13676 160e 52       		.byte	0x52
 13677 160f 93       		.byte	0x93
 13678 1610 04       		.uleb128 0x4
 13679 1611 53       		.byte	0x53
 13680 1612 93       		.byte	0x93
 13681 1613 04       		.uleb128 0x4
 13682 1614 64110000 		.4byte	.LVL524
 13683 1618 AA110000 		.4byte	.LVL529
 13684 161c 0600     		.2byte	0x6
 13685 161e 52       		.byte	0x52
 13686 161f 93       		.byte	0x93
 13687 1620 04       		.uleb128 0x4
 13688 1621 53       		.byte	0x53
 13689 1622 93       		.byte	0x93
 13690 1623 04       		.uleb128 0x4
 13691 1624 00000000 		.4byte	0
 13692 1628 00000000 		.4byte	0
 13693              	.LLST32:
 13694 162c A40B0000 		.4byte	.LVL351
 13695 1630 D20B0000 		.4byte	.LVL356
 13696 1634 0600     		.2byte	0x6
 13697 1636 52       		.byte	0x52
 13698 1637 93       		.byte	0x93
 13699 1638 04       		.uleb128 0x4
 13700 1639 53       		.byte	0x53
 13701 163a 93       		.byte	0x93
 13702 163b 04       		.uleb128 0x4
 13703 163c 140F0000 		.4byte	.LVL446
 13704 1640 3C0F0000 		.4byte	.LVL450
 13705 1644 0600     		.2byte	0x6
 13706 1646 52       		.byte	0x52
 13707 1647 93       		.byte	0x93
 13708 1648 04       		.uleb128 0x4
 13709 1649 53       		.byte	0x53
 13710 164a 93       		.byte	0x93
 13711 164b 04       		.uleb128 0x4
 13712 164c AE110000 		.4byte	.LVL530
ARM GAS  C:\Users\NIGHDR~1\AppData\Local\Temp\ccvJ0Ig2.s 			page 256


 13713 1650 D2110000 		.4byte	.LVL534
 13714 1654 0600     		.2byte	0x6
 13715 1656 52       		.byte	0x52
 13716 1657 93       		.byte	0x93
 13717 1658 04       		.uleb128 0x4
 13718 1659 53       		.byte	0x53
 13719 165a 93       		.byte	0x93
 13720 165b 04       		.uleb128 0x4
 13721 165c 00000000 		.4byte	0
 13722 1660 00000000 		.4byte	0
 13723              	.LLST33:
 13724 1664 180D0000 		.4byte	.LVL387
 13725 1668 340D0000 		.4byte	.LVL390
 13726 166c 0600     		.2byte	0x6
 13727 166e 50       		.byte	0x50
 13728 166f 93       		.byte	0x93
 13729 1670 04       		.uleb128 0x4
 13730 1671 51       		.byte	0x51
 13731 1672 93       		.byte	0x93
 13732 1673 04       		.uleb128 0x4
 13733 1674 400F0000 		.4byte	.LVL451
 13734 1678 600F0000 		.4byte	.LVL455
 13735 167c 0600     		.2byte	0x6
 13736 167e 52       		.byte	0x52
 13737 167f 93       		.byte	0x93
 13738 1680 04       		.uleb128 0x4
 13739 1681 53       		.byte	0x53
 13740 1682 93       		.byte	0x93
 13741 1683 04       		.uleb128 0x4
 13742 1684 D6110000 		.4byte	.LVL535
 13743 1688 FE110000 		.4byte	.LVL541
 13744 168c 0600     		.2byte	0x6
 13745 168e 52       		.byte	0x52
 13746 168f 93       		.byte	0x93
 13747 1690 04       		.uleb128 0x4
 13748 1691 53       		.byte	0x53
 13749 1692 93       		.byte	0x93
 13750 1693 04       		.uleb128 0x4
 13751 1694 00000000 		.4byte	0
 13752 1698 00000000 		.4byte	0
 13753              	.LLST34:
 13754 169c 30050000 		.4byte	.LVL165
 13755 16a0 56050000 		.4byte	.LVL170
 13756 16a4 0600     		.2byte	0x6
 13757 16a6 52       		.byte	0x52
 13758 16a7 93       		.byte	0x93
 13759 16a8 04       		.uleb128 0x4
 13760 16a9 53       		.byte	0x53
 13761 16aa 93       		.byte	0x93
 13762 16ab 04       		.uleb128 0x4
 13763 16ac E00B0000 		.4byte	.LVL357
 13764 16b0 0E0C0000 		.4byte	.LVL362
 13765 16b4 0600     		.2byte	0x6
 13766 16b6 52       		.byte	0x52
 13767 16b7 93       		.byte	0x93
 13768 16b8 04       		.uleb128 0x4
 13769 16b9 53       		.byte	0x53
ARM GAS  C:\Users\NIGHDR~1\AppData\Local\Temp\ccvJ0Ig2.s 			page 257


 13770 16ba 93       		.byte	0x93
 13771 16bb 04       		.uleb128 0x4
 13772 16bc 640F0000 		.4byte	.LVL456
 13773 16c0 8C0F0000 		.4byte	.LVL460
 13774 16c4 0600     		.2byte	0x6
 13775 16c6 52       		.byte	0x52
 13776 16c7 93       		.byte	0x93
 13777 16c8 04       		.uleb128 0x4
 13778 16c9 53       		.byte	0x53
 13779 16ca 93       		.byte	0x93
 13780 16cb 04       		.uleb128 0x4
 13781 16cc 02120000 		.4byte	.LVL542
 13782 16d0 1A120000 		.4byte	.LVL544
 13783 16d4 0600     		.2byte	0x6
 13784 16d6 52       		.byte	0x52
 13785 16d7 93       		.byte	0x93
 13786 16d8 04       		.uleb128 0x4
 13787 16d9 53       		.byte	0x53
 13788 16da 93       		.byte	0x93
 13789 16db 04       		.uleb128 0x4
 13790 16dc 00000000 		.4byte	0
 13791 16e0 00000000 		.4byte	0
 13792              	.LLST35:
 13793 16e4 9A060000 		.4byte	.LVL203
 13794 16e8 B6060000 		.4byte	.LVL206
 13795 16ec 0600     		.2byte	0x6
 13796 16ee 52       		.byte	0x52
 13797 16ef 93       		.byte	0x93
 13798 16f0 04       		.uleb128 0x4
 13799 16f1 53       		.byte	0x53
 13800 16f2 93       		.byte	0x93
 13801 16f3 04       		.uleb128 0x4
 13802 16f4 500D0000 		.4byte	.LVL393
 13803 16f8 6C0D0000 		.4byte	.LVL396
 13804 16fc 0600     		.2byte	0x6
 13805 16fe 50       		.byte	0x50
 13806 16ff 93       		.byte	0x93
 13807 1700 04       		.uleb128 0x4
 13808 1701 51       		.byte	0x51
 13809 1702 93       		.byte	0x93
 13810 1703 04       		.uleb128 0x4
 13811 1704 900F0000 		.4byte	.LVL461
 13812 1708 B40F0000 		.4byte	.LVL466
 13813 170c 0600     		.2byte	0x6
 13814 170e 52       		.byte	0x52
 13815 170f 93       		.byte	0x93
 13816 1710 04       		.uleb128 0x4
 13817 1711 53       		.byte	0x53
 13818 1712 93       		.byte	0x93
 13819 1713 04       		.uleb128 0x4
 13820 1714 2A120000 		.4byte	.LVL547
 13821 1718 56120000 		.4byte	.LVL552
 13822 171c 0600     		.2byte	0x6
 13823 171e 52       		.byte	0x52
 13824 171f 93       		.byte	0x93
 13825 1720 04       		.uleb128 0x4
 13826 1721 53       		.byte	0x53
ARM GAS  C:\Users\NIGHDR~1\AppData\Local\Temp\ccvJ0Ig2.s 			page 258


 13827 1722 93       		.byte	0x93
 13828 1723 04       		.uleb128 0x4
 13829 1724 00000000 		.4byte	0
 13830 1728 00000000 		.4byte	0
 13831              	.LLST36:
 13832 172c 6E050000 		.4byte	.LVL172
 13833 1730 AA050000 		.4byte	.LVL176
 13834 1734 0600     		.2byte	0x6
 13835 1736 52       		.byte	0x52
 13836 1737 93       		.byte	0x93
 13837 1738 04       		.uleb128 0x4
 13838 1739 53       		.byte	0x53
 13839 173a 93       		.byte	0x93
 13840 173b 04       		.uleb128 0x4
 13841 173c 1C0C0000 		.4byte	.LVL363
 13842 1740 320C0000 		.4byte	.LVL366
 13843 1744 0600     		.2byte	0x6
 13844 1746 52       		.byte	0x52
 13845 1747 93       		.byte	0x93
 13846 1748 04       		.uleb128 0x4
 13847 1749 53       		.byte	0x53
 13848 174a 93       		.byte	0x93
 13849 174b 04       		.uleb128 0x4
 13850 174c B80F0000 		.4byte	.LVL467
 13851 1750 E00F0000 		.4byte	.LVL473
 13852 1754 0600     		.2byte	0x6
 13853 1756 52       		.byte	0x52
 13854 1757 93       		.byte	0x93
 13855 1758 04       		.uleb128 0x4
 13856 1759 53       		.byte	0x53
 13857 175a 93       		.byte	0x93
 13858 175b 04       		.uleb128 0x4
 13859 175c 5A120000 		.4byte	.LVL553
 13860 1760 72120000 		.4byte	.LVL555
 13861 1764 0600     		.2byte	0x6
 13862 1766 52       		.byte	0x52
 13863 1767 93       		.byte	0x93
 13864 1768 04       		.uleb128 0x4
 13865 1769 53       		.byte	0x53
 13866 176a 93       		.byte	0x93
 13867 176b 04       		.uleb128 0x4
 13868 176c 00000000 		.4byte	0
 13869 1770 00000000 		.4byte	0
 13870              	.LLST37:
 13871 1774 D8060000 		.4byte	.LVL209
 13872 1778 FE060000 		.4byte	.LVL213
 13873 177c 0600     		.2byte	0x6
 13874 177e 52       		.byte	0x52
 13875 177f 93       		.byte	0x93
 13876 1780 04       		.uleb128 0x4
 13877 1781 53       		.byte	0x53
 13878 1782 93       		.byte	0x93
 13879 1783 04       		.uleb128 0x4
 13880 1784 880D0000 		.4byte	.LVL399
 13881 1788 A40D0000 		.4byte	.LVL402
 13882 178c 0600     		.2byte	0x6
 13883 178e 50       		.byte	0x50
ARM GAS  C:\Users\NIGHDR~1\AppData\Local\Temp\ccvJ0Ig2.s 			page 259


 13884 178f 93       		.byte	0x93
 13885 1790 04       		.uleb128 0x4
 13886 1791 51       		.byte	0x51
 13887 1792 93       		.byte	0x93
 13888 1793 04       		.uleb128 0x4
 13889 1794 E40F0000 		.4byte	.LVL474
 13890 1798 08100000 		.4byte	.LVL479
 13891 179c 0600     		.2byte	0x6
 13892 179e 52       		.byte	0x52
 13893 179f 93       		.byte	0x93
 13894 17a0 04       		.uleb128 0x4
 13895 17a1 53       		.byte	0x53
 13896 17a2 93       		.byte	0x93
 13897 17a3 04       		.uleb128 0x4
 13898 17a4 82120000 		.4byte	.LVL558
 13899 17a8 AE120000 		.4byte	.LVL562
 13900 17ac 0600     		.2byte	0x6
 13901 17ae 52       		.byte	0x52
 13902 17af 93       		.byte	0x93
 13903 17b0 04       		.uleb128 0x4
 13904 17b1 53       		.byte	0x53
 13905 17b2 93       		.byte	0x93
 13906 17b3 04       		.uleb128 0x4
 13907 17b4 00000000 		.4byte	0
 13908 17b8 00000000 		.4byte	0
 13909              	.LLST38:
 13910 17bc BE050000 		.4byte	.LVL178
 13911 17c0 D6050000 		.4byte	.LVL180
 13912 17c4 0600     		.2byte	0x6
 13913 17c6 52       		.byte	0x52
 13914 17c7 93       		.byte	0x93
 13915 17c8 04       		.uleb128 0x4
 13916 17c9 53       		.byte	0x53
 13917 17ca 93       		.byte	0x93
 13918 17cb 04       		.uleb128 0x4
 13919 17cc 520C0000 		.4byte	.LVL369
 13920 17d0 6E0C0000 		.4byte	.LVL371
 13921 17d4 0600     		.2byte	0x6
 13922 17d6 52       		.byte	0x52
 13923 17d7 93       		.byte	0x93
 13924 17d8 04       		.uleb128 0x4
 13925 17d9 53       		.byte	0x53
 13926 17da 93       		.byte	0x93
 13927 17db 04       		.uleb128 0x4
 13928 17dc 10100000 		.4byte	.LVL480
 13929 17e0 40100000 		.4byte	.LVL486
 13930 17e4 0600     		.2byte	0x6
 13931 17e6 52       		.byte	0x52
 13932 17e7 93       		.byte	0x93
 13933 17e8 04       		.uleb128 0x4
 13934 17e9 53       		.byte	0x53
 13935 17ea 93       		.byte	0x93
 13936 17eb 04       		.uleb128 0x4
 13937 17ec B2120000 		.4byte	.LVL563
 13938 17f0 C8120000 		.4byte	.LVL566
 13939 17f4 0600     		.2byte	0x6
 13940 17f6 52       		.byte	0x52
ARM GAS  C:\Users\NIGHDR~1\AppData\Local\Temp\ccvJ0Ig2.s 			page 260


 13941 17f7 93       		.byte	0x93
 13942 17f8 04       		.uleb128 0x4
 13943 17f9 53       		.byte	0x53
 13944 17fa 93       		.byte	0x93
 13945 17fb 04       		.uleb128 0x4
 13946 17fc 00000000 		.4byte	0
 13947 1800 00000000 		.4byte	0
 13948              	.LLST39:
 13949 1804 16070000 		.4byte	.LVL215
 13950 1808 38070000 		.4byte	.LVL220
 13951 180c 0600     		.2byte	0x6
 13952 180e 52       		.byte	0x52
 13953 180f 93       		.byte	0x93
 13954 1810 04       		.uleb128 0x4
 13955 1811 53       		.byte	0x53
 13956 1812 93       		.byte	0x93
 13957 1813 04       		.uleb128 0x4
 13958 1814 C00D0000 		.4byte	.LVL405
 13959 1818 760E0000 		.4byte	.LVL426
 13960 181c 0600     		.2byte	0x6
 13961 181e 54       		.byte	0x54
 13962 181f 93       		.byte	0x93
 13963 1820 04       		.uleb128 0x4
 13964 1821 55       		.byte	0x55
 13965 1822 93       		.byte	0x93
 13966 1823 04       		.uleb128 0x4
 13967 1824 38100000 		.4byte	.LVL484
 13968 1828 E4100000 		.4byte	.LVL507
 13969 182c 0600     		.2byte	0x6
 13970 182e 54       		.byte	0x54
 13971 182f 93       		.byte	0x93
 13972 1830 04       		.uleb128 0x4
 13973 1831 55       		.byte	0x55
 13974 1832 93       		.byte	0x93
 13975 1833 04       		.uleb128 0x4
 13976 1834 00000000 		.4byte	0
 13977 1838 00000000 		.4byte	0
 13978              	.LLST40:
 13979 183c F6050000 		.4byte	.LVL184
 13980 1840 0E060000 		.4byte	.LVL187
 13981 1844 0600     		.2byte	0x6
 13982 1846 52       		.byte	0x52
 13983 1847 93       		.byte	0x93
 13984 1848 04       		.uleb128 0x4
 13985 1849 53       		.byte	0x53
 13986 184a 93       		.byte	0x93
 13987 184b 04       		.uleb128 0x4
 13988 184c 00000000 		.4byte	0
 13989 1850 00000000 		.4byte	0
 13990              	.LLST41:
 13991 1854 50070000 		.4byte	.LVL221
 13992 1858 7E070000 		.4byte	.LVL226
 13993 185c 0600     		.2byte	0x6
 13994 185e 52       		.byte	0x52
 13995 185f 93       		.byte	0x93
 13996 1860 04       		.uleb128 0x4
 13997 1861 53       		.byte	0x53
ARM GAS  C:\Users\NIGHDR~1\AppData\Local\Temp\ccvJ0Ig2.s 			page 261


 13998 1862 93       		.byte	0x93
 13999 1863 04       		.uleb128 0x4
 14000 1864 00000000 		.4byte	0
 14001 1868 00000000 		.4byte	0
 14002              	.LLST42:
 14003 186c 2E060000 		.4byte	.LVL190
 14004 1870 46060000 		.4byte	.LVL193
 14005 1874 0600     		.2byte	0x6
 14006 1876 52       		.byte	0x52
 14007 1877 93       		.byte	0x93
 14008 1878 04       		.uleb128 0x4
 14009 1879 53       		.byte	0x53
 14010 187a 93       		.byte	0x93
 14011 187b 04       		.uleb128 0x4
 14012 187c 00000000 		.4byte	0
 14013 1880 00000000 		.4byte	0
 14014              	.LLST43:
 14015 1884 8E070000 		.4byte	.LVL227
 14016 1888 AC070000 		.4byte	.LVL231
 14017 188c 0600     		.2byte	0x6
 14018 188e 52       		.byte	0x52
 14019 188f 93       		.byte	0x93
 14020 1890 04       		.uleb128 0x4
 14021 1891 53       		.byte	0x53
 14022 1892 93       		.byte	0x93
 14023 1893 04       		.uleb128 0x4
 14024 1894 00000000 		.4byte	0
 14025 1898 00000000 		.4byte	0
 14026              	.LLST44:
 14027 189c 64060000 		.4byte	.LVL197
 14028 18a0 7C060000 		.4byte	.LVL200
 14029 18a4 0600     		.2byte	0x6
 14030 18a6 52       		.byte	0x52
 14031 18a7 93       		.byte	0x93
 14032 18a8 04       		.uleb128 0x4
 14033 18a9 53       		.byte	0x53
 14034 18aa 93       		.byte	0x93
 14035 18ab 04       		.uleb128 0x4
 14036 18ac 00000000 		.4byte	0
 14037 18b0 00000000 		.4byte	0
 14038              	.LLST45:
 14039 18b4 00000000 		.4byte	.LVL572
 14040 18b8 14000000 		.4byte	.LVL573
 14041 18bc 0100     		.2byte	0x1
 14042 18be 50       		.byte	0x50
 14043 18bf 14000000 		.4byte	.LVL573
 14044 18c3 38240000 		.4byte	.LVL1497
 14045 18c7 0100     		.2byte	0x1
 14046 18c9 58       		.byte	0x58
 14047 18ca 38240000 		.4byte	.LVL1497
 14048 18ce 40240000 		.4byte	.LFE3
 14049 18d2 0400     		.2byte	0x4
 14050 18d4 F3       		.byte	0xf3
 14051 18d5 01       		.uleb128 0x1
 14052 18d6 50       		.byte	0x50
 14053 18d7 9F       		.byte	0x9f
 14054 18d8 00000000 		.4byte	0
ARM GAS  C:\Users\NIGHDR~1\AppData\Local\Temp\ccvJ0Ig2.s 			page 262


 14055 18dc 00000000 		.4byte	0
 14056              	.LLST46:
 14057 18e0 00000000 		.4byte	.LVL572
 14058 18e4 17000000 		.4byte	.LVL574-1
 14059 18e8 0100     		.2byte	0x1
 14060 18ea 51       		.byte	0x51
 14061 18eb 17000000 		.4byte	.LVL574-1
 14062 18ef B6000000 		.4byte	.LVL598
 14063 18f3 0100     		.2byte	0x1
 14064 18f5 54       		.byte	0x54
 14065 18f6 B6000000 		.4byte	.LVL598
 14066 18fa C6000000 		.4byte	.LVL600
 14067 18fe 0300     		.2byte	0x3
 14068 1900 74       		.byte	0x74
 14069 1901 64       		.sleb128 -28
 14070 1902 9F       		.byte	0x9f
 14071 1903 C6000000 		.4byte	.LVL600
 14072 1907 40240000 		.4byte	.LFE3
 14073 190b 0400     		.2byte	0x4
 14074 190d F3       		.byte	0xf3
 14075 190e 01       		.uleb128 0x1
 14076 190f 51       		.byte	0x51
 14077 1910 9F       		.byte	0x9f
 14078 1911 00000000 		.4byte	0
 14079 1915 00000000 		.4byte	0
 14080              	.LLST47:
 14081 1919 00000000 		.4byte	.LVL572
 14082 191d 17000000 		.4byte	.LVL574-1
 14083 1921 0100     		.2byte	0x1
 14084 1923 52       		.byte	0x52
 14085 1924 17000000 		.4byte	.LVL574-1
 14086 1928 6C010000 		.4byte	.LVL628
 14087 192c 0100     		.2byte	0x1
 14088 192e 56       		.byte	0x56
 14089 192f 6C010000 		.4byte	.LVL628
 14090 1933 7C010000 		.4byte	.LVL630
 14091 1937 0300     		.2byte	0x3
 14092 1939 76       		.byte	0x76
 14093 193a 64       		.sleb128 -28
 14094 193b 9F       		.byte	0x9f
 14095 193c 7C010000 		.4byte	.LVL630
 14096 1940 40240000 		.4byte	.LFE3
 14097 1944 0400     		.2byte	0x4
 14098 1946 F3       		.byte	0xf3
 14099 1947 01       		.uleb128 0x1
 14100 1948 52       		.byte	0x52
 14101 1949 9F       		.byte	0x9f
 14102 194a 00000000 		.4byte	0
 14103 194e 00000000 		.4byte	0
 14104              	.LLST48:
 14105 1952 00000000 		.4byte	.LVL572
 14106 1956 17000000 		.4byte	.LVL574-1
 14107 195a 0100     		.2byte	0x1
 14108 195c 53       		.byte	0x53
 14109 195d 17000000 		.4byte	.LVL574-1
 14110 1961 5E020000 		.4byte	.LVL656
 14111 1965 0100     		.2byte	0x1
ARM GAS  C:\Users\NIGHDR~1\AppData\Local\Temp\ccvJ0Ig2.s 			page 263


 14112 1967 57       		.byte	0x57
 14113 1968 5E020000 		.4byte	.LVL656
 14114 196c 6A020000 		.4byte	.LVL658
 14115 1970 0300     		.2byte	0x3
 14116 1972 77       		.byte	0x77
 14117 1973 64       		.sleb128 -28
 14118 1974 9F       		.byte	0x9f
 14119 1975 6A020000 		.4byte	.LVL658
 14120 1979 40240000 		.4byte	.LFE3
 14121 197d 0400     		.2byte	0x4
 14122 197f F3       		.byte	0xf3
 14123 1980 01       		.uleb128 0x1
 14124 1981 53       		.byte	0x53
 14125 1982 9F       		.byte	0x9f
 14126 1983 00000000 		.4byte	0
 14127 1987 00000000 		.4byte	0
 14128              	.LLST49:
 14129 198b C8000000 		.4byte	.LVL601
 14130 198f CD000000 		.4byte	.LVL602-1
 14131 1993 0600     		.2byte	0x6
 14132 1995 52       		.byte	0x52
 14133 1996 93       		.byte	0x93
 14134 1997 04       		.uleb128 0x4
 14135 1998 54       		.byte	0x54
 14136 1999 93       		.byte	0x93
 14137 199a 04       		.uleb128 0x4
 14138 199b CD000000 		.4byte	.LVL602-1
 14139 199f D0000000 		.4byte	.LVL603
 14140 19a3 0700     		.2byte	0x7
 14141 19a5 91       		.byte	0x91
 14142 19a6 44       		.sleb128 -60
 14143 19a7 93       		.byte	0x93
 14144 19a8 04       		.uleb128 0x4
 14145 19a9 54       		.byte	0x54
 14146 19aa 93       		.byte	0x93
 14147 19ab 04       		.uleb128 0x4
 14148 19ac D0000000 		.4byte	.LVL603
 14149 19b0 FA0D0000 		.4byte	.LVL888
 14150 19b4 0900     		.2byte	0x9
 14151 19b6 91       		.byte	0x91
 14152 19b7 44       		.sleb128 -60
 14153 19b8 93       		.byte	0x93
 14154 19b9 04       		.uleb128 0x4
 14155 19ba 91       		.byte	0x91
 14156 19bb F07D     		.sleb128 -272
 14157 19bd 93       		.byte	0x93
 14158 19be 04       		.uleb128 0x4
 14159 19bf 00000000 		.4byte	0
 14160 19c3 00000000 		.4byte	0
 14161              	.LLST50:
 14162 19c7 7E010000 		.4byte	.LVL631
 14163 19cb 80010000 		.4byte	.LVL632
 14164 19cf 0600     		.2byte	0x6
 14165 19d1 50       		.byte	0x50
 14166 19d2 93       		.byte	0x93
 14167 19d3 04       		.uleb128 0x4
 14168 19d4 56       		.byte	0x56
ARM GAS  C:\Users\NIGHDR~1\AppData\Local\Temp\ccvJ0Ig2.s 			page 264


 14169 19d5 93       		.byte	0x93
 14170 19d6 04       		.uleb128 0x4
 14171 19d7 80010000 		.4byte	.LVL632
 14172 19db 88010000 		.4byte	.LVL634
 14173 19df 0800     		.2byte	0x8
 14174 19e1 91       		.byte	0x91
 14175 19e2 D87E     		.sleb128 -168
 14176 19e4 93       		.byte	0x93
 14177 19e5 04       		.uleb128 0x4
 14178 19e6 56       		.byte	0x56
 14179 19e7 93       		.byte	0x93
 14180 19e8 04       		.uleb128 0x4
 14181 19e9 88010000 		.4byte	.LVL634
 14182 19ed A6080000 		.4byte	.LVL777
 14183 19f1 0A00     		.2byte	0xa
 14184 19f3 91       		.byte	0x91
 14185 19f4 D87E     		.sleb128 -168
 14186 19f6 93       		.byte	0x93
 14187 19f7 04       		.uleb128 0x4
 14188 19f8 91       		.byte	0x91
 14189 19f9 C87E     		.sleb128 -184
 14190 19fb 93       		.byte	0x93
 14191 19fc 04       		.uleb128 0x4
 14192 19fd A6080000 		.4byte	.LVL777
 14193 1a01 44090000 		.4byte	.LVL789
 14194 1a05 0800     		.2byte	0x8
 14195 1a07 56       		.byte	0x56
 14196 1a08 93       		.byte	0x93
 14197 1a09 04       		.uleb128 0x4
 14198 1a0a 91       		.byte	0x91
 14199 1a0b C87E     		.sleb128 -184
 14200 1a0d 93       		.byte	0x93
 14201 1a0e 04       		.uleb128 0x4
 14202 1a0f 44090000 		.4byte	.LVL789
 14203 1a13 720A0000 		.4byte	.LVL812
 14204 1a17 0A00     		.2byte	0xa
 14205 1a19 91       		.byte	0x91
 14206 1a1a D87E     		.sleb128 -168
 14207 1a1c 93       		.byte	0x93
 14208 1a1d 04       		.uleb128 0x4
 14209 1a1e 91       		.byte	0x91
 14210 1a1f C87E     		.sleb128 -184
 14211 1a21 93       		.byte	0x93
 14212 1a22 04       		.uleb128 0x4
 14213 1a23 720A0000 		.4byte	.LVL812
 14214 1a27 E00A0000 		.4byte	.LVL821
 14215 1a2b 0800     		.2byte	0x8
 14216 1a2d 56       		.byte	0x56
 14217 1a2e 93       		.byte	0x93
 14218 1a2f 04       		.uleb128 0x4
 14219 1a30 91       		.byte	0x91
 14220 1a31 C87E     		.sleb128 -184
 14221 1a33 93       		.byte	0x93
 14222 1a34 04       		.uleb128 0x4
 14223 1a35 E00A0000 		.4byte	.LVL821
 14224 1a39 840D0000 		.4byte	.LVL878
 14225 1a3d 0A00     		.2byte	0xa
ARM GAS  C:\Users\NIGHDR~1\AppData\Local\Temp\ccvJ0Ig2.s 			page 265


 14226 1a3f 91       		.byte	0x91
 14227 1a40 D87E     		.sleb128 -168
 14228 1a42 93       		.byte	0x93
 14229 1a43 04       		.uleb128 0x4
 14230 1a44 91       		.byte	0x91
 14231 1a45 C87E     		.sleb128 -184
 14232 1a47 93       		.byte	0x93
 14233 1a48 04       		.uleb128 0x4
 14234 1a49 00000000 		.4byte	0
 14235 1a4d 00000000 		.4byte	0
 14236              	.LLST51:
 14237 1a51 8E010000 		.4byte	.LVL635
 14238 1a55 8A020000 		.4byte	.LVL661
 14239 1a59 0300     		.2byte	0x3
 14240 1a5b 91       		.byte	0x91
 14241 1a5c E07E     		.sleb128 -160
 14242 1a5e 00000000 		.4byte	0
 14243 1a62 00000000 		.4byte	0
 14244              	.LLST52:
 14245 1a66 A0010000 		.4byte	.LVL637
 14246 1a6a EA020000 		.4byte	.LVL670
 14247 1a6e 0300     		.2byte	0x3
 14248 1a70 91       		.byte	0x91
 14249 1a71 E87E     		.sleb128 -152
 14250 1a73 00000000 		.4byte	0
 14251 1a77 00000000 		.4byte	0
 14252              	.LLST53:
 14253 1a7b B2010000 		.4byte	.LVL639
 14254 1a7f 8E030000 		.4byte	.LVL683
 14255 1a83 0300     		.2byte	0x3
 14256 1a85 91       		.byte	0x91
 14257 1a86 F07E     		.sleb128 -144
 14258 1a88 00000000 		.4byte	0
 14259 1a8c 00000000 		.4byte	0
 14260              	.LLST54:
 14261 1a90 C4010000 		.4byte	.LVL641
 14262 1a94 7A040000 		.4byte	.LVL700
 14263 1a98 0300     		.2byte	0x3
 14264 1a9a 91       		.byte	0x91
 14265 1a9b F87E     		.sleb128 -136
 14266 1a9d 00000000 		.4byte	0
 14267 1aa1 00000000 		.4byte	0
 14268              	.LLST55:
 14269 1aa5 DA010000 		.4byte	.LVL643
 14270 1aa9 A6050000 		.4byte	.LVL721
 14271 1aad 0300     		.2byte	0x3
 14272 1aaf 91       		.byte	0x91
 14273 1ab0 807F     		.sleb128 -128
 14274 1ab2 00000000 		.4byte	0
 14275 1ab6 00000000 		.4byte	0
 14276              	.LLST56:
 14277 1aba F0010000 		.4byte	.LVL645
 14278 1abe 16070000 		.4byte	.LVL746
 14279 1ac2 0300     		.2byte	0x3
 14280 1ac4 91       		.byte	0x91
 14281 1ac5 887F     		.sleb128 -120
 14282 1ac7 00000000 		.4byte	0
ARM GAS  C:\Users\NIGHDR~1\AppData\Local\Temp\ccvJ0Ig2.s 			page 266


 14283 1acb 00000000 		.4byte	0
 14284              	.LLST57:
 14285 1acf 06020000 		.4byte	.LVL647
 14286 1ad3 06050000 		.4byte	.LVL710
 14287 1ad7 0300     		.2byte	0x3
 14288 1ad9 91       		.byte	0x91
 14289 1ada 907F     		.sleb128 -112
 14290 1adc 00000000 		.4byte	0
 14291 1ae0 00000000 		.4byte	0
 14292              	.LLST58:
 14293 1ae4 1C020000 		.4byte	.LVL649
 14294 1ae8 56060000 		.4byte	.LVL733
 14295 1aec 0300     		.2byte	0x3
 14296 1aee 91       		.byte	0x91
 14297 1aef 987F     		.sleb128 -104
 14298 1af1 00000000 		.4byte	0
 14299 1af5 00000000 		.4byte	0
 14300              	.LLST59:
 14301 1af9 8A020000 		.4byte	.LVL661
 14302 1afd 9A020000 		.4byte	.LVL663
 14303 1b01 0600     		.2byte	0x6
 14304 1b03 56       		.byte	0x56
 14305 1b04 93       		.byte	0x93
 14306 1b05 04       		.uleb128 0x4
 14307 1b06 57       		.byte	0x57
 14308 1b07 93       		.byte	0x93
 14309 1b08 04       		.uleb128 0x4
 14310 1b09 9A020000 		.4byte	.LVL663
 14311 1b0d AC0C0000 		.4byte	.LVL860
 14312 1b11 0300     		.2byte	0x3
 14313 1b13 91       		.byte	0x91
 14314 1b14 E07E     		.sleb128 -160
 14315 1b16 AC0C0000 		.4byte	.LVL860
 14316 1b1a B00C0000 		.4byte	.LVL861
 14317 1b1e 0600     		.2byte	0x6
 14318 1b20 50       		.byte	0x50
 14319 1b21 93       		.byte	0x93
 14320 1b22 04       		.uleb128 0x4
 14321 1b23 51       		.byte	0x51
 14322 1b24 93       		.byte	0x93
 14323 1b25 04       		.uleb128 0x4
 14324 1b26 B00C0000 		.4byte	.LVL861
 14325 1b2a DA1A0000 		.4byte	.LVL1247
 14326 1b2e 0300     		.2byte	0x3
 14327 1b30 91       		.byte	0x91
 14328 1b31 B07E     		.sleb128 -208
 14329 1b33 DA1A0000 		.4byte	.LVL1247
 14330 1b37 A81B0000 		.4byte	.LVL1268
 14331 1b3b 0600     		.2byte	0x6
 14332 1b3d 56       		.byte	0x56
 14333 1b3e 93       		.byte	0x93
 14334 1b3f 04       		.uleb128 0x4
 14335 1b40 57       		.byte	0x57
 14336 1b41 93       		.byte	0x93
 14337 1b42 04       		.uleb128 0x4
 14338 1b43 AC1B0000 		.4byte	.LVL1269
 14339 1b47 AE1B0000 		.4byte	.LVL1270
ARM GAS  C:\Users\NIGHDR~1\AppData\Local\Temp\ccvJ0Ig2.s 			page 267


 14340 1b4b 0600     		.2byte	0x6
 14341 1b4d 56       		.byte	0x56
 14342 1b4e 93       		.byte	0x93
 14343 1b4f 04       		.uleb128 0x4
 14344 1b50 57       		.byte	0x57
 14345 1b51 93       		.byte	0x93
 14346 1b52 04       		.uleb128 0x4
 14347 1b53 AE1B0000 		.4byte	.LVL1270
 14348 1b57 2E1E0000 		.4byte	.LVL1333
 14349 1b5b 0300     		.2byte	0x3
 14350 1b5d 91       		.byte	0x91
 14351 1b5e E87D     		.sleb128 -280
 14352 1b60 2E1E0000 		.4byte	.LVL1333
 14353 1b64 CE1E0000 		.4byte	.LVL1352
 14354 1b68 0600     		.2byte	0x6
 14355 1b6a 56       		.byte	0x56
 14356 1b6b 93       		.byte	0x93
 14357 1b6c 04       		.uleb128 0x4
 14358 1b6d 57       		.byte	0x57
 14359 1b6e 93       		.byte	0x93
 14360 1b6f 04       		.uleb128 0x4
 14361 1b70 D21E0000 		.4byte	.LVL1353
 14362 1b74 E21E0000 		.4byte	.LVL1356
 14363 1b78 0600     		.2byte	0x6
 14364 1b7a 56       		.byte	0x56
 14365 1b7b 93       		.byte	0x93
 14366 1b7c 04       		.uleb128 0x4
 14367 1b7d 57       		.byte	0x57
 14368 1b7e 93       		.byte	0x93
 14369 1b7f 04       		.uleb128 0x4
 14370 1b80 E21E0000 		.4byte	.LVL1356
 14371 1b84 9A200000 		.4byte	.LVL1416
 14372 1b88 0300     		.2byte	0x3
 14373 1b8a 91       		.byte	0x91
 14374 1b8b E87D     		.sleb128 -280
 14375 1b8d 9A200000 		.4byte	.LVL1416
 14376 1b91 3A210000 		.4byte	.LVL1435
 14377 1b95 0600     		.2byte	0x6
 14378 1b97 56       		.byte	0x56
 14379 1b98 93       		.byte	0x93
 14380 1b99 04       		.uleb128 0x4
 14381 1b9a 57       		.byte	0x57
 14382 1b9b 93       		.byte	0x93
 14383 1b9c 04       		.uleb128 0x4
 14384 1b9d 3E210000 		.4byte	.LVL1436
 14385 1ba1 4E210000 		.4byte	.LVL1439
 14386 1ba5 0600     		.2byte	0x6
 14387 1ba7 56       		.byte	0x56
 14388 1ba8 93       		.byte	0x93
 14389 1ba9 04       		.uleb128 0x4
 14390 1baa 57       		.byte	0x57
 14391 1bab 93       		.byte	0x93
 14392 1bac 04       		.uleb128 0x4
 14393 1bad 4E210000 		.4byte	.LVL1439
 14394 1bb1 40240000 		.4byte	.LFE3
 14395 1bb5 0300     		.2byte	0x3
 14396 1bb7 91       		.byte	0x91
ARM GAS  C:\Users\NIGHDR~1\AppData\Local\Temp\ccvJ0Ig2.s 			page 268


 14397 1bb8 E07D     		.sleb128 -288
 14398 1bba 00000000 		.4byte	0
 14399 1bbe 00000000 		.4byte	0
 14400              	.LLST60:
 14401 1bc2 B2020000 		.4byte	.LVL665
 14402 1bc6 C2020000 		.4byte	.LVL667
 14403 1bca 0600     		.2byte	0x6
 14404 1bcc 56       		.byte	0x56
 14405 1bcd 93       		.byte	0x93
 14406 1bce 04       		.uleb128 0x4
 14407 1bcf 57       		.byte	0x57
 14408 1bd0 93       		.byte	0x93
 14409 1bd1 04       		.uleb128 0x4
 14410 1bd2 C2020000 		.4byte	.LVL667
 14411 1bd6 920C0000 		.4byte	.LVL859
 14412 1bda 0200     		.2byte	0x2
 14413 1bdc 91       		.byte	0x91
 14414 1bdd 48       		.sleb128 -56
 14415 1bde 920C0000 		.4byte	.LVL859
 14416 1be2 DA0F0000 		.4byte	.LVL931
 14417 1be6 0600     		.2byte	0x6
 14418 1be8 56       		.byte	0x56
 14419 1be9 93       		.byte	0x93
 14420 1bea 04       		.uleb128 0x4
 14421 1beb 57       		.byte	0x57
 14422 1bec 93       		.byte	0x93
 14423 1bed 04       		.uleb128 0x4
 14424 1bee DE0F0000 		.4byte	.LVL932
 14425 1bf2 E20F0000 		.4byte	.LVL933
 14426 1bf6 0600     		.2byte	0x6
 14427 1bf8 56       		.byte	0x56
 14428 1bf9 93       		.byte	0x93
 14429 1bfa 04       		.uleb128 0x4
 14430 1bfb 57       		.byte	0x57
 14431 1bfc 93       		.byte	0x93
 14432 1bfd 04       		.uleb128 0x4
 14433 1bfe E20F0000 		.4byte	.LVL933
 14434 1c02 4A1A0000 		.4byte	.LVL1227
 14435 1c06 0300     		.2byte	0x3
 14436 1c08 91       		.byte	0x91
 14437 1c09 B87E     		.sleb128 -200
 14438 1c0b 4A1A0000 		.4byte	.LVL1227
 14439 1c0f 4C1A0000 		.4byte	.LVL1228
 14440 1c13 0600     		.2byte	0x6
 14441 1c15 52       		.byte	0x52
 14442 1c16 93       		.byte	0x93
 14443 1c17 04       		.uleb128 0x4
 14444 1c18 53       		.byte	0x53
 14445 1c19 93       		.byte	0x93
 14446 1c1a 04       		.uleb128 0x4
 14447 1c1b 4C1A0000 		.4byte	.LVL1228
 14448 1c1f F61A0000 		.4byte	.LVL1251
 14449 1c23 0300     		.2byte	0x3
 14450 1c25 91       		.byte	0x91
 14451 1c26 B07D     		.sleb128 -336
 14452 1c28 F61A0000 		.4byte	.LVL1251
 14453 1c2c FE1A0000 		.4byte	.LVL1252
ARM GAS  C:\Users\NIGHDR~1\AppData\Local\Temp\ccvJ0Ig2.s 			page 269


 14454 1c30 0600     		.2byte	0x6
 14455 1c32 54       		.byte	0x54
 14456 1c33 93       		.byte	0x93
 14457 1c34 04       		.uleb128 0x4
 14458 1c35 55       		.byte	0x55
 14459 1c36 93       		.byte	0x93
 14460 1c37 04       		.uleb128 0x4
 14461 1c38 FE1A0000 		.4byte	.LVL1252
 14462 1c3c 7C1B0000 		.4byte	.LVL1266
 14463 1c40 0300     		.2byte	0x3
 14464 1c42 91       		.byte	0x91
 14465 1c43 B07D     		.sleb128 -336
 14466 1c45 7C1B0000 		.4byte	.LVL1266
 14467 1c49 881B0000 		.4byte	.LVL1267
 14468 1c4d 0600     		.2byte	0x6
 14469 1c4f 50       		.byte	0x50
 14470 1c50 93       		.byte	0x93
 14471 1c51 04       		.uleb128 0x4
 14472 1c52 51       		.byte	0x51
 14473 1c53 93       		.byte	0x93
 14474 1c54 04       		.uleb128 0x4
 14475 1c55 881B0000 		.4byte	.LVL1267
 14476 1c59 0E1D0000 		.4byte	.LVL1304
 14477 1c5d 0300     		.2byte	0x3
 14478 1c5f 91       		.byte	0x91
 14479 1c60 B07D     		.sleb128 -336
 14480 1c62 0E1D0000 		.4byte	.LVL1304
 14481 1c66 181D0000 		.4byte	.LVL1306
 14482 1c6a 0600     		.2byte	0x6
 14483 1c6c 53       		.byte	0x53
 14484 1c6d 93       		.byte	0x93
 14485 1c6e 04       		.uleb128 0x4
 14486 1c6f 54       		.byte	0x54
 14487 1c70 93       		.byte	0x93
 14488 1c71 04       		.uleb128 0x4
 14489 1c72 181D0000 		.4byte	.LVL1306
 14490 1c76 461E0000 		.4byte	.LVL1335
 14491 1c7a 0300     		.2byte	0x3
 14492 1c7c 91       		.byte	0x91
 14493 1c7d B07D     		.sleb128 -336
 14494 1c7f 461E0000 		.4byte	.LVL1335
 14495 1c83 481E0000 		.4byte	.LVL1336
 14496 1c87 0600     		.2byte	0x6
 14497 1c89 52       		.byte	0x52
 14498 1c8a 93       		.byte	0x93
 14499 1c8b 04       		.uleb128 0x4
 14500 1c8c 53       		.byte	0x53
 14501 1c8d 93       		.byte	0x93
 14502 1c8e 04       		.uleb128 0x4
 14503 1c8f 481E0000 		.4byte	.LVL1336
 14504 1c93 BE1E0000 		.4byte	.LVL1349
 14505 1c97 0200     		.2byte	0x2
 14506 1c99 7D       		.byte	0x7d
 14507 1c9a 00       		.sleb128 0
 14508 1c9b BE1E0000 		.4byte	.LVL1349
 14509 1c9f FA1E0000 		.4byte	.LVL1358
 14510 1ca3 0600     		.2byte	0x6
ARM GAS  C:\Users\NIGHDR~1\AppData\Local\Temp\ccvJ0Ig2.s 			page 270


 14511 1ca5 50       		.byte	0x50
 14512 1ca6 93       		.byte	0x93
 14513 1ca7 04       		.uleb128 0x4
 14514 1ca8 51       		.byte	0x51
 14515 1ca9 93       		.byte	0x93
 14516 1caa 04       		.uleb128 0x4
 14517 1cab FA1E0000 		.4byte	.LVL1358
 14518 1caf FC1E0000 		.4byte	.LVL1359
 14519 1cb3 0600     		.2byte	0x6
 14520 1cb5 51       		.byte	0x51
 14521 1cb6 93       		.byte	0x93
 14522 1cb7 04       		.uleb128 0x4
 14523 1cb8 52       		.byte	0x52
 14524 1cb9 93       		.byte	0x93
 14525 1cba 04       		.uleb128 0x4
 14526 1cbb FC1E0000 		.4byte	.LVL1359
 14527 1cbf B2200000 		.4byte	.LVL1418
 14528 1cc3 0300     		.2byte	0x3
 14529 1cc5 91       		.byte	0x91
 14530 1cc6 B07D     		.sleb128 -336
 14531 1cc8 B2200000 		.4byte	.LVL1418
 14532 1ccc B4200000 		.4byte	.LVL1419
 14533 1cd0 0600     		.2byte	0x6
 14534 1cd2 52       		.byte	0x52
 14535 1cd3 93       		.byte	0x93
 14536 1cd4 04       		.uleb128 0x4
 14537 1cd5 53       		.byte	0x53
 14538 1cd6 93       		.byte	0x93
 14539 1cd7 04       		.uleb128 0x4
 14540 1cd8 B4200000 		.4byte	.LVL1419
 14541 1cdc 2A210000 		.4byte	.LVL1433
 14542 1ce0 0200     		.2byte	0x2
 14543 1ce2 7D       		.byte	0x7d
 14544 1ce3 00       		.sleb128 0
 14545 1ce4 2A210000 		.4byte	.LVL1433
 14546 1ce8 36210000 		.4byte	.LVL1434
 14547 1cec 0600     		.2byte	0x6
 14548 1cee 54       		.byte	0x54
 14549 1cef 93       		.byte	0x93
 14550 1cf0 04       		.uleb128 0x4
 14551 1cf1 55       		.byte	0x55
 14552 1cf2 93       		.byte	0x93
 14553 1cf3 04       		.uleb128 0x4
 14554 1cf4 36210000 		.4byte	.LVL1434
 14555 1cf8 66210000 		.4byte	.LVL1442
 14556 1cfc 0200     		.2byte	0x2
 14557 1cfe 7D       		.byte	0x7d
 14558 1cff 00       		.sleb128 0
 14559 1d00 66210000 		.4byte	.LVL1442
 14560 1d04 6E210000 		.4byte	.LVL1443
 14561 1d08 0600     		.2byte	0x6
 14562 1d0a 52       		.byte	0x52
 14563 1d0b 93       		.byte	0x93
 14564 1d0c 04       		.uleb128 0x4
 14565 1d0d 53       		.byte	0x53
 14566 1d0e 93       		.byte	0x93
 14567 1d0f 04       		.uleb128 0x4
ARM GAS  C:\Users\NIGHDR~1\AppData\Local\Temp\ccvJ0Ig2.s 			page 271


 14568 1d10 6E210000 		.4byte	.LVL1443
 14569 1d14 40240000 		.4byte	.LFE3
 14570 1d18 0300     		.2byte	0x3
 14571 1d1a 91       		.byte	0x91
 14572 1d1b B07D     		.sleb128 -336
 14573 1d1d 00000000 		.4byte	0
 14574 1d21 00000000 		.4byte	0
 14575              	.LLST61:
 14576 1d25 EA020000 		.4byte	.LVL670
 14577 1d29 FA020000 		.4byte	.LVL672
 14578 1d2d 0600     		.2byte	0x6
 14579 1d2f 56       		.byte	0x56
 14580 1d30 93       		.byte	0x93
 14581 1d31 04       		.uleb128 0x4
 14582 1d32 57       		.byte	0x57
 14583 1d33 93       		.byte	0x93
 14584 1d34 04       		.uleb128 0x4
 14585 1d35 FA020000 		.4byte	.LVL672
 14586 1d39 F40C0000 		.4byte	.LVL866
 14587 1d3d 0300     		.2byte	0x3
 14588 1d3f 91       		.byte	0x91
 14589 1d40 E87E     		.sleb128 -152
 14590 1d42 F40C0000 		.4byte	.LVL866
 14591 1d46 F80C0000 		.4byte	.LVL867
 14592 1d4a 0600     		.2byte	0x6
 14593 1d4c 50       		.byte	0x50
 14594 1d4d 93       		.byte	0x93
 14595 1d4e 04       		.uleb128 0x4
 14596 1d4f 51       		.byte	0x51
 14597 1d50 93       		.byte	0x93
 14598 1d51 04       		.uleb128 0x4
 14599 1d52 F80C0000 		.4byte	.LVL867
 14600 1d56 C80F0000 		.4byte	.LVL929
 14601 1d5a 0300     		.2byte	0x3
 14602 1d5c 91       		.byte	0x91
 14603 1d5d B87E     		.sleb128 -200
 14604 1d5f C80F0000 		.4byte	.LVL929
 14605 1d63 D60F0000 		.4byte	.LVL930
 14606 1d67 0600     		.2byte	0x6
 14607 1d69 54       		.byte	0x54
 14608 1d6a 93       		.byte	0x93
 14609 1d6b 04       		.uleb128 0x4
 14610 1d6c 55       		.byte	0x55
 14611 1d6d 93       		.byte	0x93
 14612 1d6e 04       		.uleb128 0x4
 14613 1d6f D60F0000 		.4byte	.LVL930
 14614 1d73 C6190000 		.4byte	.LVL1211
 14615 1d77 0300     		.2byte	0x3
 14616 1d79 91       		.byte	0x91
 14617 1d7a A87E     		.sleb128 -216
 14618 1d7c C6190000 		.4byte	.LVL1211
 14619 1d80 C8190000 		.4byte	.LVL1212
 14620 1d84 0600     		.2byte	0x6
 14621 1d86 52       		.byte	0x52
 14622 1d87 93       		.byte	0x93
 14623 1d88 04       		.uleb128 0x4
 14624 1d89 53       		.byte	0x53
ARM GAS  C:\Users\NIGHDR~1\AppData\Local\Temp\ccvJ0Ig2.s 			page 272


 14625 1d8a 93       		.byte	0x93
 14626 1d8b 04       		.uleb128 0x4
 14627 1d8c C8190000 		.4byte	.LVL1212
 14628 1d90 621A0000 		.4byte	.LVL1230
 14629 1d94 0300     		.2byte	0x3
 14630 1d96 91       		.byte	0x91
 14631 1d97 C87D     		.sleb128 -312
 14632 1d99 621A0000 		.4byte	.LVL1230
 14633 1d9d 641A0000 		.4byte	.LVL1231
 14634 1da1 0600     		.2byte	0x6
 14635 1da3 52       		.byte	0x52
 14636 1da4 93       		.byte	0x93
 14637 1da5 04       		.uleb128 0x4
 14638 1da6 53       		.byte	0x53
 14639 1da7 93       		.byte	0x93
 14640 1da8 04       		.uleb128 0x4
 14641 1da9 641A0000 		.4byte	.LVL1231
 14642 1dad 121B0000 		.4byte	.LVL1254
 14643 1db1 0300     		.2byte	0x3
 14644 1db3 91       		.byte	0x91
 14645 1db4 C87D     		.sleb128 -312
 14646 1db6 121B0000 		.4byte	.LVL1254
 14647 1dba 141B0000 		.4byte	.LVL1255
 14648 1dbe 0600     		.2byte	0x6
 14649 1dc0 52       		.byte	0x52
 14650 1dc1 93       		.byte	0x93
 14651 1dc2 04       		.uleb128 0x4
 14652 1dc3 53       		.byte	0x53
 14653 1dc4 93       		.byte	0x93
 14654 1dc5 04       		.uleb128 0x4
 14655 1dc6 141B0000 		.4byte	.LVL1255
 14656 1dca D41B0000 		.4byte	.LVL1273
 14657 1dce 0300     		.2byte	0x3
 14658 1dd0 91       		.byte	0x91
 14659 1dd1 B87D     		.sleb128 -328
 14660 1dd3 D41B0000 		.4byte	.LVL1273
 14661 1dd7 E81B0000 		.4byte	.LVL1275
 14662 1ddb 0600     		.2byte	0x6
 14663 1ddd 54       		.byte	0x54
 14664 1dde 93       		.byte	0x93
 14665 1ddf 04       		.uleb128 0x4
 14666 1de0 55       		.byte	0x55
 14667 1de1 93       		.byte	0x93
 14668 1de2 04       		.uleb128 0x4
 14669 1de3 E81B0000 		.4byte	.LVL1275
 14670 1de7 EA1B0000 		.4byte	.LVL1276
 14671 1deb 0600     		.2byte	0x6
 14672 1ded 56       		.byte	0x56
 14673 1dee 93       		.byte	0x93
 14674 1def 04       		.uleb128 0x4
 14675 1df0 57       		.byte	0x57
 14676 1df1 93       		.byte	0x93
 14677 1df2 04       		.uleb128 0x4
 14678 1df3 EA1B0000 		.4byte	.LVL1276
 14679 1df7 FA1C0000 		.4byte	.LVL1302
 14680 1dfb 0300     		.2byte	0x3
 14681 1dfd 91       		.byte	0x91
ARM GAS  C:\Users\NIGHDR~1\AppData\Local\Temp\ccvJ0Ig2.s 			page 273


 14682 1dfe 807E     		.sleb128 -256
 14683 1e00 FA1C0000 		.4byte	.LVL1302
 14684 1e04 021D0000 		.4byte	.LVL1303
 14685 1e08 0600     		.2byte	0x6
 14686 1e0a 50       		.byte	0x50
 14687 1e0b 93       		.byte	0x93
 14688 1e0c 04       		.uleb128 0x4
 14689 1e0d 51       		.byte	0x51
 14690 1e0e 93       		.byte	0x93
 14691 1e0f 04       		.uleb128 0x4
 14692 1e10 021D0000 		.4byte	.LVL1303
 14693 1e14 5E1E0000 		.4byte	.LVL1338
 14694 1e18 0300     		.2byte	0x3
 14695 1e1a 91       		.byte	0x91
 14696 1e1b E07D     		.sleb128 -288
 14697 1e1d 5E1E0000 		.4byte	.LVL1338
 14698 1e21 601E0000 		.4byte	.LVL1339
 14699 1e25 0600     		.2byte	0x6
 14700 1e27 52       		.byte	0x52
 14701 1e28 93       		.byte	0x93
 14702 1e29 04       		.uleb128 0x4
 14703 1e2a 53       		.byte	0x53
 14704 1e2b 93       		.byte	0x93
 14705 1e2c 04       		.uleb128 0x4
 14706 1e2d 601E0000 		.4byte	.LVL1339
 14707 1e31 E61E0000 		.4byte	.LVL1357
 14708 1e35 0300     		.2byte	0x3
 14709 1e37 91       		.byte	0x91
 14710 1e38 B07D     		.sleb128 -336
 14711 1e3a E61E0000 		.4byte	.LVL1357
 14712 1e3e 1E1F0000 		.4byte	.LVL1364
 14713 1e42 0600     		.2byte	0x6
 14714 1e44 56       		.byte	0x56
 14715 1e45 93       		.byte	0x93
 14716 1e46 04       		.uleb128 0x4
 14717 1e47 57       		.byte	0x57
 14718 1e48 93       		.byte	0x93
 14719 1e49 04       		.uleb128 0x4
 14720 1e4a 221F0000 		.4byte	.LVL1365
 14721 1e4e 321F0000 		.4byte	.LVL1368
 14722 1e52 0600     		.2byte	0x6
 14723 1e54 56       		.byte	0x56
 14724 1e55 93       		.byte	0x93
 14725 1e56 04       		.uleb128 0x4
 14726 1e57 57       		.byte	0x57
 14727 1e58 93       		.byte	0x93
 14728 1e59 04       		.uleb128 0x4
 14729 1e5a 321F0000 		.4byte	.LVL1368
 14730 1e5e CA200000 		.4byte	.LVL1421
 14731 1e62 0300     		.2byte	0x3
 14732 1e64 91       		.byte	0x91
 14733 1e65 B87D     		.sleb128 -328
 14734 1e67 CA200000 		.4byte	.LVL1421
 14735 1e6b CC200000 		.4byte	.LVL1422
 14736 1e6f 0600     		.2byte	0x6
 14737 1e71 52       		.byte	0x52
 14738 1e72 93       		.byte	0x93
ARM GAS  C:\Users\NIGHDR~1\AppData\Local\Temp\ccvJ0Ig2.s 			page 274


 14739 1e73 04       		.uleb128 0x4
 14740 1e74 53       		.byte	0x53
 14741 1e75 93       		.byte	0x93
 14742 1e76 04       		.uleb128 0x4
 14743 1e77 CC200000 		.4byte	.LVL1422
 14744 1e7b 52210000 		.4byte	.LVL1440
 14745 1e7f 0300     		.2byte	0x3
 14746 1e81 91       		.byte	0x91
 14747 1e82 B07D     		.sleb128 -336
 14748 1e84 52210000 		.4byte	.LVL1440
 14749 1e88 8E210000 		.4byte	.LVL1446
 14750 1e8c 0600     		.2byte	0x6
 14751 1e8e 56       		.byte	0x56
 14752 1e8f 93       		.byte	0x93
 14753 1e90 04       		.uleb128 0x4
 14754 1e91 57       		.byte	0x57
 14755 1e92 93       		.byte	0x93
 14756 1e93 04       		.uleb128 0x4
 14757 1e94 96210000 		.4byte	.LVL1447
 14758 1e98 A2210000 		.4byte	.LVL1450
 14759 1e9c 0600     		.2byte	0x6
 14760 1e9e 56       		.byte	0x56
 14761 1e9f 93       		.byte	0x93
 14762 1ea0 04       		.uleb128 0x4
 14763 1ea1 57       		.byte	0x57
 14764 1ea2 93       		.byte	0x93
 14765 1ea3 04       		.uleb128 0x4
 14766 1ea4 A2210000 		.4byte	.LVL1450
 14767 1ea8 40240000 		.4byte	.LFE3
 14768 1eac 0300     		.2byte	0x3
 14769 1eae 91       		.byte	0x91
 14770 1eaf B87D     		.sleb128 -328
 14771 1eb1 00000000 		.4byte	0
 14772 1eb5 00000000 		.4byte	0
 14773              	.LLST62:
 14774 1eb9 32030000 		.4byte	.LVL676
 14775 1ebd 48030000 		.4byte	.LVL678
 14776 1ec1 0600     		.2byte	0x6
 14777 1ec3 56       		.byte	0x56
 14778 1ec4 93       		.byte	0x93
 14779 1ec5 04       		.uleb128 0x4
 14780 1ec6 57       		.byte	0x57
 14781 1ec7 93       		.byte	0x93
 14782 1ec8 04       		.uleb128 0x4
 14783 1ec9 48030000 		.4byte	.LVL678
 14784 1ecd DA0C0000 		.4byte	.LVL864
 14785 1ed1 0200     		.2byte	0x2
 14786 1ed3 91       		.byte	0x91
 14787 1ed4 50       		.sleb128 -48
 14788 1ed5 DA0C0000 		.4byte	.LVL864
 14789 1ed9 E80C0000 		.4byte	.LVL865
 14790 1edd 0600     		.2byte	0x6
 14791 1edf 54       		.byte	0x54
 14792 1ee0 93       		.byte	0x93
 14793 1ee1 04       		.uleb128 0x4
 14794 1ee2 55       		.byte	0x55
 14795 1ee3 93       		.byte	0x93
ARM GAS  C:\Users\NIGHDR~1\AppData\Local\Temp\ccvJ0Ig2.s 			page 275


 14796 1ee4 04       		.uleb128 0x4
 14797 1ee5 E80C0000 		.4byte	.LVL865
 14798 1ee9 10100000 		.4byte	.LVL937
 14799 1eed 0300     		.2byte	0x3
 14800 1eef 91       		.byte	0x91
 14801 1ef0 D07D     		.sleb128 -304
 14802 1ef2 10100000 		.4byte	.LVL937
 14803 1ef6 14100000 		.4byte	.LVL938
 14804 1efa 0600     		.2byte	0x6
 14805 1efc 56       		.byte	0x56
 14806 1efd 93       		.byte	0x93
 14807 1efe 04       		.uleb128 0x4
 14808 1eff 57       		.byte	0x57
 14809 1f00 93       		.byte	0x93
 14810 1f01 04       		.uleb128 0x4
 14811 1f02 14100000 		.4byte	.LVL938
 14812 1f06 42190000 		.4byte	.LVL1195
 14813 1f0a 0300     		.2byte	0x3
 14814 1f0c 91       		.byte	0x91
 14815 1f0d F07E     		.sleb128 -144
 14816 1f0f 42190000 		.4byte	.LVL1195
 14817 1f13 44190000 		.4byte	.LVL1196
 14818 1f17 0600     		.2byte	0x6
 14819 1f19 52       		.byte	0x52
 14820 1f1a 93       		.byte	0x93
 14821 1f1b 04       		.uleb128 0x4
 14822 1f1c 53       		.byte	0x53
 14823 1f1d 93       		.byte	0x93
 14824 1f1e 04       		.uleb128 0x4
 14825 1f1f 44190000 		.4byte	.LVL1196
 14826 1f23 DE190000 		.4byte	.LVL1214
 14827 1f27 0300     		.2byte	0x3
 14828 1f29 91       		.byte	0x91
 14829 1f2a C07D     		.sleb128 -320
 14830 1f2c DE190000 		.4byte	.LVL1214
 14831 1f30 E0190000 		.4byte	.LVL1215
 14832 1f34 0600     		.2byte	0x6
 14833 1f36 52       		.byte	0x52
 14834 1f37 93       		.byte	0x93
 14835 1f38 04       		.uleb128 0x4
 14836 1f39 53       		.byte	0x53
 14837 1f3a 93       		.byte	0x93
 14838 1f3b 04       		.uleb128 0x4
 14839 1f3c E0190000 		.4byte	.LVL1215
 14840 1f40 7A1A0000 		.4byte	.LVL1233
 14841 1f44 0300     		.2byte	0x3
 14842 1f46 91       		.byte	0x91
 14843 1f47 C07D     		.sleb128 -320
 14844 1f49 7A1A0000 		.4byte	.LVL1233
 14845 1f4d 7C1A0000 		.4byte	.LVL1234
 14846 1f51 0600     		.2byte	0x6
 14847 1f53 52       		.byte	0x52
 14848 1f54 93       		.byte	0x93
 14849 1f55 04       		.uleb128 0x4
 14850 1f56 53       		.byte	0x53
 14851 1f57 93       		.byte	0x93
 14852 1f58 04       		.uleb128 0x4
ARM GAS  C:\Users\NIGHDR~1\AppData\Local\Temp\ccvJ0Ig2.s 			page 276


 14853 1f59 7C1A0000 		.4byte	.LVL1234
 14854 1f5d 2C1B0000 		.4byte	.LVL1257
 14855 1f61 0300     		.2byte	0x3
 14856 1f63 91       		.byte	0x91
 14857 1f64 C07D     		.sleb128 -320
 14858 1f66 2C1B0000 		.4byte	.LVL1257
 14859 1f6a 2E1B0000 		.4byte	.LVL1258
 14860 1f6e 0600     		.2byte	0x6
 14861 1f70 52       		.byte	0x52
 14862 1f71 93       		.byte	0x93
 14863 1f72 04       		.uleb128 0x4
 14864 1f73 53       		.byte	0x53
 14865 1f74 93       		.byte	0x93
 14866 1f75 04       		.uleb128 0x4
 14867 1f76 2E1B0000 		.4byte	.LVL1258
 14868 1f7a D41B0000 		.4byte	.LVL1273
 14869 1f7e 0300     		.2byte	0x3
 14870 1f80 91       		.byte	0x91
 14871 1f81 C07D     		.sleb128 -320
 14872 1f83 D41B0000 		.4byte	.LVL1273
 14873 1f87 D61B0000 		.4byte	.LVL1274
 14874 1f8b 0600     		.2byte	0x6
 14875 1f8d 56       		.byte	0x56
 14876 1f8e 93       		.byte	0x93
 14877 1f8f 04       		.uleb128 0x4
 14878 1f90 57       		.byte	0x57
 14879 1f91 93       		.byte	0x93
 14880 1f92 04       		.uleb128 0x4
 14881 1f93 D61B0000 		.4byte	.LVL1274
 14882 1f97 481D0000 		.4byte	.LVL1310
 14883 1f9b 0300     		.2byte	0x3
 14884 1f9d 91       		.byte	0x91
 14885 1f9e B87D     		.sleb128 -328
 14886 1fa0 481D0000 		.4byte	.LVL1310
 14887 1fa4 601D0000 		.4byte	.LVL1312
 14888 1fa8 0600     		.2byte	0x6
 14889 1faa 53       		.byte	0x53
 14890 1fab 93       		.byte	0x93
 14891 1fac 04       		.uleb128 0x4
 14892 1fad 54       		.byte	0x54
 14893 1fae 93       		.byte	0x93
 14894 1faf 04       		.uleb128 0x4
 14895 1fb0 601D0000 		.4byte	.LVL1312
 14896 1fb4 781E0000 		.4byte	.LVL1341
 14897 1fb8 0300     		.2byte	0x3
 14898 1fba 91       		.byte	0x91
 14899 1fbb B87D     		.sleb128 -328
 14900 1fbd 781E0000 		.4byte	.LVL1341
 14901 1fc1 7A1E0000 		.4byte	.LVL1342
 14902 1fc5 0600     		.2byte	0x6
 14903 1fc7 52       		.byte	0x52
 14904 1fc8 93       		.byte	0x93
 14905 1fc9 04       		.uleb128 0x4
 14906 1fca 53       		.byte	0x53
 14907 1fcb 93       		.byte	0x93
 14908 1fcc 04       		.uleb128 0x4
 14909 1fcd 7A1E0000 		.4byte	.LVL1342
ARM GAS  C:\Users\NIGHDR~1\AppData\Local\Temp\ccvJ0Ig2.s 			page 277


 14910 1fd1 0E1F0000 		.4byte	.LVL1362
 14911 1fd5 0300     		.2byte	0x3
 14912 1fd7 91       		.byte	0x91
 14913 1fd8 B87D     		.sleb128 -328
 14914 1fda 0E1F0000 		.4byte	.LVL1362
 14915 1fde 1A1F0000 		.4byte	.LVL1363
 14916 1fe2 0600     		.2byte	0x6
 14917 1fe4 50       		.byte	0x50
 14918 1fe5 93       		.byte	0x93
 14919 1fe6 04       		.uleb128 0x4
 14920 1fe7 51       		.byte	0x51
 14921 1fe8 93       		.byte	0x93
 14922 1fe9 04       		.uleb128 0x4
 14923 1fea 1A1F0000 		.4byte	.LVL1363
 14924 1fee 4A1F0000 		.4byte	.LVL1370
 14925 1ff2 0200     		.2byte	0x2
 14926 1ff4 7D       		.byte	0x7d
 14927 1ff5 00       		.sleb128 0
 14928 1ff6 4A1F0000 		.4byte	.LVL1370
 14929 1ffa 521F0000 		.4byte	.LVL1372
 14930 1ffe 0600     		.2byte	0x6
 14931 2000 53       		.byte	0x53
 14932 2001 93       		.byte	0x93
 14933 2002 04       		.uleb128 0x4
 14934 2003 54       		.byte	0x54
 14935 2004 93       		.byte	0x93
 14936 2005 04       		.uleb128 0x4
 14937 2006 521F0000 		.4byte	.LVL1372
 14938 200a E4200000 		.4byte	.LVL1424
 14939 200e 0300     		.2byte	0x3
 14940 2010 91       		.byte	0x91
 14941 2011 E07D     		.sleb128 -288
 14942 2013 E4200000 		.4byte	.LVL1424
 14943 2017 E6200000 		.4byte	.LVL1425
 14944 201b 0600     		.2byte	0x6
 14945 201d 52       		.byte	0x52
 14946 201e 93       		.byte	0x93
 14947 201f 04       		.uleb128 0x4
 14948 2020 53       		.byte	0x53
 14949 2021 93       		.byte	0x93
 14950 2022 04       		.uleb128 0x4
 14951 2023 E6200000 		.4byte	.LVL1425
 14952 2027 7E210000 		.4byte	.LVL1445
 14953 202b 0300     		.2byte	0x3
 14954 202d 91       		.byte	0x91
 14955 202e B87D     		.sleb128 -328
 14956 2030 7E210000 		.4byte	.LVL1445
 14957 2034 BA210000 		.4byte	.LVL1452
 14958 2038 0600     		.2byte	0x6
 14959 203a 54       		.byte	0x54
 14960 203b 93       		.byte	0x93
 14961 203c 04       		.uleb128 0x4
 14962 203d 55       		.byte	0x55
 14963 203e 93       		.byte	0x93
 14964 203f 04       		.uleb128 0x4
 14965 2040 DC210000 		.4byte	.LVL1453
 14966 2044 E8210000 		.4byte	.LVL1455
ARM GAS  C:\Users\NIGHDR~1\AppData\Local\Temp\ccvJ0Ig2.s 			page 278


 14967 2048 0600     		.2byte	0x6
 14968 204a 53       		.byte	0x53
 14969 204b 93       		.byte	0x93
 14970 204c 04       		.uleb128 0x4
 14971 204d 54       		.byte	0x54
 14972 204e 93       		.byte	0x93
 14973 204f 04       		.uleb128 0x4
 14974 2050 E8210000 		.4byte	.LVL1455
 14975 2054 40240000 		.4byte	.LFE3
 14976 2058 0300     		.2byte	0x3
 14977 205a 91       		.byte	0x91
 14978 205b C07D     		.sleb128 -320
 14979 205d 00000000 		.4byte	0
 14980 2061 00000000 		.4byte	0
 14981              	.LLST63:
 14982 2065 8E030000 		.4byte	.LVL683
 14983 2069 A4030000 		.4byte	.LVL685
 14984 206d 0600     		.2byte	0x6
 14985 206f 56       		.byte	0x56
 14986 2070 93       		.byte	0x93
 14987 2071 04       		.uleb128 0x4
 14988 2072 57       		.byte	0x57
 14989 2073 93       		.byte	0x93
 14990 2074 04       		.uleb128 0x4
 14991 2075 A4030000 		.4byte	.LVL685
 14992 2079 3C0D0000 		.4byte	.LVL872
 14993 207d 0300     		.2byte	0x3
 14994 207f 91       		.byte	0x91
 14995 2080 F07E     		.sleb128 -144
 14996 2082 3C0D0000 		.4byte	.LVL872
 14997 2086 400D0000 		.4byte	.LVL873
 14998 208a 0600     		.2byte	0x6
 14999 208c 50       		.byte	0x50
 15000 208d 93       		.byte	0x93
 15001 208e 04       		.uleb128 0x4
 15002 208f 51       		.byte	0x51
 15003 2090 93       		.byte	0x93
 15004 2091 04       		.uleb128 0x4
 15005 2092 400D0000 		.4byte	.LVL873
 15006 2096 FC0F0000 		.4byte	.LVL935
 15007 209a 0300     		.2byte	0x3
 15008 209c 91       		.byte	0x91
 15009 209d C07E     		.sleb128 -192
 15010 209f FC0F0000 		.4byte	.LVL935
 15011 20a3 00100000 		.4byte	.LVL936
 15012 20a7 0600     		.2byte	0x6
 15013 20a9 55       		.byte	0x55
 15014 20aa 93       		.byte	0x93
 15015 20ab 04       		.uleb128 0x4
 15016 20ac 56       		.byte	0x56
 15017 20ad 93       		.byte	0x93
 15018 20ae 04       		.uleb128 0x4
 15019 20af 00100000 		.4byte	.LVL936
 15020 20b3 BE180000 		.4byte	.LVL1179
 15021 20b7 0300     		.2byte	0x3
 15022 20b9 91       		.byte	0x91
 15023 20ba C07E     		.sleb128 -192
ARM GAS  C:\Users\NIGHDR~1\AppData\Local\Temp\ccvJ0Ig2.s 			page 279


 15024 20bc BE180000 		.4byte	.LVL1179
 15025 20c0 C0180000 		.4byte	.LVL1180
 15026 20c4 0600     		.2byte	0x6
 15027 20c6 52       		.byte	0x52
 15028 20c7 93       		.byte	0x93
 15029 20c8 04       		.uleb128 0x4
 15030 20c9 53       		.byte	0x53
 15031 20ca 93       		.byte	0x93
 15032 20cb 04       		.uleb128 0x4
 15033 20cc C0180000 		.4byte	.LVL1180
 15034 20d0 5A190000 		.4byte	.LVL1198
 15035 20d4 0300     		.2byte	0x3
 15036 20d6 91       		.byte	0x91
 15037 20d7 E87D     		.sleb128 -280
 15038 20d9 5A190000 		.4byte	.LVL1198
 15039 20dd 5C190000 		.4byte	.LVL1199
 15040 20e1 0600     		.2byte	0x6
 15041 20e3 52       		.byte	0x52
 15042 20e4 93       		.byte	0x93
 15043 20e5 04       		.uleb128 0x4
 15044 20e6 53       		.byte	0x53
 15045 20e7 93       		.byte	0x93
 15046 20e8 04       		.uleb128 0x4
 15047 20e9 5C190000 		.4byte	.LVL1199
 15048 20ed F6190000 		.4byte	.LVL1217
 15049 20f1 0300     		.2byte	0x3
 15050 20f3 91       		.byte	0x91
 15051 20f4 E87D     		.sleb128 -280
 15052 20f6 F6190000 		.4byte	.LVL1217
 15053 20fa F8190000 		.4byte	.LVL1218
 15054 20fe 0600     		.2byte	0x6
 15055 2100 52       		.byte	0x52
 15056 2101 93       		.byte	0x93
 15057 2102 04       		.uleb128 0x4
 15058 2103 53       		.byte	0x53
 15059 2104 93       		.byte	0x93
 15060 2105 04       		.uleb128 0x4
 15061 2106 F8190000 		.4byte	.LVL1218
 15062 210a 941A0000 		.4byte	.LVL1236
 15063 210e 0300     		.2byte	0x3
 15064 2110 91       		.byte	0x91
 15065 2111 E87D     		.sleb128 -280
 15066 2113 941A0000 		.4byte	.LVL1236
 15067 2117 961A0000 		.4byte	.LVL1237
 15068 211b 0600     		.2byte	0x6
 15069 211d 52       		.byte	0x52
 15070 211e 93       		.byte	0x93
 15071 211f 04       		.uleb128 0x4
 15072 2120 53       		.byte	0x53
 15073 2121 93       		.byte	0x93
 15074 2122 04       		.uleb128 0x4
 15075 2123 961A0000 		.4byte	.LVL1237
 15076 2127 441B0000 		.4byte	.LVL1260
 15077 212b 0300     		.2byte	0x3
 15078 212d 91       		.byte	0x91
 15079 212e E87D     		.sleb128 -280
 15080 2130 441B0000 		.4byte	.LVL1260
ARM GAS  C:\Users\NIGHDR~1\AppData\Local\Temp\ccvJ0Ig2.s 			page 280


 15081 2134 461B0000 		.4byte	.LVL1261
 15082 2138 0600     		.2byte	0x6
 15083 213a 52       		.byte	0x52
 15084 213b 93       		.byte	0x93
 15085 213c 04       		.uleb128 0x4
 15086 213d 53       		.byte	0x53
 15087 213e 93       		.byte	0x93
 15088 213f 04       		.uleb128 0x4
 15089 2140 461B0000 		.4byte	.LVL1261
 15090 2144 241C0000 		.4byte	.LVL1281
 15091 2148 0300     		.2byte	0x3
 15092 214a 91       		.byte	0x91
 15093 214b C87D     		.sleb128 -312
 15094 214d 241C0000 		.4byte	.LVL1281
 15095 2151 261C0000 		.4byte	.LVL1282
 15096 2155 0600     		.2byte	0x6
 15097 2157 56       		.byte	0x56
 15098 2158 93       		.byte	0x93
 15099 2159 04       		.uleb128 0x4
 15100 215a 57       		.byte	0x57
 15101 215b 93       		.byte	0x93
 15102 215c 04       		.uleb128 0x4
 15103 215d 261C0000 		.4byte	.LVL1282
 15104 2161 341D0000 		.4byte	.LVL1308
 15105 2165 0300     		.2byte	0x3
 15106 2167 91       		.byte	0x91
 15107 2168 907E     		.sleb128 -240
 15108 216a 341D0000 		.4byte	.LVL1308
 15109 216e 361D0000 		.4byte	.LVL1309
 15110 2172 0600     		.2byte	0x6
 15111 2174 54       		.byte	0x54
 15112 2175 93       		.byte	0x93
 15113 2176 04       		.uleb128 0x4
 15114 2177 55       		.byte	0x55
 15115 2178 93       		.byte	0x93
 15116 2179 04       		.uleb128 0x4
 15117 217a 361D0000 		.4byte	.LVL1309
 15118 217e 901E0000 		.4byte	.LVL1344
 15119 2182 0300     		.2byte	0x3
 15120 2184 91       		.byte	0x91
 15121 2185 F87D     		.sleb128 -264
 15122 2187 901E0000 		.4byte	.LVL1344
 15123 218b 921E0000 		.4byte	.LVL1345
 15124 218f 0600     		.2byte	0x6
 15125 2191 52       		.byte	0x52
 15126 2192 93       		.byte	0x93
 15127 2193 04       		.uleb128 0x4
 15128 2194 53       		.byte	0x53
 15129 2195 93       		.byte	0x93
 15130 2196 04       		.uleb128 0x4
 15131 2197 921E0000 		.4byte	.LVL1345
 15132 219b 361F0000 		.4byte	.LVL1369
 15133 219f 0300     		.2byte	0x3
 15134 21a1 91       		.byte	0x91
 15135 21a2 E07D     		.sleb128 -288
 15136 21a4 361F0000 		.4byte	.LVL1369
 15137 21a8 6E1F0000 		.4byte	.LVL1375
ARM GAS  C:\Users\NIGHDR~1\AppData\Local\Temp\ccvJ0Ig2.s 			page 281


 15138 21ac 0600     		.2byte	0x6
 15139 21ae 56       		.byte	0x56
 15140 21af 93       		.byte	0x93
 15141 21b0 04       		.uleb128 0x4
 15142 21b1 57       		.byte	0x57
 15143 21b2 93       		.byte	0x93
 15144 21b3 04       		.uleb128 0x4
 15145 21b4 721F0000 		.4byte	.LVL1376
 15146 21b8 821F0000 		.4byte	.LVL1379
 15147 21bc 0600     		.2byte	0x6
 15148 21be 56       		.byte	0x56
 15149 21bf 93       		.byte	0x93
 15150 21c0 04       		.uleb128 0x4
 15151 21c1 57       		.byte	0x57
 15152 21c2 93       		.byte	0x93
 15153 21c3 04       		.uleb128 0x4
 15154 21c4 821F0000 		.4byte	.LVL1379
 15155 21c8 FC200000 		.4byte	.LVL1427
 15156 21cc 0300     		.2byte	0x3
 15157 21ce 91       		.byte	0x91
 15158 21cf C07D     		.sleb128 -320
 15159 21d1 FC200000 		.4byte	.LVL1427
 15160 21d5 FE200000 		.4byte	.LVL1428
 15161 21d9 0600     		.2byte	0x6
 15162 21db 52       		.byte	0x52
 15163 21dc 93       		.byte	0x93
 15164 21dd 04       		.uleb128 0x4
 15165 21de 53       		.byte	0x53
 15166 21df 93       		.byte	0x93
 15167 21e0 04       		.uleb128 0x4
 15168 21e1 FE200000 		.4byte	.LVL1428
 15169 21e5 AA210000 		.4byte	.LVL1451
 15170 21e9 0300     		.2byte	0x3
 15171 21eb 91       		.byte	0x91
 15172 21ec C07D     		.sleb128 -320
 15173 21ee AA210000 		.4byte	.LVL1451
 15174 21f2 04220000 		.4byte	.LVL1457
 15175 21f6 0600     		.2byte	0x6
 15176 21f8 56       		.byte	0x56
 15177 21f9 93       		.byte	0x93
 15178 21fa 04       		.uleb128 0x4
 15179 21fb 57       		.byte	0x57
 15180 21fc 93       		.byte	0x93
 15181 21fd 04       		.uleb128 0x4
 15182 21fe 04220000 		.4byte	.LVL1457
 15183 2202 08220000 		.4byte	.LVL1458
 15184 2206 0200     		.2byte	0x2
 15185 2208 7D       		.byte	0x7d
 15186 2209 00       		.sleb128 0
 15187 220a 08220000 		.4byte	.LVL1458
 15188 220e 68220000 		.4byte	.LVL1473
 15189 2212 0600     		.2byte	0x6
 15190 2214 56       		.byte	0x56
 15191 2215 93       		.byte	0x93
 15192 2216 04       		.uleb128 0x4
 15193 2217 57       		.byte	0x57
 15194 2218 93       		.byte	0x93
ARM GAS  C:\Users\NIGHDR~1\AppData\Local\Temp\ccvJ0Ig2.s 			page 282


 15195 2219 04       		.uleb128 0x4
 15196 221a 68220000 		.4byte	.LVL1473
 15197 221e 40240000 		.4byte	.LFE3
 15198 2222 0300     		.2byte	0x3
 15199 2224 91       		.byte	0x91
 15200 2225 D87D     		.sleb128 -296
 15201 2227 00000000 		.4byte	0
 15202 222b 00000000 		.4byte	0
 15203              	.LLST64:
 15204 222f FA030000 		.4byte	.LVL691
 15205 2233 10040000 		.4byte	.LVL693
 15206 2237 0600     		.2byte	0x6
 15207 2239 56       		.byte	0x56
 15208 223a 93       		.byte	0x93
 15209 223b 04       		.uleb128 0x4
 15210 223c 57       		.byte	0x57
 15211 223d 93       		.byte	0x93
 15212 223e 04       		.uleb128 0x4
 15213 223f 10040000 		.4byte	.LVL693
 15214 2243 220D0000 		.4byte	.LVL870
 15215 2247 0200     		.2byte	0x2
 15216 2249 91       		.byte	0x91
 15217 224a 58       		.sleb128 -40
 15218 224b 220D0000 		.4byte	.LVL870
 15219 224f 300D0000 		.4byte	.LVL871
 15220 2253 0600     		.2byte	0x6
 15221 2255 54       		.byte	0x54
 15222 2256 93       		.byte	0x93
 15223 2257 04       		.uleb128 0x4
 15224 2258 55       		.byte	0x55
 15225 2259 93       		.byte	0x93
 15226 225a 04       		.uleb128 0x4
 15227 225b 300D0000 		.4byte	.LVL871
 15228 225f 42100000 		.4byte	.LVL943
 15229 2263 0300     		.2byte	0x3
 15230 2265 91       		.byte	0x91
 15231 2266 D87D     		.sleb128 -296
 15232 2268 42100000 		.4byte	.LVL943
 15233 226c 4C100000 		.4byte	.LVL944
 15234 2270 0600     		.2byte	0x6
 15235 2272 56       		.byte	0x56
 15236 2273 93       		.byte	0x93
 15237 2274 04       		.uleb128 0x4
 15238 2275 57       		.byte	0x57
 15239 2276 93       		.byte	0x93
 15240 2277 04       		.uleb128 0x4
 15241 2278 4C100000 		.4byte	.LVL944
 15242 227c 26180000 		.4byte	.LVL1162
 15243 2280 0300     		.2byte	0x3
 15244 2282 91       		.byte	0x91
 15245 2283 D87D     		.sleb128 -296
 15246 2285 26180000 		.4byte	.LVL1162
 15247 2289 A41A0000 		.4byte	.LVL1239
 15248 228d 0600     		.2byte	0x6
 15249 228f 56       		.byte	0x56
 15250 2290 93       		.byte	0x93
 15251 2291 04       		.uleb128 0x4
ARM GAS  C:\Users\NIGHDR~1\AppData\Local\Temp\ccvJ0Ig2.s 			page 283


 15252 2292 57       		.byte	0x57
 15253 2293 93       		.byte	0x93
 15254 2294 04       		.uleb128 0x4
 15255 2295 A81A0000 		.4byte	.LVL1240
 15256 2299 D61A0000 		.4byte	.LVL1246
 15257 229d 0600     		.2byte	0x6
 15258 229f 56       		.byte	0x56
 15259 22a0 93       		.byte	0x93
 15260 22a1 04       		.uleb128 0x4
 15261 22a2 57       		.byte	0x57
 15262 22a3 93       		.byte	0x93
 15263 22a4 04       		.uleb128 0x4
 15264 22a5 D61A0000 		.4byte	.LVL1246
 15265 22a9 5E1B0000 		.4byte	.LVL1263
 15266 22ad 0300     		.2byte	0x3
 15267 22af 91       		.byte	0x91
 15268 22b0 807E     		.sleb128 -256
 15269 22b2 5E1B0000 		.4byte	.LVL1263
 15270 22b6 6C1B0000 		.4byte	.LVL1264
 15271 22ba 0600     		.2byte	0x6
 15272 22bc 52       		.byte	0x52
 15273 22bd 93       		.byte	0x93
 15274 22be 04       		.uleb128 0x4
 15275 22bf 53       		.byte	0x53
 15276 22c0 93       		.byte	0x93
 15277 22c1 04       		.uleb128 0x4
 15278 22c2 6C1B0000 		.4byte	.LVL1264
 15279 22c6 101C0000 		.4byte	.LVL1279
 15280 22ca 0300     		.2byte	0x3
 15281 22cc 91       		.byte	0x91
 15282 22cd D07D     		.sleb128 -304
 15283 22cf 101C0000 		.4byte	.LVL1279
 15284 22d3 121C0000 		.4byte	.LVL1280
 15285 22d7 0600     		.2byte	0x6
 15286 22d9 56       		.byte	0x56
 15287 22da 93       		.byte	0x93
 15288 22db 04       		.uleb128 0x4
 15289 22dc 57       		.byte	0x57
 15290 22dd 93       		.byte	0x93
 15291 22de 04       		.uleb128 0x4
 15292 22df 121C0000 		.4byte	.LVL1280
 15293 22e3 801D0000 		.4byte	.LVL1315
 15294 22e7 0300     		.2byte	0x3
 15295 22e9 91       		.byte	0x91
 15296 22ea C07D     		.sleb128 -320
 15297 22ec 801D0000 		.4byte	.LVL1315
 15298 22f0 981D0000 		.4byte	.LVL1317
 15299 22f4 0600     		.2byte	0x6
 15300 22f6 53       		.byte	0x53
 15301 22f7 93       		.byte	0x93
 15302 22f8 04       		.uleb128 0x4
 15303 22f9 54       		.byte	0x54
 15304 22fa 93       		.byte	0x93
 15305 22fb 04       		.uleb128 0x4
 15306 22fc 981D0000 		.4byte	.LVL1317
 15307 2300 AA1E0000 		.4byte	.LVL1347
 15308 2304 0300     		.2byte	0x3
ARM GAS  C:\Users\NIGHDR~1\AppData\Local\Temp\ccvJ0Ig2.s 			page 284


 15309 2306 91       		.byte	0x91
 15310 2307 C07D     		.sleb128 -320
 15311 2309 AA1E0000 		.4byte	.LVL1347
 15312 230d B21E0000 		.4byte	.LVL1348
 15313 2311 0600     		.2byte	0x6
 15314 2313 53       		.byte	0x53
 15315 2314 93       		.byte	0x93
 15316 2315 04       		.uleb128 0x4
 15317 2316 54       		.byte	0x54
 15318 2317 93       		.byte	0x93
 15319 2318 04       		.uleb128 0x4
 15320 2319 B21E0000 		.4byte	.LVL1348
 15321 231d 5E1F0000 		.4byte	.LVL1373
 15322 2321 0300     		.2byte	0x3
 15323 2323 91       		.byte	0x91
 15324 2324 C07D     		.sleb128 -320
 15325 2326 5E1F0000 		.4byte	.LVL1373
 15326 232a 6A1F0000 		.4byte	.LVL1374
 15327 232e 0600     		.2byte	0x6
 15328 2330 50       		.byte	0x50
 15329 2331 93       		.byte	0x93
 15330 2332 04       		.uleb128 0x4
 15331 2333 51       		.byte	0x51
 15332 2334 93       		.byte	0x93
 15333 2335 04       		.uleb128 0x4
 15334 2336 6A1F0000 		.4byte	.LVL1374
 15335 233a 9A1F0000 		.4byte	.LVL1381
 15336 233e 0200     		.2byte	0x2
 15337 2340 7D       		.byte	0x7d
 15338 2341 00       		.sleb128 0
 15339 2342 9A1F0000 		.4byte	.LVL1381
 15340 2346 A21F0000 		.4byte	.LVL1383
 15341 234a 0600     		.2byte	0x6
 15342 234c 53       		.byte	0x53
 15343 234d 93       		.byte	0x93
 15344 234e 04       		.uleb128 0x4
 15345 234f 54       		.byte	0x54
 15346 2350 93       		.byte	0x93
 15347 2351 04       		.uleb128 0x4
 15348 2352 A21F0000 		.4byte	.LVL1383
 15349 2356 16210000 		.4byte	.LVL1430
 15350 235a 0300     		.2byte	0x3
 15351 235c 91       		.byte	0x91
 15352 235d D87D     		.sleb128 -296
 15353 235f 16210000 		.4byte	.LVL1430
 15354 2363 1E210000 		.4byte	.LVL1431
 15355 2367 0600     		.2byte	0x6
 15356 2369 53       		.byte	0x53
 15357 236a 93       		.byte	0x93
 15358 236b 04       		.uleb128 0x4
 15359 236c 54       		.byte	0x54
 15360 236d 93       		.byte	0x93
 15361 236e 04       		.uleb128 0x4
 15362 236f 1E210000 		.4byte	.LVL1431
 15363 2373 F0210000 		.4byte	.LVL1456
 15364 2377 0300     		.2byte	0x3
 15365 2379 91       		.byte	0x91
ARM GAS  C:\Users\NIGHDR~1\AppData\Local\Temp\ccvJ0Ig2.s 			page 285


 15366 237a D87D     		.sleb128 -296
 15367 237c F0210000 		.4byte	.LVL1456
 15368 2380 2C220000 		.4byte	.LVL1463
 15369 2384 0600     		.2byte	0x6
 15370 2386 54       		.byte	0x54
 15371 2387 93       		.byte	0x93
 15372 2388 04       		.uleb128 0x4
 15373 2389 55       		.byte	0x55
 15374 238a 93       		.byte	0x93
 15375 238b 04       		.uleb128 0x4
 15376 238c 30220000 		.4byte	.LVL1464
 15377 2390 34220000 		.4byte	.LVL1465
 15378 2394 0600     		.2byte	0x6
 15379 2396 54       		.byte	0x54
 15380 2397 93       		.byte	0x93
 15381 2398 04       		.uleb128 0x4
 15382 2399 55       		.byte	0x55
 15383 239a 93       		.byte	0x93
 15384 239b 04       		.uleb128 0x4
 15385 239c 34220000 		.4byte	.LVL1465
 15386 23a0 40240000 		.4byte	.LFE3
 15387 23a4 0300     		.2byte	0x3
 15388 23a6 91       		.byte	0x91
 15389 23a7 C87D     		.sleb128 -312
 15390 23a9 00000000 		.4byte	0
 15391 23ad 00000000 		.4byte	0
 15392              	.LLST65:
 15393 23b1 7A040000 		.4byte	.LVL700
 15394 23b5 7C040000 		.4byte	.LVL701
 15395 23b9 0600     		.2byte	0x6
 15396 23bb 52       		.byte	0x52
 15397 23bc 93       		.byte	0x93
 15398 23bd 04       		.uleb128 0x4
 15399 23be 53       		.byte	0x53
 15400 23bf 93       		.byte	0x93
 15401 23c0 04       		.uleb128 0x4
 15402 23c1 7C040000 		.4byte	.LVL701
 15403 23c5 840D0000 		.4byte	.LVL878
 15404 23c9 0300     		.2byte	0x3
 15405 23cb 91       		.byte	0x91
 15406 23cc F87E     		.sleb128 -136
 15407 23ce 840D0000 		.4byte	.LVL878
 15408 23d2 880D0000 		.4byte	.LVL879
 15409 23d6 0600     		.2byte	0x6
 15410 23d8 50       		.byte	0x50
 15411 23d9 93       		.byte	0x93
 15412 23da 04       		.uleb128 0x4
 15413 23db 51       		.byte	0x51
 15414 23dc 93       		.byte	0x93
 15415 23dd 04       		.uleb128 0x4
 15416 23de 880D0000 		.4byte	.LVL879
 15417 23e2 2E100000 		.4byte	.LVL941
 15418 23e6 0300     		.2byte	0x3
 15419 23e8 91       		.byte	0x91
 15420 23e9 C87E     		.sleb128 -184
 15421 23eb 2E100000 		.4byte	.LVL941
 15422 23ef 32100000 		.4byte	.LVL942
ARM GAS  C:\Users\NIGHDR~1\AppData\Local\Temp\ccvJ0Ig2.s 			page 286


 15423 23f3 0600     		.2byte	0x6
 15424 23f5 55       		.byte	0x55
 15425 23f6 93       		.byte	0x93
 15426 23f7 04       		.uleb128 0x4
 15427 23f8 56       		.byte	0x56
 15428 23f9 93       		.byte	0x93
 15429 23fa 04       		.uleb128 0x4
 15430 23fb 32100000 		.4byte	.LVL942
 15431 23ff 00150000 		.4byte	.LVL1080
 15432 2403 0300     		.2byte	0x3
 15433 2405 91       		.byte	0x91
 15434 2406 D07D     		.sleb128 -304
 15435 2408 00150000 		.4byte	.LVL1080
 15436 240c 1E150000 		.4byte	.LVL1084
 15437 2410 0600     		.2byte	0x6
 15438 2412 54       		.byte	0x54
 15439 2413 93       		.byte	0x93
 15440 2414 04       		.uleb128 0x4
 15441 2415 55       		.byte	0x55
 15442 2416 93       		.byte	0x93
 15443 2417 04       		.uleb128 0x4
 15444 2418 1E150000 		.4byte	.LVL1084
 15445 241c D0150000 		.4byte	.LVL1099
 15446 2420 0300     		.2byte	0x3
 15447 2422 91       		.byte	0x91
 15448 2423 B87D     		.sleb128 -328
 15449 2425 D0150000 		.4byte	.LVL1099
 15450 2429 E6150000 		.4byte	.LVL1101
 15451 242d 0600     		.2byte	0x6
 15452 242f 53       		.byte	0x53
 15453 2430 93       		.byte	0x93
 15454 2431 04       		.uleb128 0x4
 15455 2432 54       		.byte	0x54
 15456 2433 93       		.byte	0x93
 15457 2434 04       		.uleb128 0x4
 15458 2435 E6150000 		.4byte	.LVL1101
 15459 2439 42180000 		.4byte	.LVL1165
 15460 243d 0300     		.2byte	0x3
 15461 243f 91       		.byte	0x91
 15462 2440 887E     		.sleb128 -248
 15463 2442 42180000 		.4byte	.LVL1165
 15464 2446 BA1A0000 		.4byte	.LVL1242
 15465 244a 0600     		.2byte	0x6
 15466 244c 54       		.byte	0x54
 15467 244d 93       		.byte	0x93
 15468 244e 04       		.uleb128 0x4
 15469 244f 55       		.byte	0x55
 15470 2450 93       		.byte	0x93
 15471 2451 04       		.uleb128 0x4
 15472 2452 C21A0000 		.4byte	.LVL1243
 15473 2456 C61A0000 		.4byte	.LVL1244
 15474 245a 0600     		.2byte	0x6
 15475 245c 53       		.byte	0x53
 15476 245d 93       		.byte	0x93
 15477 245e 04       		.uleb128 0x4
 15478 245f 54       		.byte	0x54
 15479 2460 93       		.byte	0x93
ARM GAS  C:\Users\NIGHDR~1\AppData\Local\Temp\ccvJ0Ig2.s 			page 287


 15480 2461 04       		.uleb128 0x4
 15481 2462 C61A0000 		.4byte	.LVL1244
 15482 2466 601C0000 		.4byte	.LVL1287
 15483 246a 0300     		.2byte	0x3
 15484 246c 91       		.byte	0x91
 15485 246d 887E     		.sleb128 -248
 15486 246f 601C0000 		.4byte	.LVL1287
 15487 2473 621C0000 		.4byte	.LVL1288
 15488 2477 0600     		.2byte	0x6
 15489 2479 56       		.byte	0x56
 15490 247a 93       		.byte	0x93
 15491 247b 04       		.uleb128 0x4
 15492 247c 57       		.byte	0x57
 15493 247d 93       		.byte	0x93
 15494 247e 04       		.uleb128 0x4
 15495 247f 621C0000 		.4byte	.LVL1288
 15496 2483 6C1D0000 		.4byte	.LVL1313
 15497 2487 0300     		.2byte	0x3
 15498 2489 91       		.byte	0x91
 15499 248a D87D     		.sleb128 -296
 15500 248c 6C1D0000 		.4byte	.LVL1313
 15501 2490 6E1D0000 		.4byte	.LVL1314
 15502 2494 0600     		.2byte	0x6
 15503 2496 54       		.byte	0x54
 15504 2497 93       		.byte	0x93
 15505 2498 04       		.uleb128 0x4
 15506 2499 55       		.byte	0x55
 15507 249a 93       		.byte	0x93
 15508 249b 04       		.uleb128 0x4
 15509 249c 6E1D0000 		.4byte	.LVL1314
 15510 24a0 861F0000 		.4byte	.LVL1380
 15511 24a4 0300     		.2byte	0x3
 15512 24a6 91       		.byte	0x91
 15513 24a7 D87D     		.sleb128 -296
 15514 24a9 861F0000 		.4byte	.LVL1380
 15515 24ad C61F0000 		.4byte	.LVL1386
 15516 24b1 0600     		.2byte	0x6
 15517 24b3 56       		.byte	0x56
 15518 24b4 93       		.byte	0x93
 15519 24b5 04       		.uleb128 0x4
 15520 24b6 57       		.byte	0x57
 15521 24b7 93       		.byte	0x93
 15522 24b8 04       		.uleb128 0x4
 15523 24b9 C61F0000 		.4byte	.LVL1386
 15524 24bd CE1F0000 		.4byte	.LVL1387
 15525 24c1 0600     		.2byte	0x6
 15526 24c3 52       		.byte	0x52
 15527 24c4 93       		.byte	0x93
 15528 24c5 04       		.uleb128 0x4
 15529 24c6 53       		.byte	0x53
 15530 24c7 93       		.byte	0x93
 15531 24c8 04       		.uleb128 0x4
 15532 24c9 CE1F0000 		.4byte	.LVL1387
 15533 24cd 1C220000 		.4byte	.LVL1461
 15534 24d1 0300     		.2byte	0x3
 15535 24d3 91       		.byte	0x91
 15536 24d4 C87D     		.sleb128 -312
ARM GAS  C:\Users\NIGHDR~1\AppData\Local\Temp\ccvJ0Ig2.s 			page 288


 15537 24d6 1C220000 		.4byte	.LVL1461
 15538 24da 28220000 		.4byte	.LVL1462
 15539 24de 0600     		.2byte	0x6
 15540 24e0 50       		.byte	0x50
 15541 24e1 93       		.byte	0x93
 15542 24e2 04       		.uleb128 0x4
 15543 24e3 51       		.byte	0x51
 15544 24e4 93       		.byte	0x93
 15545 24e5 04       		.uleb128 0x4
 15546 24e6 28220000 		.4byte	.LVL1462
 15547 24ea 5C220000 		.4byte	.LVL1470
 15548 24ee 0200     		.2byte	0x2
 15549 24f0 7D       		.byte	0x7d
 15550 24f1 00       		.sleb128 0
 15551 24f2 5C220000 		.4byte	.LVL1470
 15552 24f6 60220000 		.4byte	.LVL1471
 15553 24fa 0600     		.2byte	0x6
 15554 24fc 52       		.byte	0x52
 15555 24fd 93       		.byte	0x93
 15556 24fe 04       		.uleb128 0x4
 15557 24ff 53       		.byte	0x53
 15558 2500 93       		.byte	0x93
 15559 2501 04       		.uleb128 0x4
 15560 2502 60220000 		.4byte	.LVL1471
 15561 2506 40240000 		.4byte	.LFE3
 15562 250a 0300     		.2byte	0x3
 15563 250c 91       		.byte	0x91
 15564 250d E87D     		.sleb128 -280
 15565 250f 00000000 		.4byte	0
 15566 2513 00000000 		.4byte	0
 15567              	.LLST66:
 15568 2517 06050000 		.4byte	.LVL710
 15569 251b 1C050000 		.4byte	.LVL712
 15570 251f 0600     		.2byte	0x6
 15571 2521 56       		.byte	0x56
 15572 2522 93       		.byte	0x93
 15573 2523 04       		.uleb128 0x4
 15574 2524 57       		.byte	0x57
 15575 2525 93       		.byte	0x93
 15576 2526 04       		.uleb128 0x4
 15577 2527 1C050000 		.4byte	.LVL712
 15578 252b 6A0D0000 		.4byte	.LVL876
 15579 252f 0300     		.2byte	0x3
 15580 2531 91       		.byte	0x91
 15581 2532 907F     		.sleb128 -112
 15582 2534 6A0D0000 		.4byte	.LVL876
 15583 2538 780D0000 		.4byte	.LVL877
 15584 253c 0600     		.2byte	0x6
 15585 253e 54       		.byte	0x54
 15586 253f 93       		.byte	0x93
 15587 2540 04       		.uleb128 0x4
 15588 2541 55       		.byte	0x55
 15589 2542 93       		.byte	0x93
 15590 2543 04       		.uleb128 0x4
 15591 2544 780D0000 		.4byte	.LVL877
 15592 2548 72100000 		.4byte	.LVL949
 15593 254c 0300     		.2byte	0x3
ARM GAS  C:\Users\NIGHDR~1\AppData\Local\Temp\ccvJ0Ig2.s 			page 289


 15594 254e 91       		.byte	0x91
 15595 254f E07D     		.sleb128 -288
 15596 2551 72100000 		.4byte	.LVL949
 15597 2555 80100000 		.4byte	.LVL950
 15598 2559 0600     		.2byte	0x6
 15599 255b 56       		.byte	0x56
 15600 255c 93       		.byte	0x93
 15601 255d 04       		.uleb128 0x4
 15602 255e 57       		.byte	0x57
 15603 255f 93       		.byte	0x93
 15604 2560 04       		.uleb128 0x4
 15605 2561 80100000 		.4byte	.LVL950
 15606 2565 68140000 		.4byte	.LVL1060
 15607 2569 0300     		.2byte	0x3
 15608 256b 91       		.byte	0x91
 15609 256c E07D     		.sleb128 -288
 15610 256e 68140000 		.4byte	.LVL1060
 15611 2572 6A140000 		.4byte	.LVL1061
 15612 2576 0600     		.2byte	0x6
 15613 2578 52       		.byte	0x52
 15614 2579 93       		.byte	0x93
 15615 257a 04       		.uleb128 0x4
 15616 257b 53       		.byte	0x53
 15617 257c 93       		.byte	0x93
 15618 257d 04       		.uleb128 0x4
 15619 257e 6A140000 		.4byte	.LVL1061
 15620 2582 18150000 		.4byte	.LVL1082
 15621 2586 0300     		.2byte	0x3
 15622 2588 91       		.byte	0x91
 15623 2589 E07D     		.sleb128 -288
 15624 258b 18150000 		.4byte	.LVL1082
 15625 258f 1A150000 		.4byte	.LVL1083
 15626 2593 0600     		.2byte	0x6
 15627 2595 52       		.byte	0x52
 15628 2596 93       		.byte	0x93
 15629 2597 04       		.uleb128 0x4
 15630 2598 53       		.byte	0x53
 15631 2599 93       		.byte	0x93
 15632 259a 04       		.uleb128 0x4
 15633 259b 1A150000 		.4byte	.LVL1083
 15634 259f A2150000 		.4byte	.LVL1097
 15635 25a3 0300     		.2byte	0x3
 15636 25a5 91       		.byte	0x91
 15637 25a6 D07D     		.sleb128 -304
 15638 25a8 A2150000 		.4byte	.LVL1097
 15639 25ac AA150000 		.4byte	.LVL1098
 15640 25b0 0600     		.2byte	0x6
 15641 25b2 50       		.byte	0x50
 15642 25b3 93       		.byte	0x93
 15643 25b4 04       		.uleb128 0x4
 15644 25b5 51       		.byte	0x51
 15645 25b6 93       		.byte	0x93
 15646 25b7 04       		.uleb128 0x4
 15647 25b8 AA150000 		.4byte	.LVL1098
 15648 25bc 1C170000 		.4byte	.LVL1136
 15649 25c0 0300     		.2byte	0x3
 15650 25c2 91       		.byte	0x91
ARM GAS  C:\Users\NIGHDR~1\AppData\Local\Temp\ccvJ0Ig2.s 			page 290


 15651 25c3 C07D     		.sleb128 -320
 15652 25c5 1C170000 		.4byte	.LVL1136
 15653 25c9 22170000 		.4byte	.LVL1137
 15654 25cd 0600     		.2byte	0x6
 15655 25cf 52       		.byte	0x52
 15656 25d0 93       		.byte	0x93
 15657 25d1 04       		.uleb128 0x4
 15658 25d2 53       		.byte	0x53
 15659 25d3 93       		.byte	0x93
 15660 25d4 04       		.uleb128 0x4
 15661 25d5 22170000 		.4byte	.LVL1137
 15662 25d9 5A180000 		.4byte	.LVL1167
 15663 25dd 0300     		.2byte	0x3
 15664 25df 91       		.byte	0x91
 15665 25e0 987E     		.sleb128 -232
 15666 25e2 5A180000 		.4byte	.LVL1167
 15667 25e6 5C180000 		.4byte	.LVL1168
 15668 25ea 0600     		.2byte	0x6
 15669 25ec 52       		.byte	0x52
 15670 25ed 93       		.byte	0x93
 15671 25ee 04       		.uleb128 0x4
 15672 25ef 53       		.byte	0x53
 15673 25f0 93       		.byte	0x93
 15674 25f1 04       		.uleb128 0x4
 15675 25f2 5C180000 		.4byte	.LVL1168
 15676 25f6 F8180000 		.4byte	.LVL1186
 15677 25fa 0300     		.2byte	0x3
 15678 25fc 91       		.byte	0x91
 15679 25fd D87D     		.sleb128 -296
 15680 25ff F8180000 		.4byte	.LVL1186
 15681 2603 FA180000 		.4byte	.LVL1187
 15682 2607 0600     		.2byte	0x6
 15683 2609 52       		.byte	0x52
 15684 260a 93       		.byte	0x93
 15685 260b 04       		.uleb128 0x4
 15686 260c 53       		.byte	0x53
 15687 260d 93       		.byte	0x93
 15688 260e 04       		.uleb128 0x4
 15689 260f FA180000 		.4byte	.LVL1187
 15690 2613 94190000 		.4byte	.LVL1205
 15691 2617 0300     		.2byte	0x3
 15692 2619 91       		.byte	0x91
 15693 261a D87D     		.sleb128 -296
 15694 261c 94190000 		.4byte	.LVL1205
 15695 2620 96190000 		.4byte	.LVL1206
 15696 2624 0600     		.2byte	0x6
 15697 2626 52       		.byte	0x52
 15698 2627 93       		.byte	0x93
 15699 2628 04       		.uleb128 0x4
 15700 2629 53       		.byte	0x53
 15701 262a 93       		.byte	0x93
 15702 262b 04       		.uleb128 0x4
 15703 262c 96190000 		.4byte	.LVL1206
 15704 2630 321A0000 		.4byte	.LVL1224
 15705 2634 0300     		.2byte	0x3
 15706 2636 91       		.byte	0x91
 15707 2637 D87D     		.sleb128 -296
ARM GAS  C:\Users\NIGHDR~1\AppData\Local\Temp\ccvJ0Ig2.s 			page 291


 15708 2639 321A0000 		.4byte	.LVL1224
 15709 263d 341A0000 		.4byte	.LVL1225
 15710 2641 0600     		.2byte	0x6
 15711 2643 52       		.byte	0x52
 15712 2644 93       		.byte	0x93
 15713 2645 04       		.uleb128 0x4
 15714 2646 53       		.byte	0x53
 15715 2647 93       		.byte	0x93
 15716 2648 04       		.uleb128 0x4
 15717 2649 341A0000 		.4byte	.LVL1225
 15718 264d 4C1C0000 		.4byte	.LVL1285
 15719 2651 0300     		.2byte	0x3
 15720 2653 91       		.byte	0x91
 15721 2654 D87D     		.sleb128 -296
 15722 2656 4C1C0000 		.4byte	.LVL1285
 15723 265a 541C0000 		.4byte	.LVL1286
 15724 265e 0600     		.2byte	0x6
 15725 2660 50       		.byte	0x50
 15726 2661 93       		.byte	0x93
 15727 2662 04       		.uleb128 0x4
 15728 2663 51       		.byte	0x51
 15729 2664 93       		.byte	0x93
 15730 2665 04       		.uleb128 0x4
 15731 2666 541C0000 		.4byte	.LVL1286
 15732 266a B81D0000 		.4byte	.LVL1321
 15733 266e 0300     		.2byte	0x3
 15734 2670 91       		.byte	0x91
 15735 2671 C87D     		.sleb128 -312
 15736 2673 B81D0000 		.4byte	.LVL1321
 15737 2677 CC1D0000 		.4byte	.LVL1322
 15738 267b 0600     		.2byte	0x6
 15739 267d 52       		.byte	0x52
 15740 267e 93       		.byte	0x93
 15741 267f 04       		.uleb128 0x4
 15742 2680 53       		.byte	0x53
 15743 2681 93       		.byte	0x93
 15744 2682 04       		.uleb128 0x4
 15745 2683 CC1D0000 		.4byte	.LVL1322
 15746 2687 AE1F0000 		.4byte	.LVL1384
 15747 268b 0300     		.2byte	0x3
 15748 268d 91       		.byte	0x91
 15749 268e C87D     		.sleb128 -312
 15750 2690 AE1F0000 		.4byte	.LVL1384
 15751 2694 EA1F0000 		.4byte	.LVL1390
 15752 2698 0600     		.2byte	0x6
 15753 269a 54       		.byte	0x54
 15754 269b 93       		.byte	0x93
 15755 269c 04       		.uleb128 0x4
 15756 269d 55       		.byte	0x55
 15757 269e 93       		.byte	0x93
 15758 269f 04       		.uleb128 0x4
 15759 26a0 EA1F0000 		.4byte	.LVL1390
 15760 26a4 EE1F0000 		.4byte	.LVL1391
 15761 26a8 0200     		.2byte	0x2
 15762 26aa 7D       		.byte	0x7d
 15763 26ab 00       		.sleb128 0
 15764 26ac EE1F0000 		.4byte	.LVL1391
ARM GAS  C:\Users\NIGHDR~1\AppData\Local\Temp\ccvJ0Ig2.s 			page 292


 15765 26b0 FA1F0000 		.4byte	.LVL1394
 15766 26b4 0600     		.2byte	0x6
 15767 26b6 54       		.byte	0x54
 15768 26b7 93       		.byte	0x93
 15769 26b8 04       		.uleb128 0x4
 15770 26b9 55       		.byte	0x55
 15771 26ba 93       		.byte	0x93
 15772 26bb 04       		.uleb128 0x4
 15773 26bc FA1F0000 		.4byte	.LVL1394
 15774 26c0 44220000 		.4byte	.LVL1468
 15775 26c4 0300     		.2byte	0x3
 15776 26c6 91       		.byte	0x91
 15777 26c7 F07D     		.sleb128 -272
 15778 26c9 44220000 		.4byte	.LVL1468
 15779 26cd 80220000 		.4byte	.LVL1475
 15780 26d1 0600     		.2byte	0x6
 15781 26d3 54       		.byte	0x54
 15782 26d4 93       		.byte	0x93
 15783 26d5 04       		.uleb128 0x4
 15784 26d6 55       		.byte	0x55
 15785 26d7 93       		.byte	0x93
 15786 26d8 04       		.uleb128 0x4
 15787 26d9 88220000 		.4byte	.LVL1476
 15788 26dd 94220000 		.4byte	.LVL1478
 15789 26e1 0600     		.2byte	0x6
 15790 26e3 53       		.byte	0x53
 15791 26e4 93       		.byte	0x93
 15792 26e5 04       		.uleb128 0x4
 15793 26e6 54       		.byte	0x54
 15794 26e7 93       		.byte	0x93
 15795 26e8 04       		.uleb128 0x4
 15796 26e9 94220000 		.4byte	.LVL1478
 15797 26ed 40240000 		.4byte	.LFE3
 15798 26f1 0300     		.2byte	0x3
 15799 26f3 91       		.byte	0x91
 15800 26f4 D07D     		.sleb128 -304
 15801 26f6 00000000 		.4byte	0
 15802 26fa 00000000 		.4byte	0
 15803              	.LLST67:
 15804 26fe A6050000 		.4byte	.LVL721
 15805 2702 A8050000 		.4byte	.LVL722
 15806 2706 0600     		.2byte	0x6
 15807 2708 52       		.byte	0x52
 15808 2709 93       		.byte	0x93
 15809 270a 04       		.uleb128 0x4
 15810 270b 53       		.byte	0x53
 15811 270c 93       		.byte	0x93
 15812 270d 04       		.uleb128 0x4
 15813 270e A8050000 		.4byte	.LVL722
 15814 2712 CC0D0000 		.4byte	.LVL884
 15815 2716 0300     		.2byte	0x3
 15816 2718 91       		.byte	0x91
 15817 2719 807F     		.sleb128 -128
 15818 271b CC0D0000 		.4byte	.LVL884
 15819 271f D00D0000 		.4byte	.LVL885
 15820 2723 0600     		.2byte	0x6
 15821 2725 50       		.byte	0x50
ARM GAS  C:\Users\NIGHDR~1\AppData\Local\Temp\ccvJ0Ig2.s 			page 293


 15822 2726 93       		.byte	0x93
 15823 2727 04       		.uleb128 0x4
 15824 2728 51       		.byte	0x51
 15825 2729 93       		.byte	0x93
 15826 272a 04       		.uleb128 0x4
 15827 272b D00D0000 		.4byte	.LVL885
 15828 272f 5E100000 		.4byte	.LVL947
 15829 2733 0300     		.2byte	0x3
 15830 2735 91       		.byte	0x91
 15831 2736 D87E     		.sleb128 -168
 15832 2738 5E100000 		.4byte	.LVL947
 15833 273c 62100000 		.4byte	.LVL948
 15834 2740 0600     		.2byte	0x6
 15835 2742 55       		.byte	0x55
 15836 2743 93       		.byte	0x93
 15837 2744 04       		.uleb128 0x4
 15838 2745 56       		.byte	0x56
 15839 2746 93       		.byte	0x93
 15840 2747 04       		.uleb128 0x4
 15841 2748 62100000 		.4byte	.LVL948
 15842 274c E4130000 		.4byte	.LVL1044
 15843 2750 0300     		.2byte	0x3
 15844 2752 91       		.byte	0x91
 15845 2753 C87E     		.sleb128 -184
 15846 2755 E4130000 		.4byte	.LVL1044
 15847 2759 E6130000 		.4byte	.LVL1045
 15848 275d 0600     		.2byte	0x6
 15849 275f 52       		.byte	0x52
 15850 2760 93       		.byte	0x93
 15851 2761 04       		.uleb128 0x4
 15852 2762 53       		.byte	0x53
 15853 2763 93       		.byte	0x93
 15854 2764 04       		.uleb128 0x4
 15855 2765 E6130000 		.4byte	.LVL1045
 15856 2769 80140000 		.4byte	.LVL1063
 15857 276d 0300     		.2byte	0x3
 15858 276f 91       		.byte	0x91
 15859 2770 B87D     		.sleb128 -328
 15860 2772 80140000 		.4byte	.LVL1063
 15861 2776 82140000 		.4byte	.LVL1064
 15862 277a 0600     		.2byte	0x6
 15863 277c 52       		.byte	0x52
 15864 277d 93       		.byte	0x93
 15865 277e 04       		.uleb128 0x4
 15866 277f 53       		.byte	0x53
 15867 2780 93       		.byte	0x93
 15868 2781 04       		.uleb128 0x4
 15869 2782 82140000 		.4byte	.LVL1064
 15870 2786 30150000 		.4byte	.LVL1086
 15871 278a 0300     		.2byte	0x3
 15872 278c 91       		.byte	0x91
 15873 278d 887E     		.sleb128 -248
 15874 278f 30150000 		.4byte	.LVL1086
 15875 2793 FE150000 		.4byte	.LVL1103
 15876 2797 0600     		.2byte	0x6
 15877 2799 56       		.byte	0x56
 15878 279a 93       		.byte	0x93
ARM GAS  C:\Users\NIGHDR~1\AppData\Local\Temp\ccvJ0Ig2.s 			page 294


 15879 279b 04       		.uleb128 0x4
 15880 279c 57       		.byte	0x57
 15881 279d 93       		.byte	0x93
 15882 279e 04       		.uleb128 0x4
 15883 279f 02160000 		.4byte	.LVL1104
 15884 27a3 0E160000 		.4byte	.LVL1107
 15885 27a7 0600     		.2byte	0x6
 15886 27a9 56       		.byte	0x56
 15887 27aa 93       		.byte	0x93
 15888 27ab 04       		.uleb128 0x4
 15889 27ac 57       		.byte	0x57
 15890 27ad 93       		.byte	0x93
 15891 27ae 04       		.uleb128 0x4
 15892 27af 0E160000 		.4byte	.LVL1107
 15893 27b3 04170000 		.4byte	.LVL1133
 15894 27b7 0300     		.2byte	0x3
 15895 27b9 91       		.byte	0x91
 15896 27ba D07D     		.sleb128 -304
 15897 27bc 04170000 		.4byte	.LVL1133
 15898 27c0 10170000 		.4byte	.LVL1134
 15899 27c4 0600     		.2byte	0x6
 15900 27c6 50       		.byte	0x50
 15901 27c7 93       		.byte	0x93
 15902 27c8 04       		.uleb128 0x4
 15903 27c9 51       		.byte	0x51
 15904 27ca 93       		.byte	0x93
 15905 27cb 04       		.uleb128 0x4
 15906 27cc 10170000 		.4byte	.LVL1134
 15907 27d0 74180000 		.4byte	.LVL1170
 15908 27d4 0300     		.2byte	0x3
 15909 27d6 91       		.byte	0x91
 15910 27d7 907E     		.sleb128 -240
 15911 27d9 74180000 		.4byte	.LVL1170
 15912 27dd 76180000 		.4byte	.LVL1171
 15913 27e1 0600     		.2byte	0x6
 15914 27e3 52       		.byte	0x52
 15915 27e4 93       		.byte	0x93
 15916 27e5 04       		.uleb128 0x4
 15917 27e6 53       		.byte	0x53
 15918 27e7 93       		.byte	0x93
 15919 27e8 04       		.uleb128 0x4
 15920 27e9 76180000 		.4byte	.LVL1171
 15921 27ed 10190000 		.4byte	.LVL1189
 15922 27f1 0300     		.2byte	0x3
 15923 27f3 91       		.byte	0x91
 15924 27f4 F07D     		.sleb128 -272
 15925 27f6 10190000 		.4byte	.LVL1189
 15926 27fa 12190000 		.4byte	.LVL1190
 15927 27fe 0600     		.2byte	0x6
 15928 2800 52       		.byte	0x52
 15929 2801 93       		.byte	0x93
 15930 2802 04       		.uleb128 0x4
 15931 2803 53       		.byte	0x53
 15932 2804 93       		.byte	0x93
 15933 2805 04       		.uleb128 0x4
 15934 2806 12190000 		.4byte	.LVL1190
 15935 280a AE190000 		.4byte	.LVL1208
ARM GAS  C:\Users\NIGHDR~1\AppData\Local\Temp\ccvJ0Ig2.s 			page 295


 15936 280e 0300     		.2byte	0x3
 15937 2810 91       		.byte	0x91
 15938 2811 F07D     		.sleb128 -272
 15939 2813 AE190000 		.4byte	.LVL1208
 15940 2817 B0190000 		.4byte	.LVL1209
 15941 281b 0600     		.2byte	0x6
 15942 281d 52       		.byte	0x52
 15943 281e 93       		.byte	0x93
 15944 281f 04       		.uleb128 0x4
 15945 2820 53       		.byte	0x53
 15946 2821 93       		.byte	0x93
 15947 2822 04       		.uleb128 0x4
 15948 2823 B0190000 		.4byte	.LVL1209
 15949 2827 9C1C0000 		.4byte	.LVL1294
 15950 282b 0300     		.2byte	0x3
 15951 282d 91       		.byte	0x91
 15952 282e F07D     		.sleb128 -272
 15953 2830 9C1C0000 		.4byte	.LVL1294
 15954 2834 B01C0000 		.4byte	.LVL1295
 15955 2838 0600     		.2byte	0x6
 15956 283a 52       		.byte	0x52
 15957 283b 93       		.byte	0x93
 15958 283c 04       		.uleb128 0x4
 15959 283d 53       		.byte	0x53
 15960 283e 93       		.byte	0x93
 15961 283f 04       		.uleb128 0x4
 15962 2840 B01C0000 		.4byte	.LVL1295
 15963 2844 A41D0000 		.4byte	.LVL1318
 15964 2848 0300     		.2byte	0x3
 15965 284a 91       		.byte	0x91
 15966 284b F07D     		.sleb128 -272
 15967 284d A41D0000 		.4byte	.LVL1318
 15968 2851 A61D0000 		.4byte	.LVL1319
 15969 2855 0600     		.2byte	0x6
 15970 2857 54       		.byte	0x54
 15971 2858 93       		.byte	0x93
 15972 2859 04       		.uleb128 0x4
 15973 285a 55       		.byte	0x55
 15974 285b 93       		.byte	0x93
 15975 285c 04       		.uleb128 0x4
 15976 285d A61D0000 		.4byte	.LVL1319
 15977 2861 DA1F0000 		.4byte	.LVL1389
 15978 2865 0300     		.2byte	0x3
 15979 2867 91       		.byte	0x91
 15980 2868 F07D     		.sleb128 -272
 15981 286a DA1F0000 		.4byte	.LVL1389
 15982 286e 12200000 		.4byte	.LVL1396
 15983 2872 0600     		.2byte	0x6
 15984 2874 56       		.byte	0x56
 15985 2875 93       		.byte	0x93
 15986 2876 04       		.uleb128 0x4
 15987 2877 57       		.byte	0x57
 15988 2878 93       		.byte	0x93
 15989 2879 04       		.uleb128 0x4
 15990 287a 16200000 		.4byte	.LVL1397
 15991 287e 26200000 		.4byte	.LVL1400
 15992 2882 0600     		.2byte	0x6
ARM GAS  C:\Users\NIGHDR~1\AppData\Local\Temp\ccvJ0Ig2.s 			page 296


 15993 2884 56       		.byte	0x56
 15994 2885 93       		.byte	0x93
 15995 2886 04       		.uleb128 0x4
 15996 2887 57       		.byte	0x57
 15997 2888 93       		.byte	0x93
 15998 2889 04       		.uleb128 0x4
 15999 288a 26200000 		.4byte	.LVL1400
 16000 288e 70220000 		.4byte	.LVL1474
 16001 2892 0300     		.2byte	0x3
 16002 2894 91       		.byte	0x91
 16003 2895 D07D     		.sleb128 -304
 16004 2897 70220000 		.4byte	.LVL1474
 16005 289b B4220000 		.4byte	.LVL1481
 16006 289f 0600     		.2byte	0x6
 16007 28a1 56       		.byte	0x56
 16008 28a2 93       		.byte	0x93
 16009 28a3 04       		.uleb128 0x4
 16010 28a4 57       		.byte	0x57
 16011 28a5 93       		.byte	0x93
 16012 28a6 04       		.uleb128 0x4
 16013 28a7 B4220000 		.4byte	.LVL1481
 16014 28ab B8220000 		.4byte	.LVL1482
 16015 28af 0600     		.2byte	0x6
 16016 28b1 52       		.byte	0x52
 16017 28b2 93       		.byte	0x93
 16018 28b3 04       		.uleb128 0x4
 16019 28b4 53       		.byte	0x53
 16020 28b5 93       		.byte	0x93
 16021 28b6 04       		.uleb128 0x4
 16022 28b7 B8220000 		.4byte	.LVL1482
 16023 28bb 38240000 		.4byte	.LVL1495
 16024 28bf 0200     		.2byte	0x2
 16025 28c1 7D       		.byte	0x7d
 16026 28c2 00       		.sleb128 0
 16027 28c3 38240000 		.4byte	.LVL1495
 16028 28c7 38240000 		.4byte	.LVL1496
 16029 28cb 0600     		.2byte	0x6
 16030 28cd 55       		.byte	0x55
 16031 28ce 93       		.byte	0x93
 16032 28cf 04       		.uleb128 0x4
 16033 28d0 56       		.byte	0x56
 16034 28d1 93       		.byte	0x93
 16035 28d2 04       		.uleb128 0x4
 16036 28d3 38240000 		.4byte	.LVL1496
 16037 28d7 40240000 		.4byte	.LFE3
 16038 28db 0300     		.2byte	0x3
 16039 28dd 91       		.byte	0x91
 16040 28de A87D     		.sleb128 -344
 16041 28e0 00000000 		.4byte	0
 16042 28e4 00000000 		.4byte	0
 16043              	.LLST68:
 16044 28e8 56060000 		.4byte	.LVL733
 16045 28ec 58060000 		.4byte	.LVL734
 16046 28f0 0600     		.2byte	0x6
 16047 28f2 52       		.byte	0x52
 16048 28f3 93       		.byte	0x93
 16049 28f4 04       		.uleb128 0x4
ARM GAS  C:\Users\NIGHDR~1\AppData\Local\Temp\ccvJ0Ig2.s 			page 297


 16050 28f5 53       		.byte	0x53
 16051 28f6 93       		.byte	0x93
 16052 28f7 04       		.uleb128 0x4
 16053 28f8 58060000 		.4byte	.LVL734
 16054 28fc B20D0000 		.4byte	.LVL882
 16055 2900 0300     		.2byte	0x3
 16056 2902 91       		.byte	0x91
 16057 2903 987F     		.sleb128 -104
 16058 2905 B20D0000 		.4byte	.LVL882
 16059 2909 C00D0000 		.4byte	.LVL883
 16060 290d 0600     		.2byte	0x6
 16061 290f 54       		.byte	0x54
 16062 2910 93       		.byte	0x93
 16063 2911 04       		.uleb128 0x4
 16064 2912 55       		.byte	0x55
 16065 2913 93       		.byte	0x93
 16066 2914 04       		.uleb128 0x4
 16067 2915 C00D0000 		.4byte	.LVL883
 16068 2919 A6100000 		.4byte	.LVL955
 16069 291d 0300     		.2byte	0x3
 16070 291f 91       		.byte	0x91
 16071 2920 E87D     		.sleb128 -280
 16072 2922 A6100000 		.4byte	.LVL955
 16073 2926 B4100000 		.4byte	.LVL956
 16074 292a 0600     		.2byte	0x6
 16075 292c 56       		.byte	0x56
 16076 292d 93       		.byte	0x93
 16077 292e 04       		.uleb128 0x4
 16078 292f 57       		.byte	0x57
 16079 2930 93       		.byte	0x93
 16080 2931 04       		.uleb128 0x4
 16081 2932 B4100000 		.4byte	.LVL956
 16082 2936 60130000 		.4byte	.LVL1028
 16083 293a 0300     		.2byte	0x3
 16084 293c 91       		.byte	0x91
 16085 293d E87D     		.sleb128 -280
 16086 293f 60130000 		.4byte	.LVL1028
 16087 2943 62130000 		.4byte	.LVL1029
 16088 2947 0600     		.2byte	0x6
 16089 2949 52       		.byte	0x52
 16090 294a 93       		.byte	0x93
 16091 294b 04       		.uleb128 0x4
 16092 294c 53       		.byte	0x53
 16093 294d 93       		.byte	0x93
 16094 294e 04       		.uleb128 0x4
 16095 294f 62130000 		.4byte	.LVL1029
 16096 2953 FC130000 		.4byte	.LVL1047
 16097 2957 0300     		.2byte	0x3
 16098 2959 91       		.byte	0x91
 16099 295a E87D     		.sleb128 -280
 16100 295c FC130000 		.4byte	.LVL1047
 16101 2960 FE130000 		.4byte	.LVL1048
 16102 2964 0600     		.2byte	0x6
 16103 2966 52       		.byte	0x52
 16104 2967 93       		.byte	0x93
 16105 2968 04       		.uleb128 0x4
 16106 2969 53       		.byte	0x53
ARM GAS  C:\Users\NIGHDR~1\AppData\Local\Temp\ccvJ0Ig2.s 			page 298


 16107 296a 93       		.byte	0x93
 16108 296b 04       		.uleb128 0x4
 16109 296c FE130000 		.4byte	.LVL1048
 16110 2970 98140000 		.4byte	.LVL1066
 16111 2974 0300     		.2byte	0x3
 16112 2976 91       		.byte	0x91
 16113 2977 E87D     		.sleb128 -280
 16114 2979 98140000 		.4byte	.LVL1066
 16115 297d 9A140000 		.4byte	.LVL1067
 16116 2981 0600     		.2byte	0x6
 16117 2983 52       		.byte	0x52
 16118 2984 93       		.byte	0x93
 16119 2985 04       		.uleb128 0x4
 16120 2986 53       		.byte	0x53
 16121 2987 93       		.byte	0x93
 16122 2988 04       		.uleb128 0x4
 16123 2989 9A140000 		.4byte	.LVL1067
 16124 298d 4A150000 		.4byte	.LVL1088
 16125 2991 0300     		.2byte	0x3
 16126 2993 91       		.byte	0x91
 16127 2994 E87D     		.sleb128 -280
 16128 2996 4A150000 		.4byte	.LVL1088
 16129 299a 4C150000 		.4byte	.LVL1089
 16130 299e 0600     		.2byte	0x6
 16131 29a0 52       		.byte	0x52
 16132 29a1 93       		.byte	0x93
 16133 29a2 04       		.uleb128 0x4
 16134 29a3 53       		.byte	0x53
 16135 29a4 93       		.byte	0x93
 16136 29a5 04       		.uleb128 0x4
 16137 29a6 4C150000 		.4byte	.LVL1089
 16138 29aa F2150000 		.4byte	.LVL1102
 16139 29ae 0300     		.2byte	0x3
 16140 29b0 91       		.byte	0x91
 16141 29b1 E07D     		.sleb128 -288
 16142 29b3 F2150000 		.4byte	.LVL1102
 16143 29b7 0C160000 		.4byte	.LVL1106
 16144 29bb 0600     		.2byte	0x6
 16145 29bd 54       		.byte	0x54
 16146 29be 93       		.byte	0x93
 16147 29bf 04       		.uleb128 0x4
 16148 29c0 55       		.byte	0x55
 16149 29c1 93       		.byte	0x93
 16150 29c2 04       		.uleb128 0x4
 16151 29c3 0C160000 		.4byte	.LVL1106
 16152 29c7 5A170000 		.4byte	.LVL1141
 16153 29cb 0300     		.2byte	0x3
 16154 29cd 91       		.byte	0x91
 16155 29ce B87D     		.sleb128 -328
 16156 29d0 5A170000 		.4byte	.LVL1141
 16157 29d4 66170000 		.4byte	.LVL1143
 16158 29d8 0600     		.2byte	0x6
 16159 29da 53       		.byte	0x53
 16160 29db 93       		.byte	0x93
 16161 29dc 04       		.uleb128 0x4
 16162 29dd 54       		.byte	0x54
 16163 29de 93       		.byte	0x93
ARM GAS  C:\Users\NIGHDR~1\AppData\Local\Temp\ccvJ0Ig2.s 			page 299


 16164 29df 04       		.uleb128 0x4
 16165 29e0 66170000 		.4byte	.LVL1143
 16166 29e4 8C180000 		.4byte	.LVL1173
 16167 29e8 0300     		.2byte	0x3
 16168 29ea 91       		.byte	0x91
 16169 29eb A07E     		.sleb128 -224
 16170 29ed 8C180000 		.4byte	.LVL1173
 16171 29f1 8E180000 		.4byte	.LVL1174
 16172 29f5 0600     		.2byte	0x6
 16173 29f7 52       		.byte	0x52
 16174 29f8 93       		.byte	0x93
 16175 29f9 04       		.uleb128 0x4
 16176 29fa 53       		.byte	0x53
 16177 29fb 93       		.byte	0x93
 16178 29fc 04       		.uleb128 0x4
 16179 29fd 8E180000 		.4byte	.LVL1174
 16180 2a01 2A190000 		.4byte	.LVL1192
 16181 2a05 0300     		.2byte	0x3
 16182 2a07 91       		.byte	0x91
 16183 2a08 F87D     		.sleb128 -264
 16184 2a0a 2A190000 		.4byte	.LVL1192
 16185 2a0e 2C190000 		.4byte	.LVL1193
 16186 2a12 0600     		.2byte	0x6
 16187 2a14 52       		.byte	0x52
 16188 2a15 93       		.byte	0x93
 16189 2a16 04       		.uleb128 0x4
 16190 2a17 53       		.byte	0x53
 16191 2a18 93       		.byte	0x93
 16192 2a19 04       		.uleb128 0x4
 16193 2a1a 2C190000 		.4byte	.LVL1193
 16194 2a1e 881C0000 		.4byte	.LVL1291
 16195 2a22 0300     		.2byte	0x3
 16196 2a24 91       		.byte	0x91
 16197 2a25 F87D     		.sleb128 -264
 16198 2a27 881C0000 		.4byte	.LVL1291
 16199 2a2b 901C0000 		.4byte	.LVL1292
 16200 2a2f 0600     		.2byte	0x6
 16201 2a31 50       		.byte	0x50
 16202 2a32 93       		.byte	0x93
 16203 2a33 04       		.uleb128 0x4
 16204 2a34 51       		.byte	0x51
 16205 2a35 93       		.byte	0x93
 16206 2a36 04       		.uleb128 0x4
 16207 2a37 901C0000 		.4byte	.LVL1292
 16208 2a3b F01D0000 		.4byte	.LVL1326
 16209 2a3f 0300     		.2byte	0x3
 16210 2a41 91       		.byte	0x91
 16211 2a42 D07D     		.sleb128 -304
 16212 2a44 F01D0000 		.4byte	.LVL1326
 16213 2a48 FC1D0000 		.4byte	.LVL1328
 16214 2a4c 0600     		.2byte	0x6
 16215 2a4e 53       		.byte	0x53
 16216 2a4f 93       		.byte	0x93
 16217 2a50 04       		.uleb128 0x4
 16218 2a51 54       		.byte	0x54
 16219 2a52 93       		.byte	0x93
 16220 2a53 04       		.uleb128 0x4
ARM GAS  C:\Users\NIGHDR~1\AppData\Local\Temp\ccvJ0Ig2.s 			page 300


 16221 2a54 FC1D0000 		.4byte	.LVL1328
 16222 2a58 02200000 		.4byte	.LVL1395
 16223 2a5c 0300     		.2byte	0x3
 16224 2a5e 91       		.byte	0x91
 16225 2a5f D07D     		.sleb128 -304
 16226 2a61 02200000 		.4byte	.LVL1395
 16227 2a65 3A200000 		.4byte	.LVL1402
 16228 2a69 0600     		.2byte	0x6
 16229 2a6b 54       		.byte	0x54
 16230 2a6c 93       		.byte	0x93
 16231 2a6d 04       		.uleb128 0x4
 16232 2a6e 55       		.byte	0x55
 16233 2a6f 93       		.byte	0x93
 16234 2a70 04       		.uleb128 0x4
 16235 2a71 3A200000 		.4byte	.LVL1402
 16236 2a75 3E200000 		.4byte	.LVL1403
 16237 2a79 0200     		.2byte	0x2
 16238 2a7b 7D       		.byte	0x7d
 16239 2a7c 00       		.sleb128 0
 16240 2a7d 3E200000 		.4byte	.LVL1403
 16241 2a81 42200000 		.4byte	.LVL1404
 16242 2a85 0600     		.2byte	0x6
 16243 2a87 54       		.byte	0x54
 16244 2a88 93       		.byte	0x93
 16245 2a89 04       		.uleb128 0x4
 16246 2a8a 55       		.byte	0x55
 16247 2a8b 93       		.byte	0x93
 16248 2a8c 04       		.uleb128 0x4
 16249 2a8d 42200000 		.4byte	.LVL1404
 16250 2a91 9C220000 		.4byte	.LVL1479
 16251 2a95 0300     		.2byte	0x3
 16252 2a97 91       		.byte	0x91
 16253 2a98 F87D     		.sleb128 -264
 16254 2a9a 9C220000 		.4byte	.LVL1479
 16255 2a9e D8220000 		.4byte	.LVL1486
 16256 2aa2 0600     		.2byte	0x6
 16257 2aa4 54       		.byte	0x54
 16258 2aa5 93       		.byte	0x93
 16259 2aa6 04       		.uleb128 0x4
 16260 2aa7 55       		.byte	0x55
 16261 2aa8 93       		.byte	0x93
 16262 2aa9 04       		.uleb128 0x4
 16263 2aaa E0220000 		.4byte	.LVL1487
 16264 2aae EC220000 		.4byte	.LVL1489
 16265 2ab2 0600     		.2byte	0x6
 16266 2ab4 53       		.byte	0x53
 16267 2ab5 93       		.byte	0x93
 16268 2ab6 04       		.uleb128 0x4
 16269 2ab7 54       		.byte	0x54
 16270 2ab8 93       		.byte	0x93
 16271 2ab9 04       		.uleb128 0x4
 16272 2aba EC220000 		.4byte	.LVL1489
 16273 2abe 40240000 		.4byte	.LFE3
 16274 2ac2 0300     		.2byte	0x3
 16275 2ac4 91       		.byte	0x91
 16276 2ac5 F87D     		.sleb128 -264
 16277 2ac7 00000000 		.4byte	0
ARM GAS  C:\Users\NIGHDR~1\AppData\Local\Temp\ccvJ0Ig2.s 			page 301


 16278 2acb 00000000 		.4byte	0
 16279              	.LLST69:
 16280 2acf 16070000 		.4byte	.LVL746
 16281 2ad3 18070000 		.4byte	.LVL747
 16282 2ad7 0600     		.2byte	0x6
 16283 2ad9 52       		.byte	0x52
 16284 2ada 93       		.byte	0x93
 16285 2adb 04       		.uleb128 0x4
 16286 2adc 53       		.byte	0x53
 16287 2add 93       		.byte	0x93
 16288 2ade 04       		.uleb128 0x4
 16289 2adf 18070000 		.4byte	.LVL747
 16290 2ae3 140E0000 		.4byte	.LVL890
 16291 2ae7 0300     		.2byte	0x3
 16292 2ae9 91       		.byte	0x91
 16293 2aea 887F     		.sleb128 -120
 16294 2aec 140E0000 		.4byte	.LVL890
 16295 2af0 360E0000 		.4byte	.LVL893
 16296 2af4 0600     		.2byte	0x6
 16297 2af6 50       		.byte	0x50
 16298 2af7 93       		.byte	0x93
 16299 2af8 04       		.uleb128 0x4
 16300 2af9 51       		.byte	0x51
 16301 2afa 93       		.byte	0x93
 16302 2afb 04       		.uleb128 0x4
 16303 2afc 360E0000 		.4byte	.LVL893
 16304 2b00 92100000 		.4byte	.LVL953
 16305 2b04 0300     		.2byte	0x3
 16306 2b06 91       		.byte	0x91
 16307 2b07 D07E     		.sleb128 -176
 16308 2b09 92100000 		.4byte	.LVL953
 16309 2b0d 96100000 		.4byte	.LVL954
 16310 2b11 0600     		.2byte	0x6
 16311 2b13 55       		.byte	0x55
 16312 2b14 93       		.byte	0x93
 16313 2b15 04       		.uleb128 0x4
 16314 2b16 56       		.byte	0x56
 16315 2b17 93       		.byte	0x93
 16316 2b18 04       		.uleb128 0x4
 16317 2b19 96100000 		.4byte	.LVL954
 16318 2b1d D4120000 		.4byte	.LVL1012
 16319 2b21 0300     		.2byte	0x3
 16320 2b23 91       		.byte	0x91
 16321 2b24 D07E     		.sleb128 -176
 16322 2b26 D4120000 		.4byte	.LVL1012
 16323 2b2a AA140000 		.4byte	.LVL1069
 16324 2b2e 0600     		.2byte	0x6
 16325 2b30 54       		.byte	0x54
 16326 2b31 93       		.byte	0x93
 16327 2b32 04       		.uleb128 0x4
 16328 2b33 55       		.byte	0x55
 16329 2b34 93       		.byte	0x93
 16330 2b35 04       		.uleb128 0x4
 16331 2b36 B2140000 		.4byte	.LVL1070
 16332 2b3a B6140000 		.4byte	.LVL1071
 16333 2b3e 0600     		.2byte	0x6
 16334 2b40 53       		.byte	0x53
ARM GAS  C:\Users\NIGHDR~1\AppData\Local\Temp\ccvJ0Ig2.s 			page 302


 16335 2b41 93       		.byte	0x93
 16336 2b42 04       		.uleb128 0x4
 16337 2b43 54       		.byte	0x54
 16338 2b44 93       		.byte	0x93
 16339 2b45 04       		.uleb128 0x4
 16340 2b46 B6140000 		.4byte	.LVL1071
 16341 2b4a 62150000 		.4byte	.LVL1091
 16342 2b4e 0300     		.2byte	0x3
 16343 2b50 91       		.byte	0x91
 16344 2b51 907E     		.sleb128 -240
 16345 2b53 62150000 		.4byte	.LVL1091
 16346 2b57 64150000 		.4byte	.LVL1092
 16347 2b5b 0600     		.2byte	0x6
 16348 2b5d 52       		.byte	0x52
 16349 2b5e 93       		.byte	0x93
 16350 2b5f 04       		.uleb128 0x4
 16351 2b60 53       		.byte	0x53
 16352 2b61 93       		.byte	0x93
 16353 2b62 04       		.uleb128 0x4
 16354 2b63 64150000 		.4byte	.LVL1092
 16355 2b67 40160000 		.4byte	.LVL1111
 16356 2b6b 0300     		.2byte	0x3
 16357 2b6d 91       		.byte	0x91
 16358 2b6e E87D     		.sleb128 -280
 16359 2b70 40160000 		.4byte	.LVL1111
 16360 2b74 52160000 		.4byte	.LVL1113
 16361 2b78 0600     		.2byte	0x6
 16362 2b7a 52       		.byte	0x52
 16363 2b7b 93       		.byte	0x93
 16364 2b7c 04       		.uleb128 0x4
 16365 2b7d 53       		.byte	0x53
 16366 2b7e 93       		.byte	0x93
 16367 2b7f 04       		.uleb128 0x4
 16368 2b80 52160000 		.4byte	.LVL1113
 16369 2b84 42170000 		.4byte	.LVL1139
 16370 2b88 0300     		.2byte	0x3
 16371 2b8a 91       		.byte	0x91
 16372 2b8b E87D     		.sleb128 -280
 16373 2b8d 42170000 		.4byte	.LVL1139
 16374 2b91 4E170000 		.4byte	.LVL1140
 16375 2b95 0600     		.2byte	0x6
 16376 2b97 50       		.byte	0x50
 16377 2b98 93       		.byte	0x93
 16378 2b99 04       		.uleb128 0x4
 16379 2b9a 51       		.byte	0x51
 16380 2b9b 93       		.byte	0x93
 16381 2b9c 04       		.uleb128 0x4
 16382 2b9d 4E170000 		.4byte	.LVL1140
 16383 2ba1 A6180000 		.4byte	.LVL1176
 16384 2ba5 0300     		.2byte	0x3
 16385 2ba7 91       		.byte	0x91
 16386 2ba8 E87D     		.sleb128 -280
 16387 2baa A6180000 		.4byte	.LVL1176
 16388 2bae A8180000 		.4byte	.LVL1177
 16389 2bb2 0600     		.2byte	0x6
 16390 2bb4 52       		.byte	0x52
 16391 2bb5 93       		.byte	0x93
ARM GAS  C:\Users\NIGHDR~1\AppData\Local\Temp\ccvJ0Ig2.s 			page 303


 16392 2bb6 04       		.uleb128 0x4
 16393 2bb7 53       		.byte	0x53
 16394 2bb8 93       		.byte	0x93
 16395 2bb9 04       		.uleb128 0x4
 16396 2bba A8180000 		.4byte	.LVL1177
 16397 2bbe D41C0000 		.4byte	.LVL1299
 16398 2bc2 0200     		.2byte	0x2
 16399 2bc4 7D       		.byte	0x7d
 16400 2bc5 00       		.sleb128 0
 16401 2bc6 D41C0000 		.4byte	.LVL1299
 16402 2bca DA1C0000 		.4byte	.LVL1300
 16403 2bce 0600     		.2byte	0x6
 16404 2bd0 52       		.byte	0x52
 16405 2bd1 93       		.byte	0x93
 16406 2bd2 04       		.uleb128 0x4
 16407 2bd3 53       		.byte	0x53
 16408 2bd4 93       		.byte	0x93
 16409 2bd5 04       		.uleb128 0x4
 16410 2bd6 DA1C0000 		.4byte	.LVL1300
 16411 2bda DC1D0000 		.4byte	.LVL1324
 16412 2bde 0200     		.2byte	0x2
 16413 2be0 7D       		.byte	0x7d
 16414 2be1 00       		.sleb128 0
 16415 2be2 DC1D0000 		.4byte	.LVL1324
 16416 2be6 E41D0000 		.4byte	.LVL1325
 16417 2bea 0600     		.2byte	0x6
 16418 2bec 50       		.byte	0x50
 16419 2bed 93       		.byte	0x93
 16420 2bee 04       		.uleb128 0x4
 16421 2bef 51       		.byte	0x51
 16422 2bf0 93       		.byte	0x93
 16423 2bf1 04       		.uleb128 0x4
 16424 2bf2 E41D0000 		.4byte	.LVL1325
 16425 2bf6 2A200000 		.4byte	.LVL1401
 16426 2bfa 0300     		.2byte	0x3
 16427 2bfc 91       		.byte	0x91
 16428 2bfd 807E     		.sleb128 -256
 16429 2bff 2A200000 		.4byte	.LVL1401
 16430 2c03 6E200000 		.4byte	.LVL1409
 16431 2c07 0600     		.2byte	0x6
 16432 2c09 56       		.byte	0x56
 16433 2c0a 93       		.byte	0x93
 16434 2c0b 04       		.uleb128 0x4
 16435 2c0c 57       		.byte	0x57
 16436 2c0d 93       		.byte	0x93
 16437 2c0e 04       		.uleb128 0x4
 16438 2c0f 6E200000 		.4byte	.LVL1409
 16439 2c13 7E200000 		.4byte	.LVL1411
 16440 2c17 0600     		.2byte	0x6
 16441 2c19 52       		.byte	0x52
 16442 2c1a 93       		.byte	0x93
 16443 2c1b 04       		.uleb128 0x4
 16444 2c1c 53       		.byte	0x53
 16445 2c1d 93       		.byte	0x93
 16446 2c1e 04       		.uleb128 0x4
 16447 2c1f 7E200000 		.4byte	.LVL1411
 16448 2c23 C8220000 		.4byte	.LVL1484
ARM GAS  C:\Users\NIGHDR~1\AppData\Local\Temp\ccvJ0Ig2.s 			page 304


 16449 2c27 0300     		.2byte	0x3
 16450 2c29 91       		.byte	0x91
 16451 2c2a 807E     		.sleb128 -256
 16452 2c2c C8220000 		.4byte	.LVL1484
 16453 2c30 D4220000 		.4byte	.LVL1485
 16454 2c34 0600     		.2byte	0x6
 16455 2c36 50       		.byte	0x50
 16456 2c37 93       		.byte	0x93
 16457 2c38 04       		.uleb128 0x4
 16458 2c39 51       		.byte	0x51
 16459 2c3a 93       		.byte	0x93
 16460 2c3b 04       		.uleb128 0x4
 16461 2c3c D4220000 		.4byte	.LVL1485
 16462 2c40 F8220000 		.4byte	.LVL1490
 16463 2c44 0300     		.2byte	0x3
 16464 2c46 91       		.byte	0x91
 16465 2c47 F07D     		.sleb128 -272
 16466 2c49 F8220000 		.4byte	.LVL1490
 16467 2c4d 08230000 		.4byte	.LVL1493
 16468 2c51 0600     		.2byte	0x6
 16469 2c53 55       		.byte	0x55
 16470 2c54 93       		.byte	0x93
 16471 2c55 04       		.uleb128 0x4
 16472 2c56 56       		.byte	0x56
 16473 2c57 93       		.byte	0x93
 16474 2c58 04       		.uleb128 0x4
 16475 2c59 08230000 		.4byte	.LVL1493
 16476 2c5d 26240000 		.4byte	.LVL1494
 16477 2c61 0600     		.2byte	0x6
 16478 2c63 52       		.byte	0x52
 16479 2c64 93       		.byte	0x93
 16480 2c65 04       		.uleb128 0x4
 16481 2c66 53       		.byte	0x53
 16482 2c67 93       		.byte	0x93
 16483 2c68 04       		.uleb128 0x4
 16484 2c69 00000000 		.4byte	0
 16485 2c6d 00000000 		.4byte	0
 16486              	.LLST70:
 16487 2c71 E8070000 		.4byte	.LVL762
 16488 2c75 EE070000 		.4byte	.LVL763
 16489 2c79 0600     		.2byte	0x6
 16490 2c7b 53       		.byte	0x53
 16491 2c7c 93       		.byte	0x93
 16492 2c7d 04       		.uleb128 0x4
 16493 2c7e 54       		.byte	0x54
 16494 2c7f 93       		.byte	0x93
 16495 2c80 04       		.uleb128 0x4
 16496 2c81 EE070000 		.4byte	.LVL763
 16497 2c85 FA0D0000 		.4byte	.LVL888
 16498 2c89 0300     		.2byte	0x3
 16499 2c8b 91       		.byte	0x91
 16500 2c8c D07E     		.sleb128 -176
 16501 2c8e FA0D0000 		.4byte	.LVL888
 16502 2c92 080E0000 		.4byte	.LVL889
 16503 2c96 0600     		.2byte	0x6
 16504 2c98 54       		.byte	0x54
 16505 2c99 93       		.byte	0x93
ARM GAS  C:\Users\NIGHDR~1\AppData\Local\Temp\ccvJ0Ig2.s 			page 305


 16506 2c9a 04       		.uleb128 0x4
 16507 2c9b 55       		.byte	0x55
 16508 2c9c 93       		.byte	0x93
 16509 2c9d 04       		.uleb128 0x4
 16510 2c9e 080E0000 		.4byte	.LVL889
 16511 2ca2 D6100000 		.4byte	.LVL961
 16512 2ca6 0300     		.2byte	0x3
 16513 2ca8 91       		.byte	0x91
 16514 2ca9 F07D     		.sleb128 -272
 16515 2cab D6100000 		.4byte	.LVL961
 16516 2caf C6140000 		.4byte	.LVL1073
 16517 2cb3 0600     		.2byte	0x6
 16518 2cb5 56       		.byte	0x56
 16519 2cb6 93       		.byte	0x93
 16520 2cb7 04       		.uleb128 0x4
 16521 2cb8 57       		.byte	0x57
 16522 2cb9 93       		.byte	0x93
 16523 2cba 04       		.uleb128 0x4
 16524 2cbb CA140000 		.4byte	.LVL1074
 16525 2cbf EC140000 		.4byte	.LVL1078
 16526 2cc3 0600     		.2byte	0x6
 16527 2cc5 56       		.byte	0x56
 16528 2cc6 93       		.byte	0x93
 16529 2cc7 04       		.uleb128 0x4
 16530 2cc8 57       		.byte	0x57
 16531 2cc9 93       		.byte	0x93
 16532 2cca 04       		.uleb128 0x4
 16533 2ccb EC140000 		.4byte	.LVL1078
 16534 2ccf 7C150000 		.4byte	.LVL1094
 16535 2cd3 0300     		.2byte	0x3
 16536 2cd5 91       		.byte	0x91
 16537 2cd6 C07D     		.sleb128 -320
 16538 2cd8 7C150000 		.4byte	.LVL1094
 16539 2cdc 82150000 		.4byte	.LVL1095
 16540 2ce0 0600     		.2byte	0x6
 16541 2ce2 52       		.byte	0x52
 16542 2ce3 93       		.byte	0x93
 16543 2ce4 04       		.uleb128 0x4
 16544 2ce5 53       		.byte	0x53
 16545 2ce6 93       		.byte	0x93
 16546 2ce7 04       		.uleb128 0x4
 16547 2ce8 82150000 		.4byte	.LVL1095
 16548 2cec 2C160000 		.4byte	.LVL1109
 16549 2cf0 0300     		.2byte	0x3
 16550 2cf2 91       		.byte	0x91
 16551 2cf3 F07D     		.sleb128 -272
 16552 2cf5 2C160000 		.4byte	.LVL1109
 16553 2cf9 46160000 		.4byte	.LVL1112
 16554 2cfd 0600     		.2byte	0x6
 16555 2cff 56       		.byte	0x56
 16556 2d00 93       		.byte	0x93
 16557 2d01 04       		.uleb128 0x4
 16558 2d02 57       		.byte	0x57
 16559 2d03 93       		.byte	0x93
 16560 2d04 04       		.uleb128 0x4
 16561 2d05 46160000 		.4byte	.LVL1112
 16562 2d09 98170000 		.4byte	.LVL1147
ARM GAS  C:\Users\NIGHDR~1\AppData\Local\Temp\ccvJ0Ig2.s 			page 306


 16563 2d0d 0300     		.2byte	0x3
 16564 2d0f 91       		.byte	0x91
 16565 2d10 E07D     		.sleb128 -288
 16566 2d12 98170000 		.4byte	.LVL1147
 16567 2d16 A2170000 		.4byte	.LVL1149
 16568 2d1a 0600     		.2byte	0x6
 16569 2d1c 55       		.byte	0x55
 16570 2d1d 93       		.byte	0x93
 16571 2d1e 04       		.uleb128 0x4
 16572 2d1f 56       		.byte	0x56
 16573 2d20 93       		.byte	0x93
 16574 2d21 04       		.uleb128 0x4
 16575 2d22 A2170000 		.4byte	.LVL1149
 16576 2d26 C01C0000 		.4byte	.LVL1297
 16577 2d2a 0300     		.2byte	0x3
 16578 2d2c 91       		.byte	0x91
 16579 2d2d E07D     		.sleb128 -288
 16580 2d2f C01C0000 		.4byte	.LVL1297
 16581 2d33 1A1E0000 		.4byte	.LVL1330
 16582 2d37 0600     		.2byte	0x6
 16583 2d39 56       		.byte	0x56
 16584 2d3a 93       		.byte	0x93
 16585 2d3b 04       		.uleb128 0x4
 16586 2d3c 57       		.byte	0x57
 16587 2d3d 93       		.byte	0x93
 16588 2d3e 04       		.uleb128 0x4
 16589 2d3f 1A1E0000 		.4byte	.LVL1330
 16590 2d43 201E0000 		.4byte	.LVL1331
 16591 2d47 0600     		.2byte	0x6
 16592 2d49 50       		.byte	0x50
 16593 2d4a 93       		.byte	0x93
 16594 2d4b 04       		.uleb128 0x4
 16595 2d4c 51       		.byte	0x51
 16596 2d4d 93       		.byte	0x93
 16597 2d4e 04       		.uleb128 0x4
 16598 2d4f 201E0000 		.4byte	.LVL1331
 16599 2d53 56200000 		.4byte	.LVL1407
 16600 2d57 0300     		.2byte	0x3
 16601 2d59 91       		.byte	0x91
 16602 2d5a 887E     		.sleb128 -248
 16603 2d5c 56200000 		.4byte	.LVL1407
 16604 2d60 82200000 		.4byte	.LVL1412
 16605 2d64 0600     		.2byte	0x6
 16606 2d66 50       		.byte	0x50
 16607 2d67 93       		.byte	0x93
 16608 2d68 04       		.uleb128 0x4
 16609 2d69 51       		.byte	0x51
 16610 2d6a 93       		.byte	0x93
 16611 2d6b 04       		.uleb128 0x4
 16612 2d6c 86200000 		.4byte	.LVL1413
 16613 2d70 8C200000 		.4byte	.LVL1414
 16614 2d74 0600     		.2byte	0x6
 16615 2d76 50       		.byte	0x50
 16616 2d77 93       		.byte	0x93
 16617 2d78 04       		.uleb128 0x4
 16618 2d79 51       		.byte	0x51
 16619 2d7a 93       		.byte	0x93
ARM GAS  C:\Users\NIGHDR~1\AppData\Local\Temp\ccvJ0Ig2.s 			page 307


 16620 2d7b 04       		.uleb128 0x4
 16621 2d7c 8C200000 		.4byte	.LVL1414
 16622 2d80 F8220000 		.4byte	.LVL1490
 16623 2d84 0300     		.2byte	0x3
 16624 2d86 91       		.byte	0x91
 16625 2d87 887E     		.sleb128 -248
 16626 2d89 F8220000 		.4byte	.LVL1490
 16627 2d8d 00230000 		.4byte	.LVL1491
 16628 2d91 0600     		.2byte	0x6
 16629 2d93 50       		.byte	0x50
 16630 2d94 93       		.byte	0x93
 16631 2d95 04       		.uleb128 0x4
 16632 2d96 51       		.byte	0x51
 16633 2d97 93       		.byte	0x93
 16634 2d98 04       		.uleb128 0x4
 16635 2d99 00230000 		.4byte	.LVL1491
 16636 2d9d 40240000 		.4byte	.LFE3
 16637 2da1 0300     		.2byte	0x3
 16638 2da3 91       		.byte	0x91
 16639 2da4 F07D     		.sleb128 -272
 16640 2da6 00000000 		.4byte	0
 16641 2daa 00000000 		.4byte	0
 16642              	.LLST71:
 16643 2dae A4080000 		.4byte	.LVL776
 16644 2db2 AA080000 		.4byte	.LVL778
 16645 2db6 0600     		.2byte	0x6
 16646 2db8 53       		.byte	0x53
 16647 2db9 93       		.byte	0x93
 16648 2dba 04       		.uleb128 0x4
 16649 2dbb 54       		.byte	0x54
 16650 2dbc 93       		.byte	0x93
 16651 2dbd 04       		.uleb128 0x4
 16652 2dbe AA080000 		.4byte	.LVL778
 16653 2dc2 580E0000 		.4byte	.LVL896
 16654 2dc6 0300     		.2byte	0x3
 16655 2dc8 91       		.byte	0x91
 16656 2dc9 F87D     		.sleb128 -264
 16657 2dcb 580E0000 		.4byte	.LVL896
 16658 2dcf 7A0E0000 		.4byte	.LVL899
 16659 2dd3 0600     		.2byte	0x6
 16660 2dd5 50       		.byte	0x50
 16661 2dd6 93       		.byte	0x93
 16662 2dd7 04       		.uleb128 0x4
 16663 2dd8 51       		.byte	0x51
 16664 2dd9 93       		.byte	0x93
 16665 2dda 04       		.uleb128 0x4
 16666 2ddb 7A0E0000 		.4byte	.LVL899
 16667 2ddf C6100000 		.4byte	.LVL959
 16668 2de3 0300     		.2byte	0x3
 16669 2de5 91       		.byte	0x91
 16670 2de6 E07E     		.sleb128 -160
 16671 2de8 C6100000 		.4byte	.LVL959
 16672 2dec CE100000 		.4byte	.LVL960
 16673 2df0 0600     		.2byte	0x6
 16674 2df2 54       		.byte	0x54
 16675 2df3 93       		.byte	0x93
 16676 2df4 04       		.uleb128 0x4
ARM GAS  C:\Users\NIGHDR~1\AppData\Local\Temp\ccvJ0Ig2.s 			page 308


 16677 2df5 55       		.byte	0x55
 16678 2df6 93       		.byte	0x93
 16679 2df7 04       		.uleb128 0x4
 16680 2df8 CE100000 		.4byte	.LVL960
 16681 2dfc 52120000 		.4byte	.LVL997
 16682 2e00 0300     		.2byte	0x3
 16683 2e02 91       		.byte	0x91
 16684 2e03 D87E     		.sleb128 -168
 16685 2e05 52120000 		.4byte	.LVL997
 16686 2e09 80120000 		.4byte	.LVL1002
 16687 2e0d 0600     		.2byte	0x6
 16688 2e0f 54       		.byte	0x54
 16689 2e10 93       		.byte	0x93
 16690 2e11 04       		.uleb128 0x4
 16691 2e12 55       		.byte	0x55
 16692 2e13 93       		.byte	0x93
 16693 2e14 04       		.uleb128 0x4
 16694 2e15 80120000 		.4byte	.LVL1002
 16695 2e19 FC120000 		.4byte	.LVL1016
 16696 2e1d 0300     		.2byte	0x3
 16697 2e1f 91       		.byte	0x91
 16698 2e20 887E     		.sleb128 -248
 16699 2e22 FC120000 		.4byte	.LVL1016
 16700 2e26 FE120000 		.4byte	.LVL1017
 16701 2e2a 0600     		.2byte	0x6
 16702 2e2c 52       		.byte	0x52
 16703 2e2d 93       		.byte	0x93
 16704 2e2e 04       		.uleb128 0x4
 16705 2e2f 53       		.byte	0x53
 16706 2e30 93       		.byte	0x93
 16707 2e31 04       		.uleb128 0x4
 16708 2e32 FE120000 		.4byte	.LVL1017
 16709 2e36 9A130000 		.4byte	.LVL1035
 16710 2e3a 0300     		.2byte	0x3
 16711 2e3c 91       		.byte	0x91
 16712 2e3d 887E     		.sleb128 -248
 16713 2e3f 9A130000 		.4byte	.LVL1035
 16714 2e43 9C130000 		.4byte	.LVL1036
 16715 2e47 0600     		.2byte	0x6
 16716 2e49 52       		.byte	0x52
 16717 2e4a 93       		.byte	0x93
 16718 2e4b 04       		.uleb128 0x4
 16719 2e4c 53       		.byte	0x53
 16720 2e4d 93       		.byte	0x93
 16721 2e4e 04       		.uleb128 0x4
 16722 2e4f 9C130000 		.4byte	.LVL1036
 16723 2e53 36140000 		.4byte	.LVL1054
 16724 2e57 0300     		.2byte	0x3
 16725 2e59 91       		.byte	0x91
 16726 2e5a 887E     		.sleb128 -248
 16727 2e5c 36140000 		.4byte	.LVL1054
 16728 2e60 38140000 		.4byte	.LVL1055
 16729 2e64 0600     		.2byte	0x6
 16730 2e66 52       		.byte	0x52
 16731 2e67 93       		.byte	0x93
 16732 2e68 04       		.uleb128 0x4
 16733 2e69 53       		.byte	0x53
ARM GAS  C:\Users\NIGHDR~1\AppData\Local\Temp\ccvJ0Ig2.s 			page 309


 16734 2e6a 93       		.byte	0x93
 16735 2e6b 04       		.uleb128 0x4
 16736 2e6c 38140000 		.4byte	.LVL1055
 16737 2e70 E4140000 		.4byte	.LVL1076
 16738 2e74 0300     		.2byte	0x3
 16739 2e76 91       		.byte	0x91
 16740 2e77 F07D     		.sleb128 -272
 16741 2e79 E4140000 		.4byte	.LVL1076
 16742 2e7d E8140000 		.4byte	.LVL1077
 16743 2e81 0600     		.2byte	0x6
 16744 2e83 53       		.byte	0x53
 16745 2e84 93       		.byte	0x93
 16746 2e85 04       		.uleb128 0x4
 16747 2e86 54       		.byte	0x54
 16748 2e87 93       		.byte	0x93
 16749 2e88 04       		.uleb128 0x4
 16750 2e89 E8140000 		.4byte	.LVL1077
 16751 2e8d 76160000 		.4byte	.LVL1118
 16752 2e91 0300     		.2byte	0x3
 16753 2e93 91       		.byte	0x91
 16754 2e94 B07D     		.sleb128 -336
 16755 2e96 76160000 		.4byte	.LVL1118
 16756 2e9a 88160000 		.4byte	.LVL1119
 16757 2e9e 0600     		.2byte	0x6
 16758 2ea0 52       		.byte	0x52
 16759 2ea1 93       		.byte	0x93
 16760 2ea2 04       		.uleb128 0x4
 16761 2ea3 53       		.byte	0x53
 16762 2ea4 93       		.byte	0x93
 16763 2ea5 04       		.uleb128 0x4
 16764 2ea6 88160000 		.4byte	.LVL1119
 16765 2eaa 84170000 		.4byte	.LVL1145
 16766 2eae 0300     		.2byte	0x3
 16767 2eb0 91       		.byte	0x91
 16768 2eb1 B07D     		.sleb128 -336
 16769 2eb3 84170000 		.4byte	.LVL1145
 16770 2eb7 86170000 		.4byte	.LVL1146
 16771 2ebb 0600     		.2byte	0x6
 16772 2ebd 54       		.byte	0x54
 16773 2ebe 93       		.byte	0x93
 16774 2ebf 04       		.uleb128 0x4
 16775 2ec0 55       		.byte	0x55
 16776 2ec1 93       		.byte	0x93
 16777 2ec2 04       		.uleb128 0x4
 16778 2ec3 86170000 		.4byte	.LVL1146
 16779 2ec7 E21A0000 		.4byte	.LVL1248
 16780 2ecb 0300     		.2byte	0x3
 16781 2ecd 91       		.byte	0x91
 16782 2ece D07D     		.sleb128 -304
 16783 2ed0 E21A0000 		.4byte	.LVL1248
 16784 2ed4 EE1A0000 		.4byte	.LVL1250
 16785 2ed8 0600     		.2byte	0x6
 16786 2eda 54       		.byte	0x54
 16787 2edb 93       		.byte	0x93
 16788 2edc 04       		.uleb128 0x4
 16789 2edd 55       		.byte	0x55
 16790 2ede 93       		.byte	0x93
ARM GAS  C:\Users\NIGHDR~1\AppData\Local\Temp\ccvJ0Ig2.s 			page 310


 16791 2edf 04       		.uleb128 0x4
 16792 2ee0 EE1A0000 		.4byte	.LVL1250
 16793 2ee4 5E1B0000 		.4byte	.LVL1263
 16794 2ee8 0300     		.2byte	0x3
 16795 2eea 91       		.byte	0x91
 16796 2eeb D07D     		.sleb128 -304
 16797 2eed 5E1B0000 		.4byte	.LVL1263
 16798 2ef1 061E0000 		.4byte	.LVL1329
 16799 2ef5 0A00     		.2byte	0xa
 16800 2ef7 9E       		.byte	0x9e
 16801 2ef8 08       		.uleb128 0x8
 16802 2ef9 00000000 		.8byte	0
 16802      00000000 
 16803 2f01 061E0000 		.4byte	.LVL1329
 16804 2f05 AA1E0000 		.4byte	.LVL1347
 16805 2f09 0600     		.2byte	0x6
 16806 2f0b 54       		.byte	0x54
 16807 2f0c 93       		.byte	0x93
 16808 2f0d 04       		.uleb128 0x4
 16809 2f0e 55       		.byte	0x55
 16810 2f0f 93       		.byte	0x93
 16811 2f10 04       		.uleb128 0x4
 16812 2f11 AA1E0000 		.4byte	.LVL1347
 16813 2f15 76200000 		.4byte	.LVL1410
 16814 2f19 0A00     		.2byte	0xa
 16815 2f1b 9E       		.byte	0x9e
 16816 2f1c 08       		.uleb128 0x8
 16817 2f1d 00000000 		.8byte	0
 16817      00000000 
 16818 2f25 76200000 		.4byte	.LVL1410
 16819 2f29 16210000 		.4byte	.LVL1430
 16820 2f2d 0600     		.2byte	0x6
 16821 2f2f 54       		.byte	0x54
 16822 2f30 93       		.byte	0x93
 16823 2f31 04       		.uleb128 0x4
 16824 2f32 55       		.byte	0x55
 16825 2f33 93       		.byte	0x93
 16826 2f34 04       		.uleb128 0x4
 16827 2f35 16210000 		.4byte	.LVL1430
 16828 2f39 40240000 		.4byte	.LFE3
 16829 2f3d 0A00     		.2byte	0xa
 16830 2f3f 9E       		.byte	0x9e
 16831 2f40 08       		.uleb128 0x8
 16832 2f41 00000000 		.8byte	0
 16832      00000000 
 16833 2f49 00000000 		.4byte	0
 16834 2f4d 00000000 		.4byte	0
 16835              	.LLST72:
 16836 2f51 4E090000 		.4byte	.LVL790
 16837 2f55 60090000 		.4byte	.LVL792
 16838 2f59 0600     		.2byte	0x6
 16839 2f5b 55       		.byte	0x55
 16840 2f5c 93       		.byte	0x93
 16841 2f5d 04       		.uleb128 0x4
 16842 2f5e 56       		.byte	0x56
 16843 2f5f 93       		.byte	0x93
 16844 2f60 04       		.uleb128 0x4
ARM GAS  C:\Users\NIGHDR~1\AppData\Local\Temp\ccvJ0Ig2.s 			page 311


 16845 2f61 60090000 		.4byte	.LVL792
 16846 2f65 3E0E0000 		.4byte	.LVL894
 16847 2f69 0300     		.2byte	0x3
 16848 2f6b 91       		.byte	0x91
 16849 2f6c 807E     		.sleb128 -256
 16850 2f6e 3E0E0000 		.4byte	.LVL894
 16851 2f72 4C0E0000 		.4byte	.LVL895
 16852 2f76 0600     		.2byte	0x6
 16853 2f78 54       		.byte	0x54
 16854 2f79 93       		.byte	0x93
 16855 2f7a 04       		.uleb128 0x4
 16856 2f7b 55       		.byte	0x55
 16857 2f7c 93       		.byte	0x93
 16858 2f7d 04       		.uleb128 0x4
 16859 2f7e 4C0E0000 		.4byte	.LVL895
 16860 2f82 1E110000 		.4byte	.LVL967
 16861 2f86 0300     		.2byte	0x3
 16862 2f88 91       		.byte	0x91
 16863 2f89 807E     		.sleb128 -256
 16864 2f8b 1E110000 		.4byte	.LVL967
 16865 2f8f 22110000 		.4byte	.LVL968
 16866 2f93 0600     		.2byte	0x6
 16867 2f95 50       		.byte	0x50
 16868 2f96 93       		.byte	0x93
 16869 2f97 04       		.uleb128 0x4
 16870 2f98 51       		.byte	0x51
 16871 2f99 93       		.byte	0x93
 16872 2f9a 04       		.uleb128 0x4
 16873 2f9b 22110000 		.4byte	.LVL968
 16874 2f9f 6C120000 		.4byte	.LVL999
 16875 2fa3 0300     		.2byte	0x3
 16876 2fa5 91       		.byte	0x91
 16877 2fa6 807E     		.sleb128 -256
 16878 2fa8 6C120000 		.4byte	.LVL999
 16879 2fac 70120000 		.4byte	.LVL1000
 16880 2fb0 0600     		.2byte	0x6
 16881 2fb2 53       		.byte	0x53
 16882 2fb3 93       		.byte	0x93
 16883 2fb4 04       		.uleb128 0x4
 16884 2fb5 54       		.byte	0x54
 16885 2fb6 93       		.byte	0x93
 16886 2fb7 04       		.uleb128 0x4
 16887 2fb8 70120000 		.4byte	.LVL1000
 16888 2fbc 16130000 		.4byte	.LVL1019
 16889 2fc0 0300     		.2byte	0x3
 16890 2fc2 91       		.byte	0x91
 16891 2fc3 807E     		.sleb128 -256
 16892 2fc5 16130000 		.4byte	.LVL1019
 16893 2fc9 18130000 		.4byte	.LVL1020
 16894 2fcd 0600     		.2byte	0x6
 16895 2fcf 52       		.byte	0x52
 16896 2fd0 93       		.byte	0x93
 16897 2fd1 04       		.uleb128 0x4
 16898 2fd2 53       		.byte	0x53
 16899 2fd3 93       		.byte	0x93
 16900 2fd4 04       		.uleb128 0x4
 16901 2fd5 18130000 		.4byte	.LVL1020
ARM GAS  C:\Users\NIGHDR~1\AppData\Local\Temp\ccvJ0Ig2.s 			page 312


 16902 2fd9 B2130000 		.4byte	.LVL1038
 16903 2fdd 0300     		.2byte	0x3
 16904 2fdf 91       		.byte	0x91
 16905 2fe0 807E     		.sleb128 -256
 16906 2fe2 B2130000 		.4byte	.LVL1038
 16907 2fe6 B4130000 		.4byte	.LVL1039
 16908 2fea 0600     		.2byte	0x6
 16909 2fec 52       		.byte	0x52
 16910 2fed 93       		.byte	0x93
 16911 2fee 04       		.uleb128 0x4
 16912 2fef 53       		.byte	0x53
 16913 2ff0 93       		.byte	0x93
 16914 2ff1 04       		.uleb128 0x4
 16915 2ff2 B4130000 		.4byte	.LVL1039
 16916 2ff6 50140000 		.4byte	.LVL1057
 16917 2ffa 0300     		.2byte	0x3
 16918 2ffc 91       		.byte	0x91
 16919 2ffd 807E     		.sleb128 -256
 16920 2fff 50140000 		.4byte	.LVL1057
 16921 3003 52140000 		.4byte	.LVL1058
 16922 3007 0600     		.2byte	0x6
 16923 3009 52       		.byte	0x52
 16924 300a 93       		.byte	0x93
 16925 300b 04       		.uleb128 0x4
 16926 300c 53       		.byte	0x53
 16927 300d 93       		.byte	0x93
 16928 300e 04       		.uleb128 0x4
 16929 300f 52140000 		.4byte	.LVL1058
 16930 3013 62160000 		.4byte	.LVL1115
 16931 3017 0300     		.2byte	0x3
 16932 3019 91       		.byte	0x91
 16933 301a 807E     		.sleb128 -256
 16934 301c 62160000 		.4byte	.LVL1115
 16935 3020 6A160000 		.4byte	.LVL1116
 16936 3024 0600     		.2byte	0x6
 16937 3026 50       		.byte	0x50
 16938 3027 93       		.byte	0x93
 16939 3028 04       		.uleb128 0x4
 16940 3029 51       		.byte	0x51
 16941 302a 93       		.byte	0x93
 16942 302b 04       		.uleb128 0x4
 16943 302c 6A160000 		.4byte	.LVL1116
 16944 3030 D6170000 		.4byte	.LVL1153
 16945 3034 0300     		.2byte	0x3
 16946 3036 91       		.byte	0x91
 16947 3037 F07D     		.sleb128 -272
 16948 3039 D6170000 		.4byte	.LVL1153
 16949 303d F2170000 		.4byte	.LVL1155
 16950 3041 0600     		.2byte	0x6
 16951 3043 53       		.byte	0x53
 16952 3044 93       		.byte	0x93
 16953 3045 04       		.uleb128 0x4
 16954 3046 54       		.byte	0x54
 16955 3047 93       		.byte	0x93
 16956 3048 04       		.uleb128 0x4
 16957 3049 F2170000 		.4byte	.LVL1155
 16958 304d C21A0000 		.4byte	.LVL1243
ARM GAS  C:\Users\NIGHDR~1\AppData\Local\Temp\ccvJ0Ig2.s 			page 313


 16959 3051 0300     		.2byte	0x3
 16960 3053 91       		.byte	0x91
 16961 3054 B87D     		.sleb128 -328
 16962 3056 C21A0000 		.4byte	.LVL1243
 16963 305a 40240000 		.4byte	.LFE3
 16964 305e 0A00     		.2byte	0xa
 16965 3060 9E       		.byte	0x9e
 16966 3061 08       		.uleb128 0x8
 16967 3062 00000000 		.8byte	0
 16967      00000000 
 16968 306a 00000000 		.4byte	0
 16969 306e 00000000 		.4byte	0
 16970              	.LLST73:
 16971 3072 E8090000 		.4byte	.LVL801
 16972 3076 EC090000 		.4byte	.LVL802
 16973 307a 0600     		.2byte	0x6
 16974 307c 53       		.byte	0x53
 16975 307d 93       		.byte	0x93
 16976 307e 04       		.uleb128 0x4
 16977 307f 54       		.byte	0x54
 16978 3080 93       		.byte	0x93
 16979 3081 04       		.uleb128 0x4
 16980 3082 EC090000 		.4byte	.LVL802
 16981 3086 9C0E0000 		.4byte	.LVL902
 16982 308a 0300     		.2byte	0x3
 16983 308c 91       		.byte	0x91
 16984 308d B07D     		.sleb128 -336
 16985 308f 9C0E0000 		.4byte	.LVL902
 16986 3093 BE0E0000 		.4byte	.LVL905
 16987 3097 0600     		.2byte	0x6
 16988 3099 50       		.byte	0x50
 16989 309a 93       		.byte	0x93
 16990 309b 04       		.uleb128 0x4
 16991 309c 51       		.byte	0x51
 16992 309d 93       		.byte	0x93
 16993 309e 04       		.uleb128 0x4
 16994 309f BE0E0000 		.4byte	.LVL905
 16995 30a3 04110000 		.4byte	.LVL965
 16996 30a7 0300     		.2byte	0x3
 16997 30a9 91       		.byte	0x91
 16998 30aa E87E     		.sleb128 -152
 16999 30ac 04110000 		.4byte	.LVL965
 17000 30b0 12110000 		.4byte	.LVL966
 17001 30b4 0600     		.2byte	0x6
 17002 30b6 54       		.byte	0x54
 17003 30b7 93       		.byte	0x93
 17004 30b8 04       		.uleb128 0x4
 17005 30b9 55       		.byte	0x55
 17006 30ba 93       		.byte	0x93
 17007 30bb 04       		.uleb128 0x4
 17008 30bc 12110000 		.4byte	.LVL966
 17009 30c0 88120000 		.4byte	.LVL1003
 17010 30c4 0300     		.2byte	0x3
 17011 30c6 91       		.byte	0x91
 17012 30c7 F07D     		.sleb128 -272
 17013 30c9 88120000 		.4byte	.LVL1003
 17014 30cd B4120000 		.4byte	.LVL1008
ARM GAS  C:\Users\NIGHDR~1\AppData\Local\Temp\ccvJ0Ig2.s 			page 314


 17015 30d1 0600     		.2byte	0x6
 17016 30d3 54       		.byte	0x54
 17017 30d4 93       		.byte	0x93
 17018 30d5 04       		.uleb128 0x4
 17019 30d6 55       		.byte	0x55
 17020 30d7 93       		.byte	0x93
 17021 30d8 04       		.uleb128 0x4
 17022 30d9 B4120000 		.4byte	.LVL1008
 17023 30dd 2E130000 		.4byte	.LVL1022
 17024 30e1 0300     		.2byte	0x3
 17025 30e3 91       		.byte	0x91
 17026 30e4 F07D     		.sleb128 -272
 17027 30e6 2E130000 		.4byte	.LVL1022
 17028 30ea 30130000 		.4byte	.LVL1023
 17029 30ee 0600     		.2byte	0x6
 17030 30f0 52       		.byte	0x52
 17031 30f1 93       		.byte	0x93
 17032 30f2 04       		.uleb128 0x4
 17033 30f3 53       		.byte	0x53
 17034 30f4 93       		.byte	0x93
 17035 30f5 04       		.uleb128 0x4
 17036 30f6 30130000 		.4byte	.LVL1023
 17037 30fa CC130000 		.4byte	.LVL1041
 17038 30fe 0300     		.2byte	0x3
 17039 3100 91       		.byte	0x91
 17040 3101 F07D     		.sleb128 -272
 17041 3103 CC130000 		.4byte	.LVL1041
 17042 3107 CE130000 		.4byte	.LVL1042
 17043 310b 0600     		.2byte	0x6
 17044 310d 52       		.byte	0x52
 17045 310e 93       		.byte	0x93
 17046 310f 04       		.uleb128 0x4
 17047 3110 53       		.byte	0x53
 17048 3111 93       		.byte	0x93
 17049 3112 04       		.uleb128 0x4
 17050 3113 CE130000 		.4byte	.LVL1042
 17051 3117 AC160000 		.4byte	.LVL1124
 17052 311b 0200     		.2byte	0x2
 17053 311d 7D       		.byte	0x7d
 17054 311e 00       		.sleb128 0
 17055 311f AC160000 		.4byte	.LVL1124
 17056 3123 BE160000 		.4byte	.LVL1125
 17057 3127 0600     		.2byte	0x6
 17058 3129 52       		.byte	0x52
 17059 312a 93       		.byte	0x93
 17060 312b 04       		.uleb128 0x4
 17061 312c 53       		.byte	0x53
 17062 312d 93       		.byte	0x93
 17063 312e 04       		.uleb128 0x4
 17064 312f BE160000 		.4byte	.LVL1125
 17065 3133 C2170000 		.4byte	.LVL1151
 17066 3137 0300     		.2byte	0x3
 17067 3139 91       		.byte	0x91
 17068 313a 807E     		.sleb128 -256
 17069 313c C2170000 		.4byte	.LVL1151
 17070 3140 CA170000 		.4byte	.LVL1152
 17071 3144 0600     		.2byte	0x6
ARM GAS  C:\Users\NIGHDR~1\AppData\Local\Temp\ccvJ0Ig2.s 			page 315


 17072 3146 50       		.byte	0x50
 17073 3147 93       		.byte	0x93
 17074 3148 04       		.uleb128 0x4
 17075 3149 51       		.byte	0x51
 17076 314a 93       		.byte	0x93
 17077 314b 04       		.uleb128 0x4
 17078 314c CA170000 		.4byte	.LVL1152
 17079 3150 321A0000 		.4byte	.LVL1224
 17080 3154 0300     		.2byte	0x3
 17081 3156 91       		.byte	0x91
 17082 3157 B07D     		.sleb128 -336
 17083 3159 321A0000 		.4byte	.LVL1224
 17084 315d 40240000 		.4byte	.LFE3
 17085 3161 0A00     		.2byte	0xa
 17086 3163 9E       		.byte	0x9e
 17087 3164 08       		.uleb128 0x8
 17088 3165 00000000 		.8byte	0
 17088      00000000 
 17089 316d 00000000 		.4byte	0
 17090 3171 00000000 		.4byte	0
 17091              	.LLST74:
 17092 3175 700A0000 		.4byte	.LVL811
 17093 3179 740A0000 		.4byte	.LVL813
 17094 317d 0600     		.2byte	0x6
 17095 317f 52       		.byte	0x52
 17096 3180 93       		.byte	0x93
 17097 3181 04       		.uleb128 0x4
 17098 3182 53       		.byte	0x53
 17099 3183 93       		.byte	0x93
 17100 3184 04       		.uleb128 0x4
 17101 3185 740A0000 		.4byte	.LVL813
 17102 3189 820E0000 		.4byte	.LVL900
 17103 318d 0300     		.2byte	0x3
 17104 318f 91       		.byte	0x91
 17105 3190 887E     		.sleb128 -248
 17106 3192 820E0000 		.4byte	.LVL900
 17107 3196 900E0000 		.4byte	.LVL901
 17108 319a 0600     		.2byte	0x6
 17109 319c 54       		.byte	0x54
 17110 319d 93       		.byte	0x93
 17111 319e 04       		.uleb128 0x4
 17112 319f 55       		.byte	0x55
 17113 31a0 93       		.byte	0x93
 17114 31a1 04       		.uleb128 0x4
 17115 31a2 900E0000 		.4byte	.LVL901
 17116 31a6 66110000 		.4byte	.LVL973
 17117 31aa 0300     		.2byte	0x3
 17118 31ac 91       		.byte	0x91
 17119 31ad F87D     		.sleb128 -264
 17120 31af 66110000 		.4byte	.LVL973
 17121 31b3 6A110000 		.4byte	.LVL974
 17122 31b7 0600     		.2byte	0x6
 17123 31b9 50       		.byte	0x50
 17124 31ba 93       		.byte	0x93
 17125 31bb 04       		.uleb128 0x4
 17126 31bc 51       		.byte	0x51
 17127 31bd 93       		.byte	0x93
ARM GAS  C:\Users\NIGHDR~1\AppData\Local\Temp\ccvJ0Ig2.s 			page 316


 17128 31be 04       		.uleb128 0x4
 17129 31bf 6A110000 		.4byte	.LVL974
 17130 31c3 A2120000 		.4byte	.LVL1005
 17131 31c7 0300     		.2byte	0x3
 17132 31c9 91       		.byte	0x91
 17133 31ca F87D     		.sleb128 -264
 17134 31cc A2120000 		.4byte	.LVL1005
 17135 31d0 A6120000 		.4byte	.LVL1006
 17136 31d4 0600     		.2byte	0x6
 17137 31d6 53       		.byte	0x53
 17138 31d7 93       		.byte	0x93
 17139 31d8 04       		.uleb128 0x4
 17140 31d9 54       		.byte	0x54
 17141 31da 93       		.byte	0x93
 17142 31db 04       		.uleb128 0x4
 17143 31dc A6120000 		.4byte	.LVL1006
 17144 31e0 48130000 		.4byte	.LVL1025
 17145 31e4 0300     		.2byte	0x3
 17146 31e6 91       		.byte	0x91
 17147 31e7 F87D     		.sleb128 -264
 17148 31e9 48130000 		.4byte	.LVL1025
 17149 31ed 4A130000 		.4byte	.LVL1026
 17150 31f1 0600     		.2byte	0x6
 17151 31f3 52       		.byte	0x52
 17152 31f4 93       		.byte	0x93
 17153 31f5 04       		.uleb128 0x4
 17154 31f6 53       		.byte	0x53
 17155 31f7 93       		.byte	0x93
 17156 31f8 04       		.uleb128 0x4
 17157 31f9 4A130000 		.4byte	.LVL1026
 17158 31fd 98160000 		.4byte	.LVL1121
 17159 3201 0300     		.2byte	0x3
 17160 3203 91       		.byte	0x91
 17161 3204 F87D     		.sleb128 -264
 17162 3206 98160000 		.4byte	.LVL1121
 17163 320a A0160000 		.4byte	.LVL1122
 17164 320e 0600     		.2byte	0x6
 17165 3210 50       		.byte	0x50
 17166 3211 93       		.byte	0x93
 17167 3212 04       		.uleb128 0x4
 17168 3213 51       		.byte	0x51
 17169 3214 93       		.byte	0x93
 17170 3215 04       		.uleb128 0x4
 17171 3216 A0160000 		.4byte	.LVL1122
 17172 321a 0E180000 		.4byte	.LVL1158
 17173 321e 0300     		.2byte	0x3
 17174 3220 91       		.byte	0x91
 17175 3221 F87D     		.sleb128 -264
 17176 3223 0E180000 		.4byte	.LVL1158
 17177 3227 22180000 		.4byte	.LVL1161
 17178 322b 0600     		.2byte	0x6
 17179 322d 56       		.byte	0x56
 17180 322e 93       		.byte	0x93
 17181 322f 04       		.uleb128 0x4
 17182 3230 57       		.byte	0x57
 17183 3231 93       		.byte	0x93
 17184 3232 04       		.uleb128 0x4
ARM GAS  C:\Users\NIGHDR~1\AppData\Local\Temp\ccvJ0Ig2.s 			page 317


 17185 3233 22180000 		.4byte	.LVL1161
 17186 3237 AE190000 		.4byte	.LVL1208
 17187 323b 0300     		.2byte	0x3
 17188 323d 91       		.byte	0x91
 17189 323e C87D     		.sleb128 -312
 17190 3240 AE190000 		.4byte	.LVL1208
 17191 3244 40240000 		.4byte	.LFE3
 17192 3248 0A00     		.2byte	0xa
 17193 324a 9E       		.byte	0x9e
 17194 324b 08       		.uleb128 0x8
 17195 324c 00000000 		.8byte	0
 17195      00000000 
 17196 3254 00000000 		.4byte	0
 17197 3258 00000000 		.4byte	0
 17198              	.LLST75:
 17199 325c EA0A0000 		.4byte	.LVL822
 17200 3260 FC0A0000 		.4byte	.LVL824
 17201 3264 0600     		.2byte	0x6
 17202 3266 55       		.byte	0x55
 17203 3267 93       		.byte	0x93
 17204 3268 04       		.uleb128 0x4
 17205 3269 56       		.byte	0x56
 17206 326a 93       		.byte	0x93
 17207 326b 04       		.uleb128 0x4
 17208 326c FC0A0000 		.4byte	.LVL824
 17209 3270 E00E0000 		.4byte	.LVL908
 17210 3274 0300     		.2byte	0x3
 17211 3276 91       		.byte	0x91
 17212 3277 B87D     		.sleb128 -328
 17213 3279 E00E0000 		.4byte	.LVL908
 17214 327d E40E0000 		.4byte	.LVL909
 17215 3281 0600     		.2byte	0x6
 17216 3283 50       		.byte	0x50
 17217 3284 93       		.byte	0x93
 17218 3285 04       		.uleb128 0x4
 17219 3286 51       		.byte	0x51
 17220 3287 93       		.byte	0x93
 17221 3288 04       		.uleb128 0x4
 17222 3289 E40E0000 		.4byte	.LVL909
 17223 328d 4C110000 		.4byte	.LVL971
 17224 3291 0300     		.2byte	0x3
 17225 3293 91       		.byte	0x91
 17226 3294 987E     		.sleb128 -232
 17227 3296 4C110000 		.4byte	.LVL971
 17228 329a 5A110000 		.4byte	.LVL972
 17229 329e 0600     		.2byte	0x6
 17230 32a0 54       		.byte	0x54
 17231 32a1 93       		.byte	0x93
 17232 32a2 04       		.uleb128 0x4
 17233 32a3 55       		.byte	0x55
 17234 32a4 93       		.byte	0x93
 17235 32a5 04       		.uleb128 0x4
 17236 32a6 5A110000 		.4byte	.LVL972
 17237 32aa BC120000 		.4byte	.LVL1009
 17238 32ae 0300     		.2byte	0x3
 17239 32b0 91       		.byte	0x91
 17240 32b1 987E     		.sleb128 -232
ARM GAS  C:\Users\NIGHDR~1\AppData\Local\Temp\ccvJ0Ig2.s 			page 318


 17241 32b3 BC120000 		.4byte	.LVL1009
 17242 32b7 D4120000 		.4byte	.LVL1012
 17243 32bb 0600     		.2byte	0x6
 17244 32bd 54       		.byte	0x54
 17245 32be 93       		.byte	0x93
 17246 32bf 04       		.uleb128 0x4
 17247 32c0 55       		.byte	0x55
 17248 32c1 93       		.byte	0x93
 17249 32c2 04       		.uleb128 0x4
 17250 32c3 D4120000 		.4byte	.LVL1012
 17251 32c7 E2160000 		.4byte	.LVL1130
 17252 32cb 0300     		.2byte	0x3
 17253 32cd 91       		.byte	0x91
 17254 32ce C87D     		.sleb128 -312
 17255 32d0 E2160000 		.4byte	.LVL1130
 17256 32d4 EC160000 		.4byte	.LVL1131
 17257 32d8 0600     		.2byte	0x6
 17258 32da 52       		.byte	0x52
 17259 32db 93       		.byte	0x93
 17260 32dc 04       		.uleb128 0x4
 17261 32dd 53       		.byte	0x53
 17262 32de 93       		.byte	0x93
 17263 32df 04       		.uleb128 0x4
 17264 32e0 EC160000 		.4byte	.LVL1131
 17265 32e4 FE170000 		.4byte	.LVL1156
 17266 32e8 0300     		.2byte	0x3
 17267 32ea 91       		.byte	0x91
 17268 32eb C87D     		.sleb128 -312
 17269 32ed FE170000 		.4byte	.LVL1156
 17270 32f1 06180000 		.4byte	.LVL1157
 17271 32f5 0600     		.2byte	0x6
 17272 32f7 50       		.byte	0x50
 17273 32f8 93       		.byte	0x93
 17274 32f9 04       		.uleb128 0x4
 17275 32fa 51       		.byte	0x51
 17276 32fb 93       		.byte	0x93
 17277 32fc 04       		.uleb128 0x4
 17278 32fd 06180000 		.4byte	.LVL1157
 17279 3301 2A190000 		.4byte	.LVL1192
 17280 3305 0300     		.2byte	0x3
 17281 3307 91       		.byte	0x91
 17282 3308 C07D     		.sleb128 -320
 17283 330a 2A190000 		.4byte	.LVL1192
 17284 330e 40240000 		.4byte	.LFE3
 17285 3312 0A00     		.2byte	0xa
 17286 3314 9E       		.byte	0x9e
 17287 3315 08       		.uleb128 0x8
 17288 3316 00000000 		.8byte	0
 17288      00000000 
 17289 331e 00000000 		.4byte	0
 17290 3322 00000000 		.4byte	0
 17291              	.LLST76:
 17292 3326 540B0000 		.4byte	.LVL830
 17293 332a 580B0000 		.4byte	.LVL831
 17294 332e 0600     		.2byte	0x6
 17295 3330 53       		.byte	0x53
 17296 3331 93       		.byte	0x93
ARM GAS  C:\Users\NIGHDR~1\AppData\Local\Temp\ccvJ0Ig2.s 			page 319


 17297 3332 04       		.uleb128 0x4
 17298 3333 54       		.byte	0x54
 17299 3334 93       		.byte	0x93
 17300 3335 04       		.uleb128 0x4
 17301 3336 580B0000 		.4byte	.LVL831
 17302 333a C60E0000 		.4byte	.LVL906
 17303 333e 0300     		.2byte	0x3
 17304 3340 91       		.byte	0x91
 17305 3341 987E     		.sleb128 -232
 17306 3343 C60E0000 		.4byte	.LVL906
 17307 3347 D40E0000 		.4byte	.LVL907
 17308 334b 0600     		.2byte	0x6
 17309 334d 54       		.byte	0x54
 17310 334e 93       		.byte	0x93
 17311 334f 04       		.uleb128 0x4
 17312 3350 55       		.byte	0x55
 17313 3351 93       		.byte	0x93
 17314 3352 04       		.uleb128 0x4
 17315 3353 D40E0000 		.4byte	.LVL907
 17316 3357 AE110000 		.4byte	.LVL979
 17317 335b 0300     		.2byte	0x3
 17318 335d 91       		.byte	0x91
 17319 335e B07D     		.sleb128 -336
 17320 3360 AE110000 		.4byte	.LVL979
 17321 3364 B2110000 		.4byte	.LVL980
 17322 3368 0600     		.2byte	0x6
 17323 336a 50       		.byte	0x50
 17324 336b 93       		.byte	0x93
 17325 336c 04       		.uleb128 0x4
 17326 336d 51       		.byte	0x51
 17327 336e 93       		.byte	0x93
 17328 336f 04       		.uleb128 0x4
 17329 3370 B2110000 		.4byte	.LVL980
 17330 3374 CE160000 		.4byte	.LVL1127
 17331 3378 0300     		.2byte	0x3
 17332 337a 91       		.byte	0x91
 17333 337b E87E     		.sleb128 -152
 17334 337d CE160000 		.4byte	.LVL1127
 17335 3381 D6160000 		.4byte	.LVL1128
 17336 3385 0600     		.2byte	0x6
 17337 3387 50       		.byte	0x50
 17338 3388 93       		.byte	0x93
 17339 3389 04       		.uleb128 0x4
 17340 338a 51       		.byte	0x51
 17341 338b 93       		.byte	0x93
 17342 338c 04       		.uleb128 0x4
 17343 338d D6160000 		.4byte	.LVL1128
 17344 3391 2E180000 		.4byte	.LVL1163
 17345 3395 0200     		.2byte	0x2
 17346 3397 7D       		.byte	0x7d
 17347 3398 00       		.sleb128 0
 17348 3399 2E180000 		.4byte	.LVL1163
 17349 339d 42180000 		.4byte	.LVL1165
 17350 33a1 0600     		.2byte	0x6
 17351 33a3 54       		.byte	0x54
 17352 33a4 93       		.byte	0x93
 17353 33a5 04       		.uleb128 0x4
ARM GAS  C:\Users\NIGHDR~1\AppData\Local\Temp\ccvJ0Ig2.s 			page 320


 17354 33a6 55       		.byte	0x55
 17355 33a7 93       		.byte	0x93
 17356 33a8 04       		.uleb128 0x4
 17357 33a9 42180000 		.4byte	.LVL1165
 17358 33ad A6180000 		.4byte	.LVL1176
 17359 33b1 0200     		.2byte	0x2
 17360 33b3 7D       		.byte	0x7d
 17361 33b4 00       		.sleb128 0
 17362 33b5 A6180000 		.4byte	.LVL1176
 17363 33b9 40240000 		.4byte	.LFE3
 17364 33bd 0A00     		.2byte	0xa
 17365 33bf 9E       		.byte	0x9e
 17366 33c0 08       		.uleb128 0x8
 17367 33c1 00000000 		.8byte	0
 17367      00000000 
 17368 33c9 00000000 		.4byte	0
 17369 33cd 00000000 		.4byte	0
 17370              	.LLST77:
 17371 33d1 AC0B0000 		.4byte	.LVL837
 17372 33d5 B00B0000 		.4byte	.LVL838
 17373 33d9 0600     		.2byte	0x6
 17374 33db 53       		.byte	0x53
 17375 33dc 93       		.byte	0x93
 17376 33dd 04       		.uleb128 0x4
 17377 33de 54       		.byte	0x54
 17378 33df 93       		.byte	0x93
 17379 33e0 04       		.uleb128 0x4
 17380 33e1 B00B0000 		.4byte	.LVL838
 17381 33e5 280F0000 		.4byte	.LVL914
 17382 33e9 0300     		.2byte	0x3
 17383 33eb 91       		.byte	0x91
 17384 33ec C07D     		.sleb128 -320
 17385 33ee 280F0000 		.4byte	.LVL914
 17386 33f2 2C0F0000 		.4byte	.LVL915
 17387 33f6 0600     		.2byte	0x6
 17388 33f8 50       		.byte	0x50
 17389 33f9 93       		.byte	0x93
 17390 33fa 04       		.uleb128 0x4
 17391 33fb 51       		.byte	0x51
 17392 33fc 93       		.byte	0x93
 17393 33fd 04       		.uleb128 0x4
 17394 33fe 2C0F0000 		.4byte	.LVL915
 17395 3402 94110000 		.4byte	.LVL977
 17396 3406 0300     		.2byte	0x3
 17397 3408 91       		.byte	0x91
 17398 3409 C07D     		.sleb128 -320
 17399 340b 94110000 		.4byte	.LVL977
 17400 340f A2110000 		.4byte	.LVL978
 17401 3413 0600     		.2byte	0x6
 17402 3415 54       		.byte	0x54
 17403 3416 93       		.byte	0x93
 17404 3417 04       		.uleb128 0x4
 17405 3418 55       		.byte	0x55
 17406 3419 93       		.byte	0x93
 17407 341a 04       		.uleb128 0x4
 17408 341b A2110000 		.4byte	.LVL978
 17409 341f 7C150000 		.4byte	.LVL1094
ARM GAS  C:\Users\NIGHDR~1\AppData\Local\Temp\ccvJ0Ig2.s 			page 321


 17410 3423 0300     		.2byte	0x3
 17411 3425 91       		.byte	0x91
 17412 3426 E07E     		.sleb128 -160
 17413 3428 7C150000 		.4byte	.LVL1094
 17414 342c 40240000 		.4byte	.LFE3
 17415 3430 0A00     		.2byte	0xa
 17416 3432 9E       		.byte	0x9e
 17417 3433 08       		.uleb128 0x8
 17418 3434 00000000 		.8byte	0
 17418      00000000 
 17419 343c 00000000 		.4byte	0
 17420 3440 00000000 		.4byte	0
 17421              	.LLST78:
 17422 3444 F40B0000 		.4byte	.LVL843
 17423 3448 F60B0000 		.4byte	.LVL844
 17424 344c 0600     		.2byte	0x6
 17425 344e 52       		.byte	0x52
 17426 344f 93       		.byte	0x93
 17427 3450 04       		.uleb128 0x4
 17428 3451 53       		.byte	0x53
 17429 3452 93       		.byte	0x93
 17430 3453 04       		.uleb128 0x4
 17431 3454 F60B0000 		.4byte	.LVL844
 17432 3458 0E0F0000 		.4byte	.LVL912
 17433 345c 0300     		.2byte	0x3
 17434 345e 91       		.byte	0x91
 17435 345f A07E     		.sleb128 -224
 17436 3461 0E0F0000 		.4byte	.LVL912
 17437 3465 1C0F0000 		.4byte	.LVL913
 17438 3469 0600     		.2byte	0x6
 17439 346b 54       		.byte	0x54
 17440 346c 93       		.byte	0x93
 17441 346d 04       		.uleb128 0x4
 17442 346e 55       		.byte	0x55
 17443 346f 93       		.byte	0x93
 17444 3470 04       		.uleb128 0x4
 17445 3471 1C0F0000 		.4byte	.LVL913
 17446 3475 F6110000 		.4byte	.LVL985
 17447 3479 0300     		.2byte	0x3
 17448 347b 91       		.byte	0x91
 17449 347c B87D     		.sleb128 -328
 17450 347e F6110000 		.4byte	.LVL985
 17451 3482 FA110000 		.4byte	.LVL986
 17452 3486 0600     		.2byte	0x6
 17453 3488 50       		.byte	0x50
 17454 3489 93       		.byte	0x93
 17455 348a 04       		.uleb128 0x4
 17456 348b 51       		.byte	0x51
 17457 348c 93       		.byte	0x93
 17458 348d 04       		.uleb128 0x4
 17459 348e FA110000 		.4byte	.LVL986
 17460 3492 CA140000 		.4byte	.LVL1074
 17461 3496 0300     		.2byte	0x3
 17462 3498 91       		.byte	0x91
 17463 3499 C07D     		.sleb128 -320
 17464 349b CA140000 		.4byte	.LVL1074
 17465 349f E4140000 		.4byte	.LVL1076
ARM GAS  C:\Users\NIGHDR~1\AppData\Local\Temp\ccvJ0Ig2.s 			page 322


 17466 34a3 0600     		.2byte	0x6
 17467 34a5 54       		.byte	0x54
 17468 34a6 93       		.byte	0x93
 17469 34a7 04       		.uleb128 0x4
 17470 34a8 55       		.byte	0x55
 17471 34a9 93       		.byte	0x93
 17472 34aa 04       		.uleb128 0x4
 17473 34ab E4140000 		.4byte	.LVL1076
 17474 34af 40240000 		.4byte	.LFE3
 17475 34b3 0A00     		.2byte	0xa
 17476 34b5 9E       		.byte	0x9e
 17477 34b6 08       		.uleb128 0x8
 17478 34b7 00000000 		.8byte	0
 17478      00000000 
 17479 34bf 00000000 		.4byte	0
 17480 34c3 00000000 		.4byte	0
 17481              	.LLST79:
 17482 34c7 2C0C0000 		.4byte	.LVL848
 17483 34cb 300C0000 		.4byte	.LVL849
 17484 34cf 0600     		.2byte	0x6
 17485 34d1 53       		.byte	0x53
 17486 34d2 93       		.byte	0x93
 17487 34d3 04       		.uleb128 0x4
 17488 34d4 54       		.byte	0x54
 17489 34d5 93       		.byte	0x93
 17490 34d6 04       		.uleb128 0x4
 17491 34d7 300C0000 		.4byte	.LVL849
 17492 34db 700F0000 		.4byte	.LVL920
 17493 34df 0300     		.2byte	0x3
 17494 34e1 91       		.byte	0x91
 17495 34e2 C87D     		.sleb128 -312
 17496 34e4 700F0000 		.4byte	.LVL920
 17497 34e8 740F0000 		.4byte	.LVL921
 17498 34ec 0600     		.2byte	0x6
 17499 34ee 50       		.byte	0x50
 17500 34ef 93       		.byte	0x93
 17501 34f0 04       		.uleb128 0x4
 17502 34f1 51       		.byte	0x51
 17503 34f2 93       		.byte	0x93
 17504 34f3 04       		.uleb128 0x4
 17505 34f4 740F0000 		.4byte	.LVL921
 17506 34f8 DC110000 		.4byte	.LVL983
 17507 34fc 0300     		.2byte	0x3
 17508 34fe 91       		.byte	0x91
 17509 34ff A07E     		.sleb128 -224
 17510 3501 DC110000 		.4byte	.LVL983
 17511 3505 EA110000 		.4byte	.LVL984
 17512 3509 0600     		.2byte	0x6
 17513 350b 54       		.byte	0x54
 17514 350c 93       		.byte	0x93
 17515 350d 04       		.uleb128 0x4
 17516 350e 55       		.byte	0x55
 17517 350f 93       		.byte	0x93
 17518 3510 04       		.uleb128 0x4
 17519 3511 EA110000 		.4byte	.LVL984
 17520 3515 50140000 		.4byte	.LVL1057
 17521 3519 0300     		.2byte	0x3
ARM GAS  C:\Users\NIGHDR~1\AppData\Local\Temp\ccvJ0Ig2.s 			page 323


 17522 351b 91       		.byte	0x91
 17523 351c B07D     		.sleb128 -336
 17524 351e 50140000 		.4byte	.LVL1057
 17525 3522 40240000 		.4byte	.LFE3
 17526 3526 0A00     		.2byte	0xa
 17527 3528 9E       		.byte	0x9e
 17528 3529 08       		.uleb128 0x8
 17529 352a 00000000 		.8byte	0
 17529      00000000 
 17530 3532 00000000 		.4byte	0
 17531 3536 00000000 		.4byte	0
 17532              	.LLST80:
 17533 353a 540C0000 		.4byte	.LVL852
 17534 353e 560C0000 		.4byte	.LVL853
 17535 3542 0600     		.2byte	0x6
 17536 3544 52       		.byte	0x52
 17537 3545 93       		.byte	0x93
 17538 3546 04       		.uleb128 0x4
 17539 3547 53       		.byte	0x53
 17540 3548 93       		.byte	0x93
 17541 3549 04       		.uleb128 0x4
 17542 354a 560C0000 		.4byte	.LVL853
 17543 354e 560F0000 		.4byte	.LVL918
 17544 3552 0300     		.2byte	0x3
 17545 3554 91       		.byte	0x91
 17546 3555 A87E     		.sleb128 -216
 17547 3557 560F0000 		.4byte	.LVL918
 17548 355b 640F0000 		.4byte	.LVL919
 17549 355f 0600     		.2byte	0x6
 17550 3561 54       		.byte	0x54
 17551 3562 93       		.byte	0x93
 17552 3563 04       		.uleb128 0x4
 17553 3564 55       		.byte	0x55
 17554 3565 93       		.byte	0x93
 17555 3566 04       		.uleb128 0x4
 17556 3567 640F0000 		.4byte	.LVL919
 17557 356b 26120000 		.4byte	.LVL991
 17558 356f 0300     		.2byte	0x3
 17559 3571 91       		.byte	0x91
 17560 3572 887E     		.sleb128 -248
 17561 3574 26120000 		.4byte	.LVL991
 17562 3578 2C120000 		.4byte	.LVL992
 17563 357c 0600     		.2byte	0x6
 17564 357e 50       		.byte	0x50
 17565 357f 93       		.byte	0x93
 17566 3580 04       		.uleb128 0x4
 17567 3581 51       		.byte	0x51
 17568 3582 93       		.byte	0x93
 17569 3583 04       		.uleb128 0x4
 17570 3584 2C120000 		.4byte	.LVL992
 17571 3588 CC130000 		.4byte	.LVL1041
 17572 358c 0300     		.2byte	0x3
 17573 358e 91       		.byte	0x91
 17574 358f B87D     		.sleb128 -328
 17575 3591 CC130000 		.4byte	.LVL1041
 17576 3595 40240000 		.4byte	.LFE3
 17577 3599 0A00     		.2byte	0xa
ARM GAS  C:\Users\NIGHDR~1\AppData\Local\Temp\ccvJ0Ig2.s 			page 324


 17578 359b 9E       		.byte	0x9e
 17579 359c 08       		.uleb128 0x8
 17580 359d 00000000 		.8byte	0
 17580      00000000 
 17581 35a5 00000000 		.4byte	0
 17582 35a9 00000000 		.4byte	0
 17583              	.LLST81:
 17584 35ad 640C0000 		.4byte	.LVL855
 17585 35b1 8A0C0000 		.4byte	.LVL858
 17586 35b5 0600     		.2byte	0x6
 17587 35b7 50       		.byte	0x50
 17588 35b8 93       		.byte	0x93
 17589 35b9 04       		.uleb128 0x4
 17590 35ba 51       		.byte	0x51
 17591 35bb 93       		.byte	0x93
 17592 35bc 04       		.uleb128 0x4
 17593 35bd 8A0C0000 		.4byte	.LVL858
 17594 35c1 9E0F0000 		.4byte	.LVL925
 17595 35c5 0300     		.2byte	0x3
 17596 35c7 91       		.byte	0x91
 17597 35c8 907E     		.sleb128 -240
 17598 35ca 9E0F0000 		.4byte	.LVL925
 17599 35ce A00F0000 		.4byte	.LVL926
 17600 35d2 0600     		.2byte	0x6
 17601 35d4 54       		.byte	0x54
 17602 35d5 93       		.byte	0x93
 17603 35d6 04       		.uleb128 0x4
 17604 35d7 55       		.byte	0x55
 17605 35d8 93       		.byte	0x93
 17606 35d9 04       		.uleb128 0x4
 17607 35da A00F0000 		.4byte	.LVL926
 17608 35de 12120000 		.4byte	.LVL988
 17609 35e2 0300     		.2byte	0x3
 17610 35e4 91       		.byte	0x91
 17611 35e5 907E     		.sleb128 -240
 17612 35e7 12120000 		.4byte	.LVL988
 17613 35eb 16120000 		.4byte	.LVL989
 17614 35ef 0600     		.2byte	0x6
 17615 35f1 53       		.byte	0x53
 17616 35f2 93       		.byte	0x93
 17617 35f3 04       		.uleb128 0x4
 17618 35f4 54       		.byte	0x54
 17619 35f5 93       		.byte	0x93
 17620 35f6 04       		.uleb128 0x4
 17621 35f7 16120000 		.4byte	.LVL989
 17622 35fb 48130000 		.4byte	.LVL1025
 17623 35ff 0200     		.2byte	0x2
 17624 3601 7D       		.byte	0x7d
 17625 3602 00       		.sleb128 0
 17626 3603 48130000 		.4byte	.LVL1025
 17627 3607 40240000 		.4byte	.LFE3
 17628 360b 0A00     		.2byte	0xa
 17629 360d 9E       		.byte	0x9e
 17630 360e 08       		.uleb128 0x8
 17631 360f 00000000 		.8byte	0
 17631      00000000 
 17632 3617 00000000 		.4byte	0
ARM GAS  C:\Users\NIGHDR~1\AppData\Local\Temp\ccvJ0Ig2.s 			page 325


 17633 361b 00000000 		.4byte	0
 17634              	.LLST82:
 17635 361f 640C0000 		.4byte	.LVL855
 17636 3623 840F0000 		.4byte	.LVL922
 17637 3627 0A00     		.2byte	0xa
 17638 3629 9E       		.byte	0x9e
 17639 362a 08       		.uleb128 0x8
 17640 362b 00000000 		.8byte	0
 17640      00000000 
 17641 3633 840F0000 		.4byte	.LVL922
 17642 3637 860F0000 		.4byte	.LVL923
 17643 363b 0600     		.2byte	0x6
 17644 363d 59       		.byte	0x59
 17645 363e 93       		.byte	0x93
 17646 363f 04       		.uleb128 0x4
 17647 3640 51       		.byte	0x51
 17648 3641 93       		.byte	0x93
 17649 3642 04       		.uleb128 0x4
 17650 3643 860F0000 		.4byte	.LVL923
 17651 3647 900F0000 		.4byte	.LVL924
 17652 364b 0600     		.2byte	0x6
 17653 364d 59       		.byte	0x59
 17654 364e 93       		.byte	0x93
 17655 364f 04       		.uleb128 0x4
 17656 3650 55       		.byte	0x55
 17657 3651 93       		.byte	0x93
 17658 3652 04       		.uleb128 0x4
 17659 3653 900F0000 		.4byte	.LVL924
 17660 3657 40120000 		.4byte	.LVL995
 17661 365b 0800     		.2byte	0x8
 17662 365d 59       		.byte	0x59
 17663 365e 93       		.byte	0x93
 17664 365f 04       		.uleb128 0x4
 17665 3660 91       		.byte	0x91
 17666 3661 C87D     		.sleb128 -312
 17667 3663 93       		.byte	0x93
 17668 3664 04       		.uleb128 0x4
 17669 3665 40120000 		.4byte	.LVL995
 17670 3669 BC120000 		.4byte	.LVL1009
 17671 366d 0600     		.2byte	0x6
 17672 366f 59       		.byte	0x59
 17673 3670 93       		.byte	0x93
 17674 3671 04       		.uleb128 0x4
 17675 3672 55       		.byte	0x55
 17676 3673 93       		.byte	0x93
 17677 3674 04       		.uleb128 0x4
 17678 3675 BC120000 		.4byte	.LVL1009
 17679 3679 40240000 		.4byte	.LFE3
 17680 367d 0A00     		.2byte	0xa
 17681 367f 9E       		.byte	0x9e
 17682 3680 08       		.uleb128 0x8
 17683 3681 00000000 		.8byte	0
 17683      00000000 
 17684 3689 00000000 		.4byte	0
 17685 368d 00000000 		.4byte	0
 17686              	.LLST83:
 17687 3691 820C0000 		.4byte	.LVL857
ARM GAS  C:\Users\NIGHDR~1\AppData\Local\Temp\ccvJ0Ig2.s 			page 326


 17688 3695 C60C0000 		.4byte	.LVL862
 17689 3699 0200     		.2byte	0x2
 17690 369b 7D       		.byte	0x7d
 17691 369c 00       		.sleb128 0
 17692 369d 701B0000 		.4byte	.LVL1265
 17693 36a1 BA1B0000 		.4byte	.LVL1271
 17694 36a5 0600     		.2byte	0x6
 17695 36a7 52       		.byte	0x52
 17696 36a8 93       		.byte	0x93
 17697 36a9 04       		.uleb128 0x4
 17698 36aa 53       		.byte	0x53
 17699 36ab 93       		.byte	0x93
 17700 36ac 04       		.uleb128 0x4
 17701 36ad B21E0000 		.4byte	.LVL1348
 17702 36b1 DA1E0000 		.4byte	.LVL1354
 17703 36b5 0600     		.2byte	0x6
 17704 36b7 52       		.byte	0x52
 17705 36b8 93       		.byte	0x93
 17706 36b9 04       		.uleb128 0x4
 17707 36ba 53       		.byte	0x53
 17708 36bb 93       		.byte	0x93
 17709 36bc 04       		.uleb128 0x4
 17710 36bd 1E210000 		.4byte	.LVL1431
 17711 36c1 46210000 		.4byte	.LVL1437
 17712 36c5 0600     		.2byte	0x6
 17713 36c7 52       		.byte	0x52
 17714 36c8 93       		.byte	0x93
 17715 36c9 04       		.uleb128 0x4
 17716 36ca 53       		.byte	0x53
 17717 36cb 93       		.byte	0x93
 17718 36cc 04       		.uleb128 0x4
 17719 36cd 00000000 		.4byte	0
 17720 36d1 00000000 		.4byte	0
 17721              	.LLST84:
 17722 36d5 B80F0000 		.4byte	.LVL928
 17723 36d9 F0100000 		.4byte	.LVL963
 17724 36dd 0200     		.2byte	0x2
 17725 36df 7D       		.byte	0x7d
 17726 36e0 00       		.sleb128 0
 17727 36e1 EE1C0000 		.4byte	.LVL1301
 17728 36e5 141D0000 		.4byte	.LVL1305
 17729 36e9 0600     		.2byte	0x6
 17730 36eb 52       		.byte	0x52
 17731 36ec 93       		.byte	0x93
 17732 36ed 04       		.uleb128 0x4
 17733 36ee 53       		.byte	0x53
 17734 36ef 93       		.byte	0x93
 17735 36f0 04       		.uleb128 0x4
 17736 36f1 DE1E0000 		.4byte	.LVL1355
 17737 36f5 FE1E0000 		.4byte	.LVL1360
 17738 36f9 0600     		.2byte	0x6
 17739 36fb 52       		.byte	0x52
 17740 36fc 93       		.byte	0x93
 17741 36fd 04       		.uleb128 0x4
 17742 36fe 53       		.byte	0x53
 17743 36ff 93       		.byte	0x93
 17744 3700 04       		.uleb128 0x4
ARM GAS  C:\Users\NIGHDR~1\AppData\Local\Temp\ccvJ0Ig2.s 			page 327


 17745 3701 4A210000 		.4byte	.LVL1438
 17746 3705 5E210000 		.4byte	.LVL1441
 17747 3709 0600     		.2byte	0x6
 17748 370b 52       		.byte	0x52
 17749 370c 93       		.byte	0x93
 17750 370d 04       		.uleb128 0x4
 17751 370e 53       		.byte	0x53
 17752 370f 93       		.byte	0x93
 17753 3710 04       		.uleb128 0x4
 17754 3711 00000000 		.4byte	0
 17755 3715 00000000 		.4byte	0
 17756              	.LLST85:
 17757 3719 CA0C0000 		.4byte	.LVL863
 17758 371d 0E0D0000 		.4byte	.LVL868
 17759 3721 0200     		.2byte	0x2
 17760 3723 7D       		.byte	0x7d
 17761 3724 00       		.sleb128 0
 17762 3725 C81B0000 		.4byte	.LVL1272
 17763 3729 F61B0000 		.4byte	.LVL1277
 17764 372d 0600     		.2byte	0x6
 17765 372f 52       		.byte	0x52
 17766 3730 93       		.byte	0x93
 17767 3731 04       		.uleb128 0x4
 17768 3732 53       		.byte	0x53
 17769 3733 93       		.byte	0x93
 17770 3734 04       		.uleb128 0x4
 17771 3735 021F0000 		.4byte	.LVL1361
 17772 3739 2A1F0000 		.4byte	.LVL1366
 17773 373d 0600     		.2byte	0x6
 17774 373f 52       		.byte	0x52
 17775 3740 93       		.byte	0x93
 17776 3741 04       		.uleb128 0x4
 17777 3742 53       		.byte	0x53
 17778 3743 93       		.byte	0x93
 17779 3744 04       		.uleb128 0x4
 17780 3745 76210000 		.4byte	.LVL1444
 17781 3749 9A210000 		.4byte	.LVL1448
 17782 374d 0600     		.2byte	0x6
 17783 374f 52       		.byte	0x52
 17784 3750 93       		.byte	0x93
 17785 3751 04       		.uleb128 0x4
 17786 3752 53       		.byte	0x53
 17787 3753 93       		.byte	0x93
 17788 3754 04       		.uleb128 0x4
 17789 3755 00000000 		.4byte	0
 17790 3759 00000000 		.4byte	0
 17791              	.LLST86:
 17792 375d F00F0000 		.4byte	.LVL934
 17793 3761 1E100000 		.4byte	.LVL939
 17794 3765 0600     		.2byte	0x6
 17795 3767 50       		.byte	0x50
 17796 3768 93       		.byte	0x93
 17797 3769 04       		.uleb128 0x4
 17798 376a 51       		.byte	0x51
 17799 376b 93       		.byte	0x93
 17800 376c 04       		.uleb128 0x4
 17801 376d 281D0000 		.4byte	.LVL1307
ARM GAS  C:\Users\NIGHDR~1\AppData\Local\Temp\ccvJ0Ig2.s 			page 328


 17802 3771 5C1D0000 		.4byte	.LVL1311
 17803 3775 0600     		.2byte	0x6
 17804 3777 52       		.byte	0x52
 17805 3778 93       		.byte	0x93
 17806 3779 04       		.uleb128 0x4
 17807 377a 53       		.byte	0x53
 17808 377b 93       		.byte	0x93
 17809 377c 04       		.uleb128 0x4
 17810 377d 2E1F0000 		.4byte	.LVL1367
 17811 3781 4E1F0000 		.4byte	.LVL1371
 17812 3785 0600     		.2byte	0x6
 17813 3787 52       		.byte	0x52
 17814 3788 93       		.byte	0x93
 17815 3789 04       		.uleb128 0x4
 17816 378a 53       		.byte	0x53
 17817 378b 93       		.byte	0x93
 17818 378c 04       		.uleb128 0x4
 17819 378d 9E210000 		.4byte	.LVL1449
 17820 3791 E4210000 		.4byte	.LVL1454
 17821 3795 0600     		.2byte	0x6
 17822 3797 52       		.byte	0x52
 17823 3798 93       		.byte	0x93
 17824 3799 04       		.uleb128 0x4
 17825 379a 53       		.byte	0x53
 17826 379b 93       		.byte	0x93
 17827 379c 04       		.uleb128 0x4
 17828 379d 00000000 		.4byte	0
 17829 37a1 00000000 		.4byte	0
 17830              	.LLST87:
 17831 37a5 120D0000 		.4byte	.LVL869
 17832 37a9 560D0000 		.4byte	.LVL874
 17833 37ad 0200     		.2byte	0x2
 17834 37af 7D       		.byte	0x7d
 17835 37b0 00       		.sleb128 0
 17836 37b1 041C0000 		.4byte	.LVL1278
 17837 37b5 321C0000 		.4byte	.LVL1283
 17838 37b9 0600     		.2byte	0x6
 17839 37bb 52       		.byte	0x52
 17840 37bc 93       		.byte	0x93
 17841 37bd 04       		.uleb128 0x4
 17842 37be 53       		.byte	0x53
 17843 37bf 93       		.byte	0x93
 17844 37c0 04       		.uleb128 0x4
 17845 37c1 521F0000 		.4byte	.LVL1372
 17846 37c5 7A1F0000 		.4byte	.LVL1377
 17847 37c9 0600     		.2byte	0x6
 17848 37cb 52       		.byte	0x52
 17849 37cc 93       		.byte	0x93
 17850 37cd 04       		.uleb128 0x4
 17851 37ce 53       		.byte	0x53
 17852 37cf 93       		.byte	0x93
 17853 37d0 04       		.uleb128 0x4
 17854 37d1 E8210000 		.4byte	.LVL1455
 17855 37d5 0C220000 		.4byte	.LVL1459
 17856 37d9 0600     		.2byte	0x6
 17857 37db 52       		.byte	0x52
 17858 37dc 93       		.byte	0x93
ARM GAS  C:\Users\NIGHDR~1\AppData\Local\Temp\ccvJ0Ig2.s 			page 329


 17859 37dd 04       		.uleb128 0x4
 17860 37de 53       		.byte	0x53
 17861 37df 93       		.byte	0x93
 17862 37e0 04       		.uleb128 0x4
 17863 37e1 00000000 		.4byte	0
 17864 37e5 00000000 		.4byte	0
 17865              	.LLST88:
 17866 37e9 22100000 		.4byte	.LVL940
 17867 37ed 4E100000 		.4byte	.LVL945
 17868 37f1 0600     		.2byte	0x6
 17869 37f3 50       		.byte	0x50
 17870 37f4 93       		.byte	0x93
 17871 37f5 04       		.uleb128 0x4
 17872 37f6 51       		.byte	0x51
 17873 37f7 93       		.byte	0x93
 17874 37f8 04       		.uleb128 0x4
 17875 37f9 601D0000 		.4byte	.LVL1312
 17876 37fd 8A1D0000 		.4byte	.LVL1316
 17877 3801 0600     		.2byte	0x6
 17878 3803 52       		.byte	0x52
 17879 3804 93       		.byte	0x93
 17880 3805 04       		.uleb128 0x4
 17881 3806 53       		.byte	0x53
 17882 3807 93       		.byte	0x93
 17883 3808 04       		.uleb128 0x4
 17884 3809 7E1F0000 		.4byte	.LVL1378
 17885 380d 9E1F0000 		.4byte	.LVL1382
 17886 3811 0600     		.2byte	0x6
 17887 3813 52       		.byte	0x52
 17888 3814 93       		.byte	0x93
 17889 3815 04       		.uleb128 0x4
 17890 3816 53       		.byte	0x53
 17891 3817 93       		.byte	0x93
 17892 3818 04       		.uleb128 0x4
 17893 3819 10220000 		.4byte	.LVL1460
 17894 381d 38220000 		.4byte	.LVL1466
 17895 3821 0600     		.2byte	0x6
 17896 3823 52       		.byte	0x52
 17897 3824 93       		.byte	0x93
 17898 3825 04       		.uleb128 0x4
 17899 3826 53       		.byte	0x53
 17900 3827 93       		.byte	0x93
 17901 3828 04       		.uleb128 0x4
 17902 3829 00000000 		.4byte	0
 17903 382d 00000000 		.4byte	0
 17904              	.LLST89:
 17905 3831 5A0D0000 		.4byte	.LVL875
 17906 3835 9E0D0000 		.4byte	.LVL880
 17907 3839 0200     		.2byte	0x2
 17908 383b 7D       		.byte	0x7d
 17909 383c 00       		.sleb128 0
 17910 383d 96150000 		.4byte	.LVL1096
 17911 3841 D6150000 		.4byte	.LVL1100
 17912 3845 0600     		.2byte	0x6
 17913 3847 52       		.byte	0x52
 17914 3848 93       		.byte	0x93
 17915 3849 04       		.uleb128 0x4
ARM GAS  C:\Users\NIGHDR~1\AppData\Local\Temp\ccvJ0Ig2.s 			page 330


 17916 384a 53       		.byte	0x53
 17917 384b 93       		.byte	0x93
 17918 384c 04       		.uleb128 0x4
 17919 384d 401C0000 		.4byte	.LVL1284
 17920 3851 6E1C0000 		.4byte	.LVL1289
 17921 3855 0600     		.2byte	0x6
 17922 3857 52       		.byte	0x52
 17923 3858 93       		.byte	0x93
 17924 3859 04       		.uleb128 0x4
 17925 385a 53       		.byte	0x53
 17926 385b 93       		.byte	0x93
 17927 385c 04       		.uleb128 0x4
 17928 385d A21F0000 		.4byte	.LVL1383
 17929 3861 BC1F0000 		.4byte	.LVL1385
 17930 3865 0600     		.2byte	0x6
 17931 3867 52       		.byte	0x52
 17932 3868 93       		.byte	0x93
 17933 3869 04       		.uleb128 0x4
 17934 386a 53       		.byte	0x53
 17935 386b 93       		.byte	0x93
 17936 386c 04       		.uleb128 0x4
 17937 386d 3C220000 		.4byte	.LVL1467
 17938 3871 54220000 		.4byte	.LVL1469
 17939 3875 0600     		.2byte	0x6
 17940 3877 52       		.byte	0x52
 17941 3878 93       		.byte	0x93
 17942 3879 04       		.uleb128 0x4
 17943 387a 53       		.byte	0x53
 17944 387b 93       		.byte	0x93
 17945 387c 04       		.uleb128 0x4
 17946 387d 00000000 		.4byte	0
 17947 3881 00000000 		.4byte	0
 17948              	.LLST90:
 17949 3885 52100000 		.4byte	.LVL946
 17950 3889 82100000 		.4byte	.LVL951
 17951 388d 0600     		.2byte	0x6
 17952 388f 50       		.byte	0x50
 17953 3890 93       		.byte	0x93
 17954 3891 04       		.uleb128 0x4
 17955 3892 51       		.byte	0x51
 17956 3893 93       		.byte	0x93
 17957 3894 04       		.uleb128 0x4
 17958 3895 F8160000 		.4byte	.LVL1132
 17959 3899 14170000 		.4byte	.LVL1135
 17960 389d 0600     		.2byte	0x6
 17961 389f 52       		.byte	0x52
 17962 38a0 93       		.byte	0x93
 17963 38a1 04       		.uleb128 0x4
 17964 38a2 53       		.byte	0x53
 17965 38a3 93       		.byte	0x93
 17966 38a4 04       		.uleb128 0x4
 17967 38a5 981D0000 		.4byte	.LVL1317
 17968 38a9 B01D0000 		.4byte	.LVL1320
 17969 38ad 0600     		.2byte	0x6
 17970 38af 52       		.byte	0x52
 17971 38b0 93       		.byte	0x93
 17972 38b1 04       		.uleb128 0x4
ARM GAS  C:\Users\NIGHDR~1\AppData\Local\Temp\ccvJ0Ig2.s 			page 331


 17973 38b2 53       		.byte	0x53
 17974 38b3 93       		.byte	0x93
 17975 38b4 04       		.uleb128 0x4
 17976 38b5 D21F0000 		.4byte	.LVL1388
 17977 38b9 F21F0000 		.4byte	.LVL1392
 17978 38bd 0600     		.2byte	0x6
 17979 38bf 52       		.byte	0x52
 17980 38c0 93       		.byte	0x93
 17981 38c1 04       		.uleb128 0x4
 17982 38c2 53       		.byte	0x53
 17983 38c3 93       		.byte	0x93
 17984 38c4 04       		.uleb128 0x4
 17985 38c5 64220000 		.4byte	.LVL1472
 17986 38c9 90220000 		.4byte	.LVL1477
 17987 38cd 0600     		.2byte	0x6
 17988 38cf 52       		.byte	0x52
 17989 38d0 93       		.byte	0x93
 17990 38d1 04       		.uleb128 0x4
 17991 38d2 53       		.byte	0x53
 17992 38d3 93       		.byte	0x93
 17993 38d4 04       		.uleb128 0x4
 17994 38d5 00000000 		.4byte	0
 17995 38d9 00000000 		.4byte	0
 17996              	.LLST91:
 17997 38dd A20D0000 		.4byte	.LVL881
 17998 38e1 E60D0000 		.4byte	.LVL886
 17999 38e5 0200     		.2byte	0x2
 18000 38e7 7D       		.byte	0x7d
 18001 38e8 00       		.sleb128 0
 18002 38e9 E6150000 		.4byte	.LVL1101
 18003 38ed 08160000 		.4byte	.LVL1105
 18004 38f1 0600     		.2byte	0x6
 18005 38f3 52       		.byte	0x52
 18006 38f4 93       		.byte	0x93
 18007 38f5 04       		.uleb128 0x4
 18008 38f6 53       		.byte	0x53
 18009 38f7 93       		.byte	0x93
 18010 38f8 04       		.uleb128 0x4
 18011 38f9 7C1C0000 		.4byte	.LVL1290
 18012 38fd 921C0000 		.4byte	.LVL1293
 18013 3901 0600     		.2byte	0x6
 18014 3903 52       		.byte	0x52
 18015 3904 93       		.byte	0x93
 18016 3905 04       		.uleb128 0x4
 18017 3906 53       		.byte	0x53
 18018 3907 93       		.byte	0x93
 18019 3908 04       		.uleb128 0x4
 18020 3909 F61F0000 		.4byte	.LVL1393
 18021 390d 1E200000 		.4byte	.LVL1398
 18022 3911 0600     		.2byte	0x6
 18023 3913 52       		.byte	0x52
 18024 3914 93       		.byte	0x93
 18025 3915 04       		.uleb128 0x4
 18026 3916 53       		.byte	0x53
 18027 3917 93       		.byte	0x93
 18028 3918 04       		.uleb128 0x4
 18029 3919 94220000 		.4byte	.LVL1478
ARM GAS  C:\Users\NIGHDR~1\AppData\Local\Temp\ccvJ0Ig2.s 			page 332


 18030 391d AC220000 		.4byte	.LVL1480
 18031 3921 0600     		.2byte	0x6
 18032 3923 52       		.byte	0x52
 18033 3924 93       		.byte	0x93
 18034 3925 04       		.uleb128 0x4
 18035 3926 53       		.byte	0x53
 18036 3927 93       		.byte	0x93
 18037 3928 04       		.uleb128 0x4
 18038 3929 00000000 		.4byte	0
 18039 392d 00000000 		.4byte	0
 18040              	.LLST92:
 18041 3931 86100000 		.4byte	.LVL952
 18042 3935 B6100000 		.4byte	.LVL957
 18043 3939 0600     		.2byte	0x6
 18044 393b 50       		.byte	0x50
 18045 393c 93       		.byte	0x93
 18046 393d 04       		.uleb128 0x4
 18047 393e 51       		.byte	0x51
 18048 393f 93       		.byte	0x93
 18049 3940 04       		.uleb128 0x4
 18050 3941 36170000 		.4byte	.LVL1138
 18051 3945 60170000 		.4byte	.LVL1142
 18052 3949 0600     		.2byte	0x6
 18053 394b 52       		.byte	0x52
 18054 394c 93       		.byte	0x93
 18055 394d 04       		.uleb128 0x4
 18056 394e 53       		.byte	0x53
 18057 394f 93       		.byte	0x93
 18058 3950 04       		.uleb128 0x4
 18059 3951 D01D0000 		.4byte	.LVL1323
 18060 3955 F61D0000 		.4byte	.LVL1327
 18061 3959 0600     		.2byte	0x6
 18062 395b 52       		.byte	0x52
 18063 395c 93       		.byte	0x93
 18064 395d 04       		.uleb128 0x4
 18065 395e 53       		.byte	0x53
 18066 395f 93       		.byte	0x93
 18067 3960 04       		.uleb128 0x4
 18068 3961 22200000 		.4byte	.LVL1399
 18069 3965 46200000 		.4byte	.LVL1405
 18070 3969 0600     		.2byte	0x6
 18071 396b 52       		.byte	0x52
 18072 396c 93       		.byte	0x93
 18073 396d 04       		.uleb128 0x4
 18074 396e 53       		.byte	0x53
 18075 396f 93       		.byte	0x93
 18076 3970 04       		.uleb128 0x4
 18077 3971 BC220000 		.4byte	.LVL1483
 18078 3975 E8220000 		.4byte	.LVL1488
 18079 3979 0600     		.2byte	0x6
 18080 397b 52       		.byte	0x52
 18081 397c 93       		.byte	0x93
 18082 397d 04       		.uleb128 0x4
 18083 397e 53       		.byte	0x53
 18084 397f 93       		.byte	0x93
 18085 3980 04       		.uleb128 0x4
 18086 3981 00000000 		.4byte	0
ARM GAS  C:\Users\NIGHDR~1\AppData\Local\Temp\ccvJ0Ig2.s 			page 333


 18087 3985 00000000 		.4byte	0
 18088              	.LLST93:
 18089 3989 EA0D0000 		.4byte	.LVL887
 18090 398d 2A0E0000 		.4byte	.LVL891
 18091 3991 0200     		.2byte	0x2
 18092 3993 7D       		.byte	0x7d
 18093 3994 00       		.sleb128 0
 18094 3995 20160000 		.4byte	.LVL1108
 18095 3999 36160000 		.4byte	.LVL1110
 18096 399d 0600     		.2byte	0x6
 18097 399f 52       		.byte	0x52
 18098 39a0 93       		.byte	0x93
 18099 39a1 04       		.uleb128 0x4
 18100 39a2 53       		.byte	0x53
 18101 39a3 93       		.byte	0x93
 18102 39a4 04       		.uleb128 0x4
 18103 39a5 B41C0000 		.4byte	.LVL1296
 18104 39a9 CC1C0000 		.4byte	.LVL1298
 18105 39ad 0600     		.2byte	0x6
 18106 39af 52       		.byte	0x52
 18107 39b0 93       		.byte	0x93
 18108 39b1 04       		.uleb128 0x4
 18109 39b2 53       		.byte	0x53
 18110 39b3 93       		.byte	0x93
 18111 39b4 04       		.uleb128 0x4
 18112 39b5 4E200000 		.4byte	.LVL1406
 18113 39b9 66200000 		.4byte	.LVL1408
 18114 39bd 0600     		.2byte	0x6
 18115 39bf 52       		.byte	0x52
 18116 39c0 93       		.byte	0x93
 18117 39c1 04       		.uleb128 0x4
 18118 39c2 53       		.byte	0x53
 18119 39c3 93       		.byte	0x93
 18120 39c4 04       		.uleb128 0x4
 18121 39c5 EC220000 		.4byte	.LVL1489
 18122 39c9 02230000 		.4byte	.LVL1492
 18123 39cd 0600     		.2byte	0x6
 18124 39cf 52       		.byte	0x52
 18125 39d0 93       		.byte	0x93
 18126 39d1 04       		.uleb128 0x4
 18127 39d2 53       		.byte	0x53
 18128 39d3 93       		.byte	0x93
 18129 39d4 04       		.uleb128 0x4
 18130 39d5 00000000 		.4byte	0
 18131 39d9 00000000 		.4byte	0
 18132              	.LLST94:
 18133 39dd BA100000 		.4byte	.LVL958
 18134 39e1 DA100000 		.4byte	.LVL962
 18135 39e5 0600     		.2byte	0x6
 18136 39e7 50       		.byte	0x50
 18137 39e8 93       		.byte	0x93
 18138 39e9 04       		.uleb128 0x4
 18139 39ea 51       		.byte	0x51
 18140 39eb 93       		.byte	0x93
 18141 39ec 04       		.uleb128 0x4
 18142 39ed 78170000 		.4byte	.LVL1144
 18143 39f1 9E170000 		.4byte	.LVL1148
ARM GAS  C:\Users\NIGHDR~1\AppData\Local\Temp\ccvJ0Ig2.s 			page 334


 18144 39f5 0600     		.2byte	0x6
 18145 39f7 52       		.byte	0x52
 18146 39f8 93       		.byte	0x93
 18147 39f9 04       		.uleb128 0x4
 18148 39fa 53       		.byte	0x53
 18149 39fb 93       		.byte	0x93
 18150 39fc 04       		.uleb128 0x4
 18151 39fd 061E0000 		.4byte	.LVL1329
 18152 3a01 C01E0000 		.4byte	.LVL1350
 18153 3a05 0600     		.2byte	0x6
 18154 3a07 54       		.byte	0x54
 18155 3a08 93       		.byte	0x93
 18156 3a09 04       		.uleb128 0x4
 18157 3a0a 55       		.byte	0x55
 18158 3a0b 93       		.byte	0x93
 18159 3a0c 04       		.uleb128 0x4
 18160 3a0d 76200000 		.4byte	.LVL1410
 18161 3a11 22210000 		.4byte	.LVL1432
 18162 3a15 0600     		.2byte	0x6
 18163 3a17 54       		.byte	0x54
 18164 3a18 93       		.byte	0x93
 18165 3a19 04       		.uleb128 0x4
 18166 3a1a 55       		.byte	0x55
 18167 3a1b 93       		.byte	0x93
 18168 3a1c 04       		.uleb128 0x4
 18169 3a1d 00000000 		.4byte	0
 18170 3a21 00000000 		.4byte	0
 18171              	.LLST95:
 18172 3a25 2E0E0000 		.4byte	.LVL892
 18173 3a29 6E0E0000 		.4byte	.LVL897
 18174 3a2d 0200     		.2byte	0x2
 18175 3a2f 7D       		.byte	0x7d
 18176 3a30 00       		.sleb128 0
 18177 3a31 56160000 		.4byte	.LVL1114
 18178 3a35 6E160000 		.4byte	.LVL1117
 18179 3a39 0600     		.2byte	0x6
 18180 3a3b 52       		.byte	0x52
 18181 3a3c 93       		.byte	0x93
 18182 3a3d 04       		.uleb128 0x4
 18183 3a3e 53       		.byte	0x53
 18184 3a3f 93       		.byte	0x93
 18185 3a40 04       		.uleb128 0x4
 18186 3a41 00000000 		.4byte	0
 18187 3a45 00000000 		.4byte	0
 18188              	.LLST96:
 18189 3a49 F4100000 		.4byte	.LVL964
 18190 3a4d 38110000 		.4byte	.LVL969
 18191 3a51 0200     		.2byte	0x2
 18192 3a53 7D       		.byte	0x7d
 18193 3a54 00       		.sleb128 0
 18194 3a55 B6170000 		.4byte	.LVL1150
 18195 3a59 E4170000 		.4byte	.LVL1154
 18196 3a5d 0600     		.2byte	0x6
 18197 3a5f 52       		.byte	0x52
 18198 3a60 93       		.byte	0x93
 18199 3a61 04       		.uleb128 0x4
 18200 3a62 53       		.byte	0x53
ARM GAS  C:\Users\NIGHDR~1\AppData\Local\Temp\ccvJ0Ig2.s 			page 335


 18201 3a63 93       		.byte	0x93
 18202 3a64 04       		.uleb128 0x4
 18203 3a65 00000000 		.4byte	0
 18204 3a69 00000000 		.4byte	0
 18205              	.LLST97:
 18206 3a6d 720E0000 		.4byte	.LVL898
 18207 3a71 B20E0000 		.4byte	.LVL903
 18208 3a75 0200     		.2byte	0x2
 18209 3a77 7D       		.byte	0x7d
 18210 3a78 00       		.sleb128 0
 18211 3a79 8C160000 		.4byte	.LVL1120
 18212 3a7d A4160000 		.4byte	.LVL1123
 18213 3a81 0600     		.2byte	0x6
 18214 3a83 52       		.byte	0x52
 18215 3a84 93       		.byte	0x93
 18216 3a85 04       		.uleb128 0x4
 18217 3a86 53       		.byte	0x53
 18218 3a87 93       		.byte	0x93
 18219 3a88 04       		.uleb128 0x4
 18220 3a89 00000000 		.4byte	0
 18221 3a8d 00000000 		.4byte	0
 18222              	.LLST98:
 18223 3a91 3C110000 		.4byte	.LVL970
 18224 3a95 80110000 		.4byte	.LVL975
 18225 3a99 0200     		.2byte	0x2
 18226 3a9b 7D       		.byte	0x7d
 18227 3a9c 00       		.sleb128 0
 18228 3a9d F2170000 		.4byte	.LVL1155
 18229 3aa1 10180000 		.4byte	.LVL1159
 18230 3aa5 0600     		.2byte	0x6
 18231 3aa7 52       		.byte	0x52
 18232 3aa8 93       		.byte	0x93
 18233 3aa9 04       		.uleb128 0x4
 18234 3aaa 53       		.byte	0x53
 18235 3aab 93       		.byte	0x93
 18236 3aac 04       		.uleb128 0x4
 18237 3aad 00000000 		.4byte	0
 18238 3ab1 00000000 		.4byte	0
 18239              	.LLST99:
 18240 3ab5 B60E0000 		.4byte	.LVL904
 18241 3ab9 FA0E0000 		.4byte	.LVL910
 18242 3abd 0200     		.2byte	0x2
 18243 3abf 7D       		.byte	0x7d
 18244 3ac0 00       		.sleb128 0
 18245 3ac1 C2160000 		.4byte	.LVL1126
 18246 3ac5 DA160000 		.4byte	.LVL1129
 18247 3ac9 0600     		.2byte	0x6
 18248 3acb 52       		.byte	0x52
 18249 3acc 93       		.byte	0x93
 18250 3acd 04       		.uleb128 0x4
 18251 3ace 53       		.byte	0x53
 18252 3acf 93       		.byte	0x93
 18253 3ad0 04       		.uleb128 0x4
 18254 3ad1 00000000 		.4byte	0
 18255 3ad5 00000000 		.4byte	0
 18256              	.LLST100:
 18257 3ad9 84110000 		.4byte	.LVL976
ARM GAS  C:\Users\NIGHDR~1\AppData\Local\Temp\ccvJ0Ig2.s 			page 336


 18258 3add C8110000 		.4byte	.LVL981
 18259 3ae1 0200     		.2byte	0x2
 18260 3ae3 7D       		.byte	0x7d
 18261 3ae4 00       		.sleb128 0
 18262 3ae5 00000000 		.4byte	0
 18263 3ae9 00000000 		.4byte	0
 18264              	.LLST101:
 18265 3aed FE0E0000 		.4byte	.LVL911
 18266 3af1 420F0000 		.4byte	.LVL916
 18267 3af5 0200     		.2byte	0x2
 18268 3af7 7D       		.byte	0x7d
 18269 3af8 00       		.sleb128 0
 18270 3af9 00000000 		.4byte	0
 18271 3afd 00000000 		.4byte	0
 18272              	.LLST102:
 18273 3b01 CC110000 		.4byte	.LVL982
 18274 3b05 12120000 		.4byte	.LVL988
 18275 3b09 0200     		.2byte	0x2
 18276 3b0b 7D       		.byte	0x7d
 18277 3b0c 00       		.sleb128 0
 18278 3b0d 00000000 		.4byte	0
 18279 3b11 00000000 		.4byte	0
 18280              	.LLST103:
 18281 3b15 460F0000 		.4byte	.LVL917
 18282 3b19 B40F0000 		.4byte	.LVL927
 18283 3b1d 0200     		.2byte	0x2
 18284 3b1f 7D       		.byte	0x7d
 18285 3b20 00       		.sleb128 0
 18286 3b21 00000000 		.4byte	0
 18287 3b25 00000000 		.4byte	0
 18288              	.LLST104:
 18289 3b29 06120000 		.4byte	.LVL987
 18290 3b2d 1E120000 		.4byte	.LVL990
 18291 3b31 0600     		.2byte	0x6
 18292 3b33 50       		.byte	0x50
 18293 3b34 93       		.byte	0x93
 18294 3b35 04       		.uleb128 0x4
 18295 3b36 51       		.byte	0x51
 18296 3b37 93       		.byte	0x93
 18297 3b38 04       		.uleb128 0x4
 18298 3b39 00000000 		.4byte	0
 18299 3b3d 00000000 		.4byte	0
 18300              	.LLST105:
 18301 3b41 840F0000 		.4byte	.LVL922
 18302 3b45 860F0000 		.4byte	.LVL923
 18303 3b49 0600     		.2byte	0x6
 18304 3b4b 59       		.byte	0x59
 18305 3b4c 93       		.byte	0x93
 18306 3b4d 04       		.uleb128 0x4
 18307 3b4e 51       		.byte	0x51
 18308 3b4f 93       		.byte	0x93
 18309 3b50 04       		.uleb128 0x4
 18310 3b51 860F0000 		.4byte	.LVL923
 18311 3b55 900F0000 		.4byte	.LVL924
 18312 3b59 0600     		.2byte	0x6
 18313 3b5b 59       		.byte	0x59
 18314 3b5c 93       		.byte	0x93
ARM GAS  C:\Users\NIGHDR~1\AppData\Local\Temp\ccvJ0Ig2.s 			page 337


 18315 3b5d 04       		.uleb128 0x4
 18316 3b5e 55       		.byte	0x55
 18317 3b5f 93       		.byte	0x93
 18318 3b60 04       		.uleb128 0x4
 18319 3b61 900F0000 		.4byte	.LVL924
 18320 3b65 40120000 		.4byte	.LVL995
 18321 3b69 0800     		.2byte	0x8
 18322 3b6b 59       		.byte	0x59
 18323 3b6c 93       		.byte	0x93
 18324 3b6d 04       		.uleb128 0x4
 18325 3b6e 91       		.byte	0x91
 18326 3b6f C87D     		.sleb128 -312
 18327 3b71 93       		.byte	0x93
 18328 3b72 04       		.uleb128 0x4
 18329 3b73 40120000 		.4byte	.LVL995
 18330 3b77 D2120000 		.4byte	.LVL1011
 18331 3b7b 0600     		.2byte	0x6
 18332 3b7d 59       		.byte	0x59
 18333 3b7e 93       		.byte	0x93
 18334 3b7f 04       		.uleb128 0x4
 18335 3b80 55       		.byte	0x55
 18336 3b81 93       		.byte	0x93
 18337 3b82 04       		.uleb128 0x4
 18338 3b83 00000000 		.4byte	0
 18339 3b87 00000000 		.4byte	0
 18340              		.section	.debug_aranges,"",%progbits
 18341 0000 34000000 		.4byte	0x34
 18342 0004 0200     		.2byte	0x2
 18343 0006 00000000 		.4byte	.Ldebug_info0
 18344 000a 04       		.byte	0x4
 18345 000b 00       		.byte	0
 18346 000c 0000     		.2byte	0
 18347 000e 0000     		.2byte	0
 18348 0010 00000000 		.4byte	.LFB0
 18349 0014 1A000000 		.4byte	.LFE0-.LFB0
 18350 0018 00000000 		.4byte	.LFB1
 18351 001c 1A000000 		.4byte	.LFE1-.LFB1
 18352 0020 00000000 		.4byte	.LFB2
 18353 0024 04140000 		.4byte	.LFE2-.LFB2
 18354 0028 00000000 		.4byte	.LFB3
 18355 002c 40240000 		.4byte	.LFE3-.LFB3
 18356 0030 00000000 		.4byte	0
 18357 0034 00000000 		.4byte	0
 18358              		.section	.debug_ranges,"",%progbits
 18359              	.Ldebug_ranges0:
 18360 0000 00000000 		.4byte	.LFB0
 18361 0004 1A000000 		.4byte	.LFE0
 18362 0008 00000000 		.4byte	.LFB1
 18363 000c 1A000000 		.4byte	.LFE1
 18364 0010 00000000 		.4byte	.LFB2
 18365 0014 04140000 		.4byte	.LFE2
 18366 0018 00000000 		.4byte	.LFB3
 18367 001c 40240000 		.4byte	.LFE3
 18368 0020 00000000 		.4byte	0
 18369 0024 00000000 		.4byte	0
 18370              		.section	.debug_line,"",%progbits
 18371              	.Ldebug_line0:
ARM GAS  C:\Users\NIGHDR~1\AppData\Local\Temp\ccvJ0Ig2.s 			page 338


 18372 0000 24040000 		.section	.debug_str,"MS",%progbits,1
 18372      02001801 
 18372      00000201 
 18372      FB0E0D00 
 18372      01010101 
 18373              	.LASF16:
 18374 0000 63617272 		.ascii	"carry0\000"
 18374      793000
 18375              	.LASF17:
 18376 0007 63617272 		.ascii	"carry1\000"
 18376      793100
 18377              	.LASF19:
 18378 000e 63617272 		.ascii	"carry3\000"
 18378      793300
 18379              	.LASF15:
 18380 0015 72657375 		.ascii	"result\000"
 18380      6C7400
 18381              	.LASF21:
 18382 001c 63617272 		.ascii	"carry5\000"
 18382      793500
 18383              	.LASF22:
 18384 0023 63617272 		.ascii	"carry6\000"
 18384      793600
 18385              	.LASF23:
 18386 002a 63617272 		.ascii	"carry7\000"
 18386      793700
 18387              	.LASF24:
 18388 0031 63617272 		.ascii	"carry8\000"
 18388      793800
 18389              	.LASF25:
 18390 0038 63617272 		.ascii	"carry9\000"
 18390      793900
 18391              	.LASF12:
 18392 003f 75696E74 		.ascii	"uint64_t\000"
 18392      36345F74 
 18392      00
 18393              	.LASF2:
 18394 0048 73686F72 		.ascii	"short int\000"
 18394      7420696E 
 18394      7400
 18395              	.LASF43:
 18396 0052 73635F6D 		.ascii	"sc_muladd\000"
 18396      756C6164 
 18396      6400
 18397              	.LASF36:
 18398 005c 63617272 		.ascii	"carry20\000"
 18398      79323000 
 18399              	.LASF37:
 18400 0064 63617272 		.ascii	"carry21\000"
 18400      79323100 
 18401              	.LASF38:
 18402 006c 63617272 		.ascii	"carry22\000"
 18402      79323200 
 18403              	.LASF13:
 18404 0074 6C6F6164 		.ascii	"load_3\000"
 18404      5F3300
 18405              	.LASF14:
ARM GAS  C:\Users\NIGHDR~1\AppData\Local\Temp\ccvJ0Ig2.s 			page 339


 18406 007b 6C6F6164 		.ascii	"load_4\000"
 18406      5F3400
 18407              	.LASF40:
 18408 0082 73632E63 		.ascii	"sc.c\000"
 18408      00
 18409              	.LASF11:
 18410 0087 696E7436 		.ascii	"int64_t\000"
 18410      345F7400 
 18411              	.LASF39:
 18412 008f 474E5520 		.ascii	"GNU C11 5.4.1 20160609 (release) [ARM/embedded-5-br"
 18412      43313120 
 18412      352E342E 
 18412      31203230 
 18412      31363036 
 18413 00c2 616E6368 		.ascii	"anch revision 237715] -mcpu=cortex-m0 -mthumb -g -O"
 18413      20726576 
 18413      6973696F 
 18413      6E203233 
 18413      37373135 
 18414 00f5 67202D66 		.ascii	"g -ffunction-sections -ffat-lto-objects\000"
 18414      66756E63 
 18414      74696F6E 
 18414      2D736563 
 18414      74696F6E 
 18415              	.LASF33:
 18416 011d 63617272 		.ascii	"carry17\000"
 18416      79313700 
 18417              	.LASF20:
 18418 0125 63617272 		.ascii	"carry4\000"
 18418      793400
 18419              	.LASF6:
 18420 012c 6C6F6E67 		.ascii	"long long int\000"
 18420      206C6F6E 
 18420      6720696E 
 18420      7400
 18421              	.LASF4:
 18422 013a 6C6F6E67 		.ascii	"long int\000"
 18422      20696E74 
 18422      00
 18423              	.LASF7:
 18424 0143 5F5F696E 		.ascii	"__int64_t\000"
 18424      7436345F 
 18424      7400
 18425              	.LASF1:
 18426 014d 756E7369 		.ascii	"unsigned char\000"
 18426      676E6564 
 18426      20636861 
 18426      7200
 18427              	.LASF41:
 18428 015b 433A5C55 		.ascii	"C:\\Users\\Nighdragon\\Documents\\GitHub\\ectf\\CAR"
 18428      73657273 
 18428      5C4E6967 
 18428      68647261 
 18428      676F6E5C 
 18429 0188 442E6379 		.ascii	"D.cydsn\000"
 18429      64736E00 
 18430              	.LASF0:
ARM GAS  C:\Users\NIGHDR~1\AppData\Local\Temp\ccvJ0Ig2.s 			page 340


 18431 0190 7369676E 		.ascii	"signed char\000"
 18431      65642063 
 18431      68617200 
 18432              	.LASF9:
 18433 019c 6C6F6E67 		.ascii	"long long unsigned int\000"
 18433      206C6F6E 
 18433      6720756E 
 18433      7369676E 
 18433      65642069 
 18434              	.LASF10:
 18435 01b3 756E7369 		.ascii	"unsigned int\000"
 18435      676E6564 
 18435      20696E74 
 18435      00
 18436              	.LASF18:
 18437 01c0 63617272 		.ascii	"carry2\000"
 18437      793200
 18438              	.LASF3:
 18439 01c7 73686F72 		.ascii	"short unsigned int\000"
 18439      7420756E 
 18439      7369676E 
 18439      65642069 
 18439      6E7400
 18440              	.LASF42:
 18441 01da 73635F72 		.ascii	"sc_reduce\000"
 18441      65647563 
 18441      6500
 18442              	.LASF8:
 18443 01e4 5F5F7569 		.ascii	"__uint64_t\000"
 18443      6E743634 
 18443      5F7400
 18444              	.LASF5:
 18445 01ef 6C6F6E67 		.ascii	"long unsigned int\000"
 18445      20756E73 
 18445      69676E65 
 18445      6420696E 
 18445      7400
 18446              	.LASF26:
 18447 0201 63617272 		.ascii	"carry10\000"
 18447      79313000 
 18448              	.LASF27:
 18449 0209 63617272 		.ascii	"carry11\000"
 18449      79313100 
 18450              	.LASF28:
 18451 0211 63617272 		.ascii	"carry12\000"
 18451      79313200 
 18452              	.LASF29:
 18453 0219 63617272 		.ascii	"carry13\000"
 18453      79313300 
 18454              	.LASF30:
 18455 0221 63617272 		.ascii	"carry14\000"
 18455      79313400 
 18456              	.LASF31:
 18457 0229 63617272 		.ascii	"carry15\000"
 18457      79313500 
 18458              	.LASF32:
 18459 0231 63617272 		.ascii	"carry16\000"
ARM GAS  C:\Users\NIGHDR~1\AppData\Local\Temp\ccvJ0Ig2.s 			page 341


 18459      79313600 
 18460              	.LASF34:
 18461 0239 63617272 		.ascii	"carry18\000"
 18461      79313800 
 18462              	.LASF35:
 18463 0241 63617272 		.ascii	"carry19\000"
 18463      79313900 
 18464              		.ident	"GCC: (GNU Tools for ARM Embedded Processors) 5.4.1 20160609 (release) [ARM/embedded-5-bran
