ARM GAS  C:\Users\NIGHDR~1\AppData\Local\Temp\ccXSgXam.s 			page 1


   1              		.syntax unified
   2              		.cpu cortex-m0
   3              		.fpu softvfp
   4              		.eabi_attribute 20, 1
   5              		.eabi_attribute 21, 1
   6              		.eabi_attribute 23, 3
   7              		.eabi_attribute 24, 1
   8              		.eabi_attribute 25, 1
   9              		.eabi_attribute 26, 1
  10              		.eabi_attribute 30, 1
  11              		.eabi_attribute 34, 0
  12              		.eabi_attribute 18, 4
  13              		.thumb
  14              		.syntax unified
  15              		.file	"seed.c"
  16              		.text
  17              	.Ltext0:
  18              		.cfi_sections	.debug_frame
  19              		.section	.text.ed25519_create_seed,"ax",%progbits
  20              		.align	2
  21              		.global	ed25519_create_seed
  22              		.code	16
  23              		.thumb_func
  24              		.type	ed25519_create_seed, %function
  25              	ed25519_create_seed:
  26              	.LFB1:
  27              		.file 1 "seed.c"
   1:seed.c        **** #include "ed25519.h"
   2:seed.c        **** 
   3:seed.c        **** #ifndef ED25519_NO_SEED
   4:seed.c        **** 
   5:seed.c        **** #ifdef _WIN32
   6:seed.c        **** #include <windows.h>
   7:seed.c        **** #include <wincrypt.h>
   8:seed.c        **** #else
   9:seed.c        **** #include <stdio.h>
  10:seed.c        **** #endif
  11:seed.c        **** 
  12:seed.c        **** int ed25519_create_seed(unsigned char *seed) {
  28              		.loc 1 12 0
  29              		.cfi_startproc
  30              		@ args = 0, pretend = 0, frame = 0
  31              		@ frame_needed = 0, uses_anonymous_args = 0
  32              	.LVL0:
  33 0000 70B5     		push	{r4, r5, r6, lr}
  34              		.cfi_def_cfa_offset 16
  35              		.cfi_offset 4, -16
  36              		.cfi_offset 5, -12
  37              		.cfi_offset 6, -8
  38              		.cfi_offset 14, -4
  39 0002 0500     		movs	r5, r0
  13:seed.c        **** #ifdef _WIN32
  14:seed.c        ****     HCRYPTPROV prov;
  15:seed.c        **** 
  16:seed.c        ****     if (!CryptAcquireContext(&prov, NULL, NULL, PROV_RSA_FULL, CRYPT_VERIFYCONTEXT))  {
  17:seed.c        ****         return 1;
  18:seed.c        ****     }
ARM GAS  C:\Users\NIGHDR~1\AppData\Local\Temp\ccXSgXam.s 			page 2


  19:seed.c        **** 
  20:seed.c        ****     if (!CryptGenRandom(prov, 32, seed))  {
  21:seed.c        ****         CryptReleaseContext(prov, 0);
  22:seed.c        ****         return 1;
  23:seed.c        ****     }
  24:seed.c        **** 
  25:seed.c        ****     CryptReleaseContext(prov, 0);
  26:seed.c        **** #else
  27:seed.c        ****     FILE *f = fopen("/dev/urandom", "rb");
  40              		.loc 1 27 0
  41 0004 0949     		ldr	r1, .L4
  42 0006 0A48     		ldr	r0, .L4+4
  43              	.LVL1:
  44 0008 FFF7FEFF 		bl	fopen
  45              	.LVL2:
  46 000c 041E     		subs	r4, r0, #0
  47              	.LVL3:
  28:seed.c        **** 
  29:seed.c        ****     if (f == NULL) {
  48              		.loc 1 29 0
  49 000e 0AD0     		beq	.L3
  30:seed.c        ****         return 1;
  31:seed.c        ****     }
  32:seed.c        **** 
  33:seed.c        ****     fread(seed, 1, 32, f);
  50              		.loc 1 33 0
  51 0010 0300     		movs	r3, r0
  52 0012 2022     		movs	r2, #32
  53 0014 0121     		movs	r1, #1
  54 0016 2800     		movs	r0, r5
  55              	.LVL4:
  56 0018 FFF7FEFF 		bl	fread
  57              	.LVL5:
  34:seed.c        ****     fclose(f);
  58              		.loc 1 34 0
  59 001c 2000     		movs	r0, r4
  60 001e FFF7FEFF 		bl	fclose
  61              	.LVL6:
  35:seed.c        **** #endif
  36:seed.c        **** 
  37:seed.c        ****     return 0;
  62              		.loc 1 37 0
  63 0022 0020     		movs	r0, #0
  64 0024 00E0     		b	.L2
  65              	.LVL7:
  66              	.L3:
  30:seed.c        ****     }
  67              		.loc 1 30 0
  68 0026 0120     		movs	r0, #1
  69              	.LVL8:
  70              	.L2:
  38:seed.c        **** }
  71              		.loc 1 38 0
  72              		@ sp needed
  73              	.LVL9:
  74              	.LVL10:
  75 0028 70BD     		pop	{r4, r5, r6, pc}
ARM GAS  C:\Users\NIGHDR~1\AppData\Local\Temp\ccXSgXam.s 			page 3


  76              	.L5:
  77 002a C046     		.align	2
  78              	.L4:
  79 002c 00000000 		.word	.LC0
  80 0030 04000000 		.word	.LC2
  81              		.cfi_endproc
  82              	.LFE1:
  83              		.size	ed25519_create_seed, .-ed25519_create_seed
  84              		.section	.rodata.str1.4,"aMS",%progbits,1
  85              		.align	2
  86              	.LC0:
  87 0000 726200   		.ascii	"rb\000"
  88 0003 00       		.space	1
  89              	.LC2:
  90 0004 2F646576 		.ascii	"/dev/urandom\000"
  90      2F757261 
  90      6E646F6D 
  90      00
  91              		.text
  92              	.Letext0:
  93              		.file 2 "c:\\program files (x86)\\cypress\\psoc creator\\4.1\\psoc creator\\import\\gnu\\arm\\5.4.
  94              		.file 3 "c:\\program files (x86)\\cypress\\psoc creator\\4.1\\psoc creator\\import\\gnu\\arm\\5.4.
  95              		.file 4 "c:\\program files (x86)\\cypress\\psoc creator\\4.1\\psoc creator\\import\\gnu\\arm\\5.4.
  96              		.file 5 "c:\\program files (x86)\\cypress\\psoc creator\\4.1\\psoc creator\\import\\gnu\\arm\\5.4.
  97              		.file 6 "c:\\program files (x86)\\cypress\\psoc creator\\4.1\\psoc creator\\import\\gnu\\arm\\5.4.