ARM GAS  C:\Users\NIGHDR~1\AppData\Local\Temp\cc0ujGcy.s 			page 1


   1              		.syntax unified
   2              		.cpu cortex-m0
   3              		.fpu softvfp
   4              		.eabi_attribute 20, 1
   5              		.eabi_attribute 21, 1
   6              		.eabi_attribute 23, 3
   7              		.eabi_attribute 24, 1
   8              		.eabi_attribute 25, 1
   9              		.eabi_attribute 26, 1
  10              		.eabi_attribute 30, 1
  11              		.eabi_attribute 34, 0
  12              		.eabi_attribute 18, 4
  13              		.thumb
  14              		.syntax unified
  15              		.file	"sign.c"
  16              		.text
  17              	.Ltext0:
  18              		.cfi_sections	.debug_frame
  19              		.section	.text.ed25519_sign,"ax",%progbits
  20              		.align	2
  21              		.global	ed25519_sign
  22              		.code	16
  23              		.thumb_func
  24              		.type	ed25519_sign, %function
  25              	ed25519_sign:
  26              	.LFB0:
  27              		.file 1 "sign.c"
   1:sign.c        **** #include "ed25519.h"
   2:sign.c        **** #include "sha512.h"
   3:sign.c        **** #include "ge.h"
   4:sign.c        **** #include "sc.h"
   5:sign.c        **** 
   6:sign.c        **** 
   7:sign.c        **** void ed25519_sign(unsigned char *signature, const unsigned char *message, size_t message_len, const
  28              		.loc 1 7 0
  29              		.cfi_startproc
  30              		@ args = 4, pretend = 0, frame = 496
  31              		@ frame_needed = 0, uses_anonymous_args = 0
  32              	.LVL0:
  33 0000 F0B5     		push	{r4, r5, r6, r7, lr}
  34              		.cfi_def_cfa_offset 20
  35              		.cfi_offset 4, -20
  36              		.cfi_offset 5, -16
  37              		.cfi_offset 6, -12
  38              		.cfi_offset 7, -8
  39              		.cfi_offset 14, -4
  40 0002 FDB0     		sub	sp, sp, #500
  41              		.cfi_def_cfa_offset 520
  42 0004 0400     		movs	r4, r0
  43 0006 0D00     		movs	r5, r1
  44 0008 1600     		movs	r6, r2
  45 000a 1F00     		movs	r7, r3
   8:sign.c        ****     sha512_context hash;
   9:sign.c        ****     unsigned char hram[64];
  10:sign.c        ****     unsigned char r[64];
  11:sign.c        ****     ge_p3 R;
  12:sign.c        **** 
ARM GAS  C:\Users\NIGHDR~1\AppData\Local\Temp\cc0ujGcy.s 			page 2


  13:sign.c        **** 
  14:sign.c        ****     sha512_init(&hash);
  46              		.loc 1 14 0
  47 000c 48A8     		add	r0, sp, #288
  48              	.LVL1:
  49 000e FFF7FEFF 		bl	sha512_init
  50              	.LVL2:
  15:sign.c        ****     sha512_update(&hash, private_key + 32, 32);
  51              		.loc 1 15 0
  52 0012 8299     		ldr	r1, [sp, #520]
  53 0014 2031     		adds	r1, r1, #32
  54 0016 2022     		movs	r2, #32
  55 0018 48A8     		add	r0, sp, #288
  56 001a FFF7FEFF 		bl	sha512_update
  57              	.LVL3:
  16:sign.c        ****     sha512_update(&hash, message, message_len);
  58              		.loc 1 16 0
  59 001e 3200     		movs	r2, r6
  60 0020 2900     		movs	r1, r5
  61 0022 48A8     		add	r0, sp, #288
  62 0024 FFF7FEFF 		bl	sha512_update
  63              	.LVL4:
  17:sign.c        ****     sha512_final(&hash, r);
  64              		.loc 1 17 0
  65 0028 28A9     		add	r1, sp, #160
  66 002a 48A8     		add	r0, sp, #288
  67 002c FFF7FEFF 		bl	sha512_final
  68              	.LVL5:
  18:sign.c        **** 
  19:sign.c        ****     sc_reduce(r);
  69              		.loc 1 19 0
  70 0030 28A8     		add	r0, sp, #160
  71 0032 FFF7FEFF 		bl	sc_reduce
  72              	.LVL6:
  20:sign.c        ****     ge_scalarmult_base(&R, r);
  73              		.loc 1 20 0
  74 0036 28A9     		add	r1, sp, #160
  75 0038 6846     		mov	r0, sp
  76 003a FFF7FEFF 		bl	ge_scalarmult_base
  77              	.LVL7:
  21:sign.c        ****     ge_p3_tobytes(signature, &R);
  78              		.loc 1 21 0
  79 003e 6946     		mov	r1, sp
  80 0040 2000     		movs	r0, r4
  81 0042 FFF7FEFF 		bl	ge_p3_tobytes
  82              	.LVL8:
  22:sign.c        **** 
  23:sign.c        ****     sha512_init(&hash);
  83              		.loc 1 23 0
  84 0046 48A8     		add	r0, sp, #288
  85 0048 FFF7FEFF 		bl	sha512_init
  86              	.LVL9:
  24:sign.c        ****     sha512_update(&hash, signature, 32);
  87              		.loc 1 24 0
  88 004c 2022     		movs	r2, #32
  89 004e 2100     		movs	r1, r4
  90 0050 48A8     		add	r0, sp, #288
ARM GAS  C:\Users\NIGHDR~1\AppData\Local\Temp\cc0ujGcy.s 			page 3


  91 0052 FFF7FEFF 		bl	sha512_update
  92              	.LVL10:
  25:sign.c        ****     sha512_update(&hash, public_key, 32);
  93              		.loc 1 25 0
  94 0056 2022     		movs	r2, #32
  95 0058 3900     		movs	r1, r7
  96 005a 48A8     		add	r0, sp, #288
  97 005c FFF7FEFF 		bl	sha512_update
  98              	.LVL11:
  26:sign.c        ****     sha512_update(&hash, message, message_len);
  99              		.loc 1 26 0
 100 0060 3200     		movs	r2, r6
 101 0062 2900     		movs	r1, r5
 102 0064 48A8     		add	r0, sp, #288
 103 0066 FFF7FEFF 		bl	sha512_update
 104              	.LVL12:
  27:sign.c        ****     sha512_final(&hash, hram);
 105              		.loc 1 27 0
 106 006a 38A9     		add	r1, sp, #224
 107 006c 48A8     		add	r0, sp, #288
 108 006e FFF7FEFF 		bl	sha512_final
 109              	.LVL13:
  28:sign.c        **** 
  29:sign.c        ****     sc_reduce(hram);
 110              		.loc 1 29 0
 111 0072 38A8     		add	r0, sp, #224
 112 0074 FFF7FEFF 		bl	sc_reduce
 113              	.LVL14:
  30:sign.c        ****     sc_muladd(signature + 32, hram, private_key, r);
 114              		.loc 1 30 0
 115 0078 2000     		movs	r0, r4
 116 007a 2030     		adds	r0, r0, #32
 117 007c 28AB     		add	r3, sp, #160
 118 007e 829A     		ldr	r2, [sp, #520]
 119 0080 38A9     		add	r1, sp, #224
 120 0082 FFF7FEFF 		bl	sc_muladd
 121              	.LVL15:
  31:sign.c        **** }
 122              		.loc 1 31 0
 123 0086 7DB0     		add	sp, sp, #500
 124              		@ sp needed
 125              	.LVL16:
 126              	.LVL17:
 127              	.LVL18:
 128              	.LVL19:
 129 0088 F0BD     		pop	{r4, r5, r6, r7, pc}
 130              		.cfi_endproc
 131              	.LFE0:
 132              		.size	ed25519_sign, .-ed25519_sign
 133 008a C046     		.text
 134              	.Letext0:
 135              		.file 2 "c:\\program files (x86)\\cypress\\psoc creator\\4.1\\psoc creator\\import\\gnu\\arm\\5.4.
 136              		.file 3 "c:\\program files (x86)\\cypress\\psoc creator\\4.1\\psoc creator\\import\\gnu\\arm\\5.4.
 137              		.file 4 "c:\\program files (x86)\\cypress\\psoc creator\\4.1\\psoc creator\\import\\gnu\\arm\\5.4.
 138              		.file 5 "sha512.h"
 139              		.file 6 "ge.h"
 140              		.file 7 "sc.h"
ARM GAS  C:\Users\NIGHDR~1\AppData\Local\Temp\cc0ujGcy.s 			page 4


 141              		.file 8 "fe.h"