ARM GAS  C:\Users\Admin\AppData\Local\Temp\ccJCivn4.s 			page 1


   1              		.syntax unified
   2              		.cpu cortex-m0
   3              		.fpu softvfp
   4              		.eabi_attribute 20, 1
   5              		.eabi_attribute 21, 1
   6              		.eabi_attribute 23, 3
   7              		.eabi_attribute 24, 1
   8              		.eabi_attribute 25, 1
   9              		.eabi_attribute 26, 1
  10              		.eabi_attribute 30, 1
  11              		.eabi_attribute 34, 0
  12              		.eabi_attribute 18, 4
  13              		.thumb
  14              		.syntax unified
  15              		.file	"SuperFastHash.c"
  16              		.text
  17              	.Ltext0:
  18              		.cfi_sections	.debug_frame
  19              		.section	.text.hash_inc,"ax",%progbits
  20              		.align	2
  21              		.global	hash_inc
  22              		.code	16
  23              		.thumb_func
  24              		.type	hash_inc, %function
  25              	hash_inc:
  26              	.LFB1:
  27              		.file 1 "SuperFastHash.c"
   1:SuperFastHash.c **** #include "SuperFastHash.h"
   2:SuperFastHash.c **** #include <stdlib.h>
   3:SuperFastHash.c **** #include <stdint.h>
   4:SuperFastHash.c **** 
   5:SuperFastHash.c **** #undef get16bits
   6:SuperFastHash.c **** #if (defined(__GNUC__) && defined(__i386__)) || defined(__WATCOMC__) \
   7:SuperFastHash.c ****     || defined(_MSC_VER) || defined (__BORLANDC__) || defined (__TURBOC__)
   8:SuperFastHash.c **** #define get16bits(d) (*((const uint16_t *) (d)))
   9:SuperFastHash.c **** #endif
  10:SuperFastHash.c **** 
  11:SuperFastHash.c **** #if !defined (get16bits)
  12:SuperFastHash.c **** #define get16bits(d) ((((uint32_t)(((const uint8_t *)(d))[1])) << 8)\
  13:SuperFastHash.c ****         +(uint32_t)(((const uint8_t *)(d))[0]) )
  14:SuperFastHash.c **** #endif
  15:SuperFastHash.c **** 
  16:SuperFastHash.c **** uint32_t hash(const char * data, int len)
  17:SuperFastHash.c **** {
  18:SuperFastHash.c ****     return hash_inc(data, len, (uint32_t) len);
  19:SuperFastHash.c **** }
  20:SuperFastHash.c **** 
  21:SuperFastHash.c **** uint32_t hash_inc(const char * data, int len, uint32_t hash)
  22:SuperFastHash.c **** {
  28              		.loc 1 22 0
  29              		.cfi_startproc
  30              		@ args = 0, pretend = 0, frame = 0
  31              		@ frame_needed = 0, uses_anonymous_args = 0
  32              	.LVL0:
  33 0000 30B5     		push	{r4, r5, lr}
  34              		.cfi_def_cfa_offset 12
  35              		.cfi_offset 4, -12
ARM GAS  C:\Users\Admin\AppData\Local\Temp\ccJCivn4.s 			page 2


  36              		.cfi_offset 5, -8
  37              		.cfi_offset 14, -4
  23:SuperFastHash.c ****     uint32_t tmp;
  24:SuperFastHash.c ****     int rem;
  25:SuperFastHash.c **** 
  26:SuperFastHash.c ****     if (len <= 0 || data == NULL) return 0;
  38              		.loc 1 26 0
  39 0002 0029     		cmp	r1, #0
  40 0004 4ADD     		ble	.L9
  41              		.loc 1 26 0 is_stmt 0 discriminator 2
  42 0006 0028     		cmp	r0, #0
  43 0008 4AD0     		beq	.L10
  27:SuperFastHash.c **** 
  28:SuperFastHash.c ****     rem = len & 3; //mod 3
  44              		.loc 1 28 0 is_stmt 1
  45 000a 0325     		movs	r5, #3
  46 000c 0D40     		ands	r5, r1
  47              	.LVL1:
  29:SuperFastHash.c ****     len >>= 2;
  48              		.loc 1 29 0
  49 000e 8910     		asrs	r1, r1, #2
  50              	.LVL2:
  30:SuperFastHash.c **** 
  31:SuperFastHash.c ****     /* Main loop */
  32:SuperFastHash.c ****     for (;len > 0; len--) {
  51              		.loc 1 32 0
  52 0010 10E0     		b	.L3
  53              	.L4:
  33:SuperFastHash.c ****         hash  += get16bits (data);
  54              		.loc 1 33 0 discriminator 2
  55 0012 4378     		ldrb	r3, [r0, #1]
  56 0014 1B02     		lsls	r3, r3, #8
  57 0016 0478     		ldrb	r4, [r0]
  58 0018 1B19     		adds	r3, r3, r4
  59 001a D318     		adds	r3, r2, r3
  60              	.LVL3:
  34:SuperFastHash.c ****         tmp    = (get16bits (data+2) << 11) ^ hash;
  61              		.loc 1 34 0 discriminator 2
  62 001c C278     		ldrb	r2, [r0, #3]
  63 001e 1202     		lsls	r2, r2, #8
  64 0020 8478     		ldrb	r4, [r0, #2]
  65 0022 1219     		adds	r2, r2, r4
  66 0024 D202     		lsls	r2, r2, #11
  67 0026 5A40     		eors	r2, r3
  68              	.LVL4:
  35:SuperFastHash.c ****         hash   = (hash << 16) ^ tmp;
  69              		.loc 1 35 0 discriminator 2
  70 0028 1B04     		lsls	r3, r3, #16
  71              	.LVL5:
  72 002a 5A40     		eors	r2, r3
  73              	.LVL6:
  36:SuperFastHash.c ****         data  += 2*sizeof (uint16_t);
  74              		.loc 1 36 0 discriminator 2
  75 002c 0430     		adds	r0, r0, #4
  76              	.LVL7:
  37:SuperFastHash.c ****         hash  += hash >> 11;
  77              		.loc 1 37 0 discriminator 2
ARM GAS  C:\Users\Admin\AppData\Local\Temp\ccJCivn4.s 			page 3


  78 002e D30A     		lsrs	r3, r2, #11
  79 0030 D218     		adds	r2, r2, r3
  80              	.LVL8:
  32:SuperFastHash.c ****         hash  += get16bits (data);
  81              		.loc 1 32 0 discriminator 2
  82 0032 0139     		subs	r1, r1, #1
  83              	.LVL9:
  84              	.L3:
  32:SuperFastHash.c ****         hash  += get16bits (data);
  85              		.loc 1 32 0 is_stmt 0 discriminator 1
  86 0034 0029     		cmp	r1, #0
  87 0036 ECDC     		bgt	.L4
  38:SuperFastHash.c ****     }
  39:SuperFastHash.c **** 
  40:SuperFastHash.c ****     /* Handle end cases */
  41:SuperFastHash.c ****     switch (rem) {
  88              		.loc 1 41 0 is_stmt 1
  89 0038 022D     		cmp	r5, #2
  90 003a 12D0     		beq	.L6
  91 003c 032D     		cmp	r5, #3
  92 003e 02D0     		beq	.L7
  93 0040 012D     		cmp	r5, #1
  94 0042 1ED1     		bne	.L5
  95 0044 17E0     		b	.L8
  96              	.L7:
  42:SuperFastHash.c ****         case 3: hash += get16bits (data);
  97              		.loc 1 42 0
  98 0046 4378     		ldrb	r3, [r0, #1]
  99 0048 1B02     		lsls	r3, r3, #8
 100 004a 0178     		ldrb	r1, [r0]
 101              	.LVL10:
 102 004c 5B18     		adds	r3, r3, r1
 103 004e D218     		adds	r2, r2, r3
 104              	.LVL11:
  43:SuperFastHash.c ****                 hash ^= hash << 16;
 105              		.loc 1 43 0
 106 0050 1104     		lsls	r1, r2, #16
 107 0052 1300     		movs	r3, r2
 108 0054 4B40     		eors	r3, r1
 109              	.LVL12:
  44:SuperFastHash.c ****                 hash ^= data[sizeof (uint16_t)] << 18;
 110              		.loc 1 44 0
 111 0056 8278     		ldrb	r2, [r0, #2]
 112 0058 9204     		lsls	r2, r2, #18
 113 005a 5A40     		eors	r2, r3
 114              	.LVL13:
  45:SuperFastHash.c ****                 hash += hash >> 11;
 115              		.loc 1 45 0
 116 005c D30A     		lsrs	r3, r2, #11
 117 005e D218     		adds	r2, r2, r3
 118              	.LVL14:
  46:SuperFastHash.c ****                 break;
 119              		.loc 1 46 0
 120 0060 0FE0     		b	.L5
 121              	.LVL15:
 122              	.L6:
  47:SuperFastHash.c ****         case 2: hash += get16bits (data);
ARM GAS  C:\Users\Admin\AppData\Local\Temp\ccJCivn4.s 			page 4


 123              		.loc 1 47 0
 124 0062 4378     		ldrb	r3, [r0, #1]
 125 0064 1B02     		lsls	r3, r3, #8
 126 0066 0178     		ldrb	r1, [r0]
 127              	.LVL16:
 128 0068 5B18     		adds	r3, r3, r1
 129 006a D218     		adds	r2, r2, r3
 130              	.LVL17:
  48:SuperFastHash.c ****                 hash ^= hash << 11;
 131              		.loc 1 48 0
 132 006c D302     		lsls	r3, r2, #11
 133 006e 5A40     		eors	r2, r3
 134              	.LVL18:
  49:SuperFastHash.c ****                 hash += hash >> 17;
 135              		.loc 1 49 0
 136 0070 530C     		lsrs	r3, r2, #17
 137 0072 D218     		adds	r2, r2, r3
 138              	.LVL19:
  50:SuperFastHash.c ****                 break;
 139              		.loc 1 50 0
 140 0074 05E0     		b	.L5
 141              	.LVL20:
 142              	.L8:
  51:SuperFastHash.c ****         case 1: hash += *data;
 143              		.loc 1 51 0
 144 0076 0378     		ldrb	r3, [r0]
 145 0078 9A18     		adds	r2, r3, r2
 146              	.LVL21:
  52:SuperFastHash.c ****                 hash ^= hash << 10;
 147              		.loc 1 52 0
 148 007a 9102     		lsls	r1, r2, #10
 149              	.LVL22:
 150 007c 4A40     		eors	r2, r1
 151              	.LVL23:
  53:SuperFastHash.c ****                 hash += hash >> 1;
 152              		.loc 1 53 0
 153 007e 5308     		lsrs	r3, r2, #1
 154 0080 D218     		adds	r2, r2, r3
 155              	.LVL24:
 156              	.L5:
  54:SuperFastHash.c ****     }
  55:SuperFastHash.c **** 
  56:SuperFastHash.c ****     /* Force "avalanching" of final 127 bits */
  57:SuperFastHash.c ****     hash ^= hash << 3;
 157              		.loc 1 57 0
 158 0082 D000     		lsls	r0, r2, #3
 159              	.LVL25:
 160 0084 4240     		eors	r2, r0
 161              	.LVL26:
  58:SuperFastHash.c ****     hash += hash >> 5;
 162              		.loc 1 58 0
 163 0086 5109     		lsrs	r1, r2, #5
 164 0088 5018     		adds	r0, r2, r1
 165              	.LVL27:
  59:SuperFastHash.c ****     hash ^= hash << 4;
 166              		.loc 1 59 0
 167 008a 0101     		lsls	r1, r0, #4
ARM GAS  C:\Users\Admin\AppData\Local\Temp\ccJCivn4.s 			page 5


 168 008c 4840     		eors	r0, r1
 169              	.LVL28:
  60:SuperFastHash.c ****     hash += hash >> 17;
 170              		.loc 1 60 0
 171 008e 410C     		lsrs	r1, r0, #17
 172 0090 4018     		adds	r0, r0, r1
 173              	.LVL29:
  61:SuperFastHash.c ****     hash ^= hash << 25;
 174              		.loc 1 61 0
 175 0092 4106     		lsls	r1, r0, #25
 176 0094 4840     		eors	r0, r1
 177              	.LVL30:
  62:SuperFastHash.c ****     hash += hash >> 6;
 178              		.loc 1 62 0
 179 0096 8309     		lsrs	r3, r0, #6
 180 0098 C018     		adds	r0, r0, r3
 181              	.LVL31:
  63:SuperFastHash.c **** 
  64:SuperFastHash.c ****     return hash;
 182              		.loc 1 64 0
 183 009a 02E0     		b	.L2
 184              	.LVL32:
 185              	.L9:
  26:SuperFastHash.c **** 
 186              		.loc 1 26 0
 187 009c 0020     		movs	r0, #0
 188              	.LVL33:
 189 009e 00E0     		b	.L2
 190              	.LVL34:
 191              	.L10:
 192 00a0 0020     		movs	r0, #0
 193              	.LVL35:
 194              	.L2:
  65:SuperFastHash.c **** }...
 195              		.loc 1 65 0
 196              		@ sp needed
 197 00a2 30BD     		pop	{r4, r5, pc}
 198              		.cfi_endproc
 199              	.LFE1:
 200              		.size	hash_inc, .-hash_inc
 201              		.section	.text.hash,"ax",%progbits
 202              		.align	2
 203              		.global	hash
 204              		.code	16
 205              		.thumb_func
 206              		.type	hash, %function
 207              	hash:
 208              	.LFB0:
  17:SuperFastHash.c **** {
 209              		.loc 1 17 0
 210              		.cfi_startproc
 211              		@ args = 0, pretend = 0, frame = 0
 212              		@ frame_needed = 0, uses_anonymous_args = 0
 213              	.LVL36:
 214 0000 10B5     		push	{r4, lr}
 215              		.cfi_def_cfa_offset 8
 216              		.cfi_offset 4, -8
ARM GAS  C:\Users\Admin\AppData\Local\Temp\ccJCivn4.s 			page 6


 217              		.cfi_offset 14, -4
  18:SuperFastHash.c ****     return hash_inc(data, len, (uint32_t) len);
 218              		.loc 1 18 0
 219 0002 0A00     		movs	r2, r1
 220 0004 FFF7FEFF 		bl	hash_inc
 221              	.LVL37:
  19:SuperFastHash.c **** }
 222              		.loc 1 19 0
 223              		@ sp needed
 224 0008 10BD     		pop	{r4, pc}
 225              		.cfi_endproc
 226              	.LFE0:
 227              		.size	hash, .-hash
 228 000a C046     		.text
 229              	.Letext0:
 230              		.file 2 "c:\\program files (x86)\\cypress\\psoc creator\\4.1\\psoc creator\\import\\gnu\\arm\\5.4.
 231              		.file 3 "c:\\program files (x86)\\cypress\\psoc creator\\4.1\\psoc creator\\import\\gnu\\arm\\5.4.