ARM GAS  C:\Users\NIGHDR~1\AppData\Local\Temp\ccuusuHF.s 			page 1


   1              		.syntax unified
   2              		.cpu cortex-m0
   3              		.fpu softvfp
   4              		.eabi_attribute 20, 1
   5              		.eabi_attribute 21, 1
   6              		.eabi_attribute 23, 3
   7              		.eabi_attribute 24, 1
   8              		.eabi_attribute 25, 1
   9              		.eabi_attribute 26, 1
  10              		.eabi_attribute 30, 1
  11              		.eabi_attribute 34, 0
  12              		.eabi_attribute 18, 4
  13              		.thumb
  14              		.syntax unified
  15              		.file	"verify.c"
  16              		.text
  17              	.Ltext0:
  18              		.cfi_sections	.debug_frame
  19              		.section	.text.consttime_equal,"ax",%progbits
  20              		.align	2
  21              		.code	16
  22              		.thumb_func
  23              		.type	consttime_equal, %function
  24              	consttime_equal:
  25              	.LFB0:
  26              		.file 1 "verify.c"
   1:verify.c      **** #include "ed25519.h"
   2:verify.c      **** #include "sha512.h"
   3:verify.c      **** #include "ge.h"
   4:verify.c      **** #include "sc.h"
   5:verify.c      **** 
   6:verify.c      **** static int consttime_equal(const unsigned char *x, const unsigned char *y) {
  27              		.loc 1 6 0
  28              		.cfi_startproc
  29              		@ args = 0, pretend = 0, frame = 0
  30              		@ frame_needed = 0, uses_anonymous_args = 0
  31              	.LVL0:
  32 0000 10B5     		push	{r4, lr}
  33              		.cfi_def_cfa_offset 8
  34              		.cfi_offset 4, -8
  35              		.cfi_offset 14, -4
  36              	.LVL1:
   7:verify.c      ****     unsigned char r = 0;
   8:verify.c      **** 
   9:verify.c      ****     r = x[0] ^ y[0];
  37              		.loc 1 9 0
  38 0002 0278     		ldrb	r2, [r0]
  39 0004 0B78     		ldrb	r3, [r1]
  40 0006 5A40     		eors	r2, r3
  41              	.LVL2:
  10:verify.c      ****     #define F(i) r |= x[i] ^ y[i]
  11:verify.c      ****     F(1);
  42              		.loc 1 11 0
  43 0008 4478     		ldrb	r4, [r0, #1]
  44 000a 4B78     		ldrb	r3, [r1, #1]
  45 000c 6340     		eors	r3, r4
  46 000e 1A43     		orrs	r2, r3
ARM GAS  C:\Users\NIGHDR~1\AppData\Local\Temp\ccuusuHF.s 			page 2


  47              	.LVL3:
  48 0010 1400     		movs	r4, r2
  49              	.LVL4:
  12:verify.c      ****     F(2);
  50              		.loc 1 12 0
  51 0012 8278     		ldrb	r2, [r0, #2]
  52 0014 8B78     		ldrb	r3, [r1, #2]
  53 0016 5340     		eors	r3, r2
  54 0018 2200     		movs	r2, r4
  55 001a 1A43     		orrs	r2, r3
  56              	.LVL5:
  13:verify.c      ****     F(3);
  57              		.loc 1 13 0
  58 001c C478     		ldrb	r4, [r0, #3]
  59 001e CB78     		ldrb	r3, [r1, #3]
  60 0020 6340     		eors	r3, r4
  61 0022 1A43     		orrs	r2, r3
  62              	.LVL6:
  63 0024 1400     		movs	r4, r2
  64              	.LVL7:
  14:verify.c      ****     F(4);
  65              		.loc 1 14 0
  66 0026 0279     		ldrb	r2, [r0, #4]
  67 0028 0B79     		ldrb	r3, [r1, #4]
  68 002a 5340     		eors	r3, r2
  69 002c 2200     		movs	r2, r4
  70 002e 1A43     		orrs	r2, r3
  71              	.LVL8:
  15:verify.c      ****     F(5);
  72              		.loc 1 15 0
  73 0030 4479     		ldrb	r4, [r0, #5]
  74 0032 4B79     		ldrb	r3, [r1, #5]
  75 0034 6340     		eors	r3, r4
  76 0036 1A43     		orrs	r2, r3
  77              	.LVL9:
  78 0038 1400     		movs	r4, r2
  79              	.LVL10:
  16:verify.c      ****     F(6);
  80              		.loc 1 16 0
  81 003a 8279     		ldrb	r2, [r0, #6]
  82 003c 8B79     		ldrb	r3, [r1, #6]
  83 003e 5340     		eors	r3, r2
  84 0040 2200     		movs	r2, r4
  85 0042 1A43     		orrs	r2, r3
  86              	.LVL11:
  17:verify.c      ****     F(7);
  87              		.loc 1 17 0
  88 0044 C479     		ldrb	r4, [r0, #7]
  89 0046 CB79     		ldrb	r3, [r1, #7]
  90 0048 6340     		eors	r3, r4
  91 004a 1A43     		orrs	r2, r3
  92              	.LVL12:
  93 004c 1400     		movs	r4, r2
  94              	.LVL13:
  18:verify.c      ****     F(8);
  95              		.loc 1 18 0
  96 004e 027A     		ldrb	r2, [r0, #8]
ARM GAS  C:\Users\NIGHDR~1\AppData\Local\Temp\ccuusuHF.s 			page 3


  97 0050 0B7A     		ldrb	r3, [r1, #8]
  98 0052 5340     		eors	r3, r2
  99 0054 2200     		movs	r2, r4
 100 0056 1A43     		orrs	r2, r3
 101              	.LVL14:
  19:verify.c      ****     F(9);
 102              		.loc 1 19 0
 103 0058 447A     		ldrb	r4, [r0, #9]
 104 005a 4B7A     		ldrb	r3, [r1, #9]
 105 005c 6340     		eors	r3, r4
 106 005e 1A43     		orrs	r2, r3
 107              	.LVL15:
 108 0060 1400     		movs	r4, r2
 109              	.LVL16:
  20:verify.c      ****     F(10);
 110              		.loc 1 20 0
 111 0062 827A     		ldrb	r2, [r0, #10]
 112 0064 8B7A     		ldrb	r3, [r1, #10]
 113 0066 5340     		eors	r3, r2
 114 0068 2200     		movs	r2, r4
 115 006a 1A43     		orrs	r2, r3
 116              	.LVL17:
  21:verify.c      ****     F(11);
 117              		.loc 1 21 0
 118 006c C47A     		ldrb	r4, [r0, #11]
 119 006e CB7A     		ldrb	r3, [r1, #11]
 120 0070 6340     		eors	r3, r4
 121 0072 1A43     		orrs	r2, r3
 122              	.LVL18:
 123 0074 1400     		movs	r4, r2
 124              	.LVL19:
  22:verify.c      ****     F(12);
 125              		.loc 1 22 0
 126 0076 027B     		ldrb	r2, [r0, #12]
 127 0078 0B7B     		ldrb	r3, [r1, #12]
 128 007a 5340     		eors	r3, r2
 129 007c 2200     		movs	r2, r4
 130 007e 1A43     		orrs	r2, r3
 131              	.LVL20:
  23:verify.c      ****     F(13);
 132              		.loc 1 23 0
 133 0080 447B     		ldrb	r4, [r0, #13]
 134 0082 4B7B     		ldrb	r3, [r1, #13]
 135 0084 6340     		eors	r3, r4
 136 0086 1A43     		orrs	r2, r3
 137              	.LVL21:
 138 0088 1400     		movs	r4, r2
 139              	.LVL22:
  24:verify.c      ****     F(14);
 140              		.loc 1 24 0
 141 008a 827B     		ldrb	r2, [r0, #14]
 142 008c 8B7B     		ldrb	r3, [r1, #14]
 143 008e 5340     		eors	r3, r2
 144 0090 2200     		movs	r2, r4
 145 0092 1A43     		orrs	r2, r3
 146              	.LVL23:
  25:verify.c      ****     F(15);
ARM GAS  C:\Users\NIGHDR~1\AppData\Local\Temp\ccuusuHF.s 			page 4


 147              		.loc 1 25 0
 148 0094 C47B     		ldrb	r4, [r0, #15]
 149 0096 CB7B     		ldrb	r3, [r1, #15]
 150 0098 6340     		eors	r3, r4
 151 009a 1A43     		orrs	r2, r3
 152              	.LVL24:
 153 009c 1400     		movs	r4, r2
 154              	.LVL25:
  26:verify.c      ****     F(16);
 155              		.loc 1 26 0
 156 009e 027C     		ldrb	r2, [r0, #16]
 157 00a0 0B7C     		ldrb	r3, [r1, #16]
 158 00a2 5340     		eors	r3, r2
 159 00a4 2200     		movs	r2, r4
 160 00a6 1A43     		orrs	r2, r3
 161              	.LVL26:
  27:verify.c      ****     F(17);
 162              		.loc 1 27 0
 163 00a8 447C     		ldrb	r4, [r0, #17]
 164 00aa 4B7C     		ldrb	r3, [r1, #17]
 165 00ac 6340     		eors	r3, r4
 166 00ae 1A43     		orrs	r2, r3
 167              	.LVL27:
 168 00b0 1400     		movs	r4, r2
 169              	.LVL28:
  28:verify.c      ****     F(18);
 170              		.loc 1 28 0
 171 00b2 827C     		ldrb	r2, [r0, #18]
 172 00b4 8B7C     		ldrb	r3, [r1, #18]
 173 00b6 5340     		eors	r3, r2
 174 00b8 2200     		movs	r2, r4
 175 00ba 1A43     		orrs	r2, r3
 176              	.LVL29:
  29:verify.c      ****     F(19);
 177              		.loc 1 29 0
 178 00bc C47C     		ldrb	r4, [r0, #19]
 179 00be CB7C     		ldrb	r3, [r1, #19]
 180 00c0 6340     		eors	r3, r4
 181 00c2 1A43     		orrs	r2, r3
 182              	.LVL30:
 183 00c4 1400     		movs	r4, r2
 184              	.LVL31:
  30:verify.c      ****     F(20);
 185              		.loc 1 30 0
 186 00c6 027D     		ldrb	r2, [r0, #20]
 187 00c8 0B7D     		ldrb	r3, [r1, #20]
 188 00ca 5340     		eors	r3, r2
 189 00cc 2200     		movs	r2, r4
 190 00ce 1A43     		orrs	r2, r3
 191              	.LVL32:
  31:verify.c      ****     F(21);
 192              		.loc 1 31 0
 193 00d0 447D     		ldrb	r4, [r0, #21]
 194 00d2 4B7D     		ldrb	r3, [r1, #21]
 195 00d4 6340     		eors	r3, r4
 196 00d6 1A43     		orrs	r2, r3
 197              	.LVL33:
ARM GAS  C:\Users\NIGHDR~1\AppData\Local\Temp\ccuusuHF.s 			page 5


 198 00d8 1400     		movs	r4, r2
 199              	.LVL34:
  32:verify.c      ****     F(22);
 200              		.loc 1 32 0
 201 00da 827D     		ldrb	r2, [r0, #22]
 202 00dc 8B7D     		ldrb	r3, [r1, #22]
 203 00de 5340     		eors	r3, r2
 204 00e0 2200     		movs	r2, r4
 205 00e2 1A43     		orrs	r2, r3
 206              	.LVL35:
  33:verify.c      ****     F(23);
 207              		.loc 1 33 0
 208 00e4 C47D     		ldrb	r4, [r0, #23]
 209 00e6 CB7D     		ldrb	r3, [r1, #23]
 210 00e8 6340     		eors	r3, r4
 211 00ea 1A43     		orrs	r2, r3
 212              	.LVL36:
 213 00ec 1400     		movs	r4, r2
 214              	.LVL37:
  34:verify.c      ****     F(24);
 215              		.loc 1 34 0
 216 00ee 027E     		ldrb	r2, [r0, #24]
 217 00f0 0B7E     		ldrb	r3, [r1, #24]
 218 00f2 5340     		eors	r3, r2
 219 00f4 2200     		movs	r2, r4
 220 00f6 1A43     		orrs	r2, r3
 221              	.LVL38:
  35:verify.c      ****     F(25);
 222              		.loc 1 35 0
 223 00f8 447E     		ldrb	r4, [r0, #25]
 224 00fa 4B7E     		ldrb	r3, [r1, #25]
 225 00fc 6340     		eors	r3, r4
 226 00fe 1A43     		orrs	r2, r3
 227              	.LVL39:
 228 0100 1400     		movs	r4, r2
 229              	.LVL40:
  36:verify.c      ****     F(26);
 230              		.loc 1 36 0
 231 0102 827E     		ldrb	r2, [r0, #26]
 232 0104 8B7E     		ldrb	r3, [r1, #26]
 233 0106 5340     		eors	r3, r2
 234 0108 2200     		movs	r2, r4
 235 010a 1A43     		orrs	r2, r3
 236              	.LVL41:
  37:verify.c      ****     F(27);
 237              		.loc 1 37 0
 238 010c C47E     		ldrb	r4, [r0, #27]
 239 010e CB7E     		ldrb	r3, [r1, #27]
 240 0110 6340     		eors	r3, r4
 241 0112 1A43     		orrs	r2, r3
 242              	.LVL42:
 243 0114 1400     		movs	r4, r2
 244              	.LVL43:
  38:verify.c      ****     F(28);
 245              		.loc 1 38 0
 246 0116 027F     		ldrb	r2, [r0, #28]
 247 0118 0B7F     		ldrb	r3, [r1, #28]
ARM GAS  C:\Users\NIGHDR~1\AppData\Local\Temp\ccuusuHF.s 			page 6


 248 011a 5340     		eors	r3, r2
 249 011c 2200     		movs	r2, r4
 250 011e 1A43     		orrs	r2, r3
 251              	.LVL44:
  39:verify.c      ****     F(29);
 252              		.loc 1 39 0
 253 0120 447F     		ldrb	r4, [r0, #29]
 254 0122 4B7F     		ldrb	r3, [r1, #29]
 255 0124 6340     		eors	r3, r4
 256 0126 1A43     		orrs	r2, r3
 257              	.LVL45:
 258 0128 1400     		movs	r4, r2
 259              	.LVL46:
  40:verify.c      ****     F(30);
 260              		.loc 1 40 0
 261 012a 827F     		ldrb	r2, [r0, #30]
 262 012c 8B7F     		ldrb	r3, [r1, #30]
 263 012e 5340     		eors	r3, r2
 264 0130 2200     		movs	r2, r4
 265 0132 1A43     		orrs	r2, r3
 266              	.LVL47:
  41:verify.c      ****     F(31);
 267              		.loc 1 41 0
 268 0134 C07F     		ldrb	r0, [r0, #31]
 269              	.LVL48:
 270 0136 CB7F     		ldrb	r3, [r1, #31]
 271 0138 4340     		eors	r3, r0
 272 013a 1A43     		orrs	r2, r3
 273              	.LVL49:
 274 013c 1000     		movs	r0, r2
 275              	.LVL50:
  42:verify.c      ****     #undef F
  43:verify.c      **** 
  44:verify.c      ****     return !r;
 276              		.loc 1 44 0
 277 013e 4342     		rsbs	r3, r0, #0
 278 0140 5841     		adcs	r0, r0, r3
 279              	.LVL51:
  45:verify.c      **** }
 280              		.loc 1 45 0
 281              		@ sp needed
 282 0142 10BD     		pop	{r4, pc}
 283              		.cfi_endproc
 284              	.LFE0:
 285              		.size	consttime_equal, .-consttime_equal
 286              		.section	.text.ed25519_verify,"ax",%progbits
 287              		.align	2
 288              		.global	ed25519_verify
 289              		.code	16
 290              		.thumb_func
 291              		.type	ed25519_verify, %function
 292              	ed25519_verify:
 293              	.LFB1:
  46:verify.c      **** 
  47:verify.c      **** int ed25519_verify(const unsigned char *signature, const unsigned char *message, size_t message_len
 294              		.loc 1 47 0
 295              		.cfi_startproc
ARM GAS  C:\Users\NIGHDR~1\AppData\Local\Temp\ccuusuHF.s 			page 7


 296              		@ args = 0, pretend = 0, frame = 584
 297              		@ frame_needed = 0, uses_anonymous_args = 0
 298              	.LVL52:
 299 0000 F0B5     		push	{r4, r5, r6, r7, lr}
 300              		.cfi_def_cfa_offset 20
 301              		.cfi_offset 4, -20
 302              		.cfi_offset 5, -16
 303              		.cfi_offset 6, -12
 304              		.cfi_offset 7, -8
 305              		.cfi_offset 14, -4
 306 0002 224C     		ldr	r4, .L7
 307 0004 A544     		add	sp, sp, r4
 308              		.cfi_def_cfa_offset 608
 309 0006 0700     		movs	r7, r0
 310 0008 0D00     		movs	r5, r1
 311 000a 1600     		movs	r6, r2
 312 000c 1C00     		movs	r4, r3
  48:verify.c      ****     unsigned char h[64];
  49:verify.c      ****     unsigned char checker[32];
  50:verify.c      ****     sha512_context hash;
  51:verify.c      ****     ge_p3 A;
  52:verify.c      ****     ge_p2 R;
  53:verify.c      **** 
  54:verify.c      ****     if (signature[63] & 224) {
 313              		.loc 1 54 0
 314 000e 3F23     		movs	r3, #63
 315              	.LVL53:
 316 0010 C35C     		ldrb	r3, [r0, r3]
 317 0012 1F22     		movs	r2, #31
 318              	.LVL54:
 319 0014 9343     		bics	r3, r2
 320 0016 30D1     		bne	.L4
  55:verify.c      ****         return 0;
  56:verify.c      ****     }
  57:verify.c      **** 
  58:verify.c      ****     if (ge_frombytes_negate_vartime(&A, public_key) != 0) {
 321              		.loc 1 58 0
 322 0018 2100     		movs	r1, r4
 323              	.LVL55:
 324 001a 1EA8     		add	r0, sp, #120
 325              	.LVL56:
 326 001c FFF7FEFF 		bl	ge_frombytes_negate_vartime
 327              	.LVL57:
 328 0020 0028     		cmp	r0, #0
 329 0022 2CD1     		bne	.L5
  59:verify.c      ****         return 0;
  60:verify.c      ****     }
  61:verify.c      **** 
  62:verify.c      ****     sha512_init(&hash);
 330              		.loc 1 62 0
 331 0024 46A8     		add	r0, sp, #280
 332 0026 FFF7FEFF 		bl	sha512_init
 333              	.LVL58:
  63:verify.c      ****     sha512_update(&hash, signature, 32);
 334              		.loc 1 63 0
 335 002a 2022     		movs	r2, #32
 336 002c 3900     		movs	r1, r7
ARM GAS  C:\Users\NIGHDR~1\AppData\Local\Temp\ccuusuHF.s 			page 8


 337 002e 46A8     		add	r0, sp, #280
 338 0030 FFF7FEFF 		bl	sha512_update
 339              	.LVL59:
  64:verify.c      ****     sha512_update(&hash, public_key, 32);
 340              		.loc 1 64 0
 341 0034 2022     		movs	r2, #32
 342 0036 2100     		movs	r1, r4
 343 0038 46A8     		add	r0, sp, #280
 344 003a FFF7FEFF 		bl	sha512_update
 345              	.LVL60:
  65:verify.c      ****     sha512_update(&hash, message, message_len);
 346              		.loc 1 65 0
 347 003e 3200     		movs	r2, r6
 348 0040 2900     		movs	r1, r5
 349 0042 46A8     		add	r0, sp, #280
 350 0044 FFF7FEFF 		bl	sha512_update
 351              	.LVL61:
  66:verify.c      ****     sha512_final(&hash, h);
 352              		.loc 1 66 0
 353 0048 82A9     		add	r1, sp, #520
 354 004a 46A8     		add	r0, sp, #280
 355 004c FFF7FEFF 		bl	sha512_final
 356              	.LVL62:
  67:verify.c      ****     
  68:verify.c      ****     sc_reduce(h);
 357              		.loc 1 68 0
 358 0050 82A8     		add	r0, sp, #520
 359 0052 FFF7FEFF 		bl	sc_reduce
 360              	.LVL63:
  69:verify.c      ****     ge_double_scalarmult_vartime(&R, h, &A, signature + 32);
 361              		.loc 1 69 0
 362 0056 3B00     		movs	r3, r7
 363 0058 2033     		adds	r3, r3, #32
 364 005a 1EAA     		add	r2, sp, #120
 365 005c 82A9     		add	r1, sp, #520
 366 005e 6846     		mov	r0, sp
 367 0060 FFF7FEFF 		bl	ge_double_scalarmult_vartime
 368              	.LVL64:
  70:verify.c      ****     ge_tobytes(checker, &R);
 369              		.loc 1 70 0
 370 0064 6946     		mov	r1, sp
 371 0066 7AA8     		add	r0, sp, #488
 372 0068 FFF7FEFF 		bl	ge_tobytes
 373              	.LVL65:
  71:verify.c      **** 
  72:verify.c      ****     if (!consttime_equal(checker, signature)) {
 374              		.loc 1 72 0
 375 006c 3900     		movs	r1, r7
 376 006e 7AA8     		add	r0, sp, #488
 377 0070 FFF7FEFF 		bl	consttime_equal
 378              	.LVL66:
 379 0074 0028     		cmp	r0, #0
 380 0076 04D1     		bne	.L6
 381 0078 04E0     		b	.L3
 382              	.LVL67:
 383              	.L4:
  55:verify.c      ****     }
ARM GAS  C:\Users\NIGHDR~1\AppData\Local\Temp\ccuusuHF.s 			page 9


 384              		.loc 1 55 0
 385 007a 0020     		movs	r0, #0
 386              	.LVL68:
 387 007c 02E0     		b	.L3
 388              	.LVL69:
 389              	.L5:
  59:verify.c      ****     }
 390              		.loc 1 59 0
 391 007e 0020     		movs	r0, #0
 392 0080 00E0     		b	.L3
 393              	.L6:
  73:verify.c      ****         return 0;
  74:verify.c      ****     }
  75:verify.c      **** 
  76:verify.c      ****     return 1;
 394              		.loc 1 76 0
 395 0082 0120     		movs	r0, #1
 396              	.L3:
  77:verify.c      **** }
 397              		.loc 1 77 0
 398 0084 9323     		movs	r3, #147
 399 0086 9B00     		lsls	r3, r3, #2
 400 0088 9D44     		add	sp, sp, r3
 401              		@ sp needed
 402              	.LVL70:
 403              	.LVL71:
 404              	.LVL72:
 405              	.LVL73:
 406 008a F0BD     		pop	{r4, r5, r6, r7, pc}
 407              	.L8:
 408              		.align	2
 409              	.L7:
 410 008c B4FDFFFF 		.word	-588
 411              		.cfi_endproc
 412              	.LFE1:
 413              		.size	ed25519_verify, .-ed25519_verify
 414              		.text
 415              	.Letext0:
 416              		.file 2 "c:\\program files (x86)\\cypress\\psoc creator\\4.1\\psoc creator\\import\\gnu\\arm\\5.4.
 417              		.file 3 "c:\\program files (x86)\\cypress\\psoc creator\\4.1\\psoc creator\\import\\gnu\\arm\\5.4.
 418              		.file 4 "c:\\program files (x86)\\cypress\\psoc creator\\4.1\\psoc creator\\import\\gnu\\arm\\5.4.
 419              		.file 5 "sha512.h"
 420              		.file 6 "ge.h"
 421              		.file 7 "sc.h"
 422              		.file 8 "fe.h"